
TestSchema1.elf:     file format elf32-littlearm

Sections:
Idx Name          Size      VMA       LMA       File off  Algn
  0 .text         00008514  00080000  00080000  00008000  2**3
                  CONTENTS, ALLOC, LOAD, READONLY, CODE
  1 .ARM.exidx    00000008  00088514  00088514  00010514  2**2
                  CONTENTS, ALLOC, LOAD, READONLY, DATA
  2 .relocate     000009ec  20070000  0008851c  00018000  2**3
                  CONTENTS, ALLOC, LOAD, CODE
  3 .bss          0000841c  200709f0  00088f10  000189f0  2**3
                  ALLOC
  4 .stack        00002004  20078e0c  0009132c  000189f0  2**0
                  ALLOC
  5 .ARM.attributes 00000029  00000000  00000000  000189ec  2**0
                  CONTENTS, READONLY
  6 .comment      0000005b  00000000  00000000  00018a15  2**0
                  CONTENTS, READONLY
  7 .debug_info   0001753e  00000000  00000000  00018a70  2**0
                  CONTENTS, READONLY, DEBUGGING
  8 .debug_abbrev 00004086  00000000  00000000  0002ffae  2**0
                  CONTENTS, READONLY, DEBUGGING
  9 .debug_loc    0000970c  00000000  00000000  00034034  2**0
                  CONTENTS, READONLY, DEBUGGING
 10 .debug_aranges 000010a0  00000000  00000000  0003d740  2**0
                  CONTENTS, READONLY, DEBUGGING
 11 .debug_ranges 00000f40  00000000  00000000  0003e7e0  2**0
                  CONTENTS, READONLY, DEBUGGING
 12 .debug_macro  0001ce9e  00000000  00000000  0003f720  2**0
                  CONTENTS, READONLY, DEBUGGING
 13 .debug_line   000191b5  00000000  00000000  0005c5be  2**0
                  CONTENTS, READONLY, DEBUGGING
 14 .debug_str    0006a45f  00000000  00000000  00075773  2**0
                  CONTENTS, READONLY, DEBUGGING
 15 .debug_frame  00003174  00000000  00000000  000dfbd4  2**2
                  CONTENTS, READONLY, DEBUGGING

Disassembly of section .text:

00080000 <_sfixed>:
   80000:	2007ae10 	.word	0x2007ae10
   80004:	00083d19 	.word	0x00083d19
   80008:	00083d15 	.word	0x00083d15
   8000c:	00083d15 	.word	0x00083d15
   80010:	00083d15 	.word	0x00083d15
   80014:	00083d15 	.word	0x00083d15
   80018:	00083d15 	.word	0x00083d15
	...
   8002c:	00082119 	.word	0x00082119
   80030:	00083d15 	.word	0x00083d15
   80034:	00000000 	.word	0x00000000
   80038:	00082195 	.word	0x00082195
   8003c:	000821d1 	.word	0x000821d1
   80040:	00083d15 	.word	0x00083d15
   80044:	00083d15 	.word	0x00083d15
   80048:	00083d15 	.word	0x00083d15
   8004c:	00083d15 	.word	0x00083d15
   80050:	00083d15 	.word	0x00083d15
   80054:	00083d15 	.word	0x00083d15
   80058:	00083d15 	.word	0x00083d15
   8005c:	00083d15 	.word	0x00083d15
   80060:	00083d15 	.word	0x00083d15
   80064:	00083d15 	.word	0x00083d15
   80068:	00000000 	.word	0x00000000
   8006c:	00083b85 	.word	0x00083b85
   80070:	00083b99 	.word	0x00083b99
   80074:	00083bad 	.word	0x00083bad
   80078:	00083bc1 	.word	0x00083bc1
	...
   80084:	00083d15 	.word	0x00083d15
   80088:	00083d15 	.word	0x00083d15
   8008c:	00083d15 	.word	0x00083d15
   80090:	00083d15 	.word	0x00083d15
   80094:	00083d15 	.word	0x00083d15
   80098:	00083d15 	.word	0x00083d15
   8009c:	00083d15 	.word	0x00083d15
   800a0:	00083d15 	.word	0x00083d15
   800a4:	00000000 	.word	0x00000000
   800a8:	00083d15 	.word	0x00083d15
   800ac:	00083d15 	.word	0x00083d15
   800b0:	00083d15 	.word	0x00083d15
   800b4:	00083d15 	.word	0x00083d15
   800b8:	00083d15 	.word	0x00083d15
   800bc:	00083d15 	.word	0x00083d15
   800c0:	00083d15 	.word	0x00083d15
   800c4:	00083d15 	.word	0x00083d15
   800c8:	00083d15 	.word	0x00083d15
   800cc:	00083d15 	.word	0x00083d15
   800d0:	00083d15 	.word	0x00083d15
   800d4:	00083d15 	.word	0x00083d15
   800d8:	00083d15 	.word	0x00083d15
   800dc:	00083d15 	.word	0x00083d15
   800e0:	00083d15 	.word	0x00083d15
   800e4:	00083d15 	.word	0x00083d15
   800e8:	00083d15 	.word	0x00083d15
   800ec:	00083d15 	.word	0x00083d15
   800f0:	00083d15 	.word	0x00083d15

000800f4 <__do_global_dtors_aux>:
   800f4:	b510      	push	{r4, lr}
   800f6:	4c05      	ldr	r4, [pc, #20]	; (8010c <__do_global_dtors_aux+0x18>)
   800f8:	7823      	ldrb	r3, [r4, #0]
   800fa:	b933      	cbnz	r3, 8010a <__do_global_dtors_aux+0x16>
   800fc:	4b04      	ldr	r3, [pc, #16]	; (80110 <__do_global_dtors_aux+0x1c>)
   800fe:	b113      	cbz	r3, 80106 <__do_global_dtors_aux+0x12>
   80100:	4804      	ldr	r0, [pc, #16]	; (80114 <__do_global_dtors_aux+0x20>)
   80102:	f3af 8000 	nop.w
   80106:	2301      	movs	r3, #1
   80108:	7023      	strb	r3, [r4, #0]
   8010a:	bd10      	pop	{r4, pc}
   8010c:	200709f0 	.word	0x200709f0
   80110:	00000000 	.word	0x00000000
   80114:	0008851c 	.word	0x0008851c

00080118 <frame_dummy>:
   80118:	b508      	push	{r3, lr}
   8011a:	4b06      	ldr	r3, [pc, #24]	; (80134 <frame_dummy+0x1c>)
   8011c:	b11b      	cbz	r3, 80126 <frame_dummy+0xe>
   8011e:	4806      	ldr	r0, [pc, #24]	; (80138 <frame_dummy+0x20>)
   80120:	4906      	ldr	r1, [pc, #24]	; (8013c <frame_dummy+0x24>)
   80122:	f3af 8000 	nop.w
   80126:	4806      	ldr	r0, [pc, #24]	; (80140 <frame_dummy+0x28>)
   80128:	6803      	ldr	r3, [r0, #0]
   8012a:	b113      	cbz	r3, 80132 <frame_dummy+0x1a>
   8012c:	4b05      	ldr	r3, [pc, #20]	; (80144 <frame_dummy+0x2c>)
   8012e:	b103      	cbz	r3, 80132 <frame_dummy+0x1a>
   80130:	4798      	blx	r3
   80132:	bd08      	pop	{r3, pc}
   80134:	00000000 	.word	0x00000000
   80138:	0008851c 	.word	0x0008851c
   8013c:	200709f4 	.word	0x200709f4
   80140:	0008851c 	.word	0x0008851c
   80144:	00000000 	.word	0x00000000

00080148 <arlo_arm_init>:
	printf("Position for box: %d, %d\r\n", object_buffer[6], object_buffer[7]);
}

/* Comment here */
void arlo_arm_init()
{
   80148:	b570      	push	{r4, r5, r6, lr}
	printf("Arm initialized?\r\n");
   8014a:	480d      	ldr	r0, [pc, #52]	; (80180 <arlo_arm_init+0x38>)
   8014c:	4b0d      	ldr	r3, [pc, #52]	; (80184 <arlo_arm_init+0x3c>)
   8014e:	4798      	blx	r3
	
	tx_arm_buffer[0] = TWI_CMD_ARM_INIT;
   80150:	4c0d      	ldr	r4, [pc, #52]	; (80188 <arlo_arm_init+0x40>)
   80152:	2320      	movs	r3, #32
   80154:	7023      	strb	r3, [r4, #0]
	tx_arm_buffer[1] = TWI_NO_DATA;
   80156:	2378      	movs	r3, #120	; 0x78
   80158:	7063      	strb	r3, [r4, #1]
	tx_arm_buffer[2] = TWI_NO_DATA;
   8015a:	70a3      	strb	r3, [r4, #2]
	
	twi_arm_init(TWI_CMD_ARM_REQ_BOX_INFO, tx_arm_buffer, rx_arm_buffer);
   8015c:	4d0b      	ldr	r5, [pc, #44]	; (8018c <arlo_arm_init+0x44>)
   8015e:	2002      	movs	r0, #2
   80160:	4621      	mov	r1, r4
   80162:	462a      	mov	r2, r5
   80164:	4e0a      	ldr	r6, [pc, #40]	; (80190 <arlo_arm_init+0x48>)
   80166:	47b0      	blx	r6
	// Do something with rx_arm_buffer
	
	twi_arm_init(TWI_CMD_ARM_REQ_OBJ_INFO, tx_arm_buffer, rx_arm_buffer);
   80168:	2003      	movs	r0, #3
   8016a:	4621      	mov	r1, r4
   8016c:	462a      	mov	r2, r5
   8016e:	47b0      	blx	r6
	// Do something with rx_arm_buffer
	
	/* Get info about the arm's ability to collect */
	twi_arm_init(TWI_CMD_ARM_REQ_COLLECT_INFO, tx_arm_buffer, rx_arm_buffer);
   80170:	2004      	movs	r0, #4
   80172:	4621      	mov	r1, r4
   80174:	462a      	mov	r2, r5
   80176:	47b0      	blx	r6
	arlo_collect_status = rx_arm_buffer[2];
   80178:	78aa      	ldrb	r2, [r5, #2]
   8017a:	4b06      	ldr	r3, [pc, #24]	; (80194 <arlo_arm_init+0x4c>)
   8017c:	701a      	strb	r2, [r3, #0]
   8017e:	bd70      	pop	{r4, r5, r6, pc}
   80180:	00087f80 	.word	0x00087f80
   80184:	00084fd9 	.word	0x00084fd9
   80188:	20070a2c 	.word	0x20070a2c
   8018c:	20070a0c 	.word	0x20070a0c
   80190:	000809d1 	.word	0x000809d1
   80194:	20070138 	.word	0x20070138

00080198 <arlo_get_pick_up_status>:
}

/* Comment here */
Pick_Up_Status arlo_get_pick_up_status()
{
   80198:	b510      	push	{r4, lr}
   8019a:	b082      	sub	sp, #8
	uint8_t tx_buffer[TX_ARM_LENGTH] = {0};
   8019c:	2400      	movs	r4, #0
	tx_buffer[0] = TWI_CMD_PICK_UP_STATUS;
   8019e:	2324      	movs	r3, #36	; 0x24
   801a0:	f88d 3004 	strb.w	r3, [sp, #4]
	tx_buffer[1] = TWI_NO_DATA;
   801a4:	2378      	movs	r3, #120	; 0x78
   801a6:	f88d 3005 	strb.w	r3, [sp, #5]
	tx_buffer[2] = TWI_NO_DATA;
   801aa:	f88d 3006 	strb.w	r3, [sp, #6]
	twi_send_packet(tx_buffer, SLAVE_ADDR_ARM);
   801ae:	a801      	add	r0, sp, #4
   801b0:	2102      	movs	r1, #2
   801b2:	4b09      	ldr	r3, [pc, #36]	; (801d8 <arlo_get_pick_up_status+0x40>)
   801b4:	4798      	blx	r3
	
	uint8_t rx_buffer[RX_ARM_LENGTH] = {0};
   801b6:	f8ad 4000 	strh.w	r4, [sp]
   801ba:	f88d 4002 	strb.w	r4, [sp, #2]
	twi_request_packet(rx_buffer, SLAVE_ADDR_ARM);
   801be:	4668      	mov	r0, sp
   801c0:	2102      	movs	r1, #2
   801c2:	4b06      	ldr	r3, [pc, #24]	; (801dc <arlo_get_pick_up_status+0x44>)
   801c4:	4798      	blx	r3
	
	Pick_Up_Status pick_up_status_t = rx_buffer[1];
   801c6:	f89d 4001 	ldrb.w	r4, [sp, #1]
	printf("Pick up status: %d\r\n", pick_up_status_t);
   801ca:	4805      	ldr	r0, [pc, #20]	; (801e0 <arlo_get_pick_up_status+0x48>)
   801cc:	4621      	mov	r1, r4
   801ce:	4b05      	ldr	r3, [pc, #20]	; (801e4 <arlo_get_pick_up_status+0x4c>)
   801d0:	4798      	blx	r3
	
	return pick_up_status_t;
}
   801d2:	4620      	mov	r0, r4
   801d4:	b002      	add	sp, #8
   801d6:	bd10      	pop	{r4, pc}
   801d8:	00080939 	.word	0x00080939
   801dc:	00080981 	.word	0x00080981
   801e0:	00087f94 	.word	0x00087f94
   801e4:	00084fd9 	.word	0x00084fd9

000801e8 <arlo_nav_init>:

/* Comment here */
void arlo_nav_init(int16_t *object_buffer)
{
   801e8:	e92d 4ff8 	stmdb	sp!, {r3, r4, r5, r6, r7, r8, r9, sl, fp, lr}
   801ec:	4605      	mov	r5, r0
	/* Get coordinate for sock */
	twi_nav_init(0x52, tx_nav_buffer, rx_nav_buffer);
   801ee:	4f31      	ldr	r7, [pc, #196]	; (802b4 <arlo_nav_init+0xcc>)
   801f0:	4c31      	ldr	r4, [pc, #196]	; (802b8 <arlo_nav_init+0xd0>)
   801f2:	2052      	movs	r0, #82	; 0x52
   801f4:	4639      	mov	r1, r7
   801f6:	4622      	mov	r2, r4
   801f8:	4e30      	ldr	r6, [pc, #192]	; (802bc <arlo_nav_init+0xd4>)
   801fa:	47b0      	blx	r6
	
	/* Convert uint8_t to uint16_t */
	// object_buffer[0] = ((rx_nav_buffer[1] << 8) | (rx_nav_buffer[2] << 0));
	// object_buffer[1] = ((rx_nav_buffer[3] << 8) | (rx_nav_buffer[4] << 0));
	
	sock_x = ((rx_nav_buffer[1] << 8) | (rx_nav_buffer[2] << 0));
   801fc:	7862      	ldrb	r2, [r4, #1]
   801fe:	78a3      	ldrb	r3, [r4, #2]
   80200:	ea43 2302 	orr.w	r3, r3, r2, lsl #8
   80204:	482e      	ldr	r0, [pc, #184]	; (802c0 <arlo_nav_init+0xd8>)
   80206:	8003      	strh	r3, [r0, #0]
	sock_y = ((rx_nav_buffer[3] << 8) | (rx_nav_buffer[4] << 0));
   80208:	f8df b0c4 	ldr.w	fp, [pc, #196]	; 802d0 <arlo_nav_init+0xe8>
   8020c:	78e2      	ldrb	r2, [r4, #3]
   8020e:	7923      	ldrb	r3, [r4, #4]
   80210:	ea43 2302 	orr.w	r3, r3, r2, lsl #8
   80214:	f8ab 3000 	strh.w	r3, [fp]
	
	/* Get coordinate for cube */
	twi_nav_init(0x53, tx_nav_buffer, rx_nav_buffer);
   80218:	2053      	movs	r0, #83	; 0x53
   8021a:	4639      	mov	r1, r7
   8021c:	4622      	mov	r2, r4
   8021e:	47b0      	blx	r6
	
	/* Convert uint8_t to uint16_t */
	// object_buffer[2] = ((rx_nav_buffer[1] << 8) | (rx_nav_buffer[2] << 0));
	// object_buffer[3] = ((rx_nav_buffer[3] << 8) | (rx_nav_buffer[4] << 0));
	
	cube_x = ((rx_nav_buffer[1] << 8) | (rx_nav_buffer[2] << 0));
   80220:	f8df a0b0 	ldr.w	sl, [pc, #176]	; 802d4 <arlo_nav_init+0xec>
   80224:	7862      	ldrb	r2, [r4, #1]
   80226:	78a3      	ldrb	r3, [r4, #2]
   80228:	ea43 2302 	orr.w	r3, r3, r2, lsl #8
   8022c:	f8aa 3000 	strh.w	r3, [sl]
	cube_y = ((rx_nav_buffer[3] << 8) | (rx_nav_buffer[4] << 0));
   80230:	f8df 90a4 	ldr.w	r9, [pc, #164]	; 802d8 <arlo_nav_init+0xf0>
   80234:	78e2      	ldrb	r2, [r4, #3]
   80236:	7923      	ldrb	r3, [r4, #4]
   80238:	ea43 2302 	orr.w	r3, r3, r2, lsl #8
   8023c:	f8a9 3000 	strh.w	r3, [r9]
	
	/* Get coordinate for glass */
	twi_nav_init(0x54, tx_nav_buffer, rx_nav_buffer);
   80240:	2054      	movs	r0, #84	; 0x54
   80242:	4639      	mov	r1, r7
   80244:	4622      	mov	r2, r4
   80246:	47b0      	blx	r6
	
	/* Convert uint8_t to uint16_t */
	// object_buffer[4] = ((rx_nav_buffer[1] << 8) | (rx_nav_buffer[2] << 0));
	// object_buffer[5] = ((rx_nav_buffer[3] << 8) | (rx_nav_buffer[4] << 0));
	
	glass_x = ((rx_nav_buffer[1] << 8) | (rx_nav_buffer[2] << 0));
   80248:	f8df 8090 	ldr.w	r8, [pc, #144]	; 802dc <arlo_nav_init+0xf4>
   8024c:	7862      	ldrb	r2, [r4, #1]
   8024e:	78a3      	ldrb	r3, [r4, #2]
   80250:	ea43 2302 	orr.w	r3, r3, r2, lsl #8
   80254:	f8a8 3000 	strh.w	r3, [r8]
	glass_y = ((rx_nav_buffer[3] << 8) | (rx_nav_buffer[4] << 0));
   80258:	78e2      	ldrb	r2, [r4, #3]
   8025a:	7923      	ldrb	r3, [r4, #4]
   8025c:	ea43 2302 	orr.w	r3, r3, r2, lsl #8
   80260:	4a18      	ldr	r2, [pc, #96]	; (802c4 <arlo_nav_init+0xdc>)
   80262:	8013      	strh	r3, [r2, #0]
	
	/* Get coordinate for box */
	twi_nav_init(0x55, tx_nav_buffer, rx_nav_buffer);
   80264:	2055      	movs	r0, #85	; 0x55
   80266:	4639      	mov	r1, r7
   80268:	4622      	mov	r2, r4
   8026a:	47b0      	blx	r6
	
	/* Convert uint8_t to uint16_t */
	// object_buffer[4] = ((rx_nav_buffer[1] << 8) | (rx_nav_buffer[2] << 0));
	// object_buffer[5] = ((rx_nav_buffer[3] << 8) | (rx_nav_buffer[4] << 0));
	
	box_x = ((rx_nav_buffer[1] << 8) | (rx_nav_buffer[2] << 0));
   8026c:	4a16      	ldr	r2, [pc, #88]	; (802c8 <arlo_nav_init+0xe0>)
   8026e:	7861      	ldrb	r1, [r4, #1]
   80270:	78a3      	ldrb	r3, [r4, #2]
   80272:	ea43 2301 	orr.w	r3, r3, r1, lsl #8
   80276:	8013      	strh	r3, [r2, #0]
	box_y = ((rx_nav_buffer[3] << 8) | (rx_nav_buffer[4] << 0));
   80278:	4b14      	ldr	r3, [pc, #80]	; (802cc <arlo_nav_init+0xe4>)
   8027a:	78e0      	ldrb	r0, [r4, #3]
   8027c:	7921      	ldrb	r1, [r4, #4]
   8027e:	ea41 2100 	orr.w	r1, r1, r0, lsl #8
   80282:	8019      	strh	r1, [r3, #0]

	object_buffer[0] = sock_x;
   80284:	480e      	ldr	r0, [pc, #56]	; (802c0 <arlo_nav_init+0xd8>)
   80286:	8801      	ldrh	r1, [r0, #0]
   80288:	8029      	strh	r1, [r5, #0]
	object_buffer[1] = sock_y;
   8028a:	f8bb 1000 	ldrh.w	r1, [fp]
   8028e:	8069      	strh	r1, [r5, #2]
	object_buffer[2] = cube_x;
   80290:	f8ba 1000 	ldrh.w	r1, [sl]
   80294:	80a9      	strh	r1, [r5, #4]
	object_buffer[3] = cube_y;
   80296:	f8b9 1000 	ldrh.w	r1, [r9]
   8029a:	80e9      	strh	r1, [r5, #6]
	object_buffer[4] = glass_x;
   8029c:	f8b8 1000 	ldrh.w	r1, [r8]
   802a0:	8129      	strh	r1, [r5, #8]
	object_buffer[5] = glass_y;
   802a2:	4808      	ldr	r0, [pc, #32]	; (802c4 <arlo_nav_init+0xdc>)
   802a4:	8801      	ldrh	r1, [r0, #0]
   802a6:	8169      	strh	r1, [r5, #10]
	object_buffer[6] = box_x;
   802a8:	8812      	ldrh	r2, [r2, #0]
   802aa:	81aa      	strh	r2, [r5, #12]
	object_buffer[7] = box_y;
   802ac:	881b      	ldrh	r3, [r3, #0]
   802ae:	81eb      	strh	r3, [r5, #14]
   802b0:	e8bd 8ff8 	ldmia.w	sp!, {r3, r4, r5, r6, r7, r8, r9, sl, fp, pc}
   802b4:	20070a10 	.word	0x20070a10
   802b8:	20070a20 	.word	0x20070a20
   802bc:	00080a1d 	.word	0x00080a1d
   802c0:	20070a1e 	.word	0x20070a1e
   802c4:	20070a18 	.word	0x20070a18
   802c8:	20070a14 	.word	0x20070a14
   802cc:	20070a30 	.word	0x20070a30
   802d0:	20070a28 	.word	0x20070a28
   802d4:	20070a1a 	.word	0x20070a1a
   802d8:	20070a1c 	.word	0x20070a1c
   802dc:	20070a16 	.word	0x20070a16

000802e0 <arlo_init>:
int16_t box_x = 0;
int16_t box_y = 0;

/* Comment here */
void arlo_init()
{
   802e0:	b510      	push	{r4, lr}
   802e2:	b084      	sub	sp, #16
	// ioport_init();
	twi_init();
   802e4:	4b12      	ldr	r3, [pc, #72]	; (80330 <arlo_init+0x50>)
   802e6:	4798      	blx	r3
	
	/* Initializes arm */
	//arlo_arm_init();
	
	/* Initializes nav-system */
	int16_t object_buffer[8] = {0};
   802e8:	2300      	movs	r3, #0
   802ea:	9300      	str	r3, [sp, #0]
   802ec:	9301      	str	r3, [sp, #4]
   802ee:	9302      	str	r3, [sp, #8]
   802f0:	9303      	str	r3, [sp, #12]
	arlo_nav_init(object_buffer);
   802f2:	4668      	mov	r0, sp
   802f4:	4b0f      	ldr	r3, [pc, #60]	; (80334 <arlo_init+0x54>)
   802f6:	4798      	blx	r3
	
	printf("Position for sock: %d, %d\r\n", object_buffer[0], object_buffer[1]);
   802f8:	480f      	ldr	r0, [pc, #60]	; (80338 <arlo_init+0x58>)
   802fa:	f9bd 1000 	ldrsh.w	r1, [sp]
   802fe:	f9bd 2002 	ldrsh.w	r2, [sp, #2]
   80302:	4c0e      	ldr	r4, [pc, #56]	; (8033c <arlo_init+0x5c>)
   80304:	47a0      	blx	r4
	printf("Position for cube: %d, %d\r\n", object_buffer[2], object_buffer[3]);
   80306:	480e      	ldr	r0, [pc, #56]	; (80340 <arlo_init+0x60>)
   80308:	f9bd 1004 	ldrsh.w	r1, [sp, #4]
   8030c:	f9bd 2006 	ldrsh.w	r2, [sp, #6]
   80310:	47a0      	blx	r4
	printf("Position for glass: %d, %d\r\n", object_buffer[4], object_buffer[5]);
   80312:	480c      	ldr	r0, [pc, #48]	; (80344 <arlo_init+0x64>)
   80314:	f9bd 1008 	ldrsh.w	r1, [sp, #8]
   80318:	f9bd 200a 	ldrsh.w	r2, [sp, #10]
   8031c:	47a0      	blx	r4
	printf("Position for box: %d, %d\r\n", object_buffer[6], object_buffer[7]);
   8031e:	480a      	ldr	r0, [pc, #40]	; (80348 <arlo_init+0x68>)
   80320:	f9bd 100c 	ldrsh.w	r1, [sp, #12]
   80324:	f9bd 200e 	ldrsh.w	r2, [sp, #14]
   80328:	47a0      	blx	r4
}
   8032a:	b004      	add	sp, #16
   8032c:	bd10      	pop	{r4, pc}
   8032e:	bf00      	nop
   80330:	000808ed 	.word	0x000808ed
   80334:	000801e9 	.word	0x000801e9
   80338:	00087fac 	.word	0x00087fac
   8033c:	00084fd9 	.word	0x00084fd9
   80340:	00087fc8 	.word	0x00087fc8
   80344:	00087fe4 	.word	0x00087fe4
   80348:	00088004 	.word	0x00088004

0008034c <arlo_get_position>:
	object_buffer[7] = box_y;
}

/* Comment here */
void arlo_get_position(int16_t *position_buffer)
{
   8034c:	e92d 47f0 	stmdb	sp!, {r4, r5, r6, r7, r8, r9, sl, lr}
   80350:	4605      	mov	r5, r0
	/* Get first coordinate (x-coordinate) */
	tx_nav_buffer[0] = 0x50;
   80352:	4e17      	ldr	r6, [pc, #92]	; (803b0 <arlo_get_position+0x64>)
   80354:	2350      	movs	r3, #80	; 0x50
   80356:	7033      	strb	r3, [r6, #0]
	
	twi_send_packet(tx_nav_buffer, SLAVE_ADDR_NAV);
   80358:	4630      	mov	r0, r6
   8035a:	2103      	movs	r1, #3
   8035c:	f8df 805c 	ldr.w	r8, [pc, #92]	; 803bc <arlo_get_position+0x70>
   80360:	47c0      	blx	r8
	twi_request_packet(rx_nav_buffer, SLAVE_ADDR_NAV);
   80362:	4c14      	ldr	r4, [pc, #80]	; (803b4 <arlo_get_position+0x68>)
   80364:	4620      	mov	r0, r4
   80366:	2103      	movs	r1, #3
   80368:	4f13      	ldr	r7, [pc, #76]	; (803b8 <arlo_get_position+0x6c>)
   8036a:	47b8      	blx	r7
	
	/* Convert uint8_t to uint16_t */
	//	position_buffer[0] = ((rx_nav_buffer[1] << 8) | (rx_nav_buffer[2] << 0));
	//	position_buffer[1] = ((rx_nav_buffer[3] << 8) | (rx_nav_buffer[4] << 0));

	int16_t x1 = ((rx_nav_buffer[1] << 8) | (rx_nav_buffer[2] << 0));
   8036c:	f894 a001 	ldrb.w	sl, [r4, #1]
   80370:	78a3      	ldrb	r3, [r4, #2]
   80372:	ea43 2a0a 	orr.w	sl, r3, sl, lsl #8
	int16_t y1 = ((rx_nav_buffer[3] << 8) | (rx_nav_buffer[4] << 0));
   80376:	f894 9003 	ldrb.w	r9, [r4, #3]
   8037a:	7923      	ldrb	r3, [r4, #4]
   8037c:	ea43 2909 	orr.w	r9, r3, r9, lsl #8

	/* Get second coordinate (y-coordinate) */
	tx_nav_buffer[0] = 0x51;
   80380:	2351      	movs	r3, #81	; 0x51
   80382:	7033      	strb	r3, [r6, #0]
	
	twi_send_packet(tx_nav_buffer, SLAVE_ADDR_NAV);
   80384:	4630      	mov	r0, r6
   80386:	2103      	movs	r1, #3
   80388:	47c0      	blx	r8
	twi_request_packet(rx_nav_buffer, SLAVE_ADDR_NAV);
   8038a:	4620      	mov	r0, r4
   8038c:	2103      	movs	r1, #3
   8038e:	47b8      	blx	r7
	
	/* Convert uint8_t to uint16_t */
	// position_buffer[2] = ((rx_nav_buffer[1] << 8) | (rx_nav_buffer[2] << 0));
	// position_buffer[3] = ((rx_nav_buffer[3] << 8) | (rx_nav_buffer[4] << 0));
	
	int16_t x2 = ((rx_nav_buffer[1] << 8) | (rx_nav_buffer[2] << 0));
   80390:	7862      	ldrb	r2, [r4, #1]
   80392:	78a3      	ldrb	r3, [r4, #2]
   80394:	ea43 2202 	orr.w	r2, r3, r2, lsl #8
	int16_t y2 = ((rx_nav_buffer[3] << 8) | (rx_nav_buffer[4] << 0));
   80398:	78e1      	ldrb	r1, [r4, #3]
   8039a:	7923      	ldrb	r3, [r4, #4]
   8039c:	ea43 2301 	orr.w	r3, r3, r1, lsl #8
	
	position_buffer[0] = x1;
   803a0:	f8a5 a000 	strh.w	sl, [r5]
	position_buffer[1] = y1;
   803a4:	f8a5 9002 	strh.w	r9, [r5, #2]
	position_buffer[2] = x2;
   803a8:	80aa      	strh	r2, [r5, #4]
	position_buffer[3] = y2;
   803aa:	80eb      	strh	r3, [r5, #6]
   803ac:	e8bd 87f0 	ldmia.w	sp!, {r4, r5, r6, r7, r8, r9, sl, pc}
   803b0:	20070a10 	.word	0x20070a10
   803b4:	20070a20 	.word	0x20070a20
   803b8:	00080981 	.word	0x00080981
   803bc:	00080939 	.word	0x00080939

000803c0 <arlo_pick_up_object>:
}

/* Comment here */
void arlo_pick_up_object(Object object_t)
{
   803c0:	b508      	push	{r3, lr}
	tx_arm_buffer[0] = TWI_CMD_PICK_UP_START;
   803c2:	4b05      	ldr	r3, [pc, #20]	; (803d8 <arlo_pick_up_object+0x18>)
   803c4:	2222      	movs	r2, #34	; 0x22
   803c6:	701a      	strb	r2, [r3, #0]
	tx_arm_buffer[1] = object_t;
   803c8:	7058      	strb	r0, [r3, #1]
	tx_arm_buffer[2] = TWI_NO_DATA;
   803ca:	2278      	movs	r2, #120	; 0x78
   803cc:	709a      	strb	r2, [r3, #2]
	
	twi_control_arm(tx_arm_buffer, rx_arm_buffer);
   803ce:	4618      	mov	r0, r3
   803d0:	4902      	ldr	r1, [pc, #8]	; (803dc <arlo_pick_up_object+0x1c>)
   803d2:	4b03      	ldr	r3, [pc, #12]	; (803e0 <arlo_pick_up_object+0x20>)
   803d4:	4798      	blx	r3
   803d6:	bd08      	pop	{r3, pc}
   803d8:	20070a2c 	.word	0x20070a2c
   803dc:	20070a0c 	.word	0x20070a0c
   803e0:	00080aa5 	.word	0x00080aa5

000803e4 <arlo_drop_object>:
}

/* Comment here */
void arlo_drop_object(Object object_t)
{
   803e4:	b508      	push	{r3, lr}
	tx_arm_buffer[0] = TWI_CMD_DROP_OFF_START;
   803e6:	4b05      	ldr	r3, [pc, #20]	; (803fc <arlo_drop_object+0x18>)
   803e8:	2221      	movs	r2, #33	; 0x21
   803ea:	701a      	strb	r2, [r3, #0]
	tx_arm_buffer[1] = object_t;
   803ec:	7058      	strb	r0, [r3, #1]
	tx_arm_buffer[2] = TWI_NO_DATA;
   803ee:	2278      	movs	r2, #120	; 0x78
   803f0:	709a      	strb	r2, [r3, #2]
	
	twi_control_arm(tx_arm_buffer, rx_arm_buffer);
   803f2:	4618      	mov	r0, r3
   803f4:	4902      	ldr	r1, [pc, #8]	; (80400 <arlo_drop_object+0x1c>)
   803f6:	4b03      	ldr	r3, [pc, #12]	; (80404 <arlo_drop_object+0x20>)
   803f8:	4798      	blx	r3
   803fa:	bd08      	pop	{r3, pc}
   803fc:	20070a2c 	.word	0x20070a2c
   80400:	20070a0c 	.word	0x20070a0c
   80404:	00080aa5 	.word	0x00080aa5

00080408 <arlo_get_collect_status>:

/* Comment here */
uint8_t arlo_get_collect_status()
{
	return arlo_collect_status;
}
   80408:	4b01      	ldr	r3, [pc, #4]	; (80410 <arlo_get_collect_status+0x8>)
   8040a:	7818      	ldrb	r0, [r3, #0]
   8040c:	4770      	bx	lr
   8040e:	bf00      	nop
   80410:	20070138 	.word	0x20070138

00080414 <arlo_get_drop_off_status>:

/* Comment here */
Drop_Off_Status arlo_get_drop_off_status()
{
   80414:	b510      	push	{r4, lr}
   80416:	b082      	sub	sp, #8
	uint8_t tx_buffer[TX_ARM_LENGTH] = {0};
   80418:	2400      	movs	r4, #0
	tx_buffer[0] = TWI_CMD_DROP_OFF_STATUS;
   8041a:	2323      	movs	r3, #35	; 0x23
   8041c:	f88d 3004 	strb.w	r3, [sp, #4]
	tx_buffer[1] = TWI_NO_DATA;
   80420:	2378      	movs	r3, #120	; 0x78
   80422:	f88d 3005 	strb.w	r3, [sp, #5]
	tx_buffer[2] = TWI_NO_DATA;
   80426:	f88d 3006 	strb.w	r3, [sp, #6]
	twi_send_packet(tx_buffer, SLAVE_ADDR_ARM);
   8042a:	a801      	add	r0, sp, #4
   8042c:	2102      	movs	r1, #2
   8042e:	4b09      	ldr	r3, [pc, #36]	; (80454 <arlo_get_drop_off_status+0x40>)
   80430:	4798      	blx	r3
	
	uint8_t rx_buffer[RX_ARM_LENGTH] = {0};
   80432:	f8ad 4000 	strh.w	r4, [sp]
   80436:	f88d 4002 	strb.w	r4, [sp, #2]
	twi_request_packet(rx_buffer, SLAVE_ADDR_ARM);
   8043a:	4668      	mov	r0, sp
   8043c:	2102      	movs	r1, #2
   8043e:	4b06      	ldr	r3, [pc, #24]	; (80458 <arlo_get_drop_off_status+0x44>)
   80440:	4798      	blx	r3
	
	Drop_Off_Status drop_off_status_t = rx_buffer[1];
   80442:	f89d 4001 	ldrb.w	r4, [sp, #1]
	printf("Drop off status: %d\r\n", drop_off_status_t);
   80446:	4805      	ldr	r0, [pc, #20]	; (8045c <arlo_get_drop_off_status+0x48>)
   80448:	4621      	mov	r1, r4
   8044a:	4b05      	ldr	r3, [pc, #20]	; (80460 <arlo_get_drop_off_status+0x4c>)
   8044c:	4798      	blx	r3
	
	return drop_off_status_t;
}
   8044e:	4620      	mov	r0, r4
   80450:	b002      	add	sp, #8
   80452:	bd10      	pop	{r4, pc}
   80454:	00080939 	.word	0x00080939
   80458:	00080981 	.word	0x00080981
   8045c:	00088020 	.word	0x00088020
   80460:	00084fd9 	.word	0x00084fd9

00080464 <arlo_done_drive>:

void arlo_done_drive(Pick_Up_Status pick_up_status_t)
{
   80464:	b508      	push	{r3, lr}
	tx_arm_buffer[0] = TWI_CMD_PICK_UP_STATUS;
   80466:	4b05      	ldr	r3, [pc, #20]	; (8047c <arlo_done_drive+0x18>)
   80468:	2224      	movs	r2, #36	; 0x24
   8046a:	701a      	strb	r2, [r3, #0]
	tx_arm_buffer[1] = pick_up_status_t;
   8046c:	7058      	strb	r0, [r3, #1]
	tx_arm_buffer[2] = TWI_NO_DATA;
   8046e:	2278      	movs	r2, #120	; 0x78
   80470:	709a      	strb	r2, [r3, #2]
	
	twi_control_arm(tx_arm_buffer, rx_arm_buffer);
   80472:	4618      	mov	r0, r3
   80474:	4902      	ldr	r1, [pc, #8]	; (80480 <arlo_done_drive+0x1c>)
   80476:	4b03      	ldr	r3, [pc, #12]	; (80484 <arlo_done_drive+0x20>)
   80478:	4798      	blx	r3
   8047a:	bd08      	pop	{r3, pc}
   8047c:	20070a2c 	.word	0x20070a2c
   80480:	20070a0c 	.word	0x20070a0c
   80484:	00080aa5 	.word	0x00080aa5

00080488 <arlo_get_object_positions>:
}

void arlo_get_object_positions(int16_t *object_buffer)
{
	object_buffer[0] = sock_x;
   80488:	4b0c      	ldr	r3, [pc, #48]	; (804bc <arlo_get_object_positions+0x34>)
   8048a:	881b      	ldrh	r3, [r3, #0]
   8048c:	8003      	strh	r3, [r0, #0]
	object_buffer[1] = sock_y;
   8048e:	4b0c      	ldr	r3, [pc, #48]	; (804c0 <arlo_get_object_positions+0x38>)
   80490:	881b      	ldrh	r3, [r3, #0]
   80492:	8043      	strh	r3, [r0, #2]
	
	object_buffer[2] = cube_x;
   80494:	4b0b      	ldr	r3, [pc, #44]	; (804c4 <arlo_get_object_positions+0x3c>)
   80496:	881b      	ldrh	r3, [r3, #0]
   80498:	8083      	strh	r3, [r0, #4]
	object_buffer[3] = cube_y;
   8049a:	4b0b      	ldr	r3, [pc, #44]	; (804c8 <arlo_get_object_positions+0x40>)
   8049c:	881b      	ldrh	r3, [r3, #0]
   8049e:	80c3      	strh	r3, [r0, #6]
	
	object_buffer[4] = glass_x;
   804a0:	4b0a      	ldr	r3, [pc, #40]	; (804cc <arlo_get_object_positions+0x44>)
   804a2:	881b      	ldrh	r3, [r3, #0]
   804a4:	8103      	strh	r3, [r0, #8]
	object_buffer[5] = glass_y;
   804a6:	4b0a      	ldr	r3, [pc, #40]	; (804d0 <arlo_get_object_positions+0x48>)
   804a8:	881b      	ldrh	r3, [r3, #0]
   804aa:	8143      	strh	r3, [r0, #10]
	
	object_buffer[6] = box_x;
   804ac:	4b09      	ldr	r3, [pc, #36]	; (804d4 <arlo_get_object_positions+0x4c>)
   804ae:	881b      	ldrh	r3, [r3, #0]
   804b0:	8183      	strh	r3, [r0, #12]
	object_buffer[7] = box_y;
   804b2:	4b09      	ldr	r3, [pc, #36]	; (804d8 <arlo_get_object_positions+0x50>)
   804b4:	881b      	ldrh	r3, [r3, #0]
   804b6:	81c3      	strh	r3, [r0, #14]
   804b8:	4770      	bx	lr
   804ba:	bf00      	nop
   804bc:	20070a1e 	.word	0x20070a1e
   804c0:	20070a28 	.word	0x20070a28
   804c4:	20070a1a 	.word	0x20070a1a
   804c8:	20070a1c 	.word	0x20070a1c
   804cc:	20070a16 	.word	0x20070a16
   804d0:	20070a18 	.word	0x20070a18
   804d4:	20070a14 	.word	0x20070a14
   804d8:	20070a30 	.word	0x20070a30

000804dc <_read>:
int __attribute__((weak))
_read (int file, char * ptr, int len); // Remove GCC compiler warning

int __attribute__((weak))
_read (int file, char * ptr, int len)
{
   804dc:	e92d 41f0 	stmdb	sp!, {r4, r5, r6, r7, r8, lr}
   804e0:	460c      	mov	r4, r1
   804e2:	4690      	mov	r8, r2
	int nChars = 0;

	if (file != 0) {
   804e4:	b960      	cbnz	r0, 80500 <_read+0x24>
		return -1;
	}

	for (; len > 0; --len) {
   804e6:	2a00      	cmp	r2, #0
   804e8:	dd0e      	ble.n	80508 <_read+0x2c>
   804ea:	188f      	adds	r7, r1, r2
		ptr_get(stdio_base, ptr);
   804ec:	4e09      	ldr	r6, [pc, #36]	; (80514 <_read+0x38>)
   804ee:	4d0a      	ldr	r5, [pc, #40]	; (80518 <_read+0x3c>)
   804f0:	6830      	ldr	r0, [r6, #0]
   804f2:	4621      	mov	r1, r4
   804f4:	682b      	ldr	r3, [r5, #0]
   804f6:	4798      	blx	r3
		ptr++;
   804f8:	3401      	adds	r4, #1

	if (file != 0) {
		return -1;
	}

	for (; len > 0; --len) {
   804fa:	42bc      	cmp	r4, r7
   804fc:	d1f8      	bne.n	804f0 <_read+0x14>
   804fe:	e006      	b.n	8050e <_read+0x32>
_read (int file, char * ptr, int len)
{
	int nChars = 0;

	if (file != 0) {
		return -1;
   80500:	f04f 30ff 	mov.w	r0, #4294967295
   80504:	e8bd 81f0 	ldmia.w	sp!, {r4, r5, r6, r7, r8, pc}
	}

	for (; len > 0; --len) {
   80508:	2000      	movs	r0, #0
   8050a:	e8bd 81f0 	ldmia.w	sp!, {r4, r5, r6, r7, r8, pc}
		ptr_get(stdio_base, ptr);
		ptr++;
		nChars++;
   8050e:	4640      	mov	r0, r8
	}
	return nChars;
}
   80510:	e8bd 81f0 	ldmia.w	sp!, {r4, r5, r6, r7, r8, pc}
   80514:	20078da0 	.word	0x20078da0
   80518:	20078d18 	.word	0x20078d18

0008051c <pwm_clocks_generate>:
 *
 * \retval Return the value to be set in the PWM Clock Register (PWM Mode Register for
 * SAM3N/SAM4N/SAM4C/SAM4CP/SAM4CM) or PWM_INVALID_ARGUMENT if the configuration cannot be met.
 */
static uint32_t pwm_clocks_generate(uint32_t ul_frequency, uint32_t ul_mck)
{
   8051c:	b4f0      	push	{r4, r5, r6, r7}
   8051e:	b08c      	sub	sp, #48	; 0x30
   80520:	4607      	mov	r7, r0
   80522:	460e      	mov	r6, r1
	uint32_t ul_divisors[PWM_CLOCK_PRE_MAX] =
   80524:	ac01      	add	r4, sp, #4
   80526:	4d12      	ldr	r5, [pc, #72]	; (80570 <pwm_clocks_generate+0x54>)
   80528:	cd0f      	ldmia	r5!, {r0, r1, r2, r3}
   8052a:	c40f      	stmia	r4!, {r0, r1, r2, r3}
   8052c:	cd0f      	ldmia	r5!, {r0, r1, r2, r3}
   8052e:	c40f      	stmia	r4!, {r0, r1, r2, r3}
   80530:	e895 0007 	ldmia.w	r5, {r0, r1, r2}
   80534:	e884 0007 	stmia.w	r4, {r0, r1, r2}
   80538:	466a      	mov	r2, sp
			{1, 2, 4, 8, 16, 32, 64, 128, 256, 512, 1024 };
	uint32_t ul_pre = 0;
   8053a:	2300      	movs	r3, #0
	uint32_t ul_div;

	/* Find prescaler and divisor values */
	do {
		ul_div = (ul_mck / ul_divisors[ul_pre]) / ul_frequency;
   8053c:	f852 4f04 	ldr.w	r4, [r2, #4]!
   80540:	fbb6 f4f4 	udiv	r4, r6, r4
   80544:	fbb4 f4f7 	udiv	r4, r4, r7
		if (ul_div <= PWM_CLOCK_DIV_MAX) {
   80548:	f5b4 7f80 	cmp.w	r4, #256	; 0x100
   8054c:	d903      	bls.n	80556 <pwm_clocks_generate+0x3a>
			break;
		}
		ul_pre++;
   8054e:	3301      	adds	r3, #1
	} while (ul_pre < PWM_CLOCK_PRE_MAX);
   80550:	2b0b      	cmp	r3, #11
   80552:	d1f3      	bne.n	8053c <pwm_clocks_generate+0x20>
   80554:	e004      	b.n	80560 <pwm_clocks_generate+0x44>

	/* Return result */
	if (ul_pre < PWM_CLOCK_PRE_MAX) {
   80556:	2b0a      	cmp	r3, #10
   80558:	d805      	bhi.n	80566 <pwm_clocks_generate+0x4a>
		return ul_div | (ul_pre << 8);
   8055a:	ea44 2003 	orr.w	r0, r4, r3, lsl #8
   8055e:	e004      	b.n	8056a <pwm_clocks_generate+0x4e>
	} else {
		return PWM_INVALID_ARGUMENT;
   80560:	f64f 70ff 	movw	r0, #65535	; 0xffff
   80564:	e001      	b.n	8056a <pwm_clocks_generate+0x4e>
   80566:	f64f 70ff 	movw	r0, #65535	; 0xffff
	}
}
   8056a:	b00c      	add	sp, #48	; 0x30
   8056c:	bcf0      	pop	{r4, r5, r6, r7}
   8056e:	4770      	bx	lr
   80570:	00088038 	.word	0x00088038

00080574 <pwm_init>:
 * \param clock_config PWM clock configuration.
 *
 * \retval 0 if initialization succeeds, otherwise fails.
 */
uint32_t pwm_init(Pwm *p_pwm, pwm_clock_t *clock_config)
{
   80574:	b570      	push	{r4, r5, r6, lr}
   80576:	4606      	mov	r6, r0
   80578:	460c      	mov	r4, r1
	uint32_t clock = 0;
	uint32_t result;

	/* Clock A */
	if (clock_config->ul_clka != 0) {
   8057a:	6808      	ldr	r0, [r1, #0]
   8057c:	b140      	cbz	r0, 80590 <pwm_init+0x1c>
		result = pwm_clocks_generate(clock_config->ul_clka, clock_config->ul_mck);
   8057e:	6889      	ldr	r1, [r1, #8]
   80580:	4b0b      	ldr	r3, [pc, #44]	; (805b0 <pwm_init+0x3c>)
   80582:	4798      	blx	r3
   80584:	4605      	mov	r5, r0
		if (result == PWM_INVALID_ARGUMENT) {
   80586:	f64f 73ff 	movw	r3, #65535	; 0xffff
   8058a:	4298      	cmp	r0, r3
   8058c:	d101      	bne.n	80592 <pwm_init+0x1e>
   8058e:	e00e      	b.n	805ae <pwm_init+0x3a>
 *
 * \retval 0 if initialization succeeds, otherwise fails.
 */
uint32_t pwm_init(Pwm *p_pwm, pwm_clock_t *clock_config)
{
	uint32_t clock = 0;
   80590:	2500      	movs	r5, #0

		clock = result;
	}

	/* Clock B */
	if (clock_config->ul_clkb != 0) {
   80592:	6860      	ldr	r0, [r4, #4]
   80594:	b140      	cbz	r0, 805a8 <pwm_init+0x34>
		result = pwm_clocks_generate(clock_config->ul_clkb, clock_config->ul_mck);
   80596:	68a1      	ldr	r1, [r4, #8]
   80598:	4b05      	ldr	r3, [pc, #20]	; (805b0 <pwm_init+0x3c>)
   8059a:	4798      	blx	r3

		if (result == PWM_INVALID_ARGUMENT) {
   8059c:	f64f 73ff 	movw	r3, #65535	; 0xffff
   805a0:	4298      	cmp	r0, r3
   805a2:	d004      	beq.n	805ae <pwm_init+0x3a>
			return result;
		}

		clock |= (result << 16);
   805a4:	ea45 4500 	orr.w	r5, r5, r0, lsl #16
	}
#if (SAM3N || SAM4N || SAM4C || SAM4CP || SAM4CM)
	p_pwm->PWM_MR = clock;
#else
	p_pwm->PWM_CLK = clock;
   805a8:	6035      	str	r5, [r6, #0]
#endif
	return 0;
   805aa:	2000      	movs	r0, #0
   805ac:	bd70      	pop	{r4, r5, r6, pc}
}
   805ae:	bd70      	pop	{r4, r5, r6, pc}
   805b0:	0008051d 	.word	0x0008051d

000805b4 <pwm_channel_init>:
 * \param p_channel Configurations of the specified PWM channel.
 *
 * \retval 0 if initialization succeeds, otherwise fails.
 */
uint32_t pwm_channel_init(Pwm *p_pwm, pwm_channel_t *p_channel)
{
   805b4:	b470      	push	{r4, r5, r6}
	uint32_t tmp_reg = 0;
	uint32_t ch_num = p_channel->channel;
   805b6:	680b      	ldr	r3, [r1, #0]

	/* Channel Mode/Clock Register */
	tmp_reg = (p_channel->ul_prescaler & 0xF) |
			(p_channel->polarity << 9) |
   805b8:	8a8c      	ldrh	r4, [r1, #20]
{
	uint32_t tmp_reg = 0;
	uint32_t ch_num = p_channel->channel;

	/* Channel Mode/Clock Register */
	tmp_reg = (p_channel->ul_prescaler & 0xF) |
   805ba:	684a      	ldr	r2, [r1, #4]
   805bc:	f002 020f 	and.w	r2, r2, #15
   805c0:	4314      	orrs	r4, r2
			(p_channel->polarity << 9) |
#if (SAM3U || SAM3S || SAM3XA || SAM4S || SAM4E)
			(p_channel->counter_event) |
			(p_channel->b_deadtime_generator << 16) |
			(p_channel->b_pwmh_output_inverted << 17) |
			(p_channel->b_pwml_output_inverted << 18) |
   805c2:	890d      	ldrh	r5, [r1, #8]
	uint32_t tmp_reg = 0;
	uint32_t ch_num = p_channel->channel;

	/* Channel Mode/Clock Register */
	tmp_reg = (p_channel->ul_prescaler & 0xF) |
			(p_channel->polarity << 9) |
   805c4:	432c      	orrs	r4, r5
   805c6:	7a8a      	ldrb	r2, [r1, #10]
#if (SAM3U || SAM3S || SAM3XA || SAM4S || SAM4E)
			(p_channel->counter_event) |
   805c8:	ea44 2442 	orr.w	r4, r4, r2, lsl #9
			(p_channel->b_deadtime_generator << 16) |
   805cc:	7d8a      	ldrb	r2, [r1, #22]
   805ce:	ea44 4402 	orr.w	r4, r4, r2, lsl #16
			(p_channel->b_pwmh_output_inverted << 17) |
   805d2:	7dca      	ldrb	r2, [r1, #23]
   805d4:	ea44 4442 	orr.w	r4, r4, r2, lsl #17
			(p_channel->b_pwml_output_inverted << 18) |
   805d8:	7e0a      	ldrb	r2, [r1, #24]
{
	uint32_t tmp_reg = 0;
	uint32_t ch_num = p_channel->channel;

	/* Channel Mode/Clock Register */
	tmp_reg = (p_channel->ul_prescaler & 0xF) |
   805da:	ea44 4482 	orr.w	r4, r4, r2, lsl #18
   805de:	eb00 1243 	add.w	r2, r0, r3, lsl #5
			(p_channel->b_deadtime_generator << 16) |
			(p_channel->b_pwmh_output_inverted << 17) |
			(p_channel->b_pwml_output_inverted << 18) |
#endif
			(p_channel->alignment);
	p_pwm->PWM_CH_NUM[ch_num].PWM_CMR = tmp_reg;
   805e2:	f8c2 4200 	str.w	r4, [r2, #512]	; 0x200

	/* Channel Duty Cycle Register */
	p_pwm->PWM_CH_NUM[ch_num].PWM_CDTY = p_channel->ul_duty;
   805e6:	68cc      	ldr	r4, [r1, #12]
   805e8:	f8c2 4204 	str.w	r4, [r2, #516]	; 0x204

	/* Channel Period Register */
	p_pwm->PWM_CH_NUM[ch_num].PWM_CPRD = p_channel->ul_period;
   805ec:	690c      	ldr	r4, [r1, #16]
   805ee:	f8c2 420c 	str.w	r4, [r2, #524]	; 0x20c
	
#if (SAM3U || SAM3S || SAM3XA || SAM4S || SAM4E)
	/* Channel Dead Time Register */
	if (p_channel->b_deadtime_generator) {
   805f2:	7d8a      	ldrb	r2, [r1, #22]
   805f4:	b13a      	cbz	r2, 80606 <pwm_channel_init+0x52>
		p_pwm->PWM_CH_NUM[ch_num].PWM_DT =
				PWM_DT_DTL(p_channel->
   805f6:	8b8c      	ldrh	r4, [r1, #28]
				us_deadtime_pwml) | PWM_DT_DTH(p_channel->
   805f8:	8b4a      	ldrh	r2, [r1, #26]
   805fa:	ea42 4404 	orr.w	r4, r2, r4, lsl #16
	p_pwm->PWM_CH_NUM[ch_num].PWM_CPRD = p_channel->ul_period;
	
#if (SAM3U || SAM3S || SAM3XA || SAM4S || SAM4E)
	/* Channel Dead Time Register */
	if (p_channel->b_deadtime_generator) {
		p_pwm->PWM_CH_NUM[ch_num].PWM_DT =
   805fe:	eb00 1243 	add.w	r2, r0, r3, lsl #5
   80602:	f8c2 4218 	str.w	r4, [r2, #536]	; 0x218
				us_deadtime_pwml) | PWM_DT_DTH(p_channel->
				us_deadtime_pwmh);
	}

	/* Output Selection Register */
	tmp_reg  = p_pwm->PWM_OS & (~((PWM_OS_OSH0 | PWM_OS_OSL0) << ch_num));
   80606:	6c85      	ldr	r5, [r0, #72]	; 0x48
   80608:	f04f 1201 	mov.w	r2, #65537	; 0x10001
   8060c:	409a      	lsls	r2, r3
   8060e:	43d2      	mvns	r2, r2
   80610:	4015      	ands	r5, r2
	tmp_reg |= ((p_channel->output_selection.b_override_pwmh) << ch_num) |
			(((p_channel->output_selection.b_override_pwml) << ch_num)
   80612:	7fce      	ldrb	r6, [r1, #31]
   80614:	409e      	lsls	r6, r3
				us_deadtime_pwmh);
	}

	/* Output Selection Register */
	tmp_reg  = p_pwm->PWM_OS & (~((PWM_OS_OSH0 | PWM_OS_OSL0) << ch_num));
	tmp_reg |= ((p_channel->output_selection.b_override_pwmh) << ch_num) |
   80616:	7f8c      	ldrb	r4, [r1, #30]
   80618:	409c      	lsls	r4, r3
   8061a:	ea44 4406 	orr.w	r4, r4, r6, lsl #16
   8061e:	432c      	orrs	r4, r5
			(((p_channel->output_selection.b_override_pwml) << ch_num)
					<< 16);
	p_pwm->PWM_OS = tmp_reg;
   80620:	6484      	str	r4, [r0, #72]	; 0x48

	/* Output Override Value Register */
	tmp_reg  = p_pwm->PWM_OOV & (~((PWM_OOV_OOVH0 | PWM_OOV_OOVL0) << ch_num));
   80622:	6c44      	ldr	r4, [r0, #68]	; 0x44
   80624:	4022      	ands	r2, r4
	tmp_reg |= ((p_channel->output_selection.override_level_pwmh) << ch_num) |
			(((p_channel->output_selection.override_level_pwml) << ch_num)
   80626:	f891 5021 	ldrb.w	r5, [r1, #33]	; 0x21
   8062a:	409d      	lsls	r5, r3
					<< 16);
	p_pwm->PWM_OS = tmp_reg;

	/* Output Override Value Register */
	tmp_reg  = p_pwm->PWM_OOV & (~((PWM_OOV_OOVH0 | PWM_OOV_OOVL0) << ch_num));
	tmp_reg |= ((p_channel->output_selection.override_level_pwmh) << ch_num) |
   8062c:	f891 4020 	ldrb.w	r4, [r1, #32]
   80630:	409c      	lsls	r4, r3
   80632:	ea44 4405 	orr.w	r4, r4, r5, lsl #16
   80636:	4322      	orrs	r2, r4
			(((p_channel->output_selection.override_level_pwml) << ch_num)
					<< 16);
	p_pwm->PWM_OOV = tmp_reg;
   80638:	6442      	str	r2, [r0, #68]	; 0x44

	/* Sync Channels Mode Register */
	uint32_t channel = (1 << ch_num);
   8063a:	2201      	movs	r2, #1
   8063c:	409a      	lsls	r2, r3
	if (p_channel->b_sync_ch) {
   8063e:	f891 4022 	ldrb.w	r4, [r1, #34]	; 0x22
   80642:	b11c      	cbz	r4, 8064c <pwm_channel_init+0x98>
		p_pwm->PWM_SCM |= channel;
   80644:	6a04      	ldr	r4, [r0, #32]
   80646:	4314      	orrs	r4, r2
   80648:	6204      	str	r4, [r0, #32]
   8064a:	e003      	b.n	80654 <pwm_channel_init+0xa0>
	} else {
		p_pwm->PWM_SCM &= ~((uint32_t) channel);
   8064c:	6a04      	ldr	r4, [r0, #32]
   8064e:	ea24 0402 	bic.w	r4, r4, r2
   80652:	6204      	str	r4, [r0, #32]
		} else {
			p_pwm->PWM_FPV1 &= (~((0x01 << ch_num) << 16));
		}
	}
#else
	if (p_channel->ul_fault_output_pwmh == PWM_HIGH) {
   80654:	f891 4024 	ldrb.w	r4, [r1, #36]	; 0x24
   80658:	2c01      	cmp	r4, #1
		p_pwm->PWM_FPV |= (0x01 << ch_num);
   8065a:	6e84      	ldr	r4, [r0, #104]	; 0x68
   8065c:	bf0c      	ite	eq
   8065e:	4314      	orreq	r4, r2
	} else {
		p_pwm->PWM_FPV &= (~(0x01 << ch_num));
   80660:	4394      	bicne	r4, r2
   80662:	6684      	str	r4, [r0, #104]	; 0x68
	}
	if (p_channel->ul_fault_output_pwml == PWM_HIGH) {
   80664:	f891 4025 	ldrb.w	r4, [r1, #37]	; 0x25
   80668:	2c01      	cmp	r4, #1
		p_pwm->PWM_FPV |= ((0x01 << ch_num) << 16);
   8066a:	6e84      	ldr	r4, [r0, #104]	; 0x68
   8066c:	bf0c      	ite	eq
   8066e:	ea44 4202 	orreq.w	r2, r4, r2, lsl #16
	} else {
		p_pwm->PWM_FPV &= (~((0x01 << ch_num) << 16));
   80672:	ea24 4202 	bicne.w	r2, r4, r2, lsl #16
   80676:	6682      	str	r2, [r0, #104]	; 0x68
	}
#endif
	/* Fault Protection Enable Register */
	uint32_t fault_enable_reg = 0;
#if (SAM3XA)
	if (ch_num < 4) {
   80678:	2b03      	cmp	r3, #3
   8067a:	d80c      	bhi.n	80696 <pwm_channel_init+0xe2>
		ch_num *= 8;
		fault_enable_reg = p_pwm->PWM_FPE1;
   8067c:	6ec4      	ldr	r4, [r0, #108]	; 0x6c
#endif
	/* Fault Protection Enable Register */
	uint32_t fault_enable_reg = 0;
#if (SAM3XA)
	if (ch_num < 4) {
		ch_num *= 8;
   8067e:	00db      	lsls	r3, r3, #3
		fault_enable_reg = p_pwm->PWM_FPE1;
		fault_enable_reg &= ~(0xFF << ch_num);
   80680:	22ff      	movs	r2, #255	; 0xff
   80682:	409a      	lsls	r2, r3
   80684:	ea24 0202 	bic.w	r2, r4, r2
		fault_enable_reg |= ((p_channel->fault_id) << ch_num);
   80688:	f891 1023 	ldrb.w	r1, [r1, #35]	; 0x23
   8068c:	fa01 f303 	lsl.w	r3, r1, r3
   80690:	4313      	orrs	r3, r2
		p_pwm->PWM_FPE1 = fault_enable_reg;
   80692:	66c3      	str	r3, [r0, #108]	; 0x6c
   80694:	e00c      	b.n	806b0 <pwm_channel_init+0xfc>
	} else {
		ch_num -= 4;
   80696:	3b04      	subs	r3, #4
		ch_num *= 8;
		fault_enable_reg = p_pwm->PWM_FPE2;
   80698:	6f04      	ldr	r4, [r0, #112]	; 0x70
		fault_enable_reg &= ~(0xFF << ch_num);
		fault_enable_reg |= ((p_channel->fault_id) << ch_num);
		p_pwm->PWM_FPE1 = fault_enable_reg;
	} else {
		ch_num -= 4;
		ch_num *= 8;
   8069a:	00db      	lsls	r3, r3, #3
		fault_enable_reg = p_pwm->PWM_FPE2;
		fault_enable_reg &= ~(0xFF << ch_num);
   8069c:	22ff      	movs	r2, #255	; 0xff
   8069e:	409a      	lsls	r2, r3
   806a0:	ea24 0202 	bic.w	r2, r4, r2
		fault_enable_reg |= ((p_channel->fault_id) << ch_num);
   806a4:	f891 1023 	ldrb.w	r1, [r1, #35]	; 0x23
   806a8:	fa01 f303 	lsl.w	r3, r1, r3
   806ac:	4313      	orrs	r3, r2
		p_pwm->PWM_FPE2 = fault_enable_reg;
   806ae:	6703      	str	r3, [r0, #112]	; 0x70
			PWM_CAE_ADEDGV(p_channel->ul_additional_edge) |
			p_channel->additional_edge_mode;
#endif

	return 0;
}
   806b0:	2000      	movs	r0, #0
   806b2:	bc70      	pop	{r4, r5, r6}
   806b4:	4770      	bx	lr
   806b6:	bf00      	nop

000806b8 <pwm_channel_update_duty>:
 *
 * \retval 0 if changing succeeds, otherwise fails.
 */
uint32_t pwm_channel_update_duty(Pwm *p_pwm, pwm_channel_t *p_channel,
		uint32_t ul_duty)
{
   806b8:	b410      	push	{r4}
	uint32_t ch_num = p_channel->channel;
   806ba:	680c      	ldr	r4, [r1, #0]

		/** Check parameter */
	if (p_channel->ul_period < ul_duty) {
   806bc:	690b      	ldr	r3, [r1, #16]
   806be:	4293      	cmp	r3, r2
   806c0:	d306      	bcc.n	806d0 <pwm_channel_update_duty+0x18>
		return PWM_INVALID_ARGUMENT;
	} else {
		/* Save new duty cycle value */
		p_channel->ul_duty = ul_duty;
   806c2:	60ca      	str	r2, [r1, #12]
		mode &= ~PWM_CMR_CPD;
		p_pwm->PWM_CH_NUM[ch_num].PWM_CMR = mode;

		p_pwm->PWM_CH_NUM[ch_num].PWM_CUPD = ul_duty;
#else
		p_pwm->PWM_CH_NUM[ch_num].PWM_CDTYUPD = ul_duty;
   806c4:	eb00 1044 	add.w	r0, r0, r4, lsl #5
   806c8:	f8c0 2208 	str.w	r2, [r0, #520]	; 0x208
#endif
	}

	return 0;
   806cc:	2000      	movs	r0, #0
   806ce:	e001      	b.n	806d4 <pwm_channel_update_duty+0x1c>
{
	uint32_t ch_num = p_channel->channel;

		/** Check parameter */
	if (p_channel->ul_period < ul_duty) {
		return PWM_INVALID_ARGUMENT;
   806d0:	f64f 70ff 	movw	r0, #65535	; 0xffff
		p_pwm->PWM_CH_NUM[ch_num].PWM_CDTYUPD = ul_duty;
#endif
	}

	return 0;
}
   806d4:	f85d 4b04 	ldr.w	r4, [sp], #4
   806d8:	4770      	bx	lr
   806da:	bf00      	nop

000806dc <pwm_channel_enable>:
 * \param p_pwm Pointer to a PWM instance.
 * \param ul_channel PWM channel number to enable.
 */
void pwm_channel_enable(Pwm *p_pwm, uint32_t ul_channel)
{
	p_pwm->PWM_ENA = (1 << ul_channel);
   806dc:	2301      	movs	r3, #1
   806de:	fa03 f101 	lsl.w	r1, r3, r1
   806e2:	6041      	str	r1, [r0, #4]
   806e4:	4770      	bx	lr
   806e6:	bf00      	nop

000806e8 <pwm_channel_disable>:
 * \param p_pwm Pointer to a PWM instance.
 * \param ul_channel PWM channel number to disable.
 */
void pwm_channel_disable(Pwm *p_pwm, uint32_t ul_channel)
{
	p_pwm->PWM_DIS = (1 << ul_channel);
   806e8:	2301      	movs	r3, #1
   806ea:	fa03 f101 	lsl.w	r1, r3, r1
   806ee:	6081      	str	r1, [r0, #8]
   806f0:	4770      	bx	lr
   806f2:	bf00      	nop

000806f4 <twi_set_speed>:
uint32_t twi_set_speed(Twi *p_twi, uint32_t ul_speed, uint32_t ul_mck)
{
	uint32_t ckdiv = 0;
	uint32_t c_lh_div;

	if (ul_speed > I2C_FAST_MODE_SPEED) {
   806f4:	4b0f      	ldr	r3, [pc, #60]	; (80734 <twi_set_speed+0x40>)
   806f6:	4299      	cmp	r1, r3
   806f8:	d819      	bhi.n	8072e <twi_set_speed+0x3a>
		return FAIL;
	}

	c_lh_div = ul_mck / (ul_speed * TWI_CLK_DIVIDER) - TWI_CLK_CALC_ARGU;
   806fa:	0049      	lsls	r1, r1, #1
   806fc:	fbb2 f2f1 	udiv	r2, r2, r1
   80700:	3a04      	subs	r2, #4

	/* cldiv must fit in 8 bits, ckdiv must fit in 3 bits */
	while ((c_lh_div > TWI_CLK_DIV_MAX) && (ckdiv < TWI_CLK_DIV_MIN)) {
   80702:	2aff      	cmp	r2, #255	; 0xff
   80704:	d907      	bls.n	80716 <twi_set_speed+0x22>
 * \retval PASS New speed setting is accepted.
 * \retval FAIL New speed setting is rejected.
 */
uint32_t twi_set_speed(Twi *p_twi, uint32_t ul_speed, uint32_t ul_mck)
{
	uint32_t ckdiv = 0;
   80706:	2300      	movs	r3, #0
	c_lh_div = ul_mck / (ul_speed * TWI_CLK_DIVIDER) - TWI_CLK_CALC_ARGU;

	/* cldiv must fit in 8 bits, ckdiv must fit in 3 bits */
	while ((c_lh_div > TWI_CLK_DIV_MAX) && (ckdiv < TWI_CLK_DIV_MIN)) {
		/* Increase clock divider */
		ckdiv++;
   80708:	3301      	adds	r3, #1
		/* Divide cldiv value */
		c_lh_div /= TWI_CLK_DIVIDER;
   8070a:	0852      	lsrs	r2, r2, #1
	}

	c_lh_div = ul_mck / (ul_speed * TWI_CLK_DIVIDER) - TWI_CLK_CALC_ARGU;

	/* cldiv must fit in 8 bits, ckdiv must fit in 3 bits */
	while ((c_lh_div > TWI_CLK_DIV_MAX) && (ckdiv < TWI_CLK_DIV_MIN)) {
   8070c:	2aff      	cmp	r2, #255	; 0xff
   8070e:	d903      	bls.n	80718 <twi_set_speed+0x24>
   80710:	2b07      	cmp	r3, #7
   80712:	d1f9      	bne.n	80708 <twi_set_speed+0x14>
   80714:	e000      	b.n	80718 <twi_set_speed+0x24>
 * \retval PASS New speed setting is accepted.
 * \retval FAIL New speed setting is rejected.
 */
uint32_t twi_set_speed(Twi *p_twi, uint32_t ul_speed, uint32_t ul_mck)
{
	uint32_t ckdiv = 0;
   80716:	2300      	movs	r3, #0
		c_lh_div /= TWI_CLK_DIVIDER;
	}

	/* set clock waveform generator register */
	p_twi->TWI_CWGR =
			TWI_CWGR_CLDIV(c_lh_div) | TWI_CWGR_CHDIV(c_lh_div) |
   80718:	0211      	lsls	r1, r2, #8
   8071a:	b289      	uxth	r1, r1
			TWI_CWGR_CKDIV(ckdiv);
   8071c:	041b      	lsls	r3, r3, #16
   8071e:	f403 23e0 	and.w	r3, r3, #458752	; 0x70000
		c_lh_div /= TWI_CLK_DIVIDER;
	}

	/* set clock waveform generator register */
	p_twi->TWI_CWGR =
			TWI_CWGR_CLDIV(c_lh_div) | TWI_CWGR_CHDIV(c_lh_div) |
   80722:	430b      	orrs	r3, r1
   80724:	b2d2      	uxtb	r2, r2
   80726:	431a      	orrs	r2, r3
		/* Divide cldiv value */
		c_lh_div /= TWI_CLK_DIVIDER;
	}

	/* set clock waveform generator register */
	p_twi->TWI_CWGR =
   80728:	6102      	str	r2, [r0, #16]
			TWI_CWGR_CLDIV(c_lh_div) | TWI_CWGR_CHDIV(c_lh_div) |
			TWI_CWGR_CKDIV(ckdiv);

	return PASS;
   8072a:	2000      	movs	r0, #0
   8072c:	4770      	bx	lr
{
	uint32_t ckdiv = 0;
	uint32_t c_lh_div;

	if (ul_speed > I2C_FAST_MODE_SPEED) {
		return FAIL;
   8072e:	2001      	movs	r0, #1
	p_twi->TWI_CWGR =
			TWI_CWGR_CLDIV(c_lh_div) | TWI_CWGR_CHDIV(c_lh_div) |
			TWI_CWGR_CKDIV(ckdiv);

	return PASS;
}
   80730:	4770      	bx	lr
   80732:	bf00      	nop
   80734:	00061a80 	.word	0x00061a80

00080738 <twi_master_init>:
 * \param p_opt Options for initializing the TWI module (see \ref twi_options_t).
 *
 * \return TWI_SUCCESS if initialization is complete, error code otherwise.
 */
uint32_t twi_master_init(Twi *p_twi, const twi_options_t *p_opt)
{
   80738:	b538      	push	{r3, r4, r5, lr}
   8073a:	4604      	mov	r4, r0
   8073c:	460d      	mov	r5, r1
	uint32_t status = TWI_SUCCESS;

	/* Disable TWI interrupts */
	p_twi->TWI_IDR = ~0UL;
   8073e:	f04f 33ff 	mov.w	r3, #4294967295
   80742:	6283      	str	r3, [r0, #40]	; 0x28

	/* Dummy read in status register */
	p_twi->TWI_SR;
   80744:	6a03      	ldr	r3, [r0, #32]
 * \param p_twi Pointer to a TWI instance.
 */
void twi_reset(Twi *p_twi)
{
	/* Set SWRST bit to reset TWI peripheral */
	p_twi->TWI_CR = TWI_CR_SWRST;
   80746:	2380      	movs	r3, #128	; 0x80
   80748:	6003      	str	r3, [r0, #0]
	p_twi->TWI_RHR;
   8074a:	6b03      	ldr	r3, [r0, #48]	; 0x30
 * \param p_twi Pointer to a TWI instance.
 */
void twi_enable_master_mode(Twi *p_twi)
{
	/* Set Master Disable bit and Slave Disable bit */
	p_twi->TWI_CR = TWI_CR_MSDIS;
   8074c:	2308      	movs	r3, #8
   8074e:	6003      	str	r3, [r0, #0]
	p_twi->TWI_CR = TWI_CR_SVDIS;
   80750:	2320      	movs	r3, #32
   80752:	6003      	str	r3, [r0, #0]

	/* Set Master Enable bit */
	p_twi->TWI_CR = TWI_CR_MSEN;
   80754:	2304      	movs	r3, #4
   80756:	6003      	str	r3, [r0, #0]
	twi_reset(p_twi);

	twi_enable_master_mode(p_twi);

	/* Select the speed */
	if (twi_set_speed(p_twi, p_opt->speed, p_opt->master_clk) == FAIL) {
   80758:	6849      	ldr	r1, [r1, #4]
   8075a:	682a      	ldr	r2, [r5, #0]
   8075c:	4b05      	ldr	r3, [pc, #20]	; (80774 <twi_master_init+0x3c>)
   8075e:	4798      	blx	r3
   80760:	2801      	cmp	r0, #1
   80762:	bf14      	ite	ne
   80764:	2000      	movne	r0, #0
   80766:	2001      	moveq	r0, #1
		/* The desired speed setting is rejected */
		status = TWI_INVALID_ARGUMENT;
	}

	if (p_opt->smbus == 1) {
   80768:	7a6b      	ldrb	r3, [r5, #9]
   8076a:	2b01      	cmp	r3, #1
		p_twi->TWI_CR = TWI_CR_QUICK;
   8076c:	bf04      	itt	eq
   8076e:	2340      	moveq	r3, #64	; 0x40
   80770:	6023      	streq	r3, [r4, #0]
	}

	return status;
}
   80772:	bd38      	pop	{r3, r4, r5, pc}
   80774:	000806f5 	.word	0x000806f5

00080778 <twi_master_read>:
 * \param p_packet Packet information and data (see \ref twi_packet_t).
 *
 * \return TWI_SUCCESS if all bytes were read, error code otherwise.
 */
uint32_t twi_master_read(Twi *p_twi, twi_packet_t *p_packet)
{
   80778:	e92d 03f0 	stmdb	sp!, {r4, r5, r6, r7, r8, r9}
   8077c:	4604      	mov	r4, r0
	uint32_t status;
	uint32_t cnt = p_packet->length;
   8077e:	68cb      	ldr	r3, [r1, #12]
	uint8_t *buffer = p_packet->buffer;
   80780:	688e      	ldr	r6, [r1, #8]
	uint8_t stop_sent = 0;
	uint32_t timeout = TWI_TIMEOUT;;
	
	/* Check argument */
	if (cnt == 0) {
   80782:	2b00      	cmp	r3, #0
   80784:	d049      	beq.n	8081a <twi_master_read+0xa2>
		return TWI_INVALID_ARGUMENT;
	}

	/* Set read mode, slave address and 3 internal address byte lengths */
	p_twi->TWI_MMR = 0;
   80786:	2200      	movs	r2, #0
   80788:	6042      	str	r2, [r0, #4]
	p_twi->TWI_MMR = TWI_MMR_MREAD | TWI_MMR_DADR(p_packet->chip) |
			((p_packet->addr_length << TWI_MMR_IADRSZ_Pos) &
   8078a:	6848      	ldr	r0, [r1, #4]
   8078c:	0200      	lsls	r0, r0, #8
   8078e:	f400 7040 	and.w	r0, r0, #768	; 0x300
		return TWI_INVALID_ARGUMENT;
	}

	/* Set read mode, slave address and 3 internal address byte lengths */
	p_twi->TWI_MMR = 0;
	p_twi->TWI_MMR = TWI_MMR_MREAD | TWI_MMR_DADR(p_packet->chip) |
   80792:	f440 5080 	orr.w	r0, r0, #4096	; 0x1000
   80796:	7c0d      	ldrb	r5, [r1, #16]
   80798:	042d      	lsls	r5, r5, #16
   8079a:	f405 05fe 	and.w	r5, r5, #8323072	; 0x7f0000
   8079e:	4328      	orrs	r0, r5
   807a0:	6060      	str	r0, [r4, #4]
			((p_packet->addr_length << TWI_MMR_IADRSZ_Pos) &
			TWI_MMR_IADRSZ_Msk);

	/* Set internal address for remote chip */
	p_twi->TWI_IADR = 0;
   807a2:	60e2      	str	r2, [r4, #12]
	p_twi->TWI_IADR = twi_mk_addr(p_packet->addr, p_packet->addr_length);
   807a4:	684a      	ldr	r2, [r1, #4]
 */
static uint32_t twi_mk_addr(const uint8_t *addr, int len)
{
	uint32_t val;

	if (len == 0)
   807a6:	b15a      	cbz	r2, 807c0 <twi_master_read+0x48>
		return 0;

	val = addr[0];
   807a8:	7808      	ldrb	r0, [r1, #0]
	if (len > 1) {
   807aa:	2a01      	cmp	r2, #1
		val <<= 8;
		val |= addr[1];
   807ac:	bfc4      	itt	gt
   807ae:	784d      	ldrbgt	r5, [r1, #1]
   807b0:	ea45 2000 	orrgt.w	r0, r5, r0, lsl #8
	}
	if (len > 2) {
   807b4:	2a02      	cmp	r2, #2
   807b6:	dd04      	ble.n	807c2 <twi_master_read+0x4a>
		val <<= 8;
		val |= addr[2];
   807b8:	788a      	ldrb	r2, [r1, #2]
   807ba:	ea42 2000 	orr.w	r0, r2, r0, lsl #8
   807be:	e000      	b.n	807c2 <twi_master_read+0x4a>
static uint32_t twi_mk_addr(const uint8_t *addr, int len)
{
	uint32_t val;

	if (len == 0)
		return 0;
   807c0:	2000      	movs	r0, #0
			((p_packet->addr_length << TWI_MMR_IADRSZ_Pos) &
			TWI_MMR_IADRSZ_Msk);

	/* Set internal address for remote chip */
	p_twi->TWI_IADR = 0;
	p_twi->TWI_IADR = twi_mk_addr(p_packet->addr, p_packet->addr_length);
   807c2:	60e0      	str	r0, [r4, #12]

	/* Send a START condition */
	if (cnt == 1) {
   807c4:	2b01      	cmp	r3, #1
   807c6:	d104      	bne.n	807d2 <twi_master_read+0x5a>
		p_twi->TWI_CR = TWI_CR_START | TWI_CR_STOP;
   807c8:	2203      	movs	r2, #3
   807ca:	6022      	str	r2, [r4, #0]
		stop_sent = 1;
   807cc:	f04f 0c01 	mov.w	ip, #1
   807d0:	e02b      	b.n	8082a <twi_master_read+0xb2>
	} else {
		p_twi->TWI_CR = TWI_CR_START;
   807d2:	2201      	movs	r2, #1
   807d4:	6022      	str	r2, [r4, #0]
		stop_sent = 0;
   807d6:	f04f 0c00 	mov.w	ip, #0
   807da:	e026      	b.n	8082a <twi_master_read+0xb2>
	}

	while (cnt > 0) {
		status = p_twi->TWI_SR;
   807dc:	6a21      	ldr	r1, [r4, #32]
		if (status & TWI_SR_NACK) {
   807de:	f411 7f80 	tst.w	r1, #256	; 0x100
   807e2:	d11c      	bne.n	8081e <twi_master_read+0xa6>
			return TWI_RECEIVE_NACK;
		}

		if (!timeout--) {
   807e4:	1e55      	subs	r5, r2, #1
   807e6:	b1e2      	cbz	r2, 80822 <twi_master_read+0xaa>
   807e8:	462a      	mov	r2, r5
			return TWI_ERROR_TIMEOUT;
		}
				
		/* Last byte ? */
		if (cnt == 1  && !stop_sent) {
   807ea:	2b01      	cmp	r3, #1
   807ec:	d105      	bne.n	807fa <twi_master_read+0x82>
   807ee:	f1bc 0f00 	cmp.w	ip, #0
   807f2:	d102      	bne.n	807fa <twi_master_read+0x82>
			p_twi->TWI_CR = TWI_CR_STOP;
   807f4:	f8c4 9000 	str.w	r9, [r4]
			stop_sent = 1;
   807f8:	46c4      	mov	ip, r8
		}

		if (!(status & TWI_SR_RXRDY)) {
   807fa:	f011 0f02 	tst.w	r1, #2
   807fe:	d004      	beq.n	8080a <twi_master_read+0x92>
			continue;
		}
		*buffer++ = p_twi->TWI_RHR;
   80800:	6b22      	ldr	r2, [r4, #48]	; 0x30
   80802:	7032      	strb	r2, [r6, #0]

		cnt--;
   80804:	3b01      	subs	r3, #1
		}

		if (!(status & TWI_SR_RXRDY)) {
			continue;
		}
		*buffer++ = p_twi->TWI_RHR;
   80806:	3601      	adds	r6, #1

		cnt--;
		timeout = TWI_TIMEOUT;
   80808:	463a      	mov	r2, r7
	} else {
		p_twi->TWI_CR = TWI_CR_START;
		stop_sent = 0;
	}

	while (cnt > 0) {
   8080a:	2b00      	cmp	r3, #0
   8080c:	d1e6      	bne.n	807dc <twi_master_read+0x64>

		cnt--;
		timeout = TWI_TIMEOUT;
	}

	while (!(p_twi->TWI_SR & TWI_SR_TXCOMP)) {
   8080e:	6a23      	ldr	r3, [r4, #32]
   80810:	f013 0f01 	tst.w	r3, #1
   80814:	d0fb      	beq.n	8080e <twi_master_read+0x96>
	}

	p_twi->TWI_SR;
   80816:	6a23      	ldr	r3, [r4, #32]

	return TWI_SUCCESS;
   80818:	e014      	b.n	80844 <twi_master_read+0xcc>
	uint8_t stop_sent = 0;
	uint32_t timeout = TWI_TIMEOUT;;
	
	/* Check argument */
	if (cnt == 0) {
		return TWI_INVALID_ARGUMENT;
   8081a:	2001      	movs	r0, #1
   8081c:	e012      	b.n	80844 <twi_master_read+0xcc>
	}

	while (cnt > 0) {
		status = p_twi->TWI_SR;
		if (status & TWI_SR_NACK) {
			return TWI_RECEIVE_NACK;
   8081e:	2005      	movs	r0, #5
   80820:	e010      	b.n	80844 <twi_master_read+0xcc>
		}

		if (!timeout--) {
			return TWI_ERROR_TIMEOUT;
   80822:	2009      	movs	r0, #9
   80824:	e00e      	b.n	80844 <twi_master_read+0xcc>
	}

	while (cnt > 0) {
		status = p_twi->TWI_SR;
		if (status & TWI_SR_NACK) {
			return TWI_RECEIVE_NACK;
   80826:	2005      	movs	r0, #5
   80828:	e00c      	b.n	80844 <twi_master_read+0xcc>
		p_twi->TWI_CR = TWI_CR_START;
		stop_sent = 0;
	}

	while (cnt > 0) {
		status = p_twi->TWI_SR;
   8082a:	6a21      	ldr	r1, [r4, #32]
		if (status & TWI_SR_NACK) {
   8082c:	f411 7080 	ands.w	r0, r1, #256	; 0x100
   80830:	d1f9      	bne.n	80826 <twi_master_read+0xae>
			return TWI_RECEIVE_NACK;
		}

		if (!timeout--) {
   80832:	f643 2297 	movw	r2, #14999	; 0x3a97
			return TWI_ERROR_TIMEOUT;
		}
				
		/* Last byte ? */
		if (cnt == 1  && !stop_sent) {
			p_twi->TWI_CR = TWI_CR_STOP;
   80836:	f04f 0902 	mov.w	r9, #2
			stop_sent = 1;
   8083a:	f04f 0801 	mov.w	r8, #1
			continue;
		}
		*buffer++ = p_twi->TWI_RHR;

		cnt--;
		timeout = TWI_TIMEOUT;
   8083e:	f643 2798 	movw	r7, #15000	; 0x3a98
   80842:	e7d2      	b.n	807ea <twi_master_read+0x72>
	}

	p_twi->TWI_SR;

	return TWI_SUCCESS;
}
   80844:	e8bd 03f0 	ldmia.w	sp!, {r4, r5, r6, r7, r8, r9}
   80848:	4770      	bx	lr
   8084a:	bf00      	nop

0008084c <twi_master_write>:
 * \param p_packet Packet information and data (see \ref twi_packet_t).
 *
 * \return TWI_SUCCESS if all bytes were written, error code otherwise.
 */
uint32_t twi_master_write(Twi *p_twi, twi_packet_t *p_packet)
{	
   8084c:	b470      	push	{r4, r5, r6}
   8084e:	4603      	mov	r3, r0
	uint32_t status;
	uint32_t cnt = p_packet->length;
   80850:	68ca      	ldr	r2, [r1, #12]
	uint8_t *buffer = p_packet->buffer;
   80852:	6888      	ldr	r0, [r1, #8]

	/* Check argument */
	if (cnt == 0) {
   80854:	2a00      	cmp	r2, #0
   80856:	d03f      	beq.n	808d8 <twi_master_write+0x8c>
		return TWI_INVALID_ARGUMENT;
	}
	
	/* Set write mode, slave address and 3 internal address byte lengths */
	p_twi->TWI_MMR = 0;
   80858:	2400      	movs	r4, #0
   8085a:	605c      	str	r4, [r3, #4]
	p_twi->TWI_MMR = TWI_MMR_DADR(p_packet->chip) |
   8085c:	7c0e      	ldrb	r6, [r1, #16]
   8085e:	0436      	lsls	r6, r6, #16
   80860:	f406 06fe 	and.w	r6, r6, #8323072	; 0x7f0000
			((p_packet->addr_length << TWI_MMR_IADRSZ_Pos) &
   80864:	684d      	ldr	r5, [r1, #4]
   80866:	022d      	lsls	r5, r5, #8
   80868:	f405 7540 	and.w	r5, r5, #768	; 0x300
		return TWI_INVALID_ARGUMENT;
	}
	
	/* Set write mode, slave address and 3 internal address byte lengths */
	p_twi->TWI_MMR = 0;
	p_twi->TWI_MMR = TWI_MMR_DADR(p_packet->chip) |
   8086c:	4335      	orrs	r5, r6
   8086e:	605d      	str	r5, [r3, #4]
			((p_packet->addr_length << TWI_MMR_IADRSZ_Pos) &
			TWI_MMR_IADRSZ_Msk);

	/* Set internal address for remote chip */
	p_twi->TWI_IADR = 0;
   80870:	60dc      	str	r4, [r3, #12]
	p_twi->TWI_IADR = twi_mk_addr(p_packet->addr, p_packet->addr_length);
   80872:	684c      	ldr	r4, [r1, #4]
 */
static uint32_t twi_mk_addr(const uint8_t *addr, int len)
{
	uint32_t val;

	if (len == 0)
   80874:	b15c      	cbz	r4, 8088e <twi_master_write+0x42>
		return 0;

	val = addr[0];
   80876:	780d      	ldrb	r5, [r1, #0]
	if (len > 1) {
   80878:	2c01      	cmp	r4, #1
		val <<= 8;
		val |= addr[1];
   8087a:	bfc4      	itt	gt
   8087c:	784e      	ldrbgt	r6, [r1, #1]
   8087e:	ea46 2505 	orrgt.w	r5, r6, r5, lsl #8
	}
	if (len > 2) {
   80882:	2c02      	cmp	r4, #2
   80884:	dd04      	ble.n	80890 <twi_master_write+0x44>
		val <<= 8;
		val |= addr[2];
   80886:	7889      	ldrb	r1, [r1, #2]
   80888:	ea41 2505 	orr.w	r5, r1, r5, lsl #8
   8088c:	e000      	b.n	80890 <twi_master_write+0x44>
static uint32_t twi_mk_addr(const uint8_t *addr, int len)
{
	uint32_t val;

	if (len == 0)
		return 0;
   8088e:	2500      	movs	r5, #0
			((p_packet->addr_length << TWI_MMR_IADRSZ_Pos) &
			TWI_MMR_IADRSZ_Msk);

	/* Set internal address for remote chip */
	p_twi->TWI_IADR = 0;
	p_twi->TWI_IADR = twi_mk_addr(p_packet->addr, p_packet->addr_length);
   80890:	60dd      	str	r5, [r3, #12]
   80892:	e00b      	b.n	808ac <twi_master_write+0x60>
		
	/* Send all bytes */
	while (cnt > 0) {
		status = p_twi->TWI_SR;
   80894:	6a19      	ldr	r1, [r3, #32]
		if (status & TWI_SR_NACK) {
   80896:	f411 7f80 	tst.w	r1, #256	; 0x100
   8089a:	d11f      	bne.n	808dc <twi_master_write+0x90>
			return TWI_RECEIVE_NACK;
		}

		if (!(status & TWI_SR_TXRDY)) {
   8089c:	f011 0f04 	tst.w	r1, #4
   808a0:	d0f8      	beq.n	80894 <twi_master_write+0x48>
			continue;
		}
		p_twi->TWI_THR = *buffer++;
   808a2:	f810 1b01 	ldrb.w	r1, [r0], #1
   808a6:	6359      	str	r1, [r3, #52]	; 0x34
	/* Set internal address for remote chip */
	p_twi->TWI_IADR = 0;
	p_twi->TWI_IADR = twi_mk_addr(p_packet->addr, p_packet->addr_length);
		
	/* Send all bytes */
	while (cnt > 0) {
   808a8:	3a01      	subs	r2, #1
   808aa:	d007      	beq.n	808bc <twi_master_write+0x70>
		status = p_twi->TWI_SR;
   808ac:	6a19      	ldr	r1, [r3, #32]
		if (status & TWI_SR_NACK) {
   808ae:	f411 7f80 	tst.w	r1, #256	; 0x100
   808b2:	d115      	bne.n	808e0 <twi_master_write+0x94>
			return TWI_RECEIVE_NACK;
		}

		if (!(status & TWI_SR_TXRDY)) {
   808b4:	f011 0f04 	tst.w	r1, #4
   808b8:	d1f3      	bne.n	808a2 <twi_master_write+0x56>
   808ba:	e7eb      	b.n	80894 <twi_master_write+0x48>

		cnt--;
	}

	while (1) {
		status = p_twi->TWI_SR;
   808bc:	6a1a      	ldr	r2, [r3, #32]
		if (status & TWI_SR_NACK) {
   808be:	f412 7080 	ands.w	r0, r2, #256	; 0x100
   808c2:	d10f      	bne.n	808e4 <twi_master_write+0x98>
			return TWI_RECEIVE_NACK;
		}

		if (status & TWI_SR_TXRDY) {
   808c4:	f012 0f04 	tst.w	r2, #4
   808c8:	d0f8      	beq.n	808bc <twi_master_write+0x70>
			break;
		}
	}

	p_twi->TWI_CR = TWI_CR_STOP;
   808ca:	2202      	movs	r2, #2
   808cc:	601a      	str	r2, [r3, #0]

	while (!(p_twi->TWI_SR & TWI_SR_TXCOMP)) {
   808ce:	6a1a      	ldr	r2, [r3, #32]
   808d0:	f012 0f01 	tst.w	r2, #1
   808d4:	d0fb      	beq.n	808ce <twi_master_write+0x82>
   808d6:	e006      	b.n	808e6 <twi_master_write+0x9a>
	uint32_t cnt = p_packet->length;
	uint8_t *buffer = p_packet->buffer;

	/* Check argument */
	if (cnt == 0) {
		return TWI_INVALID_ARGUMENT;
   808d8:	2001      	movs	r0, #1
   808da:	e004      	b.n	808e6 <twi_master_write+0x9a>
		
	/* Send all bytes */
	while (cnt > 0) {
		status = p_twi->TWI_SR;
		if (status & TWI_SR_NACK) {
			return TWI_RECEIVE_NACK;
   808dc:	2005      	movs	r0, #5
   808de:	e002      	b.n	808e6 <twi_master_write+0x9a>
   808e0:	2005      	movs	r0, #5
   808e2:	e000      	b.n	808e6 <twi_master_write+0x9a>
	}

	while (1) {
		status = p_twi->TWI_SR;
		if (status & TWI_SR_NACK) {
			return TWI_RECEIVE_NACK;
   808e4:	2005      	movs	r0, #5

	while (!(p_twi->TWI_SR & TWI_SR_TXCOMP)) {
	}

	return TWI_SUCCESS;
}
   808e6:	bc70      	pop	{r4, r5, r6}
   808e8:	4770      	bx	lr
   808ea:	bf00      	nop

000808ec <twi_init>:

twi_package_t tx_packet;
twi_package_t rx_packet;

void twi_init()
{
   808ec:	b500      	push	{lr}
   808ee:	b085      	sub	sp, #20
	/* Initializes TWI master options */
	twi_master_options_t opt;
	opt.speed = TWI_SPEED;
   808f0:	4b0a      	ldr	r3, [pc, #40]	; (8091c <twi_init+0x30>)
   808f2:	9302      	str	r3, [sp, #8]
typedef twi_packet_t twi_package_t;

static inline uint32_t twi_master_setup(twi_master_t p_twi,
		twi_master_options_t *p_opt)
{
	p_opt->master_clk = sysclk_get_cpu_hz();
   808f4:	4b0a      	ldr	r3, [pc, #40]	; (80920 <twi_init+0x34>)
   808f6:	9301      	str	r3, [sp, #4]
	p_opt->smbus      = 0;
   808f8:	2300      	movs	r3, #0
   808fa:	f88d 300d 	strb.w	r3, [sp, #13]
 *
 * \param ul_id Id (number) of the peripheral clock.
 */
static inline void sysclk_enable_peripheral_clock(uint32_t ul_id)
{
	pmc_enable_periph_clk(ul_id);
   808fe:	2016      	movs	r0, #22
   80900:	4b08      	ldr	r3, [pc, #32]	; (80924 <twi_init+0x38>)
   80902:	4798      	blx	r3
	} else {
		// Do Nothing
	}
#endif

	return (twi_master_init(p_twi, p_opt));
   80904:	4808      	ldr	r0, [pc, #32]	; (80928 <twi_init+0x3c>)
   80906:	a901      	add	r1, sp, #4
   80908:	4b08      	ldr	r3, [pc, #32]	; (8092c <twi_init+0x40>)
   8090a:	4798      	blx	r3
	
	/* Initializes the TWI master driver */
	if (twi_master_setup(TWI_PORT, &opt) == TWI_SUCCESS)
   8090c:	b910      	cbnz	r0, 80914 <twi_init+0x28>
	{
		printf("Master initialized\r\n");
   8090e:	4808      	ldr	r0, [pc, #32]	; (80930 <twi_init+0x44>)
   80910:	4b08      	ldr	r3, [pc, #32]	; (80934 <twi_init+0x48>)
   80912:	4798      	blx	r3
	}
}
   80914:	b005      	add	sp, #20
   80916:	f85d fb04 	ldr.w	pc, [sp], #4
   8091a:	bf00      	nop
   8091c:	000186a0 	.word	0x000186a0
   80920:	0501bd00 	.word	0x0501bd00
   80924:	00083cbd 	.word	0x00083cbd
   80928:	4008c000 	.word	0x4008c000
   8092c:	00080739 	.word	0x00080739
   80930:	00088064 	.word	0x00088064
   80934:	00084fd9 	.word	0x00084fd9

00080938 <twi_send_packet>:

void twi_send_packet(uint8_t *tx_buffer, uint8_t recipient_addr)
{
   80938:	b570      	push	{r4, r5, r6, lr}
   8093a:	4604      	mov	r4, r0
   8093c:	460d      	mov	r5, r1
	printf("Sending: %x, %x, %x\r\n", tx_buffer[0], tx_buffer[1], tx_buffer[2]);
   8093e:	480b      	ldr	r0, [pc, #44]	; (8096c <twi_send_packet+0x34>)
   80940:	7821      	ldrb	r1, [r4, #0]
   80942:	7862      	ldrb	r2, [r4, #1]
   80944:	78a3      	ldrb	r3, [r4, #2]
   80946:	4e0a      	ldr	r6, [pc, #40]	; (80970 <twi_send_packet+0x38>)
   80948:	47b0      	blx	r6
	
	uint8_t data_length = 0;
	if (recipient_addr == SLAVE_ADDR_ARM)
	{
		data_length = TX_ARM_LENGTH;
   8094a:	2d02      	cmp	r5, #2
   8094c:	bf14      	ite	ne
   8094e:	2101      	movne	r1, #1
   80950:	2103      	moveq	r1, #3
	else
	{
		data_length = TX_NAV_LENGTH;
	}
	
	tx_packet.addr[0] = 0;							// TWI slave memory address data MSB
   80952:	4b08      	ldr	r3, [pc, #32]	; (80974 <twi_send_packet+0x3c>)
   80954:	2200      	movs	r2, #0
   80956:	701a      	strb	r2, [r3, #0]
	tx_packet.addr[1] = 0;							// TWI slave memory address data LSB
   80958:	705a      	strb	r2, [r3, #1]
	tx_packet.addr_length = 0;						// TWI slave memory address data size
   8095a:	605a      	str	r2, [r3, #4]
	tx_packet.chip = recipient_addr;				// TWI slave bus address
   8095c:	741d      	strb	r5, [r3, #16]
	tx_packet.buffer = (void*) tx_buffer;			// transfer data source buffer
   8095e:	609c      	str	r4, [r3, #8]
	tx_packet.length = data_length;					// transfer data size (bytes)
   80960:	60d9      	str	r1, [r3, #12]

	/* Performs a multi-byte write access then checks the result */
	uint32_t status = twi_master_write(TWI_PORT, &tx_packet);
   80962:	4805      	ldr	r0, [pc, #20]	; (80978 <twi_send_packet+0x40>)
   80964:	4619      	mov	r1, r3
   80966:	4b05      	ldr	r3, [pc, #20]	; (8097c <twi_send_packet+0x44>)
   80968:	4798      	blx	r3
   8096a:	bd70      	pop	{r4, r5, r6, pc}
   8096c:	0008807c 	.word	0x0008807c
   80970:	00084fd9 	.word	0x00084fd9
   80974:	20078d1c 	.word	0x20078d1c
   80978:	4008c000 	.word	0x4008c000
   8097c:	0008084d 	.word	0x0008084d

00080980 <twi_request_packet>:
	// printf("Status: %d\r\n", (int) status);
}

void twi_request_packet(uint8_t *rx_buffer, uint8_t recipient_addr)
{
   80980:	b5f8      	push	{r3, r4, r5, r6, r7, lr}
   80982:	4607      	mov	r7, r0
	uint8_t data_length = 0;
	if (recipient_addr == SLAVE_ADDR_ARM)
	{
		data_length = RX_ARM_LENGTH;
   80984:	2902      	cmp	r1, #2
   80986:	bf14      	ite	ne
   80988:	2005      	movne	r0, #5
   8098a:	2003      	moveq	r0, #3
	else 
	{
		data_length = RX_NAV_LENGTH;
	}
	
	rx_packet.addr[0] = 0;							// TWI slave memory address data MSB
   8098c:	4b0b      	ldr	r3, [pc, #44]	; (809bc <twi_request_packet+0x3c>)
   8098e:	2200      	movs	r2, #0
   80990:	701a      	strb	r2, [r3, #0]
	rx_packet.addr[1] = 0;							// TWI slave memory address data LSB
   80992:	705a      	strb	r2, [r3, #1]
	rx_packet.addr_length = 0;						// TWI slave memory address data size
   80994:	605a      	str	r2, [r3, #4]
	rx_packet.chip = recipient_addr;				// TWI slave bus address
   80996:	7419      	strb	r1, [r3, #16]
	rx_packet.buffer = (void*) rx_buffer;			// transfer data source buffer
   80998:	609f      	str	r7, [r3, #8]
	rx_packet.length = data_length;					// transfer data size (bytes)
   8099a:	60d8      	str	r0, [r3, #12]
	
	/* Performs a multi-byte read access then checks the result */
	while (twi_master_read(TWI_PORT, &rx_packet) != TWI_SUCCESS);
   8099c:	4e08      	ldr	r6, [pc, #32]	; (809c0 <twi_request_packet+0x40>)
   8099e:	461d      	mov	r5, r3
   809a0:	4c08      	ldr	r4, [pc, #32]	; (809c4 <twi_request_packet+0x44>)
   809a2:	4630      	mov	r0, r6
   809a4:	4629      	mov	r1, r5
   809a6:	47a0      	blx	r4
   809a8:	2800      	cmp	r0, #0
   809aa:	d1fa      	bne.n	809a2 <twi_request_packet+0x22>
	// indicate();
	
	printf("Receiving: %x, %x, %x\r\n", rx_buffer[0], rx_buffer[1], rx_buffer[2]);
   809ac:	4806      	ldr	r0, [pc, #24]	; (809c8 <twi_request_packet+0x48>)
   809ae:	7839      	ldrb	r1, [r7, #0]
   809b0:	787a      	ldrb	r2, [r7, #1]
   809b2:	78bb      	ldrb	r3, [r7, #2]
   809b4:	4c05      	ldr	r4, [pc, #20]	; (809cc <twi_request_packet+0x4c>)
   809b6:	47a0      	blx	r4
   809b8:	bdf8      	pop	{r3, r4, r5, r6, r7, pc}
   809ba:	bf00      	nop
   809bc:	20078d30 	.word	0x20078d30
   809c0:	4008c000 	.word	0x4008c000
   809c4:	00080779 	.word	0x00080779
   809c8:	00088094 	.word	0x00088094
   809cc:	00084fd9 	.word	0x00084fd9

000809d0 <twi_arm_init>:
}

void twi_arm_init(TWI_CMD_Init_Req twi_cmd_init_req_t, uint8_t *tx_buffer, uint8_t *rx_buffer)
{
   809d0:	b538      	push	{r3, r4, r5, lr}
   809d2:	4604      	mov	r4, r0
   809d4:	4615      	mov	r5, r2
	tx_buffer[0] = TWI_CMD_ARM_INIT;
   809d6:	2320      	movs	r3, #32
   809d8:	700b      	strb	r3, [r1, #0]
	tx_buffer[1] = twi_cmd_init_req_t;
   809da:	7048      	strb	r0, [r1, #1]
	
	twi_send_packet(tx_buffer, SLAVE_ADDR_ARM);
   809dc:	4608      	mov	r0, r1
   809de:	2102      	movs	r1, #2
   809e0:	4b09      	ldr	r3, [pc, #36]	; (80a08 <twi_arm_init+0x38>)
   809e2:	4798      	blx	r3
	twi_request_packet(rx_buffer, SLAVE_ADDR_ARM);
   809e4:	4628      	mov	r0, r5
   809e6:	2102      	movs	r1, #2
   809e8:	4b08      	ldr	r3, [pc, #32]	; (80a0c <twi_arm_init+0x3c>)
   809ea:	4798      	blx	r3
	
	if (twi_cmd_init_req_t == TWI_CMD_ARM_REQ_BOX_INFO)
   809ec:	2c04      	cmp	r4, #4
   809ee:	d109      	bne.n	80a04 <twi_arm_init+0x34>
	{
		// Do nothing
	}
	else if (twi_cmd_init_req_t == TWI_CMD_ARM_REQ_COLLECT_INFO)
	{
		if (rx_buffer[2] == 1)
   809f0:	78ab      	ldrb	r3, [r5, #2]
   809f2:	2b01      	cmp	r3, #1
   809f4:	d103      	bne.n	809fe <twi_arm_init+0x2e>
		{
			printf("Arlo can pick up all objects without going to box in-between pick-ups!\r\n");
   809f6:	4806      	ldr	r0, [pc, #24]	; (80a10 <twi_arm_init+0x40>)
   809f8:	4b06      	ldr	r3, [pc, #24]	; (80a14 <twi_arm_init+0x44>)
   809fa:	4798      	blx	r3
   809fc:	bd38      	pop	{r3, r4, r5, pc}
		}
		else
		{
			printf("Arlo cannot pick up all objects without going to box in-between pick-ups!\r\n");
   809fe:	4806      	ldr	r0, [pc, #24]	; (80a18 <twi_arm_init+0x48>)
   80a00:	4b04      	ldr	r3, [pc, #16]	; (80a14 <twi_arm_init+0x44>)
   80a02:	4798      	blx	r3
   80a04:	bd38      	pop	{r3, r4, r5, pc}
   80a06:	bf00      	nop
   80a08:	00080939 	.word	0x00080939
   80a0c:	00080981 	.word	0x00080981
   80a10:	000880ac 	.word	0x000880ac
   80a14:	00084fd9 	.word	0x00084fd9
   80a18:	000880f8 	.word	0x000880f8

00080a1c <twi_nav_init>:
		// Something went wrong..
	}
}

void twi_nav_init(uint8_t object_id, uint8_t *tx_nav_buffer, uint8_t *rx_nav_buffer)
{
   80a1c:	b510      	push	{r4, lr}
   80a1e:	4614      	mov	r4, r2
	tx_nav_buffer[0] = object_id;
   80a20:	7008      	strb	r0, [r1, #0]

	twi_send_packet(tx_nav_buffer, SLAVE_ADDR_NAV);
   80a22:	4608      	mov	r0, r1
   80a24:	2103      	movs	r1, #3
   80a26:	4b03      	ldr	r3, [pc, #12]	; (80a34 <twi_nav_init+0x18>)
   80a28:	4798      	blx	r3
	twi_request_packet(rx_nav_buffer, SLAVE_ADDR_NAV);
   80a2a:	4620      	mov	r0, r4
   80a2c:	2103      	movs	r1, #3
   80a2e:	4b02      	ldr	r3, [pc, #8]	; (80a38 <twi_nav_init+0x1c>)
   80a30:	4798      	blx	r3
   80a32:	bd10      	pop	{r4, pc}
   80a34:	00080939 	.word	0x00080939
   80a38:	00080981 	.word	0x00080981

00080a3c <twi_start_pick_up>:
		delay_ms(100);
	}
}

void twi_start_pick_up(uint8_t *tx_buffer, uint8_t *rx_buffer)
{
   80a3c:	b508      	push	{r3, lr}
	tx_buffer[0] = TWI_CMD_PICK_UP_START;
   80a3e:	2322      	movs	r3, #34	; 0x22
   80a40:	7003      	strb	r3, [r0, #0]
	
	twi_send_packet(tx_buffer, SLAVE_ADDR_ARM);
   80a42:	2102      	movs	r1, #2
   80a44:	4b01      	ldr	r3, [pc, #4]	; (80a4c <twi_start_pick_up+0x10>)
   80a46:	4798      	blx	r3
   80a48:	bd08      	pop	{r3, pc}
   80a4a:	bf00      	nop
   80a4c:	00080939 	.word	0x00080939

00080a50 <twi_start_drop_off>:
	/* No need to get data back */
}

void twi_start_drop_off(uint8_t *tx_buffer, uint8_t *rx_buffer)
{
   80a50:	b508      	push	{r3, lr}
	tx_buffer[0] = TWI_CMD_DROP_OFF_START;
   80a52:	2321      	movs	r3, #33	; 0x21
   80a54:	7003      	strb	r3, [r0, #0]
	
	twi_send_packet(tx_buffer, SLAVE_ADDR_ARM);
   80a56:	2102      	movs	r1, #2
   80a58:	4b01      	ldr	r3, [pc, #4]	; (80a60 <twi_start_drop_off+0x10>)
   80a5a:	4798      	blx	r3
   80a5c:	bd08      	pop	{r3, pc}
   80a5e:	bf00      	nop
   80a60:	00080939 	.word	0x00080939

00080a64 <twi_check_pick_up_status>:
	/* Re-initialize arm */
	arlo_arm_init();
}

void twi_check_pick_up_status(uint8_t *tx_buffer, uint8_t *rx_buffer)
{
   80a64:	b510      	push	{r4, lr}
   80a66:	460c      	mov	r4, r1
	tx_buffer[0] = TWI_CMD_PICK_UP_STATUS;
   80a68:	2324      	movs	r3, #36	; 0x24
   80a6a:	7003      	strb	r3, [r0, #0]
	
	twi_send_packet(tx_buffer, SLAVE_ADDR_ARM);
   80a6c:	2102      	movs	r1, #2
   80a6e:	4b03      	ldr	r3, [pc, #12]	; (80a7c <twi_check_pick_up_status+0x18>)
   80a70:	4798      	blx	r3
	twi_request_packet(rx_buffer, SLAVE_ADDR_ARM);
   80a72:	4620      	mov	r0, r4
   80a74:	2102      	movs	r1, #2
   80a76:	4b02      	ldr	r3, [pc, #8]	; (80a80 <twi_check_pick_up_status+0x1c>)
   80a78:	4798      	blx	r3
   80a7a:	bd10      	pop	{r4, pc}
   80a7c:	00080939 	.word	0x00080939
   80a80:	00080981 	.word	0x00080981

00080a84 <twi_check_drop_off_status>:
	
	/* Do something with the received data */
}

void twi_check_drop_off_status(uint8_t *tx_buffer, uint8_t *rx_buffer)
{
   80a84:	b510      	push	{r4, lr}
   80a86:	460c      	mov	r4, r1
	tx_buffer[0] = TWI_CMD_DROP_OFF_STATUS;
   80a88:	2323      	movs	r3, #35	; 0x23
   80a8a:	7003      	strb	r3, [r0, #0]
	
	twi_send_packet(tx_buffer, SLAVE_ADDR_ARM);
   80a8c:	2102      	movs	r1, #2
   80a8e:	4b03      	ldr	r3, [pc, #12]	; (80a9c <twi_check_drop_off_status+0x18>)
   80a90:	4798      	blx	r3
	twi_request_packet(rx_buffer, SLAVE_ADDR_ARM);
   80a92:	4620      	mov	r0, r4
   80a94:	2102      	movs	r1, #2
   80a96:	4b02      	ldr	r3, [pc, #8]	; (80aa0 <twi_check_drop_off_status+0x1c>)
   80a98:	4798      	blx	r3
   80a9a:	bd10      	pop	{r4, pc}
   80a9c:	00080939 	.word	0x00080939
   80aa0:	00080981 	.word	0x00080981

00080aa4 <twi_control_arm>:
	twi_send_packet(tx_nav_buffer, SLAVE_ADDR_NAV);
	twi_request_packet(rx_nav_buffer, SLAVE_ADDR_NAV);
}

void twi_control_arm(uint8_t *tx_buffer, uint8_t *rx_buffer)
{
   80aa4:	b508      	push	{r3, lr}
	TWI_CMD twi_cmd_t = tx_buffer[0]; 
	switch (twi_cmd_t)
   80aa6:	7803      	ldrb	r3, [r0, #0]
   80aa8:	3b21      	subs	r3, #33	; 0x21
   80aaa:	2b04      	cmp	r3, #4
   80aac:	d812      	bhi.n	80ad4 <twi_control_arm+0x30>
   80aae:	e8df f003 	tbb	[pc, r3]
   80ab2:	0603      	.short	0x0603
   80ab4:	0c09      	.short	0x0c09
   80ab6:	0f          	.byte	0x0f
   80ab7:	00          	.byte	0x00
	{
		case TWI_CMD_DROP_OFF_START:
		twi_start_drop_off(tx_buffer, rx_buffer);
   80ab8:	4b07      	ldr	r3, [pc, #28]	; (80ad8 <twi_control_arm+0x34>)
   80aba:	4798      	blx	r3
		break;
   80abc:	bd08      	pop	{r3, pc}
		case TWI_CMD_PICK_UP_START:
		twi_start_pick_up(tx_buffer, rx_buffer);
   80abe:	4b07      	ldr	r3, [pc, #28]	; (80adc <twi_control_arm+0x38>)
   80ac0:	4798      	blx	r3
		break;
   80ac2:	bd08      	pop	{r3, pc}
		case TWI_CMD_DROP_OFF_STATUS:
		twi_check_drop_off_status(tx_buffer, rx_buffer);
   80ac4:	4b06      	ldr	r3, [pc, #24]	; (80ae0 <twi_control_arm+0x3c>)
   80ac6:	4798      	blx	r3
		break;
   80ac8:	bd08      	pop	{r3, pc}
		case TWI_CMD_PICK_UP_STATUS:
		twi_check_pick_up_status(tx_buffer, rx_buffer);
   80aca:	4b06      	ldr	r3, [pc, #24]	; (80ae4 <twi_control_arm+0x40>)
   80acc:	4798      	blx	r3
		break;
   80ace:	bd08      	pop	{r3, pc}
}

void twi_reset_arm(uint8_t *tx_buffer, uint8_t *rx_buffer)
{
	/* Re-initialize arm */
	arlo_arm_init();
   80ad0:	4b05      	ldr	r3, [pc, #20]	; (80ae8 <twi_control_arm+0x44>)
   80ad2:	4798      	blx	r3
   80ad4:	bd08      	pop	{r3, pc}
   80ad6:	bf00      	nop
   80ad8:	00080a51 	.word	0x00080a51
   80adc:	00080a3d 	.word	0x00080a3d
   80ae0:	00080a85 	.word	0x00080a85
   80ae4:	00080a65 	.word	0x00080a65
   80ae8:	00080149 	.word	0x00080149

00080aec <usart_serial_getchar>:
 * \param p_usart   Base address of the USART instance.
 * \param data   Data to read
 *
 */
static inline void usart_serial_getchar(usart_if p_usart, uint8_t *data)
{
   80aec:	b5f0      	push	{r4, r5, r6, r7, lr}
   80aee:	b083      	sub	sp, #12
   80af0:	4604      	mov	r4, r0
   80af2:	460d      	mov	r5, r1
	uint32_t val = 0;
   80af4:	2300      	movs	r3, #0
   80af6:	9301      	str	r3, [sp, #4]

	/* Avoid Cppcheck Warning */
	UNUSED(val);

#ifdef UART
	if (UART == (Uart*)p_usart) {
   80af8:	4b1f      	ldr	r3, [pc, #124]	; (80b78 <usart_serial_getchar+0x8c>)
   80afa:	4298      	cmp	r0, r3
   80afc:	d107      	bne.n	80b0e <usart_serial_getchar+0x22>
		while (uart_read((Uart*)p_usart, data));
   80afe:	461f      	mov	r7, r3
   80b00:	4e1e      	ldr	r6, [pc, #120]	; (80b7c <usart_serial_getchar+0x90>)
   80b02:	4638      	mov	r0, r7
   80b04:	4629      	mov	r1, r5
   80b06:	47b0      	blx	r6
   80b08:	2800      	cmp	r0, #0
   80b0a:	d1fa      	bne.n	80b02 <usart_serial_getchar+0x16>
   80b0c:	e019      	b.n	80b42 <usart_serial_getchar+0x56>
		while (usart_read(p_usart, &val));
		*data = (uint8_t)(val & 0xFF);
	}
#else
# ifdef USART0
	if (USART0 == p_usart) {
   80b0e:	4b1c      	ldr	r3, [pc, #112]	; (80b80 <usart_serial_getchar+0x94>)
   80b10:	4298      	cmp	r0, r3
   80b12:	d109      	bne.n	80b28 <usart_serial_getchar+0x3c>
		while (usart_read(p_usart, &val));
   80b14:	461f      	mov	r7, r3
   80b16:	4e1b      	ldr	r6, [pc, #108]	; (80b84 <usart_serial_getchar+0x98>)
   80b18:	4638      	mov	r0, r7
   80b1a:	a901      	add	r1, sp, #4
   80b1c:	47b0      	blx	r6
   80b1e:	2800      	cmp	r0, #0
   80b20:	d1fa      	bne.n	80b18 <usart_serial_getchar+0x2c>
		*data = (uint8_t)(val & 0xFF);
   80b22:	9b01      	ldr	r3, [sp, #4]
   80b24:	702b      	strb	r3, [r5, #0]
   80b26:	e019      	b.n	80b5c <usart_serial_getchar+0x70>
	}
# endif
# ifdef USART1
	if (USART1 == p_usart) {
   80b28:	4b17      	ldr	r3, [pc, #92]	; (80b88 <usart_serial_getchar+0x9c>)
   80b2a:	4298      	cmp	r0, r3
   80b2c:	d109      	bne.n	80b42 <usart_serial_getchar+0x56>
		while (usart_read(p_usart, &val));
   80b2e:	461e      	mov	r6, r3
   80b30:	4c14      	ldr	r4, [pc, #80]	; (80b84 <usart_serial_getchar+0x98>)
   80b32:	4630      	mov	r0, r6
   80b34:	a901      	add	r1, sp, #4
   80b36:	47a0      	blx	r4
   80b38:	2800      	cmp	r0, #0
   80b3a:	d1fa      	bne.n	80b32 <usart_serial_getchar+0x46>
		*data = (uint8_t)(val & 0xFF);
   80b3c:	9b01      	ldr	r3, [sp, #4]
   80b3e:	702b      	strb	r3, [r5, #0]
   80b40:	e018      	b.n	80b74 <usart_serial_getchar+0x88>
	}
# endif
# ifdef USART2
	if (USART2 == p_usart) {
   80b42:	4b12      	ldr	r3, [pc, #72]	; (80b8c <usart_serial_getchar+0xa0>)
   80b44:	429c      	cmp	r4, r3
   80b46:	d109      	bne.n	80b5c <usart_serial_getchar+0x70>
		while (usart_read(p_usart, &val));
   80b48:	461e      	mov	r6, r3
   80b4a:	4c0e      	ldr	r4, [pc, #56]	; (80b84 <usart_serial_getchar+0x98>)
   80b4c:	4630      	mov	r0, r6
   80b4e:	a901      	add	r1, sp, #4
   80b50:	47a0      	blx	r4
   80b52:	2800      	cmp	r0, #0
   80b54:	d1fa      	bne.n	80b4c <usart_serial_getchar+0x60>
		*data = (uint8_t)(val & 0xFF);
   80b56:	9b01      	ldr	r3, [sp, #4]
   80b58:	702b      	strb	r3, [r5, #0]
   80b5a:	e00b      	b.n	80b74 <usart_serial_getchar+0x88>
	}
# endif
# ifdef USART3
	if (USART3 == p_usart) {
   80b5c:	4b0c      	ldr	r3, [pc, #48]	; (80b90 <usart_serial_getchar+0xa4>)
   80b5e:	429c      	cmp	r4, r3
   80b60:	d108      	bne.n	80b74 <usart_serial_getchar+0x88>
		while (usart_read(p_usart, &val));
   80b62:	461e      	mov	r6, r3
   80b64:	4c07      	ldr	r4, [pc, #28]	; (80b84 <usart_serial_getchar+0x98>)
   80b66:	4630      	mov	r0, r6
   80b68:	a901      	add	r1, sp, #4
   80b6a:	47a0      	blx	r4
   80b6c:	2800      	cmp	r0, #0
   80b6e:	d1fa      	bne.n	80b66 <usart_serial_getchar+0x7a>
		*data = (uint8_t)(val & 0xFF);
   80b70:	9b01      	ldr	r3, [sp, #4]
   80b72:	702b      	strb	r3, [r5, #0]
		*data = (uint8_t)(val & 0xFF);
	}
# endif
#endif /* ifdef USART */

}
   80b74:	b003      	add	sp, #12
   80b76:	bdf0      	pop	{r4, r5, r6, r7, pc}
   80b78:	400e0800 	.word	0x400e0800
   80b7c:	0008150d 	.word	0x0008150d
   80b80:	40098000 	.word	0x40098000
   80b84:	00081459 	.word	0x00081459
   80b88:	4009c000 	.word	0x4009c000
   80b8c:	400a0000 	.word	0x400a0000
   80b90:	400a4000 	.word	0x400a4000

00080b94 <usart_serial_putchar>:
 *   \retval 1  The character was written.
 *   \retval 0  The function timed out before the USART transmitter became
 * ready to send.
 */
static inline int usart_serial_putchar(usart_if p_usart, const uint8_t c)
{
   80b94:	b570      	push	{r4, r5, r6, lr}
   80b96:	460c      	mov	r4, r1
#ifdef UART
	if (UART == (Uart*)p_usart) {
   80b98:	4b21      	ldr	r3, [pc, #132]	; (80c20 <usart_serial_putchar+0x8c>)
   80b9a:	4298      	cmp	r0, r3
   80b9c:	d107      	bne.n	80bae <usart_serial_putchar+0x1a>
		while (uart_write((Uart*)p_usart, c)!=0);
   80b9e:	461e      	mov	r6, r3
   80ba0:	4d20      	ldr	r5, [pc, #128]	; (80c24 <usart_serial_putchar+0x90>)
   80ba2:	4630      	mov	r0, r6
   80ba4:	4621      	mov	r1, r4
   80ba6:	47a8      	blx	r5
   80ba8:	2800      	cmp	r0, #0
   80baa:	d1fa      	bne.n	80ba2 <usart_serial_putchar+0xe>
   80bac:	e02b      	b.n	80c06 <usart_serial_putchar+0x72>
		while (usart_write(p_usart, c)!=0);
		return 1;
	}
#else
# ifdef USART0
	if (USART0 == p_usart) {
   80bae:	4b1e      	ldr	r3, [pc, #120]	; (80c28 <usart_serial_putchar+0x94>)
   80bb0:	4298      	cmp	r0, r3
   80bb2:	d107      	bne.n	80bc4 <usart_serial_putchar+0x30>
		while (usart_write(p_usart, c)!=0);
   80bb4:	461e      	mov	r6, r3
   80bb6:	4d1d      	ldr	r5, [pc, #116]	; (80c2c <usart_serial_putchar+0x98>)
   80bb8:	4630      	mov	r0, r6
   80bba:	4621      	mov	r1, r4
   80bbc:	47a8      	blx	r5
   80bbe:	2800      	cmp	r0, #0
   80bc0:	d1fa      	bne.n	80bb8 <usart_serial_putchar+0x24>
   80bc2:	e022      	b.n	80c0a <usart_serial_putchar+0x76>
		return 1;
	}
# endif
# ifdef USART1
	if (USART1 == p_usart) {
   80bc4:	4b1a      	ldr	r3, [pc, #104]	; (80c30 <usart_serial_putchar+0x9c>)
   80bc6:	4298      	cmp	r0, r3
   80bc8:	d107      	bne.n	80bda <usart_serial_putchar+0x46>
		while (usart_write(p_usart, c)!=0);
   80bca:	461e      	mov	r6, r3
   80bcc:	4d17      	ldr	r5, [pc, #92]	; (80c2c <usart_serial_putchar+0x98>)
   80bce:	4630      	mov	r0, r6
   80bd0:	4621      	mov	r1, r4
   80bd2:	47a8      	blx	r5
   80bd4:	2800      	cmp	r0, #0
   80bd6:	d1fa      	bne.n	80bce <usart_serial_putchar+0x3a>
   80bd8:	e019      	b.n	80c0e <usart_serial_putchar+0x7a>
		return 1;
	}
# endif
# ifdef USART2
	if (USART2 == p_usart) {
   80bda:	4b16      	ldr	r3, [pc, #88]	; (80c34 <usart_serial_putchar+0xa0>)
   80bdc:	4298      	cmp	r0, r3
   80bde:	d107      	bne.n	80bf0 <usart_serial_putchar+0x5c>
		while (usart_write(p_usart, c)!=0);
   80be0:	461e      	mov	r6, r3
   80be2:	4d12      	ldr	r5, [pc, #72]	; (80c2c <usart_serial_putchar+0x98>)
   80be4:	4630      	mov	r0, r6
   80be6:	4621      	mov	r1, r4
   80be8:	47a8      	blx	r5
   80bea:	2800      	cmp	r0, #0
   80bec:	d1fa      	bne.n	80be4 <usart_serial_putchar+0x50>
   80bee:	e010      	b.n	80c12 <usart_serial_putchar+0x7e>
		return 1;
	}
# endif
# ifdef USART3
	if (USART3 == p_usart) {
   80bf0:	4b11      	ldr	r3, [pc, #68]	; (80c38 <usart_serial_putchar+0xa4>)
   80bf2:	4298      	cmp	r0, r3
   80bf4:	d10f      	bne.n	80c16 <usart_serial_putchar+0x82>
		while (usart_write(p_usart, c)!=0);
   80bf6:	461e      	mov	r6, r3
   80bf8:	4d0c      	ldr	r5, [pc, #48]	; (80c2c <usart_serial_putchar+0x98>)
   80bfa:	4630      	mov	r0, r6
   80bfc:	4621      	mov	r1, r4
   80bfe:	47a8      	blx	r5
   80c00:	2800      	cmp	r0, #0
   80c02:	d1fa      	bne.n	80bfa <usart_serial_putchar+0x66>
   80c04:	e009      	b.n	80c1a <usart_serial_putchar+0x86>
static inline int usart_serial_putchar(usart_if p_usart, const uint8_t c)
{
#ifdef UART
	if (UART == (Uart*)p_usart) {
		while (uart_write((Uart*)p_usart, c)!=0);
		return 1;
   80c06:	2001      	movs	r0, #1
   80c08:	bd70      	pop	{r4, r5, r6, pc}
	}
#else
# ifdef USART0
	if (USART0 == p_usart) {
		while (usart_write(p_usart, c)!=0);
		return 1;
   80c0a:	2001      	movs	r0, #1
   80c0c:	bd70      	pop	{r4, r5, r6, pc}
	}
# endif
# ifdef USART1
	if (USART1 == p_usart) {
		while (usart_write(p_usart, c)!=0);
		return 1;
   80c0e:	2001      	movs	r0, #1
   80c10:	bd70      	pop	{r4, r5, r6, pc}
	}
# endif
# ifdef USART2
	if (USART2 == p_usart) {
		while (usart_write(p_usart, c)!=0);
		return 1;
   80c12:	2001      	movs	r0, #1
   80c14:	bd70      	pop	{r4, r5, r6, pc}
		return 1;
	}
# endif
#endif /* ifdef USART */

	return 0;
   80c16:	2000      	movs	r0, #0
   80c18:	bd70      	pop	{r4, r5, r6, pc}
	}
# endif
# ifdef USART3
	if (USART3 == p_usart) {
		while (usart_write(p_usart, c)!=0);
		return 1;
   80c1a:	2001      	movs	r0, #1
	}
# endif
#endif /* ifdef USART */

	return 0;
}
   80c1c:	bd70      	pop	{r4, r5, r6, pc}
   80c1e:	bf00      	nop
   80c20:	400e0800 	.word	0x400e0800
   80c24:	000814fd 	.word	0x000814fd
   80c28:	40098000 	.word	0x40098000
   80c2c:	00081445 	.word	0x00081445
   80c30:	4009c000 	.word	0x4009c000
   80c34:	400a0000 	.word	0x400a0000
   80c38:	400a4000 	.word	0x400a4000

00080c3c <configureConsole>:
#include "conf_board.h"
#include "consoleFunctions.h"

void configureConsole(void)
/* Enables feedback through the USB-cable back to terminal within Atmel Studio */
{
   80c3c:	b530      	push	{r4, r5, lr}
   80c3e:	b085      	sub	sp, #20
   80c40:	2008      	movs	r0, #8
   80c42:	4d12      	ldr	r5, [pc, #72]	; (80c8c <configureConsole+0x50>)
   80c44:	47a8      	blx	r5
 * \param opt         Options needed to set up RS232 communication (see \ref usart_options_t).
 *
 */
static inline void stdio_serial_init(volatile void *usart, const usart_serial_options_t *opt)
{
	stdio_base = (void *)usart;
   80c46:	4c12      	ldr	r4, [pc, #72]	; (80c90 <configureConsole+0x54>)
   80c48:	4b12      	ldr	r3, [pc, #72]	; (80c94 <configureConsole+0x58>)
   80c4a:	601c      	str	r4, [r3, #0]
	ptr_put = (int (*)(void volatile*,char))&usart_serial_putchar;
   80c4c:	4a12      	ldr	r2, [pc, #72]	; (80c98 <configureConsole+0x5c>)
   80c4e:	4b13      	ldr	r3, [pc, #76]	; (80c9c <configureConsole+0x60>)
   80c50:	601a      	str	r2, [r3, #0]
	ptr_get = (void (*)(void volatile*,char*))&usart_serial_getchar;
   80c52:	4a13      	ldr	r2, [pc, #76]	; (80ca0 <configureConsole+0x64>)
   80c54:	4b13      	ldr	r3, [pc, #76]	; (80ca4 <configureConsole+0x68>)
   80c56:	601a      	str	r2, [r3, #0]
static inline void usart_serial_init(usart_if p_usart,
		usart_serial_options_t *opt)
{
#if ((!SAM4L) && (!SAMG55))
	sam_uart_opt_t uart_settings;
	uart_settings.ul_mck = sysclk_get_peripheral_hz();
   80c58:	4b13      	ldr	r3, [pc, #76]	; (80ca8 <configureConsole+0x6c>)
   80c5a:	9301      	str	r3, [sp, #4]
	uart_settings.ul_baudrate = opt->baudrate;
   80c5c:	f44f 33e1 	mov.w	r3, #115200	; 0x1c200
   80c60:	9302      	str	r3, [sp, #8]
	uart_settings.ul_mode = opt->paritytype;
   80c62:	f44f 6300 	mov.w	r3, #2048	; 0x800
   80c66:	9303      	str	r3, [sp, #12]
   80c68:	2008      	movs	r0, #8
   80c6a:	47a8      	blx	r5
	
#ifdef UART
	if (UART == (Uart*)p_usart) {
		sysclk_enable_peripheral_clock(ID_UART);
		/* Configure UART */
		uart_init((Uart*)p_usart, &uart_settings);
   80c6c:	4620      	mov	r0, r4
   80c6e:	a901      	add	r1, sp, #4
   80c70:	4b0e      	ldr	r3, [pc, #56]	; (80cac <configureConsole+0x70>)
   80c72:	4798      	blx	r3
	fdevopen((int (*)(char, FILE*))(_write),(int (*)(FILE*))(_read));
#  endif
#  if UC3 || SAM
	// For AVR32 and SAM GCC
	// Specify that stdout and stdin should not be buffered.
	setbuf(stdout, NULL);
   80c74:	4d0e      	ldr	r5, [pc, #56]	; (80cb0 <configureConsole+0x74>)
   80c76:	682b      	ldr	r3, [r5, #0]
   80c78:	6898      	ldr	r0, [r3, #8]
   80c7a:	2100      	movs	r1, #0
   80c7c:	4c0d      	ldr	r4, [pc, #52]	; (80cb4 <configureConsole+0x78>)
   80c7e:	47a0      	blx	r4
	setbuf(stdin, NULL);
   80c80:	682b      	ldr	r3, [r5, #0]
   80c82:	6858      	ldr	r0, [r3, #4]
   80c84:	2100      	movs	r1, #0
   80c86:	47a0      	blx	r4

	/* Configure console UART. */
	sysclk_enable_peripheral_clock(CONSOLE_UART_ID);
	stdio_serial_init(CONF_UART, &uart_serial_options);
	
   80c88:	b005      	add	sp, #20
   80c8a:	bd30      	pop	{r4, r5, pc}
   80c8c:	00083cbd 	.word	0x00083cbd
   80c90:	400e0800 	.word	0x400e0800
   80c94:	20078da0 	.word	0x20078da0
   80c98:	00080b95 	.word	0x00080b95
   80c9c:	20078d9c 	.word	0x20078d9c
   80ca0:	00080aed 	.word	0x00080aed
   80ca4:	20078d18 	.word	0x20078d18
   80ca8:	0501bd00 	.word	0x0501bd00
   80cac:	000814c5 	.word	0x000814c5
   80cb0:	200705b0 	.word	0x200705b0
   80cb4:	00085181 	.word	0x00085181

00080cb8 <calculateDistance>:
@param Xb the x coordinate for B
@param Ya the y coordinate for A
@param Yb the y coordinate for B
return distance the distance between A and B
**/
double calculateDistance (double Xa, double Ya, double Xb, double Yb){
   80cb8:	e92d 4ff8 	stmdb	sp!, {r3, r4, r5, r6, r7, r8, r9, sl, fp, lr}
   80cbc:	4606      	mov	r6, r0
   80cbe:	460f      	mov	r7, r1
   80cc0:	4614      	mov	r4, r2
   80cc2:	461d      	mov	r5, r3
	double distance;
	double deltaX = Xb - Xa;
   80cc4:	f8df a054 	ldr.w	sl, [pc, #84]	; 80d1c <calculateDistance+0x64>
   80cc8:	e9dd 010a 	ldrd	r0, r1, [sp, #40]	; 0x28
   80ccc:	4632      	mov	r2, r6
   80cce:	463b      	mov	r3, r7
   80cd0:	47d0      	blx	sl
   80cd2:	4680      	mov	r8, r0
   80cd4:	4689      	mov	r9, r1
	double deltaY = Yb - Ya;
   80cd6:	e9dd 010c 	ldrd	r0, r1, [sp, #48]	; 0x30
   80cda:	4622      	mov	r2, r4
   80cdc:	462b      	mov	r3, r5
   80cde:	47d0      	blx	sl
   80ce0:	4604      	mov	r4, r0
   80ce2:	460d      	mov	r5, r1
	distance = sqrt((deltaX*deltaX) + (deltaY*deltaY));
   80ce4:	f8df a038 	ldr.w	sl, [pc, #56]	; 80d20 <calculateDistance+0x68>
   80ce8:	f8df b038 	ldr.w	fp, [pc, #56]	; 80d24 <calculateDistance+0x6c>
   80cec:	4640      	mov	r0, r8
   80cee:	4649      	mov	r1, r9
   80cf0:	4642      	mov	r2, r8
   80cf2:	464b      	mov	r3, r9
   80cf4:	47d0      	blx	sl
   80cf6:	4606      	mov	r6, r0
   80cf8:	460f      	mov	r7, r1
   80cfa:	4620      	mov	r0, r4
   80cfc:	4629      	mov	r1, r5
   80cfe:	4622      	mov	r2, r4
   80d00:	462b      	mov	r3, r5
   80d02:	47d0      	blx	sl
   80d04:	4602      	mov	r2, r0
   80d06:	460b      	mov	r3, r1
   80d08:	4630      	mov	r0, r6
   80d0a:	4639      	mov	r1, r7
   80d0c:	47d8      	blx	fp
   80d0e:	4b02      	ldr	r3, [pc, #8]	; (80d18 <calculateDistance+0x60>)
   80d10:	4798      	blx	r3
	return (distance);
}
   80d12:	e8bd 8ff8 	ldmia.w	sp!, {r3, r4, r5, r6, r7, r8, r9, sl, fp, pc}
   80d16:	bf00      	nop
   80d18:	000843c9 	.word	0x000843c9
   80d1c:	00084651 	.word	0x00084651
   80d20:	000849b9 	.word	0x000849b9
   80d24:	00084655 	.word	0x00084655

00080d28 <calculateAzimuthAngle>:
@param Xb the x coordinate for B
@param Ya the y coordinate for A
@param Yb the y coordinate for B
return azimutAngle the azimuth angle from A to B
**/
double calculateAzimuthAngle (double Xa, double Ya, double Xb, double Yb){
   80d28:	e92d 41f0 	stmdb	sp!, {r4, r5, r6, r7, r8, lr}
   80d2c:	4604      	mov	r4, r0
   80d2e:	460d      	mov	r5, r1
   80d30:	4616      	mov	r6, r2
   80d32:	461f      	mov	r7, r3
	double azimutAngle = 0;
	double deltaX = Xb-Xa;
   80d34:	f8df 81f4 	ldr.w	r8, [pc, #500]	; 80f2c <calculateAzimuthAngle+0x204>
   80d38:	e9dd 0106 	ldrd	r0, r1, [sp, #24]
   80d3c:	4622      	mov	r2, r4
   80d3e:	462b      	mov	r3, r5
   80d40:	47c0      	blx	r8
   80d42:	4604      	mov	r4, r0
   80d44:	460d      	mov	r5, r1
	double deltaY = Yb-Ya;
   80d46:	e9dd 0108 	ldrd	r0, r1, [sp, #32]
   80d4a:	4632      	mov	r2, r6
   80d4c:	463b      	mov	r3, r7
   80d4e:	47c0      	blx	r8
   80d50:	4606      	mov	r6, r0
   80d52:	460f      	mov	r7, r1
	
	// if A and B has same coordinates
	if ( (deltaX == 0) && (deltaY == 0) )
   80d54:	4620      	mov	r0, r4
   80d56:	4629      	mov	r1, r5
   80d58:	2200      	movs	r2, #0
   80d5a:	2300      	movs	r3, #0
   80d5c:	f8df c1a8 	ldr.w	ip, [pc, #424]	; 80f08 <calculateAzimuthAngle+0x1e0>
   80d60:	47e0      	blx	ip
   80d62:	b1a8      	cbz	r0, 80d90 <calculateAzimuthAngle+0x68>
   80d64:	4630      	mov	r0, r6
   80d66:	4639      	mov	r1, r7
   80d68:	2200      	movs	r2, #0
   80d6a:	2300      	movs	r3, #0
   80d6c:	4c66      	ldr	r4, [pc, #408]	; (80f08 <calculateAzimuthAngle+0x1e0>)
   80d6e:	47a0      	blx	r4
   80d70:	2800      	cmp	r0, #0
   80d72:	f040 80aa 	bne.w	80eca <calculateAzimuthAngle+0x1a2>
		azimutAngle = 0;
	}
	// if A and B has same x coordinate
	else if (deltaX == 0)
	{
		if (deltaY>0)
   80d76:	4630      	mov	r0, r6
   80d78:	4639      	mov	r1, r7
   80d7a:	2200      	movs	r2, #0
   80d7c:	2300      	movs	r3, #0
   80d7e:	4c63      	ldr	r4, [pc, #396]	; (80f0c <calculateAzimuthAngle+0x1e4>)
   80d80:	47a0      	blx	r4
   80d82:	2800      	cmp	r0, #0
   80d84:	f000 80a5 	beq.w	80ed2 <calculateAzimuthAngle+0x1aa>
		{
			azimutAngle = 0;
   80d88:	2000      	movs	r0, #0
   80d8a:	2100      	movs	r1, #0
   80d8c:	e8bd 81f0 	ldmia.w	sp!, {r4, r5, r6, r7, r8, pc}
			azimutAngle = 180;
		}
		
	}
	// if A and B has same y coordinate
	else if (deltaY == 0)
   80d90:	4630      	mov	r0, r6
   80d92:	4639      	mov	r1, r7
   80d94:	2200      	movs	r2, #0
   80d96:	2300      	movs	r3, #0
   80d98:	f8df c16c 	ldr.w	ip, [pc, #364]	; 80f08 <calculateAzimuthAngle+0x1e0>
   80d9c:	47e0      	blx	ip
   80d9e:	b160      	cbz	r0, 80dba <calculateAzimuthAngle+0x92>
	{
		if (deltaX>0)
   80da0:	4620      	mov	r0, r4
   80da2:	4629      	mov	r1, r5
   80da4:	2200      	movs	r2, #0
   80da6:	2300      	movs	r3, #0
   80da8:	4c58      	ldr	r4, [pc, #352]	; (80f0c <calculateAzimuthAngle+0x1e4>)
   80daa:	47a0      	blx	r4
   80dac:	2800      	cmp	r0, #0
   80dae:	f000 8094 	beq.w	80eda <calculateAzimuthAngle+0x1b2>
		{
			azimutAngle = 90;
   80db2:	2000      	movs	r0, #0
   80db4:	4956      	ldr	r1, [pc, #344]	; (80f10 <calculateAzimuthAngle+0x1e8>)
   80db6:	e8bd 81f0 	ldmia.w	sp!, {r4, r5, r6, r7, r8, pc}
		}
		
	}
	else
	{   // angle is between 0 to 90 degree
		if ( (deltaX > 0) && (deltaY > 0 ) )
   80dba:	4620      	mov	r0, r4
   80dbc:	4629      	mov	r1, r5
   80dbe:	2200      	movs	r2, #0
   80dc0:	2300      	movs	r3, #0
   80dc2:	f8df c148 	ldr.w	ip, [pc, #328]	; 80f0c <calculateAzimuthAngle+0x1e4>
   80dc6:	47e0      	blx	ip
   80dc8:	b1b0      	cbz	r0, 80df8 <calculateAzimuthAngle+0xd0>
   80dca:	4630      	mov	r0, r6
   80dcc:	4639      	mov	r1, r7
   80dce:	2200      	movs	r2, #0
   80dd0:	2300      	movs	r3, #0
   80dd2:	f8df c138 	ldr.w	ip, [pc, #312]	; 80f0c <calculateAzimuthAngle+0x1e4>
   80dd6:	47e0      	blx	ip
   80dd8:	b1b0      	cbz	r0, 80e08 <calculateAzimuthAngle+0xe0>
		{
			azimutAngle =  radianToDegree (atan (deltaX/deltaY));
   80dda:	4620      	mov	r0, r4
   80ddc:	4629      	mov	r1, r5
   80dde:	4632      	mov	r2, r6
   80de0:	463b      	mov	r3, r7
   80de2:	4c4c      	ldr	r4, [pc, #304]	; (80f14 <calculateAzimuthAngle+0x1ec>)
   80de4:	47a0      	blx	r4
   80de6:	4b4c      	ldr	r3, [pc, #304]	; (80f18 <calculateAzimuthAngle+0x1f0>)
   80de8:	4798      	blx	r3
@param radian the angle value in radian
return degree the angle value in degree
**/
double radianToDegree (double radian){
	double degree;
	degree =  radian*(180/M_PI);
   80dea:	a343      	add	r3, pc, #268	; (adr r3, 80ef8 <calculateAzimuthAngle+0x1d0>)
   80dec:	e9d3 2300 	ldrd	r2, r3, [r3]
   80df0:	4c4a      	ldr	r4, [pc, #296]	; (80f1c <calculateAzimuthAngle+0x1f4>)
   80df2:	47a0      	blx	r4
	}
	else
	{   // angle is between 0 to 90 degree
		if ( (deltaX > 0) && (deltaY > 0 ) )
		{
			azimutAngle =  radianToDegree (atan (deltaX/deltaY));
   80df4:	e8bd 81f0 	ldmia.w	sp!, {r4, r5, r6, r7, r8, pc}
		}
		// the angle is between 90 to 180 degree
		else if ( (deltaX > 0) && (deltaY < 0 ) )
   80df8:	4620      	mov	r0, r4
   80dfa:	4629      	mov	r1, r5
   80dfc:	2200      	movs	r2, #0
   80dfe:	2300      	movs	r3, #0
   80e00:	f8df c108 	ldr.w	ip, [pc, #264]	; 80f0c <calculateAzimuthAngle+0x1e4>
   80e04:	47e0      	blx	ip
   80e06:	b1d0      	cbz	r0, 80e3e <calculateAzimuthAngle+0x116>
   80e08:	4630      	mov	r0, r6
   80e0a:	4639      	mov	r1, r7
   80e0c:	2200      	movs	r2, #0
   80e0e:	2300      	movs	r3, #0
   80e10:	f8df c11c 	ldr.w	ip, [pc, #284]	; 80f30 <calculateAzimuthAngle+0x208>
   80e14:	47e0      	blx	ip
   80e16:	b190      	cbz	r0, 80e3e <calculateAzimuthAngle+0x116>
		{
			azimutAngle = (radianToDegree (atan (deltaX/deltaY))  + 180);
   80e18:	4620      	mov	r0, r4
   80e1a:	4629      	mov	r1, r5
   80e1c:	4632      	mov	r2, r6
   80e1e:	463b      	mov	r3, r7
   80e20:	4c3c      	ldr	r4, [pc, #240]	; (80f14 <calculateAzimuthAngle+0x1ec>)
   80e22:	47a0      	blx	r4
   80e24:	4b3c      	ldr	r3, [pc, #240]	; (80f18 <calculateAzimuthAngle+0x1f0>)
   80e26:	4798      	blx	r3
@param radian the angle value in radian
return degree the angle value in degree
**/
double radianToDegree (double radian){
	double degree;
	degree =  radian*(180/M_PI);
   80e28:	a333      	add	r3, pc, #204	; (adr r3, 80ef8 <calculateAzimuthAngle+0x1d0>)
   80e2a:	e9d3 2300 	ldrd	r2, r3, [r3]
   80e2e:	4c3b      	ldr	r4, [pc, #236]	; (80f1c <calculateAzimuthAngle+0x1f4>)
   80e30:	47a0      	blx	r4
			azimutAngle =  radianToDegree (atan (deltaX/deltaY));
		}
		// the angle is between 90 to 180 degree
		else if ( (deltaX > 0) && (deltaY < 0 ) )
		{
			azimutAngle = (radianToDegree (atan (deltaX/deltaY))  + 180);
   80e32:	2200      	movs	r2, #0
   80e34:	4b3a      	ldr	r3, [pc, #232]	; (80f20 <calculateAzimuthAngle+0x1f8>)
   80e36:	4c3b      	ldr	r4, [pc, #236]	; (80f24 <calculateAzimuthAngle+0x1fc>)
   80e38:	47a0      	blx	r4
   80e3a:	e8bd 81f0 	ldmia.w	sp!, {r4, r5, r6, r7, r8, pc}
		}
		// the angle is between 180 to 270 degree
		else if ( (deltaX < 0) && (deltaY < 0 ) )
   80e3e:	4620      	mov	r0, r4
   80e40:	4629      	mov	r1, r5
   80e42:	2200      	movs	r2, #0
   80e44:	2300      	movs	r3, #0
   80e46:	f8df c0e8 	ldr.w	ip, [pc, #232]	; 80f30 <calculateAzimuthAngle+0x208>
   80e4a:	47e0      	blx	ip
   80e4c:	b1d0      	cbz	r0, 80e84 <calculateAzimuthAngle+0x15c>
   80e4e:	4630      	mov	r0, r6
   80e50:	4639      	mov	r1, r7
   80e52:	2200      	movs	r2, #0
   80e54:	2300      	movs	r3, #0
   80e56:	f8df c0d8 	ldr.w	ip, [pc, #216]	; 80f30 <calculateAzimuthAngle+0x208>
   80e5a:	47e0      	blx	ip
   80e5c:	b1d0      	cbz	r0, 80e94 <calculateAzimuthAngle+0x16c>
		{
			azimutAngle = (radianToDegree (atan (deltaX/deltaY) ) + 180);
   80e5e:	4620      	mov	r0, r4
   80e60:	4629      	mov	r1, r5
   80e62:	4632      	mov	r2, r6
   80e64:	463b      	mov	r3, r7
   80e66:	4c2b      	ldr	r4, [pc, #172]	; (80f14 <calculateAzimuthAngle+0x1ec>)
   80e68:	47a0      	blx	r4
   80e6a:	4b2b      	ldr	r3, [pc, #172]	; (80f18 <calculateAzimuthAngle+0x1f0>)
   80e6c:	4798      	blx	r3
@param radian the angle value in radian
return degree the angle value in degree
**/
double radianToDegree (double radian){
	double degree;
	degree =  radian*(180/M_PI);
   80e6e:	a322      	add	r3, pc, #136	; (adr r3, 80ef8 <calculateAzimuthAngle+0x1d0>)
   80e70:	e9d3 2300 	ldrd	r2, r3, [r3]
   80e74:	4c29      	ldr	r4, [pc, #164]	; (80f1c <calculateAzimuthAngle+0x1f4>)
   80e76:	47a0      	blx	r4
			azimutAngle = (radianToDegree (atan (deltaX/deltaY))  + 180);
		}
		// the angle is between 180 to 270 degree
		else if ( (deltaX < 0) && (deltaY < 0 ) )
		{
			azimutAngle = (radianToDegree (atan (deltaX/deltaY) ) + 180);
   80e78:	2200      	movs	r2, #0
   80e7a:	4b29      	ldr	r3, [pc, #164]	; (80f20 <calculateAzimuthAngle+0x1f8>)
   80e7c:	4c29      	ldr	r4, [pc, #164]	; (80f24 <calculateAzimuthAngle+0x1fc>)
   80e7e:	47a0      	blx	r4
   80e80:	e8bd 81f0 	ldmia.w	sp!, {r4, r5, r6, r7, r8, pc}
		}
		// the angle is between 270 to 360 degree
		else if ( (deltaX < 0) && (deltaY > 0 ) )
   80e84:	4620      	mov	r0, r4
   80e86:	4629      	mov	r1, r5
   80e88:	2200      	movs	r2, #0
   80e8a:	2300      	movs	r3, #0
   80e8c:	f8df c0a0 	ldr.w	ip, [pc, #160]	; 80f30 <calculateAzimuthAngle+0x208>
   80e90:	47e0      	blx	ip
   80e92:	b338      	cbz	r0, 80ee4 <calculateAzimuthAngle+0x1bc>
   80e94:	4630      	mov	r0, r6
   80e96:	4639      	mov	r1, r7
   80e98:	2200      	movs	r2, #0
   80e9a:	2300      	movs	r3, #0
   80e9c:	f8df c06c 	ldr.w	ip, [pc, #108]	; 80f0c <calculateAzimuthAngle+0x1e4>
   80ea0:	47e0      	blx	ip
   80ea2:	b318      	cbz	r0, 80eec <calculateAzimuthAngle+0x1c4>
		{
			azimutAngle = (radianToDegree (atan (deltaX/deltaY) ) + 360);
   80ea4:	4620      	mov	r0, r4
   80ea6:	4629      	mov	r1, r5
   80ea8:	4632      	mov	r2, r6
   80eaa:	463b      	mov	r3, r7
   80eac:	4c19      	ldr	r4, [pc, #100]	; (80f14 <calculateAzimuthAngle+0x1ec>)
   80eae:	47a0      	blx	r4
   80eb0:	4b19      	ldr	r3, [pc, #100]	; (80f18 <calculateAzimuthAngle+0x1f0>)
   80eb2:	4798      	blx	r3
@param radian the angle value in radian
return degree the angle value in degree
**/
double radianToDegree (double radian){
	double degree;
	degree =  radian*(180/M_PI);
   80eb4:	a310      	add	r3, pc, #64	; (adr r3, 80ef8 <calculateAzimuthAngle+0x1d0>)
   80eb6:	e9d3 2300 	ldrd	r2, r3, [r3]
   80eba:	4c18      	ldr	r4, [pc, #96]	; (80f1c <calculateAzimuthAngle+0x1f4>)
   80ebc:	47a0      	blx	r4
			azimutAngle = (radianToDegree (atan (deltaX/deltaY) ) + 180);
		}
		// the angle is between 270 to 360 degree
		else if ( (deltaX < 0) && (deltaY > 0 ) )
		{
			azimutAngle = (radianToDegree (atan (deltaX/deltaY) ) + 360);
   80ebe:	2200      	movs	r2, #0
   80ec0:	4b19      	ldr	r3, [pc, #100]	; (80f28 <calculateAzimuthAngle+0x200>)
   80ec2:	4c18      	ldr	r4, [pc, #96]	; (80f24 <calculateAzimuthAngle+0x1fc>)
   80ec4:	47a0      	blx	r4
   80ec6:	e8bd 81f0 	ldmia.w	sp!, {r4, r5, r6, r7, r8, pc}
	double deltaY = Yb-Ya;
	
	// if A and B has same coordinates
	if ( (deltaX == 0) && (deltaY == 0) )
	{
		azimutAngle = 0;
   80eca:	2000      	movs	r0, #0
   80ecc:	2100      	movs	r1, #0
   80ece:	e8bd 81f0 	ldmia.w	sp!, {r4, r5, r6, r7, r8, pc}
		{
			azimutAngle = 0;
		}
		else
		{
			azimutAngle = 180;
   80ed2:	2000      	movs	r0, #0
   80ed4:	4912      	ldr	r1, [pc, #72]	; (80f20 <calculateAzimuthAngle+0x1f8>)
   80ed6:	e8bd 81f0 	ldmia.w	sp!, {r4, r5, r6, r7, r8, pc}
		{
			azimutAngle = 90;
		}
		else
		{
			azimutAngle = 270;
   80eda:	a109      	add	r1, pc, #36	; (adr r1, 80f00 <calculateAzimuthAngle+0x1d8>)
   80edc:	e9d1 0100 	ldrd	r0, r1, [r1]
   80ee0:	e8bd 81f0 	ldmia.w	sp!, {r4, r5, r6, r7, r8, pc}
@param Ya the y coordinate for A
@param Yb the y coordinate for B
return azimutAngle the azimuth angle from A to B
**/
double calculateAzimuthAngle (double Xa, double Ya, double Xb, double Yb){
	double azimutAngle = 0;
   80ee4:	2000      	movs	r0, #0
   80ee6:	2100      	movs	r1, #0
   80ee8:	e8bd 81f0 	ldmia.w	sp!, {r4, r5, r6, r7, r8, pc}
   80eec:	2000      	movs	r0, #0
   80eee:	2100      	movs	r1, #0
			azimutAngle = (radianToDegree (atan (deltaX/deltaY) ) + 360);
		}
	}
	
	return azimutAngle;
}
   80ef0:	e8bd 81f0 	ldmia.w	sp!, {r4, r5, r6, r7, r8, pc}
   80ef4:	f3af 8000 	nop.w
   80ef8:	1a63c1f8 	.word	0x1a63c1f8
   80efc:	404ca5dc 	.word	0x404ca5dc
   80f00:	00000000 	.word	0x00000000
   80f04:	4070e000 	.word	0x4070e000
   80f08:	00084e89 	.word	0x00084e89
   80f0c:	00084ed9 	.word	0x00084ed9
   80f10:	40568000 	.word	0x40568000
   80f14:	00084c0d 	.word	0x00084c0d
   80f18:	00084071 	.word	0x00084071
   80f1c:	000849b9 	.word	0x000849b9
   80f20:	40668000 	.word	0x40668000
   80f24:	00084655 	.word	0x00084655
   80f28:	40768000 	.word	0x40768000
   80f2c:	00084651 	.word	0x00084651
   80f30:	00084e9d 	.word	0x00084e9d
   80f34:	f3af 8000 	nop.w

00080f38 <calcluteRotationAngle>:
@param Ya the y coordinate for A
@param Yb the x coordinate for B
@param Yc the y coordinate for C
return rotationAngle the rotation angle from A to target C
**/
double calcluteRotationAngle (double Xa, double Ya, double Xb, double Yb, double Xc, double Yc){
   80f38:	e92d 47f0 	stmdb	sp!, {r4, r5, r6, r7, r8, r9, sl, lr}
   80f3c:	b084      	sub	sp, #16
   80f3e:	e9dd 450c 	ldrd	r4, r5, [sp, #48]	; 0x30
   80f42:	e9dd 890e 	ldrd	r8, r9, [sp, #56]	; 0x38
	
	double AoB = calculateAzimuthAngle(Xa, Ya, Xb, Yb);
   80f46:	e9cd 4500 	strd	r4, r5, [sp]
   80f4a:	e9cd 8902 	strd	r8, r9, [sp, #8]
   80f4e:	f8df a08c 	ldr.w	sl, [pc, #140]	; 80fdc <calcluteRotationAngle+0xa4>
   80f52:	47d0      	blx	sl
   80f54:	4606      	mov	r6, r0
   80f56:	460f      	mov	r7, r1
	double BoC = calculateAzimuthAngle(Xb, Yb, Xc, Yc);
   80f58:	e9dd 2310 	ldrd	r2, r3, [sp, #64]	; 0x40
   80f5c:	e9cd 2300 	strd	r2, r3, [sp]
   80f60:	e9dd 2312 	ldrd	r2, r3, [sp, #72]	; 0x48
   80f64:	e9cd 2302 	strd	r2, r3, [sp, #8]
   80f68:	4620      	mov	r0, r4
   80f6a:	4629      	mov	r1, r5
   80f6c:	4642      	mov	r2, r8
   80f6e:	464b      	mov	r3, r9
   80f70:	47d0      	blx	sl
	double rotationAngle = BoC-AoB;
   80f72:	4632      	mov	r2, r6
   80f74:	463b      	mov	r3, r7
   80f76:	4c12      	ldr	r4, [pc, #72]	; (80fc0 <calcluteRotationAngle+0x88>)
   80f78:	47a0      	blx	r4
   80f7a:	4604      	mov	r4, r0
   80f7c:	460d      	mov	r5, r1
	if (rotationAngle > 180)
   80f7e:	2200      	movs	r2, #0
   80f80:	4b10      	ldr	r3, [pc, #64]	; (80fc4 <calcluteRotationAngle+0x8c>)
   80f82:	4e11      	ldr	r6, [pc, #68]	; (80fc8 <calcluteRotationAngle+0x90>)
   80f84:	47b0      	blx	r6
   80f86:	b138      	cbz	r0, 80f98 <calcluteRotationAngle+0x60>
	{
		rotationAngle =  rotationAngle - 360;
   80f88:	4620      	mov	r0, r4
   80f8a:	4629      	mov	r1, r5
   80f8c:	2200      	movs	r2, #0
   80f8e:	4b0f      	ldr	r3, [pc, #60]	; (80fcc <calcluteRotationAngle+0x94>)
   80f90:	4c0b      	ldr	r4, [pc, #44]	; (80fc0 <calcluteRotationAngle+0x88>)
   80f92:	47a0      	blx	r4
   80f94:	4604      	mov	r4, r0
   80f96:	460d      	mov	r5, r1
	}
	if (rotationAngle < -180)
   80f98:	4620      	mov	r0, r4
   80f9a:	4629      	mov	r1, r5
   80f9c:	2200      	movs	r2, #0
   80f9e:	4b0c      	ldr	r3, [pc, #48]	; (80fd0 <calcluteRotationAngle+0x98>)
   80fa0:	4e0c      	ldr	r6, [pc, #48]	; (80fd4 <calcluteRotationAngle+0x9c>)
   80fa2:	47b0      	blx	r6
   80fa4:	b138      	cbz	r0, 80fb6 <calcluteRotationAngle+0x7e>
	{
		rotationAngle =  rotationAngle + 360;
   80fa6:	4620      	mov	r0, r4
   80fa8:	4629      	mov	r1, r5
   80faa:	2200      	movs	r2, #0
   80fac:	4b07      	ldr	r3, [pc, #28]	; (80fcc <calcluteRotationAngle+0x94>)
   80fae:	4c0a      	ldr	r4, [pc, #40]	; (80fd8 <calcluteRotationAngle+0xa0>)
   80fb0:	47a0      	blx	r4
   80fb2:	4604      	mov	r4, r0
   80fb4:	460d      	mov	r5, r1
	}
	return rotationAngle;
   80fb6:	4620      	mov	r0, r4
   80fb8:	4629      	mov	r1, r5
   80fba:	b004      	add	sp, #16
   80fbc:	e8bd 87f0 	ldmia.w	sp!, {r4, r5, r6, r7, r8, r9, sl, pc}
   80fc0:	00084651 	.word	0x00084651
   80fc4:	40668000 	.word	0x40668000
   80fc8:	00084ed9 	.word	0x00084ed9
   80fcc:	40768000 	.word	0x40768000
   80fd0:	c0668000 	.word	0xc0668000
   80fd4:	00084e9d 	.word	0x00084e9d
   80fd8:	00084655 	.word	0x00084655
   80fdc:	00080d29 	.word	0x00080d29

00080fe0 <initPin21>:
	
}

/* This method initialize channel instance and configure PWM channel 4 for pin 9,
selecting clock A as its source clock, setting the period at 8 ms and setting the duty cycle at 0% */
void initPin21(void){
   80fe0:	b538      	push	{r3, r4, r5, lr}
	
	pio_configure_pin(PIN_21, PIO_TYPE_PIO_PERIPH_B);
   80fe2:	2055      	movs	r0, #85	; 0x55
   80fe4:	f04f 5180 	mov.w	r1, #268435456	; 0x10000000
   80fe8:	4b0b      	ldr	r3, [pc, #44]	; (81018 <initPin21+0x38>)
   80fea:	4798      	blx	r3
	/*Pwm channel configuration such as channel, alignments, period, duty etc...*/
	PWM_pin_21.channel = PWM_CHANNEL_4;
   80fec:	4b0b      	ldr	r3, [pc, #44]	; (8101c <initPin21+0x3c>)
   80fee:	2404      	movs	r4, #4
   80ff0:	601c      	str	r4, [r3, #0]
	PWM_pin_21.ul_prescaler = PWM_CMR_CPRE_CLKA;
   80ff2:	220b      	movs	r2, #11
   80ff4:	605a      	str	r2, [r3, #4]
	PWM_pin_21.polarity = PWM_LOW;
   80ff6:	2200      	movs	r2, #0
   80ff8:	729a      	strb	r2, [r3, #10]
	PWM_pin_21.alignment = PWM_ALIGN_LEFT;
   80ffa:	811a      	strh	r2, [r3, #8]
	PWM_pin_21.ul_period = 7500;
   80ffc:	f641 514c 	movw	r1, #7500	; 0x1d4c
   81000:	6119      	str	r1, [r3, #16]
	PWM_pin_21.ul_duty = 0;
   81002:	60da      	str	r2, [r3, #12]
	
	/*Initializing channel after setting things up*/
	pwm_channel_init(PWM, &PWM_pin_21);
   81004:	4d06      	ldr	r5, [pc, #24]	; (81020 <initPin21+0x40>)
   81006:	4628      	mov	r0, r5
   81008:	4619      	mov	r1, r3
   8100a:	4b06      	ldr	r3, [pc, #24]	; (81024 <initPin21+0x44>)
   8100c:	4798      	blx	r3
	
	/*Enabling pwm channel after initializing everything correct*/
	pwm_channel_enable(PWM, PWM_CHANNEL_4);
   8100e:	4628      	mov	r0, r5
   81010:	4621      	mov	r1, r4
   81012:	4b05      	ldr	r3, [pc, #20]	; (81028 <initPin21+0x48>)
   81014:	4798      	blx	r3
   81016:	bd38      	pop	{r3, r4, r5, pc}
   81018:	0008397d 	.word	0x0008397d
   8101c:	20078d6c 	.word	0x20078d6c
   81020:	40094000 	.word	0x40094000
   81024:	000805b5 	.word	0x000805b5
   81028:	000806dd 	.word	0x000806dd

0008102c <initPin22>:
}

/* This method initialize channel instance and configure PWM channel 5 for pin 8,
selecting clock A as its source clock, setting the period at 8 ms and setting the duty cycle at 0% */
void initPin22(void){
   8102c:	b538      	push	{r3, r4, r5, lr}
	
	pio_configure_pin(PIN_22, PIO_TYPE_PIO_PERIPH_B);
   8102e:	2056      	movs	r0, #86	; 0x56
   81030:	f04f 5180 	mov.w	r1, #268435456	; 0x10000000
   81034:	4b0b      	ldr	r3, [pc, #44]	; (81064 <initPin22+0x38>)
   81036:	4798      	blx	r3
	/*Pwm channel configuration such as channel, alignments, period, duty etc...*/
	PWM_pin_22.channel = PWM_CHANNEL_5;
   81038:	4b0b      	ldr	r3, [pc, #44]	; (81068 <initPin22+0x3c>)
   8103a:	2405      	movs	r4, #5
   8103c:	601c      	str	r4, [r3, #0]
	PWM_pin_22.ul_prescaler = PWM_CMR_CPRE_CLKA;
   8103e:	220b      	movs	r2, #11
   81040:	605a      	str	r2, [r3, #4]
	PWM_pin_22.polarity = PWM_LOW;
   81042:	2200      	movs	r2, #0
   81044:	729a      	strb	r2, [r3, #10]
	PWM_pin_22.alignment = PWM_ALIGN_LEFT;
   81046:	811a      	strh	r2, [r3, #8]
	PWM_pin_22.ul_period = 7500;
   81048:	f641 514c 	movw	r1, #7500	; 0x1d4c
   8104c:	6119      	str	r1, [r3, #16]
	PWM_pin_22.ul_duty = 0;
   8104e:	60da      	str	r2, [r3, #12]
	
	/*Initializing channel after setting things up*/
	pwm_channel_init(PWM, &PWM_pin_22);
   81050:	4d06      	ldr	r5, [pc, #24]	; (8106c <initPin22+0x40>)
   81052:	4628      	mov	r0, r5
   81054:	4619      	mov	r1, r3
   81056:	4b06      	ldr	r3, [pc, #24]	; (81070 <initPin22+0x44>)
   81058:	4798      	blx	r3
	
	/*Enabling pwm channel after initializing everything correct*/
	pwm_channel_enable(PWM, PWM_CHANNEL_5);
   8105a:	4628      	mov	r0, r5
   8105c:	4621      	mov	r1, r4
   8105e:	4b05      	ldr	r3, [pc, #20]	; (81074 <initPin22+0x48>)
   81060:	4798      	blx	r3
   81062:	bd38      	pop	{r3, r4, r5, pc}
   81064:	0008397d 	.word	0x0008397d
   81068:	20078d44 	.word	0x20078d44
   8106c:	40094000 	.word	0x40094000
   81070:	000805b5 	.word	0x000805b5
   81074:	000806dd 	.word	0x000806dd

00081078 <PWM_init>:
pwm_channel_t PWM_pin_21;
pwm_channel_t PWM_pin_22;


/* This method configure PWM clock   */
void PWM_init(void){
   81078:	b530      	push	{r4, r5, lr}
   8107a:	b085      	sub	sp, #20
	
	//Enable the module clock for the PWM peripheral
	pmc_enable_periph_clk(ID_PWM);
   8107c:	2024      	movs	r0, #36	; 0x24
   8107e:	4b0d      	ldr	r3, [pc, #52]	; (810b4 <PWM_init+0x3c>)
   81080:	4798      	blx	r3
	
	/*Disable PWM channels for appropriate configuration*/
	pwm_channel_disable(PWM,PWM_CHANNEL_4);
   81082:	4c0d      	ldr	r4, [pc, #52]	; (810b8 <PWM_init+0x40>)
   81084:	4620      	mov	r0, r4
   81086:	2104      	movs	r1, #4
   81088:	4d0c      	ldr	r5, [pc, #48]	; (810bc <PWM_init+0x44>)
   8108a:	47a8      	blx	r5
	pwm_channel_disable(PWM,PWM_CHANNEL_5);
   8108c:	4620      	mov	r0, r4
   8108e:	2105      	movs	r1, #5
   81090:	47a8      	blx	r5
	
	/*Setup clock for PWM module*/
	pwm_clock_t PWMDAC_clock_config = {
   81092:	4b0b      	ldr	r3, [pc, #44]	; (810c0 <PWM_init+0x48>)
   81094:	9301      	str	r3, [sp, #4]
   81096:	2300      	movs	r3, #0
   81098:	9302      	str	r3, [sp, #8]
   8109a:	4b0a      	ldr	r3, [pc, #40]	; (810c4 <PWM_init+0x4c>)
   8109c:	9303      	str	r3, [sp, #12]
		.ul_clka = 1000000,
		.ul_clkb = 0,
		.ul_mck = sysclk_get_cpu_hz()
	};
	pwm_init(PWM, &PWMDAC_clock_config);
   8109e:	4620      	mov	r0, r4
   810a0:	a901      	add	r1, sp, #4
   810a2:	4b09      	ldr	r3, [pc, #36]	; (810c8 <PWM_init+0x50>)
   810a4:	4798      	blx	r3
	
	//Methods for initializing PWM for pin 8 and 9
	initPin21();
   810a6:	4b09      	ldr	r3, [pc, #36]	; (810cc <PWM_init+0x54>)
   810a8:	4798      	blx	r3
	initPin22();
   810aa:	4b09      	ldr	r3, [pc, #36]	; (810d0 <PWM_init+0x58>)
   810ac:	4798      	blx	r3
	
}
   810ae:	b005      	add	sp, #20
   810b0:	bd30      	pop	{r4, r5, pc}
   810b2:	bf00      	nop
   810b4:	00083cbd 	.word	0x00083cbd
   810b8:	40094000 	.word	0x40094000
   810bc:	000806e9 	.word	0x000806e9
   810c0:	000f4240 	.word	0x000f4240
   810c4:	0501bd00 	.word	0x0501bd00
   810c8:	00080575 	.word	0x00080575
   810cc:	00080fe1 	.word	0x00080fe1
   810d0:	0008102d 	.word	0x0008102d

000810d4 <leftWheel>:
	
	/*Enabling pwm channel after initializing everything correct*/
	pwm_channel_enable(PWM, PWM_CHANNEL_5);
}
/* This method changes the duty cycle of PWM signal on pin 9. The duty cycle is limited between 0.8 ms and 2.2 ms  */
void leftWheel(uint32_t duty){
   810d4:	b508      	push	{r3, lr}
	if(duty<800){
   810d6:	f5b0 7f48 	cmp.w	r0, #800	; 0x320
   810da:	d305      	bcc.n	810e8 <leftWheel+0x14>
   810dc:	f640 0298 	movw	r2, #2200	; 0x898
   810e0:	4290      	cmp	r0, r2
   810e2:	bf38      	it	cc
   810e4:	4602      	movcc	r2, r0
   810e6:	e001      	b.n	810ec <leftWheel+0x18>
		duty=800;
   810e8:	f44f 7248 	mov.w	r2, #800	; 0x320
	}
	else if(duty>2200){
		duty=2200;
	}
	// Change the duty cycle of the PWM channel
	pwm_channel_update_duty(PWM, &PWM_pin_21, duty );
   810ec:	4802      	ldr	r0, [pc, #8]	; (810f8 <leftWheel+0x24>)
   810ee:	4903      	ldr	r1, [pc, #12]	; (810fc <leftWheel+0x28>)
   810f0:	4b03      	ldr	r3, [pc, #12]	; (81100 <leftWheel+0x2c>)
   810f2:	4798      	blx	r3
   810f4:	bd08      	pop	{r3, pc}
   810f6:	bf00      	nop
   810f8:	40094000 	.word	0x40094000
   810fc:	20078d6c 	.word	0x20078d6c
   81100:	000806b9 	.word	0x000806b9

00081104 <rightWheel>:
}

/* This method changes the duty cycle of PWM signal on pin 8. The duty cycle is limited between 0.8 ms and 2.2 ms  */
void rightWheel(uint32_t duty){
   81104:	b508      	push	{r3, lr}
	
	if(duty<800){
   81106:	f5b0 7f48 	cmp.w	r0, #800	; 0x320
   8110a:	d305      	bcc.n	81118 <rightWheel+0x14>
   8110c:	f640 0298 	movw	r2, #2200	; 0x898
   81110:	4290      	cmp	r0, r2
   81112:	bf38      	it	cc
   81114:	4602      	movcc	r2, r0
   81116:	e001      	b.n	8111c <rightWheel+0x18>
		duty=800;
   81118:	f44f 7248 	mov.w	r2, #800	; 0x320
	}
	else if(duty>2200){
		duty=2200;
	}
	// Change the duty cycle of the PWM channel
	pwm_channel_update_duty(PWM, &PWM_pin_22, duty );
   8111c:	4802      	ldr	r0, [pc, #8]	; (81128 <rightWheel+0x24>)
   8111e:	4903      	ldr	r1, [pc, #12]	; (8112c <rightWheel+0x28>)
   81120:	4b03      	ldr	r3, [pc, #12]	; (81130 <rightWheel+0x2c>)
   81122:	4798      	blx	r3
   81124:	bd08      	pop	{r3, pc}
   81126:	bf00      	nop
   81128:	40094000 	.word	0x40094000
   8112c:	20078d44 	.word	0x20078d44
   81130:	000806b9 	.word	0x000806b9

00081134 <pin12_edge_handler>:
#include <inttypes.h>
#include "StepCounter_ISR.h"
#include "consoleFunctions.h"

void pin12_edge_handler(const uint32_t id, const uint32_t index)
{
   81134:	b508      	push	{r3, lr}
	if (pio_get(PIOC, PIO_TYPE_PIO_INPUT, PIO_PC12)){
   81136:	4806      	ldr	r0, [pc, #24]	; (81150 <pin12_edge_handler+0x1c>)
   81138:	f04f 5120 	mov.w	r1, #671088640	; 0x28000000
   8113c:	f44f 5280 	mov.w	r2, #4096	; 0x1000
   81140:	4b04      	ldr	r3, [pc, #16]	; (81154 <pin12_edge_handler+0x20>)
   81142:	4798      	blx	r3
   81144:	b118      	cbz	r0, 8114e <pin12_edge_handler+0x1a>
		//increase the counter value
		counter_2++;
   81146:	4b04      	ldr	r3, [pc, #16]	; (81158 <pin12_edge_handler+0x24>)
   81148:	881a      	ldrh	r2, [r3, #0]
   8114a:	3201      	adds	r2, #1
   8114c:	801a      	strh	r2, [r3, #0]
   8114e:	bd08      	pop	{r3, pc}
   81150:	400e1200 	.word	0x400e1200
   81154:	00083889 	.word	0x00083889
   81158:	20078d94 	.word	0x20078d94

0008115c <pin14_edge_handler>:
	}
	
}

void pin14_edge_handler(const uint32_t id, const uint32_t index)
{
   8115c:	b508      	push	{r3, lr}
	// Checks if pin 51 is high
	if (pio_get(PIOB, PIO_TYPE_PIO_INPUT, PIO_PB14)){
   8115e:	4806      	ldr	r0, [pc, #24]	; (81178 <pin14_edge_handler+0x1c>)
   81160:	f04f 5120 	mov.w	r1, #671088640	; 0x28000000
   81164:	f44f 4280 	mov.w	r2, #16384	; 0x4000
   81168:	4b04      	ldr	r3, [pc, #16]	; (8117c <pin14_edge_handler+0x20>)
   8116a:	4798      	blx	r3
   8116c:	b118      	cbz	r0, 81176 <pin14_edge_handler+0x1a>
		//Increase the counter value
		counter_1++;
   8116e:	4b04      	ldr	r3, [pc, #16]	; (81180 <pin14_edge_handler+0x24>)
   81170:	881a      	ldrh	r2, [r3, #0]
   81172:	3201      	adds	r2, #1
   81174:	801a      	strh	r2, [r3, #0]
   81176:	bd08      	pop	{r3, pc}
   81178:	400e1000 	.word	0x400e1000
   8117c:	00083889 	.word	0x00083889
   81180:	20078d96 	.word	0x20078d96

00081184 <attach_interupt>:

/*
* Runs one time when program starts.
*/
void attach_interupt(void)
{
   81184:	b570      	push	{r4, r5, r6, lr}
   81186:	b082      	sub	sp, #8

	//Enable the module clock to the PIOB peripheral
	pmc_enable_periph_clk(ID_PIOB);
   81188:	200c      	movs	r0, #12
   8118a:	4c1a      	ldr	r4, [pc, #104]	; (811f4 <attach_interupt+0x70>)
   8118c:	47a0      	blx	r4
	//Enable the module clock to the PIOC peripheral
	pmc_enable_periph_clk(ID_PIOC);
   8118e:	200d      	movs	r0, #13
   81190:	47a0      	blx	r4
	//Set pin 12 direction on PIOC as input, with pullup
	pio_set_input(PIOC,PIO_PC12,PIO_PULLUP);
   81192:	4d19      	ldr	r5, [pc, #100]	; (811f8 <attach_interupt+0x74>)
   81194:	4628      	mov	r0, r5
   81196:	f44f 5180 	mov.w	r1, #4096	; 0x1000
   8119a:	2201      	movs	r2, #1
   8119c:	4e17      	ldr	r6, [pc, #92]	; (811fc <attach_interupt+0x78>)
   8119e:	47b0      	blx	r6
	//Set pin 14 direction on PIOB as input, with pullup
	pio_set_input(PIOB,PIO_PB14,PIO_PULLUP);
   811a0:	4c17      	ldr	r4, [pc, #92]	; (81200 <attach_interupt+0x7c>)
   811a2:	4620      	mov	r0, r4
   811a4:	f44f 4180 	mov.w	r1, #16384	; 0x4000
   811a8:	2201      	movs	r2, #1
   811aa:	47b0      	blx	r6
	//Configure the input pin 12 interrupt mode and handler pin51
	pio_handler_set(PIOC, ID_PIOC, PIO_PC12, PIO_IT_RISE_EDGE, pin12_edge_handler);
   811ac:	4b15      	ldr	r3, [pc, #84]	; (81204 <attach_interupt+0x80>)
   811ae:	9300      	str	r3, [sp, #0]
   811b0:	4628      	mov	r0, r5
   811b2:	210d      	movs	r1, #13
   811b4:	f44f 5280 	mov.w	r2, #4096	; 0x1000
   811b8:	2370      	movs	r3, #112	; 0x70
   811ba:	4e13      	ldr	r6, [pc, #76]	; (81208 <attach_interupt+0x84>)
   811bc:	47b0      	blx	r6
	//Configure the input pin 14 interrupt mode and handler pin53
	pio_handler_set(PIOB, ID_PIOB, PIO_PB14, PIO_IT_RISE_EDGE, pin14_edge_handler);
   811be:	4b13      	ldr	r3, [pc, #76]	; (8120c <attach_interupt+0x88>)
   811c0:	9300      	str	r3, [sp, #0]
   811c2:	4620      	mov	r0, r4
   811c4:	210c      	movs	r1, #12
   811c6:	f44f 4280 	mov.w	r2, #16384	; 0x4000
   811ca:	2370      	movs	r3, #112	; 0x70
   811cc:	47b0      	blx	r6
	//Enable the interrupt for the configured input pin 12
	pio_enable_interrupt(PIOC,PIO_PC12);
   811ce:	4628      	mov	r0, r5
   811d0:	f44f 5180 	mov.w	r1, #4096	; 0x1000
   811d4:	4d0e      	ldr	r5, [pc, #56]	; (81210 <attach_interupt+0x8c>)
   811d6:	47a8      	blx	r5
	//Enable the interrupt for the configured input pin 12
	pio_enable_interrupt(PIOB,PIO_PB14);
   811d8:	4620      	mov	r0, r4
   811da:	f44f 4180 	mov.w	r1, #16384	; 0x4000
   811de:	47a8      	blx	r5

    \param [in]      IRQn  External interrupt number. Value cannot be negative.
 */
__STATIC_INLINE void NVIC_EnableIRQ(IRQn_Type IRQn)
{
  NVIC->ISER[((uint32_t)(IRQn) >> 5)] = (1 << ((uint32_t)(IRQn) & 0x1F)); /* enable interrupt */
   811e0:	4b0c      	ldr	r3, [pc, #48]	; (81214 <attach_interupt+0x90>)
   811e2:	f44f 5200 	mov.w	r2, #8192	; 0x2000
   811e6:	601a      	str	r2, [r3, #0]
   811e8:	f44f 5280 	mov.w	r2, #4096	; 0x1000
   811ec:	601a      	str	r2, [r3, #0]
	//Enable interrupt handling from the PIOB module:
	NVIC_EnableIRQ(PIOB_IRQn);
	// 	NVIC_EnableIRQ((IRQn_Type) ID_USART1);
	// 	usart_enable_interrupt(CONF_UART, UART_IER_RXRDY);

}
   811ee:	b002      	add	sp, #8
   811f0:	bd70      	pop	{r4, r5, r6, pc}
   811f2:	bf00      	nop
   811f4:	00083cbd 	.word	0x00083cbd
   811f8:	400e1200 	.word	0x400e1200
   811fc:	000838e1 	.word	0x000838e1
   81200:	400e1000 	.word	0x400e1000
   81204:	00081135 	.word	0x00081135
   81208:	00083b49 	.word	0x00083b49
   8120c:	0008115d 	.word	0x0008115d
   81210:	0008396d 	.word	0x0008396d
   81214:	e000e100 	.word	0xe000e100

00081218 <reset_Counter>:
// 		c_counter = 0;
// 	}
// }

void reset_Counter(void){
	counter_1=0;
   81218:	2300      	movs	r3, #0
   8121a:	4a02      	ldr	r2, [pc, #8]	; (81224 <reset_Counter+0xc>)
   8121c:	8013      	strh	r3, [r2, #0]
	counter_2=0;
   8121e:	4a02      	ldr	r2, [pc, #8]	; (81228 <reset_Counter+0x10>)
   81220:	8013      	strh	r3, [r2, #0]
   81222:	4770      	bx	lr
   81224:	20078d96 	.word	0x20078d96
   81228:	20078d94 	.word	0x20078d94

0008122c <task_unoComm>:

uint8_t pick_up_tries = 0;
uint8_t number_of_rotations = 0;	// Used for

void task_unoComm(void *pvParameters)
{
   8122c:	b5f0      	push	{r4, r5, r6, r7, lr}
   8122e:	b083      	sub	sp, #12
	portTickType xLastWakeTime;
	const portTickType xTimeIncrement = 200;

	xLastWakeTime = xTaskGetTickCount(); // Initialize the xLastWakeTime variable with the current time.
   81230:	4b63      	ldr	r3, [pc, #396]	; (813c0 <task_unoComm+0x194>)
   81232:	4798      	blx	r3
   81234:	f8ad 0006 	strh.w	r0, [sp, #6]

	while (1)
	{
		switch (current_state)
   81238:	4c62      	ldr	r4, [pc, #392]	; (813c4 <task_unoComm+0x198>)
			arlo_pick_up_object(OBJECT);
			next_state = PICK_UP_DO;
			break;
			///////////////////////////Search-state////////////////////////////////////
			case PICK_UP_DO:
			printf("PICK_UP_DO\r\n");
   8123a:	4e63      	ldr	r6, [pc, #396]	; (813c8 <task_unoComm+0x19c>)
   8123c:	4d63      	ldr	r5, [pc, #396]	; (813cc <task_unoComm+0x1a0>)

	xLastWakeTime = xTaskGetTickCount(); // Initialize the xLastWakeTime variable with the current time.

	while (1)
	{
		switch (current_state)
   8123e:	7823      	ldrb	r3, [r4, #0]
   81240:	2b01      	cmp	r3, #1
   81242:	d00d      	beq.n	81260 <task_unoComm+0x34>
   81244:	b11b      	cbz	r3, 8124e <task_unoComm+0x22>
   81246:	2b02      	cmp	r3, #2
   81248:	f000 8088 	beq.w	8135c <task_unoComm+0x130>
   8124c:	e0af      	b.n	813ae <task_unoComm+0x182>
		{
			///////////////////////////Start-state//////////////////////////////////////
			case PICK_UP_START:
			printf("PICK_UP_START\r\n");
   8124e:	4860      	ldr	r0, [pc, #384]	; (813d0 <task_unoComm+0x1a4>)
   81250:	47a8      	blx	r5
			arlo_pick_up_object(OBJECT);
   81252:	2005      	movs	r0, #5
   81254:	4b5f      	ldr	r3, [pc, #380]	; (813d4 <task_unoComm+0x1a8>)
   81256:	4798      	blx	r3
			next_state = PICK_UP_DO;
   81258:	2201      	movs	r2, #1
   8125a:	4b5f      	ldr	r3, [pc, #380]	; (813d8 <task_unoComm+0x1ac>)
   8125c:	701a      	strb	r2, [r3, #0]
			break;
   8125e:	e0a6      	b.n	813ae <task_unoComm+0x182>
			///////////////////////////Search-state////////////////////////////////////
			case PICK_UP_DO:
			printf("PICK_UP_DO\r\n");
   81260:	4630      	mov	r0, r6
   81262:	47a8      	blx	r5
			pick_up_status_t = arlo_get_pick_up_status();
   81264:	4b5d      	ldr	r3, [pc, #372]	; (813dc <task_unoComm+0x1b0>)
   81266:	4798      	blx	r3
   81268:	4b5d      	ldr	r3, [pc, #372]	; (813e0 <task_unoComm+0x1b4>)
   8126a:	7018      	strb	r0, [r3, #0]
			
			switch (pick_up_status_t)
   8126c:	1e83      	subs	r3, r0, #2
   8126e:	2b04      	cmp	r3, #4
   81270:	f200 809d 	bhi.w	813ae <task_unoComm+0x182>
   81274:	e8df f003 	tbb	[pc, r3]
   81278:	9b361e4f 	.word	0x9b361e4f
   8127c:	03          	.byte	0x03
   8127d:	00          	.byte	0x00
			{
				case PICK_UP_FAILED:
				printf("PICK_UP_FAILED\r\n");
   8127e:	4859      	ldr	r0, [pc, #356]	; (813e4 <task_unoComm+0x1b8>)
   81280:	47a8      	blx	r5
				if (!arloNeedsToDrive)
   81282:	4b59      	ldr	r3, [pc, #356]	; (813e8 <task_unoComm+0x1bc>)
   81284:	781b      	ldrb	r3, [r3, #0]
   81286:	b92b      	cbnz	r3, 81294 <task_unoComm+0x68>
				{
					arloNeedsToDrive = true;
   81288:	2201      	movs	r2, #1
   8128a:	4b57      	ldr	r3, [pc, #348]	; (813e8 <task_unoComm+0x1bc>)
   8128c:	701a      	strb	r2, [r3, #0]
					angle = 10;
   8128e:	220a      	movs	r2, #10
   81290:	4b56      	ldr	r3, [pc, #344]	; (813ec <task_unoComm+0x1c0>)
   81292:	601a      	str	r2, [r3, #0]
				}
				if (arloIsDone)
   81294:	4b56      	ldr	r3, [pc, #344]	; (813f0 <task_unoComm+0x1c4>)
   81296:	781b      	ldrb	r3, [r3, #0]
   81298:	2b00      	cmp	r3, #0
   8129a:	f000 8088 	beq.w	813ae <task_unoComm+0x182>
				{
					arloNeedsToDrive = false;
   8129e:	2700      	movs	r7, #0
   812a0:	4b51      	ldr	r3, [pc, #324]	; (813e8 <task_unoComm+0x1bc>)
   812a2:	701f      	strb	r7, [r3, #0]
					arloIsDone=false;
   812a4:	4b52      	ldr	r3, [pc, #328]	; (813f0 <task_unoComm+0x1c4>)
   812a6:	701f      	strb	r7, [r3, #0]
					arlo_done_drive(PICK_UP_DONE_DRIVE);
   812a8:	2007      	movs	r0, #7
   812aa:	4b52      	ldr	r3, [pc, #328]	; (813f4 <task_unoComm+0x1c8>)
   812ac:	4798      	blx	r3
					next_state = PICK_UP_START;
   812ae:	4b4a      	ldr	r3, [pc, #296]	; (813d8 <task_unoComm+0x1ac>)
   812b0:	701f      	strb	r7, [r3, #0]
   812b2:	e07c      	b.n	813ae <task_unoComm+0x182>
				}
				break;
				case PICK_UP_FORWARD:
				printf("PICK_UP_FORWARD\r\n");
   812b4:	4850      	ldr	r0, [pc, #320]	; (813f8 <task_unoComm+0x1cc>)
   812b6:	47a8      	blx	r5
				if (!arloNeedsToDrive)
   812b8:	4b4b      	ldr	r3, [pc, #300]	; (813e8 <task_unoComm+0x1bc>)
   812ba:	781b      	ldrb	r3, [r3, #0]
   812bc:	b92b      	cbnz	r3, 812ca <task_unoComm+0x9e>
				{
					distance = 10;
   812be:	220a      	movs	r2, #10
   812c0:	4b4e      	ldr	r3, [pc, #312]	; (813fc <task_unoComm+0x1d0>)
   812c2:	601a      	str	r2, [r3, #0]
					arloNeedsToDrive = true;
   812c4:	2201      	movs	r2, #1
   812c6:	4b48      	ldr	r3, [pc, #288]	; (813e8 <task_unoComm+0x1bc>)
   812c8:	701a      	strb	r2, [r3, #0]
				}
				if (arloIsDone)
   812ca:	4b49      	ldr	r3, [pc, #292]	; (813f0 <task_unoComm+0x1c4>)
   812cc:	781b      	ldrb	r3, [r3, #0]
   812ce:	2b00      	cmp	r3, #0
   812d0:	d06d      	beq.n	813ae <task_unoComm+0x182>
				{
					arloNeedsToDrive = false;
   812d2:	2700      	movs	r7, #0
   812d4:	4b44      	ldr	r3, [pc, #272]	; (813e8 <task_unoComm+0x1bc>)
   812d6:	701f      	strb	r7, [r3, #0]
					arlo_done_drive(PICK_UP_DONE_DRIVE);
   812d8:	2007      	movs	r0, #7
   812da:	4b46      	ldr	r3, [pc, #280]	; (813f4 <task_unoComm+0x1c8>)
   812dc:	4798      	blx	r3
					next_state = PICK_UP_START;
   812de:	4b3e      	ldr	r3, [pc, #248]	; (813d8 <task_unoComm+0x1ac>)
   812e0:	701f      	strb	r7, [r3, #0]
   812e2:	e064      	b.n	813ae <task_unoComm+0x182>
				}
				break;
				case PICK_UP_BACKWARD:
				printf("PICK_UP_BACKWARD\r\n");
   812e4:	4846      	ldr	r0, [pc, #280]	; (81400 <task_unoComm+0x1d4>)
   812e6:	47a8      	blx	r5
				if (!arloNeedsToDrive)
   812e8:	4b3f      	ldr	r3, [pc, #252]	; (813e8 <task_unoComm+0x1bc>)
   812ea:	781b      	ldrb	r3, [r3, #0]
   812ec:	b933      	cbnz	r3, 812fc <task_unoComm+0xd0>
				{
					distance = -10;
   812ee:	f06f 0209 	mvn.w	r2, #9
   812f2:	4b42      	ldr	r3, [pc, #264]	; (813fc <task_unoComm+0x1d0>)
   812f4:	601a      	str	r2, [r3, #0]
					arloNeedsToDrive = true;
   812f6:	2201      	movs	r2, #1
   812f8:	4b3b      	ldr	r3, [pc, #236]	; (813e8 <task_unoComm+0x1bc>)
   812fa:	701a      	strb	r2, [r3, #0]
				}
				if (arloIsDone)
   812fc:	4b3c      	ldr	r3, [pc, #240]	; (813f0 <task_unoComm+0x1c4>)
   812fe:	781b      	ldrb	r3, [r3, #0]
   81300:	2b00      	cmp	r3, #0
   81302:	d054      	beq.n	813ae <task_unoComm+0x182>
				{
					arloNeedsToDrive = false;
   81304:	2700      	movs	r7, #0
   81306:	4b38      	ldr	r3, [pc, #224]	; (813e8 <task_unoComm+0x1bc>)
   81308:	701f      	strb	r7, [r3, #0]
					arlo_done_drive(PICK_UP_DONE_DRIVE);
   8130a:	2007      	movs	r0, #7
   8130c:	4b39      	ldr	r3, [pc, #228]	; (813f4 <task_unoComm+0x1c8>)
   8130e:	4798      	blx	r3
					next_state = PICK_UP_START;
   81310:	4b31      	ldr	r3, [pc, #196]	; (813d8 <task_unoComm+0x1ac>)
   81312:	701f      	strb	r7, [r3, #0]
   81314:	e04b      	b.n	813ae <task_unoComm+0x182>
				}
				break;
				case PICK_UP_DONE:
				printf("PICK_UP_DONE\r\n");
   81316:	483b      	ldr	r0, [pc, #236]	; (81404 <task_unoComm+0x1d8>)
   81318:	47a8      	blx	r5
				objects_left--;
   8131a:	4b3b      	ldr	r3, [pc, #236]	; (81408 <task_unoComm+0x1dc>)
   8131c:	781a      	ldrb	r2, [r3, #0]
   8131e:	3a01      	subs	r2, #1
   81320:	701a      	strb	r2, [r3, #0]
				// If Arlo can collect all items and there are no more objects to pick up or if it cannot collect them all
				if ((arlo_get_collect_status() == 1 && objects_left == 0) || (arlo_get_collect_status() == 0))
   81322:	4b3a      	ldr	r3, [pc, #232]	; (8140c <task_unoComm+0x1e0>)
   81324:	4798      	blx	r3
   81326:	2801      	cmp	r0, #1
   81328:	d102      	bne.n	81330 <task_unoComm+0x104>
   8132a:	4b37      	ldr	r3, [pc, #220]	; (81408 <task_unoComm+0x1dc>)
   8132c:	781b      	ldrb	r3, [r3, #0]
   8132e:	b113      	cbz	r3, 81336 <task_unoComm+0x10a>
   81330:	4b36      	ldr	r3, [pc, #216]	; (8140c <task_unoComm+0x1e0>)
   81332:	4798      	blx	r3
   81334:	b928      	cbnz	r0, 81342 <task_unoComm+0x116>
				{
					printf("Skall lmna allt nu!!!!!!!!!!!!!!\r\n");
   81336:	4836      	ldr	r0, [pc, #216]	; (81410 <task_unoComm+0x1e4>)
   81338:	47a8      	blx	r5
					next_state = DROP_OFF;
   8133a:	2202      	movs	r2, #2
   8133c:	4b26      	ldr	r3, [pc, #152]	; (813d8 <task_unoComm+0x1ac>)
   8133e:	701a      	strb	r2, [r3, #0]
   81340:	e035      	b.n	813ae <task_unoComm+0x182>
				}
				else
				{
					printf("NSTTTTTTTTTTTTAAAAAAAA!!!!!!!!!!!!!!\r\n");
   81342:	4834      	ldr	r0, [pc, #208]	; (81414 <task_unoComm+0x1e8>)
   81344:	47a8      	blx	r5
					printf("\n pick_up_process_finished=true\r\n");
   81346:	4834      	ldr	r0, [pc, #208]	; (81418 <task_unoComm+0x1ec>)
   81348:	47a8      	blx	r5
					pick_up_process_finished=true;
   8134a:	2201      	movs	r2, #1
   8134c:	4b33      	ldr	r3, [pc, #204]	; (8141c <task_unoComm+0x1f0>)
   8134e:	701a      	strb	r2, [r3, #0]
					next_state = PICK_UP_START;
   81350:	2000      	movs	r0, #0
   81352:	4b21      	ldr	r3, [pc, #132]	; (813d8 <task_unoComm+0x1ac>)
   81354:	7018      	strb	r0, [r3, #0]
					vTaskSuspend(NULL);
   81356:	4b32      	ldr	r3, [pc, #200]	; (81420 <task_unoComm+0x1f4>)
   81358:	4798      	blx	r3
   8135a:	e028      	b.n	813ae <task_unoComm+0x182>
				break;
			}
			break;
			///////////////////////////Drop_off-state////////////////////////////////////
			case DROP_OFF:
			printf("DROP OFF CASE\r\n");
   8135c:	4831      	ldr	r0, [pc, #196]	; (81424 <task_unoComm+0x1f8>)
   8135e:	47a8      	blx	r5
			if (already_dropped == 0)
   81360:	4b31      	ldr	r3, [pc, #196]	; (81428 <task_unoComm+0x1fc>)
   81362:	781b      	ldrb	r3, [r3, #0]
   81364:	b94b      	cbnz	r3, 8137a <task_unoComm+0x14e>
			{
				arlo_drop_object(OBJECT);
   81366:	2005      	movs	r0, #5
   81368:	4b30      	ldr	r3, [pc, #192]	; (8142c <task_unoComm+0x200>)
   8136a:	4798      	blx	r3
				already_dropped = 1;
   8136c:	2201      	movs	r2, #1
   8136e:	4b2e      	ldr	r3, [pc, #184]	; (81428 <task_unoComm+0x1fc>)
   81370:	701a      	strb	r2, [r3, #0]
				next_state = DROP_OFF;
   81372:	2202      	movs	r2, #2
   81374:	4b18      	ldr	r3, [pc, #96]	; (813d8 <task_unoComm+0x1ac>)
   81376:	701a      	strb	r2, [r3, #0]
   81378:	e019      	b.n	813ae <task_unoComm+0x182>
			}
			else
			{
				drop_off_status_t = arlo_get_drop_off_status();
   8137a:	4b2d      	ldr	r3, [pc, #180]	; (81430 <task_unoComm+0x204>)
   8137c:	4798      	blx	r3
   8137e:	4b2d      	ldr	r3, [pc, #180]	; (81434 <task_unoComm+0x208>)
   81380:	7018      	strb	r0, [r3, #0]
				if (drop_off_status_t == DROP_OFF_DONE)
   81382:	2802      	cmp	r0, #2
   81384:	d110      	bne.n	813a8 <task_unoComm+0x17c>
				{
					printf("Drop off process finished\r\n");
   81386:	482c      	ldr	r0, [pc, #176]	; (81438 <task_unoComm+0x20c>)
   81388:	47a8      	blx	r5
					drop_off_process_finished = true;
   8138a:	2301      	movs	r3, #1
   8138c:	4a2b      	ldr	r2, [pc, #172]	; (8143c <task_unoComm+0x210>)
   8138e:	7013      	strb	r3, [r2, #0]
					pick_up_process_finished=true;
   81390:	4a22      	ldr	r2, [pc, #136]	; (8141c <task_unoComm+0x1f0>)
   81392:	7013      	strb	r3, [r2, #0]
					drop_off_status_t = 0;
   81394:	2000      	movs	r0, #0
   81396:	4b27      	ldr	r3, [pc, #156]	; (81434 <task_unoComm+0x208>)
   81398:	7018      	strb	r0, [r3, #0]
					already_dropped = 0;
   8139a:	4b23      	ldr	r3, [pc, #140]	; (81428 <task_unoComm+0x1fc>)
   8139c:	7018      	strb	r0, [r3, #0]
					next_state = PICK_UP_START;
   8139e:	4b0e      	ldr	r3, [pc, #56]	; (813d8 <task_unoComm+0x1ac>)
   813a0:	7018      	strb	r0, [r3, #0]
					vTaskSuspend(NULL);
   813a2:	4b1f      	ldr	r3, [pc, #124]	; (81420 <task_unoComm+0x1f4>)
   813a4:	4798      	blx	r3
   813a6:	e002      	b.n	813ae <task_unoComm+0x182>
				}
				else
				{
					next_state = DROP_OFF;
   813a8:	2202      	movs	r2, #2
   813aa:	4b0b      	ldr	r3, [pc, #44]	; (813d8 <task_unoComm+0x1ac>)
   813ac:	701a      	strb	r2, [r3, #0]
				}
			}
			break;
			////////////////////////-----SLUT-----!!!!///////////////////////////////////
		}
		current_state = next_state;		
   813ae:	4b0a      	ldr	r3, [pc, #40]	; (813d8 <task_unoComm+0x1ac>)
   813b0:	781b      	ldrb	r3, [r3, #0]
   813b2:	7023      	strb	r3, [r4, #0]
		vTaskDelayUntil(&xLastWakeTime, xTimeIncrement);	// Wait for the next cycle after have finished everything
   813b4:	f10d 0006 	add.w	r0, sp, #6
   813b8:	21c8      	movs	r1, #200	; 0xc8
   813ba:	4b21      	ldr	r3, [pc, #132]	; (81440 <task_unoComm+0x214>)
   813bc:	4798      	blx	r3
	}
   813be:	e73e      	b.n	8123e <task_unoComm+0x12>
   813c0:	00082c91 	.word	0x00082c91
   813c4:	20070a38 	.word	0x20070a38
   813c8:	00088154 	.word	0x00088154
   813cc:	00084fd9 	.word	0x00084fd9
   813d0:	00088144 	.word	0x00088144
   813d4:	000803c1 	.word	0x000803c1
   813d8:	20078d98 	.word	0x20078d98
   813dc:	00080199 	.word	0x00080199
   813e0:	20070a90 	.word	0x20070a90
   813e4:	00088164 	.word	0x00088164
   813e8:	20070a61 	.word	0x20070a61
   813ec:	20070a3c 	.word	0x20070a3c
   813f0:	20070a81 	.word	0x20070a81
   813f4:	00080465 	.word	0x00080465
   813f8:	00088178 	.word	0x00088178
   813fc:	20070a34 	.word	0x20070a34
   81400:	0008818c 	.word	0x0008818c
   81404:	000881a0 	.word	0x000881a0
   81408:	20070139 	.word	0x20070139
   8140c:	00080409 	.word	0x00080409
   81410:	000881b0 	.word	0x000881b0
   81414:	000881d4 	.word	0x000881d4
   81418:	00088204 	.word	0x00088204
   8141c:	20070a80 	.word	0x20070a80
   81420:	00083091 	.word	0x00083091
   81424:	00088228 	.word	0x00088228
   81428:	20070a39 	.word	0x20070a39
   8142c:	000803e5 	.word	0x000803e5
   81430:	00080415 	.word	0x00080415
   81434:	20070a51 	.word	0x20070a51
   81438:	00088238 	.word	0x00088238
   8143c:	20070aa0 	.word	0x20070aa0
   81440:	00082ee5 	.word	0x00082ee5

00081444 <usart_write>:
 * \retval 0 on success.
 * \retval 1 on failure.
 */
uint32_t usart_write(Usart *p_usart, uint32_t c)
{
	if (!(p_usart->US_CSR & US_CSR_TXRDY)) {
   81444:	6943      	ldr	r3, [r0, #20]
   81446:	f013 0f02 	tst.w	r3, #2
		return 1;
	}

	p_usart->US_THR = US_THR_TXCHR(c);
   8144a:	bf1d      	ittte	ne
   8144c:	f3c1 0108 	ubfxne	r1, r1, #0, #9
   81450:	61c1      	strne	r1, [r0, #28]
	return 0;
   81452:	2000      	movne	r0, #0
 * \retval 1 on failure.
 */
uint32_t usart_write(Usart *p_usart, uint32_t c)
{
	if (!(p_usart->US_CSR & US_CSR_TXRDY)) {
		return 1;
   81454:	2001      	moveq	r0, #1
	}

	p_usart->US_THR = US_THR_TXCHR(c);
	return 0;
}
   81456:	4770      	bx	lr

00081458 <usart_read>:
 * \retval 0 on success.
 * \retval 1 if no data is available or errors.
 */
uint32_t usart_read(Usart *p_usart, uint32_t *c)
{
	if (!(p_usart->US_CSR & US_CSR_RXRDY)) {
   81458:	6943      	ldr	r3, [r0, #20]
   8145a:	f013 0f01 	tst.w	r3, #1
   8145e:	d005      	beq.n	8146c <usart_read+0x14>
		return 1;
	}

	/* Read character */
	*c = p_usart->US_RHR & US_RHR_RXCHR_Msk;
   81460:	6983      	ldr	r3, [r0, #24]
   81462:	f3c3 0308 	ubfx	r3, r3, #0, #9
   81466:	600b      	str	r3, [r1, #0]

	return 0;
   81468:	2000      	movs	r0, #0
   8146a:	4770      	bx	lr
 * \retval 1 if no data is available or errors.
 */
uint32_t usart_read(Usart *p_usart, uint32_t *c)
{
	if (!(p_usart->US_CSR & US_CSR_RXRDY)) {
		return 1;
   8146c:	2001      	movs	r0, #1

	/* Read character */
	*c = p_usart->US_RHR & US_RHR_RXCHR_Msk;

	return 0;
}
   8146e:	4770      	bx	lr

00081470 <_write>:
int __attribute__((weak))
_write (int file, const char *ptr, int len);

int __attribute__((weak))
_write (int file, const char *ptr, int len)
{
   81470:	e92d 41f0 	stmdb	sp!, {r4, r5, r6, r7, r8, lr}
   81474:	460e      	mov	r6, r1
   81476:	4615      	mov	r5, r2
	int nChars = 0;

	if ((file != 1) && (file != 2) && (file!=3)) {
   81478:	3801      	subs	r0, #1
   8147a:	2802      	cmp	r0, #2
   8147c:	d80f      	bhi.n	8149e <_write+0x2e>
		return -1;
	}

	for (; len != 0; --len) {
   8147e:	b192      	cbz	r2, 814a6 <_write+0x36>
   81480:	2400      	movs	r4, #0
		if (ptr_put(stdio_base, *ptr++) < 0) {
   81482:	f8df 803c 	ldr.w	r8, [pc, #60]	; 814c0 <_write+0x50>
   81486:	4f0d      	ldr	r7, [pc, #52]	; (814bc <_write+0x4c>)
   81488:	f8d8 0000 	ldr.w	r0, [r8]
   8148c:	5d31      	ldrb	r1, [r6, r4]
   8148e:	683b      	ldr	r3, [r7, #0]
   81490:	4798      	blx	r3
   81492:	2800      	cmp	r0, #0
   81494:	db0a      	blt.n	814ac <_write+0x3c>
			return -1;
		}
		++nChars;
   81496:	3401      	adds	r4, #1

	if ((file != 1) && (file != 2) && (file!=3)) {
		return -1;
	}

	for (; len != 0; --len) {
   81498:	42a5      	cmp	r5, r4
   8149a:	d1f5      	bne.n	81488 <_write+0x18>
   8149c:	e00a      	b.n	814b4 <_write+0x44>
_write (int file, const char *ptr, int len)
{
	int nChars = 0;

	if ((file != 1) && (file != 2) && (file!=3)) {
		return -1;
   8149e:	f04f 30ff 	mov.w	r0, #4294967295
   814a2:	e8bd 81f0 	ldmia.w	sp!, {r4, r5, r6, r7, r8, pc}
	}

	for (; len != 0; --len) {
   814a6:	2000      	movs	r0, #0
   814a8:	e8bd 81f0 	ldmia.w	sp!, {r4, r5, r6, r7, r8, pc}
		if (ptr_put(stdio_base, *ptr++) < 0) {
			return -1;
   814ac:	f04f 30ff 	mov.w	r0, #4294967295
   814b0:	e8bd 81f0 	ldmia.w	sp!, {r4, r5, r6, r7, r8, pc}
		}
		++nChars;
   814b4:	4620      	mov	r0, r4
	}
	return nChars;
}
   814b6:	e8bd 81f0 	ldmia.w	sp!, {r4, r5, r6, r7, r8, pc}
   814ba:	bf00      	nop
   814bc:	20078d9c 	.word	0x20078d9c
   814c0:	20078da0 	.word	0x20078da0

000814c4 <uart_init>:
 *
 * \retval 0 Success.
 * \retval 1 Bad baud rate generator value.
 */
uint32_t uart_init(Uart *p_uart, const sam_uart_opt_t *p_uart_opt)
{
   814c4:	b410      	push	{r4}
	uint32_t cd = 0;

	/* Reset and disable receiver & transmitter */
	p_uart->UART_CR = UART_CR_RSTRX | UART_CR_RSTTX
   814c6:	23ac      	movs	r3, #172	; 0xac
   814c8:	6003      	str	r3, [r0, #0]
			| UART_CR_RXDIS | UART_CR_TXDIS;

	/* Check and configure baudrate */
	/* Asynchronous, no oversampling */
	cd = (p_uart_opt->ul_mck / p_uart_opt->ul_baudrate) / UART_MCK_DIV;
   814ca:	680a      	ldr	r2, [r1, #0]
   814cc:	684b      	ldr	r3, [r1, #4]
   814ce:	fbb2 f3f3 	udiv	r3, r2, r3
   814d2:	091b      	lsrs	r3, r3, #4
	if (cd < UART_MCK_DIV_MIN_FACTOR || cd > UART_MCK_DIV_MAX_FACTOR)
   814d4:	1e5c      	subs	r4, r3, #1
   814d6:	f64f 72fe 	movw	r2, #65534	; 0xfffe
   814da:	4294      	cmp	r4, r2
   814dc:	d80a      	bhi.n	814f4 <uart_init+0x30>
		return 1;

	p_uart->UART_BRGR = cd;
   814de:	6203      	str	r3, [r0, #32]
	/* Configure mode */
	p_uart->UART_MR = p_uart_opt->ul_mode;
   814e0:	688b      	ldr	r3, [r1, #8]
   814e2:	6043      	str	r3, [r0, #4]

	/* Disable PDC channel */
	p_uart->UART_PTCR = UART_PTCR_RXTDIS | UART_PTCR_TXTDIS;
   814e4:	f240 2302 	movw	r3, #514	; 0x202
   814e8:	f8c0 3120 	str.w	r3, [r0, #288]	; 0x120

	/* Enable receiver and transmitter */
	p_uart->UART_CR = UART_CR_RXEN | UART_CR_TXEN;
   814ec:	2350      	movs	r3, #80	; 0x50
   814ee:	6003      	str	r3, [r0, #0]

	return 0;
   814f0:	2000      	movs	r0, #0
   814f2:	e000      	b.n	814f6 <uart_init+0x32>

	/* Check and configure baudrate */
	/* Asynchronous, no oversampling */
	cd = (p_uart_opt->ul_mck / p_uart_opt->ul_baudrate) / UART_MCK_DIV;
	if (cd < UART_MCK_DIV_MIN_FACTOR || cd > UART_MCK_DIV_MAX_FACTOR)
		return 1;
   814f4:	2001      	movs	r0, #1

	/* Enable receiver and transmitter */
	p_uart->UART_CR = UART_CR_RXEN | UART_CR_TXEN;

	return 0;
}
   814f6:	f85d 4b04 	ldr.w	r4, [sp], #4
   814fa:	4770      	bx	lr

000814fc <uart_write>:
 * \retval 1 I/O Failure, UART is not ready.
 */
uint32_t uart_write(Uart *p_uart, const uint8_t uc_data)
{
	/* Check if the transmitter is ready */
	if (!(p_uart->UART_SR & UART_SR_TXRDY))
   814fc:	6943      	ldr	r3, [r0, #20]
   814fe:	f013 0f02 	tst.w	r3, #2
		return 1;

	/* Send character */
	p_uart->UART_THR = uc_data;
   81502:	bf1a      	itte	ne
   81504:	61c1      	strne	r1, [r0, #28]
	return 0;
   81506:	2000      	movne	r0, #0
 */
uint32_t uart_write(Uart *p_uart, const uint8_t uc_data)
{
	/* Check if the transmitter is ready */
	if (!(p_uart->UART_SR & UART_SR_TXRDY))
		return 1;
   81508:	2001      	moveq	r0, #1

	/* Send character */
	p_uart->UART_THR = uc_data;
	return 0;
}
   8150a:	4770      	bx	lr

0008150c <uart_read>:
 * \retval 1 I/O Failure, UART is not ready.
 */
uint32_t uart_read(Uart *p_uart, uint8_t *puc_data)
{
	/* Check if the receiver is ready */
	if ((p_uart->UART_SR & UART_SR_RXRDY) == 0)
   8150c:	6943      	ldr	r3, [r0, #20]
   8150e:	f013 0f01 	tst.w	r3, #1
		return 1;

	/* Read character */
	*puc_data = (uint8_t) p_uart->UART_RHR;
   81512:	bf1d      	ittte	ne
   81514:	6983      	ldrne	r3, [r0, #24]
   81516:	700b      	strbne	r3, [r1, #0]
	return 0;
   81518:	2000      	movne	r0, #0
 */
uint32_t uart_read(Uart *p_uart, uint8_t *puc_data)
{
	/* Check if the receiver is ready */
	if ((p_uart->UART_SR & UART_SR_RXRDY) == 0)
		return 1;
   8151a:	2001      	moveq	r0, #1

	/* Read character */
	*puc_data = (uint8_t) p_uart->UART_RHR;
	return 0;
}
   8151c:	4770      	bx	lr
   8151e:	bf00      	nop

00081520 <task_getCordinates>:
#include "Task_Move.h"

extern Bool newData;

void task_getCordinates(void *pvParameters)
{
   81520:	b5f0      	push	{r4, r5, r6, r7, lr}
   81522:	b083      	sub	sp, #12
	portTickType xLastWakeTime;
	const portTickType xTimeIncrement = 200;

	xLastWakeTime = xTaskGetTickCount();//Initialise the xLastWakeTime variable with the current time.
   81524:	4b0e      	ldr	r3, [pc, #56]	; (81560 <task_getCordinates+0x40>)
   81526:	4798      	blx	r3
   81528:	f8ad 0006 	strh.w	r0, [sp, #6]
	while (1) 
	{	
// 		if (get_count<4)
// 		{
			int16_t coord_arr[2]={0};
			arlo_get_position(coord_arr);
   8152c:	4f0d      	ldr	r7, [pc, #52]	; (81564 <task_getCordinates+0x44>)
			coord.presentX=coord_arr[0];
   8152e:	4d0e      	ldr	r5, [pc, #56]	; (81568 <task_getCordinates+0x48>)
			//get_count++;
		//}
		
// 		else if (get_count>=5)
// 		{
			newData=false;
   81530:	4e0e      	ldr	r6, [pc, #56]	; (8156c <task_getCordinates+0x4c>)
	xLastWakeTime = xTaskGetTickCount();//Initialise the xLastWakeTime variable with the current time.
	while (1) 
	{	
// 		if (get_count<4)
// 		{
			int16_t coord_arr[2]={0};
   81532:	2400      	movs	r4, #0
   81534:	a802      	add	r0, sp, #8
   81536:	f840 4d08 	str.w	r4, [r0, #-8]!
			arlo_get_position(coord_arr);
   8153a:	4668      	mov	r0, sp
   8153c:	47b8      	blx	r7
			coord.presentX=coord_arr[0];
   8153e:	f8bd 3000 	ldrh.w	r3, [sp]
   81542:	802b      	strh	r3, [r5, #0]
			coord.presentY=coord_arr[1];
   81544:	f8bd 3002 	ldrh.w	r3, [sp, #2]
   81548:	806b      	strh	r3, [r5, #2]
			//get_count++;
		//}
		
// 		else if (get_count>=5)
// 		{
			newData=false;
   8154a:	7034      	strb	r4, [r6, #0]
			//get_count=0;
			vTaskSuspend(NULL);
   8154c:	4620      	mov	r0, r4
   8154e:	4b08      	ldr	r3, [pc, #32]	; (81570 <task_getCordinates+0x50>)
   81550:	4798      	blx	r3
		//}
		vTaskDelayUntil(&xLastWakeTime, xTimeIncrement); // Wait for the next cycle.
   81552:	f10d 0006 	add.w	r0, sp, #6
   81556:	21c8      	movs	r1, #200	; 0xc8
   81558:	4b06      	ldr	r3, [pc, #24]	; (81574 <task_getCordinates+0x54>)
   8155a:	4798      	blx	r3
   8155c:	e7e9      	b.n	81532 <task_getCordinates+0x12>
   8155e:	bf00      	nop
   81560:	00082c91 	.word	0x00082c91
   81564:	0008034d 	.word	0x0008034d
   81568:	20078da8 	.word	0x20078da8
   8156c:	20070ab0 	.word	0x20070ab0
   81570:	00083091 	.word	0x00083091
   81574:	00082ee5 	.word	0x00082ee5

00081578 <move>:
		currentState = nextState;
	}
}

void move (void)
{
   81578:	e92d 4ff0 	stmdb	sp!, {r4, r5, r6, r7, r8, r9, sl, fp, lr}
   8157c:	b089      	sub	sp, #36	; 0x24
	if (distance < 0)
   8157e:	4b86      	ldr	r3, [pc, #536]	; (81798 <move+0x220>)
   81580:	681b      	ldr	r3, [r3, #0]
   81582:	2b00      	cmp	r3, #0
	{
		direction =-1;
   81584:	bfb4      	ite	lt
   81586:	f04f 32ff 	movlt.w	r2, #4294967295
	}
	else
	{
		direction =1;
   8158a:	2201      	movge	r2, #1
   8158c:	4b83      	ldr	r3, [pc, #524]	; (8179c <move+0x224>)
   8158e:	601a      	str	r2, [r3, #0]
	}

	totMovement = ((counter_1+counter_2)/2);
   81590:	4b83      	ldr	r3, [pc, #524]	; (817a0 <move+0x228>)
   81592:	881d      	ldrh	r5, [r3, #0]
   81594:	4b83      	ldr	r3, [pc, #524]	; (817a4 <move+0x22c>)
   81596:	881e      	ldrh	r6, [r3, #0]
   81598:	eb05 0806 	add.w	r8, r5, r6
   8159c:	ea4f 0868 	mov.w	r8, r8, asr #1
   815a0:	4c81      	ldr	r4, [pc, #516]	; (817a8 <move+0x230>)
   815a2:	4640      	mov	r0, r8
   815a4:	47a0      	blx	r4
   815a6:	e9cd 0100 	strd	r0, r1, [sp]
   815aa:	4b80      	ldr	r3, [pc, #512]	; (817ac <move+0x234>)
   815ac:	e9c3 0100 	strd	r0, r1, [r3]
	pulse_counter = pulse_counter + 1;
   815b0:	4b7f      	ldr	r3, [pc, #508]	; (817b0 <move+0x238>)
   815b2:	681a      	ldr	r2, [r3, #0]
   815b4:	3201      	adds	r2, #1
   815b6:	601a      	str	r2, [r3, #0]
	measurementValue = (counter_2-counter_1);// Calculates the error differences
   815b8:	1b70      	subs	r0, r6, r5
   815ba:	47a0      	blx	r4
   815bc:	4602      	mov	r2, r0
   815be:	460b      	mov	r3, r1
   815c0:	497c      	ldr	r1, [pc, #496]	; (817b4 <move+0x23c>)
   815c2:	e9c1 2300 	strd	r2, r3, [r1]
	proportionalError = (referenceValue - measurementValue); // Calculates p-controller gain
   815c6:	497c      	ldr	r1, [pc, #496]	; (817b8 <move+0x240>)
   815c8:	e9d1 4500 	ldrd	r4, r5, [r1]
   815cc:	4620      	mov	r0, r4
   815ce:	4629      	mov	r1, r5
   815d0:	4e7a      	ldr	r6, [pc, #488]	; (817bc <move+0x244>)
   815d2:	47b0      	blx	r6
   815d4:	4606      	mov	r6, r0
   815d6:	460f      	mov	r7, r1
   815d8:	4b79      	ldr	r3, [pc, #484]	; (817c0 <move+0x248>)
   815da:	e9c3 6700 	strd	r6, r7, [r3]
	if ((referenceValue > 0) && (proportionalError < 0))
   815de:	4620      	mov	r0, r4
   815e0:	4629      	mov	r1, r5
   815e2:	2200      	movs	r2, #0
   815e4:	2300      	movs	r3, #0
   815e6:	4c77      	ldr	r4, [pc, #476]	; (817c4 <move+0x24c>)
   815e8:	47a0      	blx	r4
   815ea:	b1e0      	cbz	r0, 81626 <move+0xae>
   815ec:	4630      	mov	r0, r6
   815ee:	4639      	mov	r1, r7
   815f0:	2200      	movs	r2, #0
   815f2:	2300      	movs	r3, #0
   815f4:	4c74      	ldr	r4, [pc, #464]	; (817c8 <move+0x250>)
   815f6:	47a0      	blx	r4
   815f8:	b1a8      	cbz	r0, 81626 <move+0xae>
	{
		referenceValue = 0;
   815fa:	2200      	movs	r2, #0
   815fc:	2300      	movs	r3, #0
   815fe:	496e      	ldr	r1, [pc, #440]	; (817b8 <move+0x240>)
   81600:	e9c1 2300 	strd	r2, r3, [r1]
		proportionalError=0;
   81604:	496e      	ldr	r1, [pc, #440]	; (817c0 <move+0x248>)
   81606:	e9c1 2300 	strd	r2, r3, [r1]
		sum=0;
   8160a:	2000      	movs	r0, #0
   8160c:	496f      	ldr	r1, [pc, #444]	; (817cc <move+0x254>)
   8160e:	6008      	str	r0, [r1, #0]
		prevD=0;
   81610:	496f      	ldr	r1, [pc, #444]	; (817d0 <move+0x258>)
   81612:	e9c1 2300 	strd	r2, r3, [r1]
		counter_1 = (counter_1+counter_2)/2;
   81616:	fa1f f888 	uxth.w	r8, r8
   8161a:	4b61      	ldr	r3, [pc, #388]	; (817a0 <move+0x228>)
   8161c:	f8a3 8000 	strh.w	r8, [r3]
		counter_2=counter_1;
   81620:	4b60      	ldr	r3, [pc, #384]	; (817a4 <move+0x22c>)
   81622:	f8a3 8000 	strh.w	r8, [r3]
	}
	if ((referenceValue < 0) && (proportionalError > 0))
   81626:	4b64      	ldr	r3, [pc, #400]	; (817b8 <move+0x240>)
   81628:	e9d3 0100 	ldrd	r0, r1, [r3]
   8162c:	2200      	movs	r2, #0
   8162e:	2300      	movs	r3, #0
   81630:	4c65      	ldr	r4, [pc, #404]	; (817c8 <move+0x250>)
   81632:	47a0      	blx	r4
   81634:	b1e8      	cbz	r0, 81672 <move+0xfa>
   81636:	4b62      	ldr	r3, [pc, #392]	; (817c0 <move+0x248>)
   81638:	e9d3 0100 	ldrd	r0, r1, [r3]
   8163c:	2200      	movs	r2, #0
   8163e:	2300      	movs	r3, #0
   81640:	4c60      	ldr	r4, [pc, #384]	; (817c4 <move+0x24c>)
   81642:	47a0      	blx	r4
   81644:	b1a8      	cbz	r0, 81672 <move+0xfa>
	{
		referenceValue = 0;
   81646:	2200      	movs	r2, #0
   81648:	2300      	movs	r3, #0
   8164a:	495b      	ldr	r1, [pc, #364]	; (817b8 <move+0x240>)
   8164c:	e9c1 2300 	strd	r2, r3, [r1]
		proportionalError=0;
   81650:	495b      	ldr	r1, [pc, #364]	; (817c0 <move+0x248>)
   81652:	e9c1 2300 	strd	r2, r3, [r1]
		sum=0;
   81656:	2000      	movs	r0, #0
   81658:	495c      	ldr	r1, [pc, #368]	; (817cc <move+0x254>)
   8165a:	6008      	str	r0, [r1, #0]
		prevD=0;
   8165c:	495c      	ldr	r1, [pc, #368]	; (817d0 <move+0x258>)
   8165e:	e9c1 2300 	strd	r2, r3, [r1]
		counter_1 = (counter_1+counter_2)/2;
   81662:	494f      	ldr	r1, [pc, #316]	; (817a0 <move+0x228>)
   81664:	8808      	ldrh	r0, [r1, #0]
   81666:	4b4f      	ldr	r3, [pc, #316]	; (817a4 <move+0x22c>)
   81668:	881a      	ldrh	r2, [r3, #0]
   8166a:	4402      	add	r2, r0
   8166c:	0852      	lsrs	r2, r2, #1
   8166e:	800a      	strh	r2, [r1, #0]
		counter_2=counter_1;
   81670:	801a      	strh	r2, [r3, #0]
	}
	sum = (sum + prevD);
   81672:	f8df 915c 	ldr.w	r9, [pc, #348]	; 817d0 <move+0x258>
   81676:	e9d9 6700 	ldrd	r6, r7, [r9]
   8167a:	e9cd 6702 	strd	r6, r7, [sp, #8]
   8167e:	4d53      	ldr	r5, [pc, #332]	; (817cc <move+0x254>)
   81680:	4c49      	ldr	r4, [pc, #292]	; (817a8 <move+0x230>)
   81682:	6828      	ldr	r0, [r5, #0]
   81684:	47a0      	blx	r4
   81686:	f8df 8184 	ldr.w	r8, [pc, #388]	; 8180c <move+0x294>
   8168a:	e9dd 2302 	ldrd	r2, r3, [sp, #8]
   8168e:	47c0      	blx	r8
   81690:	4b50      	ldr	r3, [pc, #320]	; (817d4 <move+0x25c>)
   81692:	4798      	blx	r3
   81694:	6028      	str	r0, [r5, #0]
	integral= (sum * (dT/Ti));
   81696:	4b50      	ldr	r3, [pc, #320]	; (817d8 <move+0x260>)
   81698:	e9d3 6700 	ldrd	r6, r7, [r3]
   8169c:	e9cd 6704 	strd	r6, r7, [sp, #16]
   816a0:	47a0      	blx	r4
   816a2:	4604      	mov	r4, r0
   816a4:	460d      	mov	r5, r1
   816a6:	4e4d      	ldr	r6, [pc, #308]	; (817dc <move+0x264>)
   816a8:	e9dd 0104 	ldrd	r0, r1, [sp, #16]
   816ac:	4b4c      	ldr	r3, [pc, #304]	; (817e0 <move+0x268>)
   816ae:	e9d3 2300 	ldrd	r2, r3, [r3]
   816b2:	47b0      	blx	r6
   816b4:	4602      	mov	r2, r0
   816b6:	460b      	mov	r3, r1
   816b8:	4f4a      	ldr	r7, [pc, #296]	; (817e4 <move+0x26c>)
   816ba:	4620      	mov	r0, r4
   816bc:	4629      	mov	r1, r5
   816be:	47b8      	blx	r7
   816c0:	e9cd 0106 	strd	r0, r1, [sp, #24]
   816c4:	4b48      	ldr	r3, [pc, #288]	; (817e8 <move+0x270>)
   816c6:	e9c3 0100 	strd	r0, r1, [r3]
	derivate = ((Td/dT) * (proportionalError-prevD));
   816ca:	4b3d      	ldr	r3, [pc, #244]	; (817c0 <move+0x248>)
   816cc:	e9d3 ab00 	ldrd	sl, fp, [r3]
   816d0:	4b46      	ldr	r3, [pc, #280]	; (817ec <move+0x274>)
   816d2:	e9d3 0100 	ldrd	r0, r1, [r3]
   816d6:	e9dd 2304 	ldrd	r2, r3, [sp, #16]
   816da:	47b0      	blx	r6
   816dc:	4604      	mov	r4, r0
   816de:	460d      	mov	r5, r1
   816e0:	4650      	mov	r0, sl
   816e2:	4659      	mov	r1, fp
   816e4:	e9dd 2302 	ldrd	r2, r3, [sp, #8]
   816e8:	f8df c0d0 	ldr.w	ip, [pc, #208]	; 817bc <move+0x244>
   816ec:	47e0      	blx	ip
   816ee:	4602      	mov	r2, r0
   816f0:	460b      	mov	r3, r1
   816f2:	4620      	mov	r0, r4
   816f4:	4629      	mov	r1, r5
   816f6:	47b8      	blx	r7
   816f8:	4604      	mov	r4, r0
   816fa:	460d      	mov	r5, r1
   816fc:	4b3c      	ldr	r3, [pc, #240]	; (817f0 <move+0x278>)
   816fe:	e9c3 4500 	strd	r4, r5, [r3]
	controlValue =(K*(proportionalError+integral+ derivate)); //PID
   81702:	e9dd 0106 	ldrd	r0, r1, [sp, #24]
   81706:	4652      	mov	r2, sl
   81708:	465b      	mov	r3, fp
   8170a:	47c0      	blx	r8
   8170c:	4602      	mov	r2, r0
   8170e:	460b      	mov	r3, r1
   81710:	4620      	mov	r0, r4
   81712:	4629      	mov	r1, r5
   81714:	47c0      	blx	r8
   81716:	4b37      	ldr	r3, [pc, #220]	; (817f4 <move+0x27c>)
   81718:	e9d3 2300 	ldrd	r2, r3, [r3]
   8171c:	47b8      	blx	r7
   8171e:	4604      	mov	r4, r0
   81720:	460d      	mov	r5, r1
   81722:	4b35      	ldr	r3, [pc, #212]	; (817f8 <move+0x280>)
   81724:	e9c3 4500 	strd	r4, r5, [r3]
	prevD=proportionalError;
   81728:	e9c9 ab00 	strd	sl, fp, [r9]
	//	Check if almost reached the destination to slow down and make a smoother brake
	if (((totMovement/totalPulses) >= 0.90) || ((totMovement/totalPulses) <= 0.05))
   8172c:	e9dd 0100 	ldrd	r0, r1, [sp]
   81730:	4b32      	ldr	r3, [pc, #200]	; (817fc <move+0x284>)
   81732:	e9d3 2300 	ldrd	r2, r3, [r3]
   81736:	47b0      	blx	r6
   81738:	4606      	mov	r6, r0
   8173a:	460f      	mov	r7, r1
   8173c:	a312      	add	r3, pc, #72	; (adr r3, 81788 <move+0x210>)
   8173e:	e9d3 2300 	ldrd	r2, r3, [r3]
   81742:	f8df c0cc 	ldr.w	ip, [pc, #204]	; 81810 <move+0x298>
   81746:	47e0      	blx	ip
   81748:	b938      	cbnz	r0, 8175a <move+0x1e2>
   8174a:	4630      	mov	r0, r6
   8174c:	4639      	mov	r1, r7
   8174e:	a310      	add	r3, pc, #64	; (adr r3, 81790 <move+0x218>)
   81750:	e9d3 2300 	ldrd	r2, r3, [r3]
   81754:	4e2a      	ldr	r6, [pc, #168]	; (81800 <move+0x288>)
   81756:	47b0      	blx	r6
   81758:	b118      	cbz	r0, 81762 <move+0x1ea>
	{
		speed = 130;
   8175a:	2282      	movs	r2, #130	; 0x82
   8175c:	4b29      	ldr	r3, [pc, #164]	; (81804 <move+0x28c>)
   8175e:	801a      	strh	r2, [r3, #0]
   81760:	e002      	b.n	81768 <move+0x1f0>
	}
	//Else same speed set
	else
	{
		speed = 200;
   81762:	22c8      	movs	r2, #200	; 0xc8
   81764:	4b27      	ldr	r3, [pc, #156]	; (81804 <move+0x28c>)
   81766:	801a      	strh	r2, [r3, #0]
	}
	if (controlValue>70)
   81768:	4620      	mov	r0, r4
   8176a:	4629      	mov	r1, r5
   8176c:	2200      	movs	r2, #0
   8176e:	4b26      	ldr	r3, [pc, #152]	; (81808 <move+0x290>)
   81770:	4e14      	ldr	r6, [pc, #80]	; (817c4 <move+0x24c>)
   81772:	47b0      	blx	r6
   81774:	2800      	cmp	r0, #0
   81776:	d04d      	beq.n	81814 <move+0x29c>
	{
		controlValue=70;
   81778:	2200      	movs	r2, #0
   8177a:	4b23      	ldr	r3, [pc, #140]	; (81808 <move+0x290>)
   8177c:	491e      	ldr	r1, [pc, #120]	; (817f8 <move+0x280>)
   8177e:	e9c1 2300 	strd	r2, r3, [r1]
   81782:	e053      	b.n	8182c <move+0x2b4>
   81784:	f3af 8000 	nop.w
   81788:	cccccccd 	.word	0xcccccccd
   8178c:	3feccccc 	.word	0x3feccccc
   81790:	9999999a 	.word	0x9999999a
   81794:	3fa99999 	.word	0x3fa99999
   81798:	20070a34 	.word	0x20070a34
   8179c:	20070150 	.word	0x20070150
   817a0:	20078d96 	.word	0x20078d96
   817a4:	20078d94 	.word	0x20078d94
   817a8:	000848ed 	.word	0x000848ed
   817ac:	20070a88 	.word	0x20070a88
   817b0:	20070ab4 	.word	0x20070ab4
   817b4:	20070a58 	.word	0x20070a58
   817b8:	20070a98 	.word	0x20070a98
   817bc:	00084651 	.word	0x00084651
   817c0:	20070a70 	.word	0x20070a70
   817c4:	00084ed9 	.word	0x00084ed9
   817c8:	00084e9d 	.word	0x00084e9d
   817cc:	20070aa4 	.word	0x20070aa4
   817d0:	20070a78 	.word	0x20070a78
   817d4:	00084eed 	.word	0x00084eed
   817d8:	20070158 	.word	0x20070158
   817dc:	00084c0d 	.word	0x00084c0d
   817e0:	20070148 	.word	0x20070148
   817e4:	000849b9 	.word	0x000849b9
   817e8:	20070aa8 	.word	0x20070aa8
   817ec:	20070140 	.word	0x20070140
   817f0:	20070a68 	.word	0x20070a68
   817f4:	20070168 	.word	0x20070168
   817f8:	20070a48 	.word	0x20070a48
   817fc:	20078df8 	.word	0x20078df8
   81800:	00084eb1 	.word	0x00084eb1
   81804:	20070160 	.word	0x20070160
   81808:	40518000 	.word	0x40518000
   8180c:	00084655 	.word	0x00084655
   81810:	00084ec5 	.word	0x00084ec5
	}
	else if (controlValue<-70)
   81814:	4620      	mov	r0, r4
   81816:	4629      	mov	r1, r5
   81818:	2200      	movs	r2, #0
   8181a:	4b25      	ldr	r3, [pc, #148]	; (818b0 <move+0x338>)
   8181c:	4c25      	ldr	r4, [pc, #148]	; (818b4 <move+0x33c>)
   8181e:	47a0      	blx	r4
   81820:	b120      	cbz	r0, 8182c <move+0x2b4>
	{
		controlValue=-70;
   81822:	2200      	movs	r2, #0
   81824:	4b22      	ldr	r3, [pc, #136]	; (818b0 <move+0x338>)
   81826:	4924      	ldr	r1, [pc, #144]	; (818b8 <move+0x340>)
   81828:	e9c1 2300 	strd	r2, r3, [r1]
	}
	
	rightWheel(1500 + ((speed+controlValue)*direction));//New speed for rightWheel
   8182c:	f8df b0a4 	ldr.w	fp, [pc, #164]	; 818d4 <move+0x35c>
   81830:	4e22      	ldr	r6, [pc, #136]	; (818bc <move+0x344>)
   81832:	f8bb 0000 	ldrh.w	r0, [fp]
   81836:	47b0      	blx	r6
   81838:	f8df a07c 	ldr.w	sl, [pc, #124]	; 818b8 <move+0x340>
   8183c:	4f20      	ldr	r7, [pc, #128]	; (818c0 <move+0x348>)
   8183e:	e9da 2300 	ldrd	r2, r3, [sl]
   81842:	47b8      	blx	r7
   81844:	4604      	mov	r4, r0
   81846:	460d      	mov	r5, r1
   81848:	f8df 908c 	ldr.w	r9, [pc, #140]	; 818d8 <move+0x360>
   8184c:	f8d9 0000 	ldr.w	r0, [r9]
   81850:	47b0      	blx	r6
   81852:	4602      	mov	r2, r0
   81854:	460b      	mov	r3, r1
   81856:	f8df 8084 	ldr.w	r8, [pc, #132]	; 818dc <move+0x364>
   8185a:	4620      	mov	r0, r4
   8185c:	4629      	mov	r1, r5
   8185e:	47c0      	blx	r8
   81860:	a311      	add	r3, pc, #68	; (adr r3, 818a8 <move+0x330>)
   81862:	e9d3 2300 	ldrd	r2, r3, [r3]
   81866:	47b8      	blx	r7
   81868:	4c16      	ldr	r4, [pc, #88]	; (818c4 <move+0x34c>)
   8186a:	47a0      	blx	r4
   8186c:	4b16      	ldr	r3, [pc, #88]	; (818c8 <move+0x350>)
   8186e:	4798      	blx	r3
	leftWheel( 1500 + ((speed-controlValue)*direction));//New speed for leftWheel
   81870:	f8bb 0000 	ldrh.w	r0, [fp]
   81874:	47b0      	blx	r6
   81876:	e9da 2300 	ldrd	r2, r3, [sl]
   8187a:	4d14      	ldr	r5, [pc, #80]	; (818cc <move+0x354>)
   8187c:	47a8      	blx	r5
   8187e:	4682      	mov	sl, r0
   81880:	468b      	mov	fp, r1
   81882:	f8d9 0000 	ldr.w	r0, [r9]
   81886:	47b0      	blx	r6
   81888:	4602      	mov	r2, r0
   8188a:	460b      	mov	r3, r1
   8188c:	4650      	mov	r0, sl
   8188e:	4659      	mov	r1, fp
   81890:	47c0      	blx	r8
   81892:	a305      	add	r3, pc, #20	; (adr r3, 818a8 <move+0x330>)
   81894:	e9d3 2300 	ldrd	r2, r3, [r3]
   81898:	47b8      	blx	r7
   8189a:	47a0      	blx	r4
   8189c:	4b0c      	ldr	r3, [pc, #48]	; (818d0 <move+0x358>)
   8189e:	4798      	blx	r3
	
}
   818a0:	b009      	add	sp, #36	; 0x24
   818a2:	e8bd 8ff0 	ldmia.w	sp!, {r4, r5, r6, r7, r8, r9, sl, fp, pc}
   818a6:	bf00      	nop
   818a8:	00000000 	.word	0x00000000
   818ac:	40977000 	.word	0x40977000
   818b0:	c0518000 	.word	0xc0518000
   818b4:	00084e9d 	.word	0x00084e9d
   818b8:	20070a48 	.word	0x20070a48
   818bc:	000848ed 	.word	0x000848ed
   818c0:	00084655 	.word	0x00084655
   818c4:	00084f3d 	.word	0x00084f3d
   818c8:	00081105 	.word	0x00081105
   818cc:	00084651 	.word	0x00084651
   818d0:	000810d5 	.word	0x000810d5
   818d4:	20070160 	.word	0x20070160
   818d8:	20070150 	.word	0x20070150
   818dc:	000849b9 	.word	0x000849b9

000818e0 <coordinatesInit>:

void coordinatesInit (void)
{
   818e0:	b530      	push	{r4, r5, lr}
   818e2:	b085      	sub	sp, #20
	int16_t object_buffer[8] = {0};
   818e4:	2500      	movs	r5, #0
   818e6:	9500      	str	r5, [sp, #0]
   818e8:	9501      	str	r5, [sp, #4]
   818ea:	9502      	str	r5, [sp, #8]
   818ec:	9503      	str	r5, [sp, #12]
	arlo_get_object_positions(object_buffer);
   818ee:	4668      	mov	r0, sp
   818f0:	4b18      	ldr	r3, [pc, #96]	; (81954 <coordinatesInit+0x74>)
   818f2:	4798      	blx	r3
	
	coord.presentX = 200;
   818f4:	4c18      	ldr	r4, [pc, #96]	; (81958 <coordinatesInit+0x78>)
   818f6:	23c8      	movs	r3, #200	; 0xc8
   818f8:	8023      	strh	r3, [r4, #0]
	coord.presentY = 0;
   818fa:	8065      	strh	r5, [r4, #2]
	coord.lastX = 200;
   818fc:	80a3      	strh	r3, [r4, #4]
	coord.lastY = -100;
   818fe:	f64f 739c 	movw	r3, #65436	; 0xff9c
   81902:	80e3      	strh	r3, [r4, #6]

	coord.sock[0] = object_buffer[0];
   81904:	4d15      	ldr	r5, [pc, #84]	; (8195c <coordinatesInit+0x7c>)
   81906:	f9bd 0000 	ldrsh.w	r0, [sp]
   8190a:	47a8      	blx	r5
   8190c:	e9c4 0104 	strd	r0, r1, [r4, #16]
	coord.sock[1] = object_buffer[1];
   81910:	f9bd 0002 	ldrsh.w	r0, [sp, #2]
   81914:	47a8      	blx	r5
   81916:	e9c4 0106 	strd	r0, r1, [r4, #24]

	coord.cube[0] = object_buffer[2];
   8191a:	f9bd 0004 	ldrsh.w	r0, [sp, #4]
   8191e:	47a8      	blx	r5
   81920:	e9c4 0108 	strd	r0, r1, [r4, #32]
	coord.cube[1] = object_buffer[3];
   81924:	f9bd 0006 	ldrsh.w	r0, [sp, #6]
   81928:	47a8      	blx	r5
   8192a:	e9c4 010a 	strd	r0, r1, [r4, #40]	; 0x28

	coord.glass[0] = object_buffer[4];
   8192e:	f9bd 0008 	ldrsh.w	r0, [sp, #8]
   81932:	47a8      	blx	r5
   81934:	e9c4 010c 	strd	r0, r1, [r4, #48]	; 0x30
	coord.glass[1] = object_buffer[5];
   81938:	f9bd 000a 	ldrsh.w	r0, [sp, #10]
   8193c:	47a8      	blx	r5
   8193e:	e9c4 010e 	strd	r0, r1, [r4, #56]	; 0x38
// 	coord.glass[0] = 85;
// 	coord.glass[1] = 338;
	
	

	coord.box[0] = 0;
   81942:	2200      	movs	r2, #0
   81944:	2300      	movs	r3, #0
   81946:	e9c4 2310 	strd	r2, r3, [r4, #64]	; 0x40
	coord.box[1] = 0;
   8194a:	e9c4 2312 	strd	r2, r3, [r4, #72]	; 0x48
}
   8194e:	b005      	add	sp, #20
   81950:	bd30      	pop	{r4, r5, pc}
   81952:	bf00      	nop
   81954:	00080489 	.word	0x00080489
   81958:	20078da8 	.word	0x20078da8
   8195c:	000848ed 	.word	0x000848ed

00081960 <updateLastPresent>:
	}
}

void updateLastPresent()
{
	coord.lastX=(double)coord.presentX;
   81960:	4b02      	ldr	r3, [pc, #8]	; (8196c <updateLastPresent+0xc>)
   81962:	881a      	ldrh	r2, [r3, #0]
   81964:	809a      	strh	r2, [r3, #4]
	coord.lastY=(double)coord.presentY;
   81966:	885a      	ldrh	r2, [r3, #2]
   81968:	80da      	strh	r2, [r3, #6]
   8196a:	4770      	bx	lr
   8196c:	20078da8 	.word	0x20078da8

00081970 <calculateAngleDistance>:
}
void calculateAngleDistance(void){
   81970:	e92d 4ff0 	stmdb	sp!, {r4, r5, r6, r7, r8, r9, sl, fp, lr}
   81974:	b089      	sub	sp, #36	; 0x24
	printf("NAVI");
   81976:	482a      	ldr	r0, [pc, #168]	; (81a20 <calculateAngleDistance+0xb0>)
   81978:	f8df 80c8 	ldr.w	r8, [pc, #200]	; 81a44 <calculateAngleDistance+0xd4>
   8197c:	47c0      	blx	r8
	angle = calcluteRotationAngle(coord.lastX,coord.lastY,coord.presentX,coord.presentY,coord.targetX,coord.targetY);
   8197e:	4f29      	ldr	r7, [pc, #164]	; (81a24 <calculateAngleDistance+0xb4>)
   81980:	4e29      	ldr	r6, [pc, #164]	; (81a28 <calculateAngleDistance+0xb8>)
   81982:	f9b7 0004 	ldrsh.w	r0, [r7, #4]
   81986:	47b0      	blx	r6
   81988:	4604      	mov	r4, r0
   8198a:	460d      	mov	r5, r1
   8198c:	f9b7 0006 	ldrsh.w	r0, [r7, #6]
   81990:	47b0      	blx	r6
   81992:	4682      	mov	sl, r0
   81994:	468b      	mov	fp, r1
   81996:	f9b7 0000 	ldrsh.w	r0, [r7]
   8199a:	47b0      	blx	r6
   8199c:	e9cd 0100 	strd	r0, r1, [sp]
   819a0:	f9b7 0002 	ldrsh.w	r0, [r7, #2]
   819a4:	47b0      	blx	r6
   819a6:	e9cd 0102 	strd	r0, r1, [sp, #8]
   819aa:	f9b7 0008 	ldrsh.w	r0, [r7, #8]
   819ae:	47b0      	blx	r6
   819b0:	e9cd 0104 	strd	r0, r1, [sp, #16]
   819b4:	f9b7 000a 	ldrsh.w	r0, [r7, #10]
   819b8:	47b0      	blx	r6
   819ba:	e9cd 0106 	strd	r0, r1, [sp, #24]
   819be:	4620      	mov	r0, r4
   819c0:	4629      	mov	r1, r5
   819c2:	4652      	mov	r2, sl
   819c4:	465b      	mov	r3, fp
   819c6:	4c19      	ldr	r4, [pc, #100]	; (81a2c <calculateAngleDistance+0xbc>)
   819c8:	47a0      	blx	r4
   819ca:	f8df 907c 	ldr.w	r9, [pc, #124]	; 81a48 <calculateAngleDistance+0xd8>
   819ce:	47c8      	blx	r9
   819d0:	4601      	mov	r1, r0
   819d2:	4b17      	ldr	r3, [pc, #92]	; (81a30 <calculateAngleDistance+0xc0>)
   819d4:	6018      	str	r0, [r3, #0]
	printf("%d ANGLE\r\n",angle);
   819d6:	4817      	ldr	r0, [pc, #92]	; (81a34 <calculateAngleDistance+0xc4>)
   819d8:	47c0      	blx	r8
	distance = calculateDistance(coord.presentX,coord.presentY,coord.targetX,coord.targetY);
   819da:	f9b7 0000 	ldrsh.w	r0, [r7]
   819de:	47b0      	blx	r6
   819e0:	4604      	mov	r4, r0
   819e2:	460d      	mov	r5, r1
   819e4:	f9b7 0002 	ldrsh.w	r0, [r7, #2]
   819e8:	47b0      	blx	r6
   819ea:	4682      	mov	sl, r0
   819ec:	468b      	mov	fp, r1
   819ee:	f9b7 0008 	ldrsh.w	r0, [r7, #8]
   819f2:	47b0      	blx	r6
   819f4:	e9cd 0100 	strd	r0, r1, [sp]
   819f8:	f9b7 000a 	ldrsh.w	r0, [r7, #10]
   819fc:	47b0      	blx	r6
   819fe:	e9cd 0102 	strd	r0, r1, [sp, #8]
   81a02:	4620      	mov	r0, r4
   81a04:	4629      	mov	r1, r5
   81a06:	4652      	mov	r2, sl
   81a08:	465b      	mov	r3, fp
   81a0a:	4c0b      	ldr	r4, [pc, #44]	; (81a38 <calculateAngleDistance+0xc8>)
   81a0c:	47a0      	blx	r4
   81a0e:	47c8      	blx	r9
   81a10:	4601      	mov	r1, r0
   81a12:	4b0a      	ldr	r3, [pc, #40]	; (81a3c <calculateAngleDistance+0xcc>)
   81a14:	6018      	str	r0, [r3, #0]
	printf("%d Distance\r\n",distance);
   81a16:	480a      	ldr	r0, [pc, #40]	; (81a40 <calculateAngleDistance+0xd0>)
   81a18:	47c0      	blx	r8
   81a1a:	b009      	add	sp, #36	; 0x24
   81a1c:	e8bd 8ff0 	ldmia.w	sp!, {r4, r5, r6, r7, r8, r9, sl, fp, pc}
   81a20:	00088254 	.word	0x00088254
   81a24:	20078da8 	.word	0x20078da8
   81a28:	000848ed 	.word	0x000848ed
   81a2c:	00080f39 	.word	0x00080f39
   81a30:	20070a3c 	.word	0x20070a3c
   81a34:	0008825c 	.word	0x0008825c
   81a38:	00080cb9 	.word	0x00080cb9
   81a3c:	20070a34 	.word	0x20070a34
   81a40:	00088268 	.word	0x00088268
   81a44:	00084fd9 	.word	0x00084fd9
   81a48:	00084eed 	.word	0x00084eed

00081a4c <updateNextPosition>:
	coord.box[1] = 0;
}

/* Comment here */
void updateNextPosition()
{
   81a4c:	b538      	push	{r3, r4, r5, lr}
	if (arlo_get_collect_status() == 1)
   81a4e:	4b83      	ldr	r3, [pc, #524]	; (81c5c <updateNextPosition+0x210>)
   81a50:	4798      	blx	r3
   81a52:	2801      	cmp	r0, #1
   81a54:	d16b      	bne.n	81b2e <updateNextPosition+0xe2>
	{
		if (object_counter == 1)
   81a56:	4b82      	ldr	r3, [pc, #520]	; (81c60 <updateNextPosition+0x214>)
   81a58:	781b      	ldrb	r3, [r3, #0]
   81a5a:	2b01      	cmp	r3, #1
   81a5c:	d10f      	bne.n	81a7e <updateNextPosition+0x32>
		{
			printf("Driving to sock!\r\n");
   81a5e:	4881      	ldr	r0, [pc, #516]	; (81c64 <updateNextPosition+0x218>)
   81a60:	4b81      	ldr	r3, [pc, #516]	; (81c68 <updateNextPosition+0x21c>)
   81a62:	4798      	blx	r3
			coord.targetX=(double)coord.sock[0];
   81a64:	4c81      	ldr	r4, [pc, #516]	; (81c6c <updateNextPosition+0x220>)
   81a66:	4d82      	ldr	r5, [pc, #520]	; (81c70 <updateNextPosition+0x224>)
   81a68:	e9d4 0104 	ldrd	r0, r1, [r4, #16]
   81a6c:	47a8      	blx	r5
   81a6e:	8120      	strh	r0, [r4, #8]
			coord.targetY=(double)coord.sock[1];
   81a70:	e9d4 0106 	ldrd	r0, r1, [r4, #24]
   81a74:	47a8      	blx	r5
   81a76:	8160      	strh	r0, [r4, #10]
			calculateAngleDistance();
   81a78:	4b7e      	ldr	r3, [pc, #504]	; (81c74 <updateNextPosition+0x228>)
   81a7a:	4798      	blx	r3
   81a7c:	e04e      	b.n	81b1c <updateNextPosition+0xd0>
		}	
		else if (object_counter == 2)
   81a7e:	2b02      	cmp	r3, #2
   81a80:	d115      	bne.n	81aae <updateNextPosition+0x62>
		{
			printf("Driving to cube!\r\n");
   81a82:	487d      	ldr	r0, [pc, #500]	; (81c78 <updateNextPosition+0x22c>)
   81a84:	4b78      	ldr	r3, [pc, #480]	; (81c68 <updateNextPosition+0x21c>)
   81a86:	4798      	blx	r3
			updateLastPresent();
   81a88:	4b7c      	ldr	r3, [pc, #496]	; (81c7c <updateNextPosition+0x230>)
   81a8a:	4798      	blx	r3
			//coord.presentX=(double)coord.sock[0];
			//coord.presentY=(double)coord.sock[1];
			coord.lastX=(double) 200;
   81a8c:	4c77      	ldr	r4, [pc, #476]	; (81c6c <updateNextPosition+0x220>)
   81a8e:	23c8      	movs	r3, #200	; 0xc8
   81a90:	80a3      	strh	r3, [r4, #4]
			coord.lastY=(double) 0;
   81a92:	2300      	movs	r3, #0
   81a94:	80e3      	strh	r3, [r4, #6]
			coord.targetX=(double)coord.cube[0];
   81a96:	4d76      	ldr	r5, [pc, #472]	; (81c70 <updateNextPosition+0x224>)
   81a98:	e9d4 0108 	ldrd	r0, r1, [r4, #32]
   81a9c:	47a8      	blx	r5
   81a9e:	8120      	strh	r0, [r4, #8]
			coord.targetY=(double)coord.cube[1];
   81aa0:	e9d4 010a 	ldrd	r0, r1, [r4, #40]	; 0x28
   81aa4:	47a8      	blx	r5
   81aa6:	8160      	strh	r0, [r4, #10]
			calculateAngleDistance();
   81aa8:	4b72      	ldr	r3, [pc, #456]	; (81c74 <updateNextPosition+0x228>)
   81aaa:	4798      	blx	r3
   81aac:	e036      	b.n	81b1c <updateNextPosition+0xd0>
		}
		else if (object_counter == 3)
   81aae:	2b03      	cmp	r3, #3
   81ab0:	d119      	bne.n	81ae6 <updateNextPosition+0x9a>
		{
			printf("Driving to glass!\r\n");
   81ab2:	4873      	ldr	r0, [pc, #460]	; (81c80 <updateNextPosition+0x234>)
   81ab4:	4b6c      	ldr	r3, [pc, #432]	; (81c68 <updateNextPosition+0x21c>)
   81ab6:	4798      	blx	r3
			updateLastPresent();
   81ab8:	4b70      	ldr	r3, [pc, #448]	; (81c7c <updateNextPosition+0x230>)
   81aba:	4798      	blx	r3
			//coord.presentX=(double)coord.cube[0];
			//coord.presentY=(double)coord.cube[1];
			coord.lastX=(double)coord.sock[0];
   81abc:	4c6b      	ldr	r4, [pc, #428]	; (81c6c <updateNextPosition+0x220>)
   81abe:	4d6c      	ldr	r5, [pc, #432]	; (81c70 <updateNextPosition+0x224>)
   81ac0:	e9d4 0104 	ldrd	r0, r1, [r4, #16]
   81ac4:	47a8      	blx	r5
   81ac6:	80a0      	strh	r0, [r4, #4]
			coord.lastY=(double)coord.sock[1];
   81ac8:	e9d4 0106 	ldrd	r0, r1, [r4, #24]
   81acc:	47a8      	blx	r5
   81ace:	80e0      	strh	r0, [r4, #6]
			coord.targetX=(double)coord.glass[0];
   81ad0:	e9d4 010c 	ldrd	r0, r1, [r4, #48]	; 0x30
   81ad4:	47a8      	blx	r5
   81ad6:	8120      	strh	r0, [r4, #8]
			coord.targetY=(double)coord.glass[1];
   81ad8:	e9d4 010e 	ldrd	r0, r1, [r4, #56]	; 0x38
   81adc:	47a8      	blx	r5
   81ade:	8160      	strh	r0, [r4, #10]
			calculateAngleDistance();
   81ae0:	4b64      	ldr	r3, [pc, #400]	; (81c74 <updateNextPosition+0x228>)
   81ae2:	4798      	blx	r3
   81ae4:	e01a      	b.n	81b1c <updateNextPosition+0xd0>
		}
		else if(object_counter == 4)
   81ae6:	2b04      	cmp	r3, #4
   81ae8:	d118      	bne.n	81b1c <updateNextPosition+0xd0>
		{
			printf("Driving to box!\r\n");
   81aea:	4866      	ldr	r0, [pc, #408]	; (81c84 <updateNextPosition+0x238>)
   81aec:	4b5e      	ldr	r3, [pc, #376]	; (81c68 <updateNextPosition+0x21c>)
   81aee:	4798      	blx	r3
			updateLastPresent();
   81af0:	4b62      	ldr	r3, [pc, #392]	; (81c7c <updateNextPosition+0x230>)
   81af2:	4798      	blx	r3
			//coord.presentX=(double)coord.glass[0];
			//coord.presentY=(double)coord.glass[1];
			coord.lastX=(double)coord.cube[0];
   81af4:	4c5d      	ldr	r4, [pc, #372]	; (81c6c <updateNextPosition+0x220>)
   81af6:	4d5e      	ldr	r5, [pc, #376]	; (81c70 <updateNextPosition+0x224>)
   81af8:	e9d4 0108 	ldrd	r0, r1, [r4, #32]
   81afc:	47a8      	blx	r5
   81afe:	80a0      	strh	r0, [r4, #4]
			coord.lastY=(double)coord.cube[1];
   81b00:	e9d4 010a 	ldrd	r0, r1, [r4, #40]	; 0x28
   81b04:	47a8      	blx	r5
   81b06:	80e0      	strh	r0, [r4, #6]
			coord.targetX=(double)coord.box[0];
   81b08:	e9d4 0110 	ldrd	r0, r1, [r4, #64]	; 0x40
   81b0c:	47a8      	blx	r5
   81b0e:	8120      	strh	r0, [r4, #8]
			coord.targetY=(double)coord.box[1];
   81b10:	e9d4 0112 	ldrd	r0, r1, [r4, #72]	; 0x48
   81b14:	47a8      	blx	r5
   81b16:	8160      	strh	r0, [r4, #10]
			calculateAngleDistance();
   81b18:	4b56      	ldr	r3, [pc, #344]	; (81c74 <updateNextPosition+0x228>)
   81b1a:	4798      	blx	r3
		}
		printf("I counter %d \r\n",object_counter);
   81b1c:	4c50      	ldr	r4, [pc, #320]	; (81c60 <updateNextPosition+0x214>)
   81b1e:	485a      	ldr	r0, [pc, #360]	; (81c88 <updateNextPosition+0x23c>)
   81b20:	7821      	ldrb	r1, [r4, #0]
   81b22:	4b51      	ldr	r3, [pc, #324]	; (81c68 <updateNextPosition+0x21c>)
   81b24:	4798      	blx	r3
		object_counter++;
   81b26:	7823      	ldrb	r3, [r4, #0]
   81b28:	3301      	adds	r3, #1
   81b2a:	7023      	strb	r3, [r4, #0]
   81b2c:	bd38      	pop	{r3, r4, r5, pc}
	}
	else 
	{
		if (object_counter == 1)
   81b2e:	4b4c      	ldr	r3, [pc, #304]	; (81c60 <updateNextPosition+0x214>)
   81b30:	781b      	ldrb	r3, [r3, #0]
   81b32:	2b01      	cmp	r3, #1
   81b34:	d10c      	bne.n	81b50 <updateNextPosition+0x104>
		{
			coord.targetX=coord.sock[0];
   81b36:	4c4d      	ldr	r4, [pc, #308]	; (81c6c <updateNextPosition+0x220>)
   81b38:	4d4d      	ldr	r5, [pc, #308]	; (81c70 <updateNextPosition+0x224>)
   81b3a:	e9d4 0104 	ldrd	r0, r1, [r4, #16]
   81b3e:	47a8      	blx	r5
   81b40:	8120      	strh	r0, [r4, #8]
			coord.targetY=coord.sock[1];
   81b42:	e9d4 0106 	ldrd	r0, r1, [r4, #24]
   81b46:	47a8      	blx	r5
   81b48:	8160      	strh	r0, [r4, #10]
			calculateAngleDistance();
   81b4a:	4b4a      	ldr	r3, [pc, #296]	; (81c74 <updateNextPosition+0x228>)
   81b4c:	4798      	blx	r3
   81b4e:	e07b      	b.n	81c48 <updateNextPosition+0x1fc>
		}
		else if (object_counter == 2)
   81b50:	2b02      	cmp	r3, #2
   81b52:	d116      	bne.n	81b82 <updateNextPosition+0x136>
		{
			updateLastPresent();
   81b54:	4b49      	ldr	r3, [pc, #292]	; (81c7c <updateNextPosition+0x230>)
   81b56:	4798      	blx	r3
			coord.presentX=coord.sock[0];
   81b58:	4c44      	ldr	r4, [pc, #272]	; (81c6c <updateNextPosition+0x220>)
   81b5a:	4d45      	ldr	r5, [pc, #276]	; (81c70 <updateNextPosition+0x224>)
   81b5c:	e9d4 0104 	ldrd	r0, r1, [r4, #16]
   81b60:	47a8      	blx	r5
   81b62:	8020      	strh	r0, [r4, #0]
			coord.presentY=coord.sock[1];
   81b64:	e9d4 0106 	ldrd	r0, r1, [r4, #24]
   81b68:	47a8      	blx	r5
   81b6a:	8060      	strh	r0, [r4, #2]
			coord.targetX=coord.box[0];
   81b6c:	e9d4 0110 	ldrd	r0, r1, [r4, #64]	; 0x40
   81b70:	47a8      	blx	r5
   81b72:	8120      	strh	r0, [r4, #8]
			coord.targetY=coord.box[1];
   81b74:	e9d4 0112 	ldrd	r0, r1, [r4, #72]	; 0x48
   81b78:	47a8      	blx	r5
   81b7a:	8160      	strh	r0, [r4, #10]
			calculateAngleDistance();
   81b7c:	4b3d      	ldr	r3, [pc, #244]	; (81c74 <updateNextPosition+0x228>)
   81b7e:	4798      	blx	r3
   81b80:	e062      	b.n	81c48 <updateNextPosition+0x1fc>
		}
		else if(object_counter == 3)
   81b82:	2b03      	cmp	r3, #3
   81b84:	d116      	bne.n	81bb4 <updateNextPosition+0x168>
		{
			updateLastPresent();
   81b86:	4b3d      	ldr	r3, [pc, #244]	; (81c7c <updateNextPosition+0x230>)
   81b88:	4798      	blx	r3
			coord.presentX=coord.box[0];
   81b8a:	4c38      	ldr	r4, [pc, #224]	; (81c6c <updateNextPosition+0x220>)
   81b8c:	4d38      	ldr	r5, [pc, #224]	; (81c70 <updateNextPosition+0x224>)
   81b8e:	e9d4 0110 	ldrd	r0, r1, [r4, #64]	; 0x40
   81b92:	47a8      	blx	r5
   81b94:	8020      	strh	r0, [r4, #0]
			coord.presentY=coord.box[1];
   81b96:	e9d4 0112 	ldrd	r0, r1, [r4, #72]	; 0x48
   81b9a:	47a8      	blx	r5
   81b9c:	8060      	strh	r0, [r4, #2]
			coord.targetX=coord.cube[0];
   81b9e:	e9d4 0108 	ldrd	r0, r1, [r4, #32]
   81ba2:	47a8      	blx	r5
   81ba4:	8120      	strh	r0, [r4, #8]
			coord.targetY=coord.cube[1];
   81ba6:	e9d4 010a 	ldrd	r0, r1, [r4, #40]	; 0x28
   81baa:	47a8      	blx	r5
   81bac:	8160      	strh	r0, [r4, #10]
			calculateAngleDistance();
   81bae:	4b31      	ldr	r3, [pc, #196]	; (81c74 <updateNextPosition+0x228>)
   81bb0:	4798      	blx	r3
   81bb2:	e049      	b.n	81c48 <updateNextPosition+0x1fc>
		}
		else if (object_counter == 4)
   81bb4:	2b04      	cmp	r3, #4
   81bb6:	d116      	bne.n	81be6 <updateNextPosition+0x19a>
		{
			updateLastPresent();
   81bb8:	4b30      	ldr	r3, [pc, #192]	; (81c7c <updateNextPosition+0x230>)
   81bba:	4798      	blx	r3
			coord.presentX=coord.cube[0];
   81bbc:	4c2b      	ldr	r4, [pc, #172]	; (81c6c <updateNextPosition+0x220>)
   81bbe:	4d2c      	ldr	r5, [pc, #176]	; (81c70 <updateNextPosition+0x224>)
   81bc0:	e9d4 0108 	ldrd	r0, r1, [r4, #32]
   81bc4:	47a8      	blx	r5
   81bc6:	8020      	strh	r0, [r4, #0]
			coord.presentY=coord.cube[1];
   81bc8:	e9d4 010a 	ldrd	r0, r1, [r4, #40]	; 0x28
   81bcc:	47a8      	blx	r5
   81bce:	8060      	strh	r0, [r4, #2]
			coord.targetX=coord.box[0];
   81bd0:	e9d4 0110 	ldrd	r0, r1, [r4, #64]	; 0x40
   81bd4:	47a8      	blx	r5
   81bd6:	8120      	strh	r0, [r4, #8]
			coord.targetY=coord.box[1];
   81bd8:	e9d4 0112 	ldrd	r0, r1, [r4, #72]	; 0x48
   81bdc:	47a8      	blx	r5
   81bde:	8160      	strh	r0, [r4, #10]
			calculateAngleDistance();
   81be0:	4b24      	ldr	r3, [pc, #144]	; (81c74 <updateNextPosition+0x228>)
   81be2:	4798      	blx	r3
   81be4:	e030      	b.n	81c48 <updateNextPosition+0x1fc>
		}
		else if (object_counter == 5)
   81be6:	2b05      	cmp	r3, #5
   81be8:	d116      	bne.n	81c18 <updateNextPosition+0x1cc>
		{
			updateLastPresent();
   81bea:	4b24      	ldr	r3, [pc, #144]	; (81c7c <updateNextPosition+0x230>)
   81bec:	4798      	blx	r3
			coord.presentX=coord.box[0];
   81bee:	4c1f      	ldr	r4, [pc, #124]	; (81c6c <updateNextPosition+0x220>)
   81bf0:	4d1f      	ldr	r5, [pc, #124]	; (81c70 <updateNextPosition+0x224>)
   81bf2:	e9d4 0110 	ldrd	r0, r1, [r4, #64]	; 0x40
   81bf6:	47a8      	blx	r5
   81bf8:	8020      	strh	r0, [r4, #0]
			coord.presentY=coord.box[1];
   81bfa:	e9d4 0112 	ldrd	r0, r1, [r4, #72]	; 0x48
   81bfe:	47a8      	blx	r5
   81c00:	8060      	strh	r0, [r4, #2]
			coord.targetX=coord.glass[0];
   81c02:	e9d4 010c 	ldrd	r0, r1, [r4, #48]	; 0x30
   81c06:	47a8      	blx	r5
   81c08:	8120      	strh	r0, [r4, #8]
			coord.targetY=coord.glass[1];
   81c0a:	e9d4 010e 	ldrd	r0, r1, [r4, #56]	; 0x38
   81c0e:	47a8      	blx	r5
   81c10:	8160      	strh	r0, [r4, #10]
			calculateAngleDistance();
   81c12:	4b18      	ldr	r3, [pc, #96]	; (81c74 <updateNextPosition+0x228>)
   81c14:	4798      	blx	r3
   81c16:	e017      	b.n	81c48 <updateNextPosition+0x1fc>
		}
		else if (object_counter == 6)
   81c18:	2b06      	cmp	r3, #6
   81c1a:	d115      	bne.n	81c48 <updateNextPosition+0x1fc>
		{
			updateLastPresent();
   81c1c:	4b17      	ldr	r3, [pc, #92]	; (81c7c <updateNextPosition+0x230>)
   81c1e:	4798      	blx	r3
			coord.presentX=coord.glass[0];
   81c20:	4c12      	ldr	r4, [pc, #72]	; (81c6c <updateNextPosition+0x220>)
   81c22:	4d13      	ldr	r5, [pc, #76]	; (81c70 <updateNextPosition+0x224>)
   81c24:	e9d4 010c 	ldrd	r0, r1, [r4, #48]	; 0x30
   81c28:	47a8      	blx	r5
   81c2a:	8020      	strh	r0, [r4, #0]
			coord.presentY=coord.glass[1];
   81c2c:	e9d4 010e 	ldrd	r0, r1, [r4, #56]	; 0x38
   81c30:	47a8      	blx	r5
   81c32:	8060      	strh	r0, [r4, #2]
			coord.targetX=coord.box[0];
   81c34:	e9d4 0110 	ldrd	r0, r1, [r4, #64]	; 0x40
   81c38:	47a8      	blx	r5
   81c3a:	8120      	strh	r0, [r4, #8]
			coord.targetY=coord.box[1];
   81c3c:	e9d4 0112 	ldrd	r0, r1, [r4, #72]	; 0x48
   81c40:	47a8      	blx	r5
   81c42:	8160      	strh	r0, [r4, #10]
			calculateAngleDistance();
   81c44:	4b0b      	ldr	r3, [pc, #44]	; (81c74 <updateNextPosition+0x228>)
   81c46:	4798      	blx	r3
		}
		
		printf("\nObject counter Lasse: %d\r\n",object_counter);
   81c48:	4c05      	ldr	r4, [pc, #20]	; (81c60 <updateNextPosition+0x214>)
   81c4a:	4810      	ldr	r0, [pc, #64]	; (81c8c <updateNextPosition+0x240>)
   81c4c:	7821      	ldrb	r1, [r4, #0]
   81c4e:	4b06      	ldr	r3, [pc, #24]	; (81c68 <updateNextPosition+0x21c>)
   81c50:	4798      	blx	r3
		object_counter++;
   81c52:	7823      	ldrb	r3, [r4, #0]
   81c54:	3301      	adds	r3, #1
   81c56:	7023      	strb	r3, [r4, #0]
   81c58:	bd38      	pop	{r3, r4, r5, pc}
   81c5a:	bf00      	nop
   81c5c:	00080409 	.word	0x00080409
   81c60:	2007013a 	.word	0x2007013a
   81c64:	00088278 	.word	0x00088278
   81c68:	00084fd9 	.word	0x00084fd9
   81c6c:	20078da8 	.word	0x20078da8
   81c70:	00084eed 	.word	0x00084eed
   81c74:	00081971 	.word	0x00081971
   81c78:	0008828c 	.word	0x0008828c
   81c7c:	00081961 	.word	0x00081961
   81c80:	000882a0 	.word	0x000882a0
   81c84:	000882b4 	.word	0x000882b4
   81c88:	000882c8 	.word	0x000882c8
   81c8c:	000882d8 	.word	0x000882d8

00081c90 <task_move>:
Bool drop_off_process_finished = false;
Pick_Up_Status pick_up_status_t=0;
Drop_Off_Status drop_off_status_t = 0;

void task_move(void *pvParameters)
{
   81c90:	e92d 4ff0 	stmdb	sp!, {r4, r5, r6, r7, r8, r9, sl, fp, lr}
   81c94:	b083      	sub	sp, #12
	portTickType xLastWakeTime;
	const portTickType xTimeIncrement = 200; //Time given for the task to complete work...
	xLastWakeTime = xTaskGetTickCount(); // Initialize the xLastWakeTime variable with the current time.
   81c96:	4b8e      	ldr	r3, [pc, #568]	; (81ed0 <task_move+0x240>)
   81c98:	4798      	blx	r3
   81c9a:	f8ad 0006 	strh.w	r0, [sp, #6]
				//  stop wheels
				rightWheel(1500);
				leftWheel(1500);
				reset_Counter();
				angle=0;
				totalPulses=0;
   81c9e:	2400      	movs	r4, #0
   81ca0:	2500      	movs	r5, #0
			/************************************************************************/
			/*                               MOVE!!!                                */
			/************************************************************************/
			case MOVE:
			printf("MOVE");
			totalPulses = (distance*direction/1.45);
   81ca2:	a789      	add	r7, pc, #548	; (adr r7, 81ec8 <task_move+0x238>)
   81ca4:	e9d7 6700 	ldrd	r6, r7, [r7]
			if (totMovement+2>=totalPulses)
   81ca8:	f04f 0a00 	mov.w	sl, #0
   81cac:	f04f 4b80 	mov.w	fp, #1073741824	; 0x40000000
	portTickType xLastWakeTime;
	const portTickType xTimeIncrement = 200; //Time given for the task to complete work...
	xLastWakeTime = xTaskGetTickCount(); // Initialize the xLastWakeTime variable with the current time.
	while (1)
	{
		vTaskDelayUntil(&xLastWakeTime, xTimeIncrement); // Wait for the next cycle after have finished everything
   81cb0:	f10d 0006 	add.w	r0, sp, #6
   81cb4:	21c8      	movs	r1, #200	; 0xc8
   81cb6:	4b87      	ldr	r3, [pc, #540]	; (81ed4 <task_move+0x244>)
   81cb8:	4798      	blx	r3
		
		switch (currentState)
   81cba:	4b87      	ldr	r3, [pc, #540]	; (81ed8 <task_move+0x248>)
   81cbc:	781b      	ldrb	r3, [r3, #0]
   81cbe:	2b07      	cmp	r3, #7
   81cc0:	f200 819d 	bhi.w	81ffe <task_move+0x36e>
   81cc4:	e8df f013 	tbh	[pc, r3, lsl #1]
   81cc8:	00a70008 	.word	0x00a70008
   81ccc:	004700cf 	.word	0x004700cf
   81cd0:	0022017a 	.word	0x0022017a
   81cd4:	01910176 	.word	0x01910176
		{
			case START:
			/* If Arlo can pick up all objects without going to box in between pick-ups */
			if (arlo_get_collect_status() == 1)
   81cd8:	4b80      	ldr	r3, [pc, #512]	; (81edc <task_move+0x24c>)
   81cda:	4798      	blx	r3
   81cdc:	2801      	cmp	r0, #1
   81cde:	d10a      	bne.n	81cf6 <task_move+0x66>
			{
				updateNextPosition(); // Grnwall&Larz
   81ce0:	4b7f      	ldr	r3, [pc, #508]	; (81ee0 <task_move+0x250>)
   81ce2:	4798      	blx	r3
				
				if (object_counter > 5)
   81ce4:	4b7f      	ldr	r3, [pc, #508]	; (81ee4 <task_move+0x254>)
   81ce6:	781b      	ldrb	r3, [r3, #0]
   81ce8:	2b05      	cmp	r3, #5
				{
					nextState = CLOSE;
   81cea:	bf8c      	ite	hi
   81cec:	2206      	movhi	r2, #6
				}
				else
				{
					nextState = BEFORE_ROTATE;
   81cee:	2201      	movls	r2, #1
   81cf0:	4b7d      	ldr	r3, [pc, #500]	; (81ee8 <task_move+0x258>)
   81cf2:	701a      	strb	r2, [r3, #0]
   81cf4:	e183      	b.n	81ffe <task_move+0x36e>
				}
			}
			else 
			{
				updateNextPosition();
   81cf6:	4b7a      	ldr	r3, [pc, #488]	; (81ee0 <task_move+0x250>)
   81cf8:	4798      	blx	r3
				if (object_counter > 7)
   81cfa:	4b7a      	ldr	r3, [pc, #488]	; (81ee4 <task_move+0x254>)
   81cfc:	781b      	ldrb	r3, [r3, #0]
   81cfe:	2b07      	cmp	r3, #7
				{
					nextState = CLOSE;
   81d00:	bf8c      	ite	hi
   81d02:	2206      	movhi	r2, #6
				}
				else
				{
					nextState = BEFORE_ROTATE;
   81d04:	2201      	movls	r2, #1
   81d06:	4b78      	ldr	r3, [pc, #480]	; (81ee8 <task_move+0x258>)
   81d08:	701a      	strb	r2, [r3, #0]
   81d0a:	e178      	b.n	81ffe <task_move+0x36e>
			/*                              Navigering                              */
			/************************************************************************/
			case NAVI:
			
			// Kollar efter ny data efter 20 pulser
			if (newData)
   81d0c:	4b77      	ldr	r3, [pc, #476]	; (81eec <task_move+0x25c>)
   81d0e:	781b      	ldrb	r3, [r3, #0]
   81d10:	b133      	cbz	r3, 81d20 <task_move+0x90>
			{
				//pulse_counter = 0;
				vTaskResume(xTaskCoordinate);
   81d12:	4b77      	ldr	r3, [pc, #476]	; (81ef0 <task_move+0x260>)
   81d14:	6818      	ldr	r0, [r3, #0]
   81d16:	4b77      	ldr	r3, [pc, #476]	; (81ef4 <task_move+0x264>)
   81d18:	4798      	blx	r3
				nextState=WAIT;
   81d1a:	2207      	movs	r2, #7
   81d1c:	4b72      	ldr	r3, [pc, #456]	; (81ee8 <task_move+0x258>)
   81d1e:	701a      	strb	r2, [r3, #0]
				//updateLastPresent();
				calculateAngleDistance();
				nextState = MOVE;
			}*/
			
			if (liftStart && !comAlreadyOn)
   81d20:	4b75      	ldr	r3, [pc, #468]	; (81ef8 <task_move+0x268>)
   81d22:	781b      	ldrb	r3, [r3, #0]
   81d24:	b14b      	cbz	r3, 81d3a <task_move+0xaa>
   81d26:	4b75      	ldr	r3, [pc, #468]	; (81efc <task_move+0x26c>)
   81d28:	781b      	ldrb	r3, [r3, #0]
   81d2a:	b94b      	cbnz	r3, 81d40 <task_move+0xb0>
			{
				//printf("Startar kommunikationen med UNO!\r\n");
				//pick_up_status_t = PICK_UP_RUNNING;
				liftStart=false;
   81d2c:	2200      	movs	r2, #0
   81d2e:	4b72      	ldr	r3, [pc, #456]	; (81ef8 <task_move+0x268>)
   81d30:	701a      	strb	r2, [r3, #0]
				comAlreadyOn=true;
   81d32:	2201      	movs	r2, #1
   81d34:	4b71      	ldr	r3, [pc, #452]	; (81efc <task_move+0x26c>)
   81d36:	701a      	strb	r2, [r3, #0]
   81d38:	e161      	b.n	81ffe <task_move+0x36e>
				//nextState = START;
				//vTaskResume(xTaskCom);
			}
			else if (comAlreadyOn)
   81d3a:	4b70      	ldr	r3, [pc, #448]	; (81efc <task_move+0x26c>)
   81d3c:	781b      	ldrb	r3, [r3, #0]
   81d3e:	b133      	cbz	r3, 81d4e <task_move+0xbe>
			{
				printf("Moving in else state\r\n");
   81d40:	486f      	ldr	r0, [pc, #444]	; (81f00 <task_move+0x270>)
   81d42:	4b70      	ldr	r3, [pc, #448]	; (81f04 <task_move+0x274>)
   81d44:	4798      	blx	r3
				nextState = COMM;
   81d46:	2204      	movs	r2, #4
   81d48:	4b67      	ldr	r3, [pc, #412]	; (81ee8 <task_move+0x258>)
   81d4a:	701a      	strb	r2, [r3, #0]
   81d4c:	e157      	b.n	81ffe <task_move+0x36e>
			}
			else{
				//printf("%d",distance);
				nextState = MOVE;
   81d4e:	2203      	movs	r2, #3
   81d50:	4b65      	ldr	r3, [pc, #404]	; (81ee8 <task_move+0x258>)
   81d52:	701a      	strb	r2, [r3, #0]
   81d54:	e153      	b.n	81ffe <task_move+0x36e>
			break;
			/************************************************************************/
			/*                               MOVE!!!                                */
			/************************************************************************/
			case MOVE:
			printf("MOVE");
   81d56:	486c      	ldr	r0, [pc, #432]	; (81f08 <task_move+0x278>)
   81d58:	4b6a      	ldr	r3, [pc, #424]	; (81f04 <task_move+0x274>)
   81d5a:	4798      	blx	r3
			totalPulses = (distance*direction/1.45);
   81d5c:	4b6b      	ldr	r3, [pc, #428]	; (81f0c <task_move+0x27c>)
   81d5e:	681b      	ldr	r3, [r3, #0]
   81d60:	4a6b      	ldr	r2, [pc, #428]	; (81f10 <task_move+0x280>)
   81d62:	6810      	ldr	r0, [r2, #0]
   81d64:	fb00 f003 	mul.w	r0, r0, r3
   81d68:	4b6a      	ldr	r3, [pc, #424]	; (81f14 <task_move+0x284>)
   81d6a:	4798      	blx	r3
   81d6c:	4632      	mov	r2, r6
   81d6e:	463b      	mov	r3, r7
   81d70:	f8df c1f8 	ldr.w	ip, [pc, #504]	; 81f6c <task_move+0x2dc>
   81d74:	47e0      	blx	ip
   81d76:	4680      	mov	r8, r0
   81d78:	4689      	mov	r9, r1
   81d7a:	4b67      	ldr	r3, [pc, #412]	; (81f18 <task_move+0x288>)
   81d7c:	e9c3 8900 	strd	r8, r9, [r3]
			if (totMovement+2>=totalPulses)
   81d80:	4b66      	ldr	r3, [pc, #408]	; (81f1c <task_move+0x28c>)
   81d82:	e9d3 0100 	ldrd	r0, r1, [r3]
   81d86:	4652      	mov	r2, sl
   81d88:	465b      	mov	r3, fp
   81d8a:	f8df c1e4 	ldr.w	ip, [pc, #484]	; 81f70 <task_move+0x2e0>
   81d8e:	47e0      	blx	ip
   81d90:	4602      	mov	r2, r0
   81d92:	460b      	mov	r3, r1
   81d94:	4640      	mov	r0, r8
   81d96:	4649      	mov	r1, r9
   81d98:	f8df c1d8 	ldr.w	ip, [pc, #472]	; 81f74 <task_move+0x2e4>
   81d9c:	47e0      	blx	ip
   81d9e:	2800      	cmp	r0, #0
   81da0:	d033      	beq.n	81e0a <task_move+0x17a>
			{
				rightWheel(1500);//Stop rightWheel
   81da2:	f240 50dc 	movw	r0, #1500	; 0x5dc
   81da6:	4b5e      	ldr	r3, [pc, #376]	; (81f20 <task_move+0x290>)
   81da8:	4798      	blx	r3
				leftWheel(1500);//Stop leftWheel
   81daa:	f240 50dc 	movw	r0, #1500	; 0x5dc
   81dae:	4b5d      	ldr	r3, [pc, #372]	; (81f24 <task_move+0x294>)
   81db0:	4798      	blx	r3
				controlValue=0;
   81db2:	4b5d      	ldr	r3, [pc, #372]	; (81f28 <task_move+0x298>)
   81db4:	e9c3 4500 	strd	r4, r5, [r3]
				measurementValue=0;
   81db8:	4b5c      	ldr	r3, [pc, #368]	; (81f2c <task_move+0x29c>)
   81dba:	e9c3 4500 	strd	r4, r5, [r3]
				totMovement=0;
   81dbe:	4b57      	ldr	r3, [pc, #348]	; (81f1c <task_move+0x28c>)
   81dc0:	e9c3 4500 	strd	r4, r5, [r3]
				proportionalError=0;
   81dc4:	4b5a      	ldr	r3, [pc, #360]	; (81f30 <task_move+0x2a0>)
   81dc6:	e9c3 4500 	strd	r4, r5, [r3]
				angle=0;
   81dca:	2300      	movs	r3, #0
   81dcc:	4a59      	ldr	r2, [pc, #356]	; (81f34 <task_move+0x2a4>)
   81dce:	6013      	str	r3, [r2, #0]
				sum=0;
   81dd0:	4a59      	ldr	r2, [pc, #356]	; (81f38 <task_move+0x2a8>)
   81dd2:	6013      	str	r3, [r2, #0]
				speed = 200;
   81dd4:	21c8      	movs	r1, #200	; 0xc8
   81dd6:	4a59      	ldr	r2, [pc, #356]	; (81f3c <task_move+0x2ac>)
   81dd8:	8011      	strh	r1, [r2, #0]
				distance=0;
   81dda:	4a4c      	ldr	r2, [pc, #304]	; (81f0c <task_move+0x27c>)
   81ddc:	6013      	str	r3, [r2, #0]
				pulse_counter=0;				
   81dde:	4a58      	ldr	r2, [pc, #352]	; (81f40 <task_move+0x2b0>)
   81de0:	6013      	str	r3, [r2, #0]
				reset_Counter();
   81de2:	4b58      	ldr	r3, [pc, #352]	; (81f44 <task_move+0x2b4>)
   81de4:	4798      	blx	r3
				liftStart=true;
   81de6:	2301      	movs	r3, #1
   81de8:	4a43      	ldr	r2, [pc, #268]	; (81ef8 <task_move+0x268>)
   81dea:	7013      	strb	r3, [r2, #0]
				pick_up_process_finished=true;
   81dec:	4a56      	ldr	r2, [pc, #344]	; (81f48 <task_move+0x2b8>)
   81dee:	7013      	strb	r3, [r2, #0]
 				if (arloNeedsToDrive)
   81df0:	4b56      	ldr	r3, [pc, #344]	; (81f4c <task_move+0x2bc>)
   81df2:	781b      	ldrb	r3, [r3, #0]
   81df4:	b113      	cbz	r3, 81dfc <task_move+0x16c>
 				{
 					arloIsDone=true;
   81df6:	2201      	movs	r2, #1
   81df8:	4b55      	ldr	r3, [pc, #340]	; (81f50 <task_move+0x2c0>)
   81dfa:	701a      	strb	r2, [r3, #0]
 				}
				newData=true;
   81dfc:	2201      	movs	r2, #1
   81dfe:	4b3b      	ldr	r3, [pc, #236]	; (81eec <task_move+0x25c>)
   81e00:	701a      	strb	r2, [r3, #0]
				nextState = NAVI;
   81e02:	2205      	movs	r2, #5
   81e04:	4b38      	ldr	r3, [pc, #224]	; (81ee8 <task_move+0x258>)
   81e06:	701a      	strb	r2, [r3, #0]
   81e08:	e0f9      	b.n	81ffe <task_move+0x36e>
				//wait=0;
			}
			else
			{
				move();
   81e0a:	4b52      	ldr	r3, [pc, #328]	; (81f54 <task_move+0x2c4>)
   81e0c:	4798      	blx	r3
				nextState = MOVE;
   81e0e:	2203      	movs	r2, #3
   81e10:	4b35      	ldr	r3, [pc, #212]	; (81ee8 <task_move+0x258>)
   81e12:	701a      	strb	r2, [r3, #0]
   81e14:	e0f3      	b.n	81ffe <task_move+0x36e>
			break;
			/************************************************************************/
			/*                         BEFORE-ROTATE                                */
			/************************************************************************/
			case BEFORE_ROTATE:
			printf("BEFORE ROTATE");
   81e16:	4850      	ldr	r0, [pc, #320]	; (81f58 <task_move+0x2c8>)
   81e18:	4b3a      	ldr	r3, [pc, #232]	; (81f04 <task_move+0x274>)
   81e1a:	4798      	blx	r3
			course=1;     // rotation course, 1 to right -1 to left
   81e1c:	2201      	movs	r2, #1
   81e1e:	4b4f      	ldr	r3, [pc, #316]	; (81f5c <task_move+0x2cc>)
   81e20:	601a      	str	r2, [r3, #0]
			if (angle<0)
   81e22:	4b44      	ldr	r3, [pc, #272]	; (81f34 <task_move+0x2a4>)
   81e24:	681b      	ldr	r3, [r3, #0]
   81e26:	2b00      	cmp	r3, #0
   81e28:	da03      	bge.n	81e32 <task_move+0x1a2>
			{
				course=-1;
   81e2a:	f04f 31ff 	mov.w	r1, #4294967295
   81e2e:	4a4b      	ldr	r2, [pc, #300]	; (81f5c <task_move+0x2cc>)
   81e30:	6011      	str	r1, [r2, #0]
			}
			// total number of pulses required for rotation
			totalPulses=((angle*course)/2);
   81e32:	4a4a      	ldr	r2, [pc, #296]	; (81f5c <task_move+0x2cc>)
   81e34:	6812      	ldr	r2, [r2, #0]
   81e36:	fb02 f303 	mul.w	r3, r2, r3
   81e3a:	eb03 70d3 	add.w	r0, r3, r3, lsr #31
   81e3e:	1040      	asrs	r0, r0, #1
   81e40:	4b34      	ldr	r3, [pc, #208]	; (81f14 <task_move+0x284>)
   81e42:	4798      	blx	r3
   81e44:	4b34      	ldr	r3, [pc, #208]	; (81f18 <task_move+0x288>)
   81e46:	e9c3 0100 	strd	r0, r1, [r3]
			rightWheel(1500);
   81e4a:	f240 50dc 	movw	r0, #1500	; 0x5dc
   81e4e:	4b34      	ldr	r3, [pc, #208]	; (81f20 <task_move+0x290>)
   81e50:	4798      	blx	r3
			leftWheel(1500);
   81e52:	f240 50dc 	movw	r0, #1500	; 0x5dc
   81e56:	4b33      	ldr	r3, [pc, #204]	; (81f24 <task_move+0x294>)
   81e58:	4798      	blx	r3
			reset_Counter();
   81e5a:	4b3a      	ldr	r3, [pc, #232]	; (81f44 <task_move+0x2b4>)
   81e5c:	4798      	blx	r3
			nextState = ROTATE;
   81e5e:	2202      	movs	r2, #2
   81e60:	4b21      	ldr	r3, [pc, #132]	; (81ee8 <task_move+0x258>)
   81e62:	701a      	strb	r2, [r3, #0]
			break;
   81e64:	e0cb      	b.n	81ffe <task_move+0x36e>
			/************************************************************************/
			/*                                ROTATE                                */
			/************************************************************************/
			case ROTATE:
			printf("ROTATE");
   81e66:	483e      	ldr	r0, [pc, #248]	; (81f60 <task_move+0x2d0>)
   81e68:	4b26      	ldr	r3, [pc, #152]	; (81f04 <task_move+0x274>)
   81e6a:	4798      	blx	r3
			if ((counter_1+counter_2+1) >= totalPulses)
   81e6c:	4b3d      	ldr	r3, [pc, #244]	; (81f64 <task_move+0x2d4>)
   81e6e:	8818      	ldrh	r0, [r3, #0]
   81e70:	4b3d      	ldr	r3, [pc, #244]	; (81f68 <task_move+0x2d8>)
   81e72:	881b      	ldrh	r3, [r3, #0]
   81e74:	4418      	add	r0, r3
   81e76:	3001      	adds	r0, #1
   81e78:	4b26      	ldr	r3, [pc, #152]	; (81f14 <task_move+0x284>)
   81e7a:	4798      	blx	r3
   81e7c:	4b26      	ldr	r3, [pc, #152]	; (81f18 <task_move+0x288>)
   81e7e:	e9d3 2300 	ldrd	r2, r3, [r3]
   81e82:	f8df c0f4 	ldr.w	ip, [pc, #244]	; 81f78 <task_move+0x2e8>
   81e86:	47e0      	blx	ip
   81e88:	2800      	cmp	r0, #0
   81e8a:	d077      	beq.n	81f7c <task_move+0x2ec>
			{
				//  stop wheels
				rightWheel(1500);
   81e8c:	f240 50dc 	movw	r0, #1500	; 0x5dc
   81e90:	4b23      	ldr	r3, [pc, #140]	; (81f20 <task_move+0x290>)
   81e92:	4798      	blx	r3
				leftWheel(1500);
   81e94:	f240 50dc 	movw	r0, #1500	; 0x5dc
   81e98:	4b22      	ldr	r3, [pc, #136]	; (81f24 <task_move+0x294>)
   81e9a:	4798      	blx	r3
				reset_Counter();
   81e9c:	4b29      	ldr	r3, [pc, #164]	; (81f44 <task_move+0x2b4>)
   81e9e:	4798      	blx	r3
				angle=0;
   81ea0:	2200      	movs	r2, #0
   81ea2:	4b24      	ldr	r3, [pc, #144]	; (81f34 <task_move+0x2a4>)
   81ea4:	601a      	str	r2, [r3, #0]
				totalPulses=0;
   81ea6:	4b1c      	ldr	r3, [pc, #112]	; (81f18 <task_move+0x288>)
   81ea8:	e9c3 4500 	strd	r4, r5, [r3]
				totMovement=0;
   81eac:	4b1b      	ldr	r3, [pc, #108]	; (81f1c <task_move+0x28c>)
   81eae:	e9c3 4500 	strd	r4, r5, [r3]
				if (arloNeedsToDrive)
   81eb2:	4b26      	ldr	r3, [pc, #152]	; (81f4c <task_move+0x2bc>)
   81eb4:	781b      	ldrb	r3, [r3, #0]
   81eb6:	b113      	cbz	r3, 81ebe <task_move+0x22e>
				{
					arloIsDone=true;
   81eb8:	2201      	movs	r2, #1
   81eba:	4b25      	ldr	r3, [pc, #148]	; (81f50 <task_move+0x2c0>)
   81ebc:	701a      	strb	r2, [r3, #0]
				}
				nextState = MOVE;
   81ebe:	2203      	movs	r2, #3
   81ec0:	4b09      	ldr	r3, [pc, #36]	; (81ee8 <task_move+0x258>)
   81ec2:	701a      	strb	r2, [r3, #0]
   81ec4:	e09b      	b.n	81ffe <task_move+0x36e>
   81ec6:	bf00      	nop
   81ec8:	33333333 	.word	0x33333333
   81ecc:	3ff73333 	.word	0x3ff73333
   81ed0:	00082c91 	.word	0x00082c91
   81ed4:	00082ee5 	.word	0x00082ee5
   81ed8:	20070a50 	.word	0x20070a50
   81edc:	00080409 	.word	0x00080409
   81ee0:	00081a4d 	.word	0x00081a4d
   81ee4:	2007013a 	.word	0x2007013a
   81ee8:	20078e00 	.word	0x20078e00
   81eec:	20070ab0 	.word	0x20070ab0
   81ef0:	20078cd8 	.word	0x20078cd8
   81ef4:	00082b8d 	.word	0x00082b8d
   81ef8:	20070a62 	.word	0x20070a62
   81efc:	20070a60 	.word	0x20070a60
   81f00:	000882f4 	.word	0x000882f4
   81f04:	00084fd9 	.word	0x00084fd9
   81f08:	0008830c 	.word	0x0008830c
   81f0c:	20070a34 	.word	0x20070a34
   81f10:	20070150 	.word	0x20070150
   81f14:	000848ed 	.word	0x000848ed
   81f18:	20078df8 	.word	0x20078df8
   81f1c:	20070a88 	.word	0x20070a88
   81f20:	00081105 	.word	0x00081105
   81f24:	000810d5 	.word	0x000810d5
   81f28:	20070a48 	.word	0x20070a48
   81f2c:	20070a58 	.word	0x20070a58
   81f30:	20070a70 	.word	0x20070a70
   81f34:	20070a3c 	.word	0x20070a3c
   81f38:	20070aa4 	.word	0x20070aa4
   81f3c:	20070160 	.word	0x20070160
   81f40:	20070ab4 	.word	0x20070ab4
   81f44:	00081219 	.word	0x00081219
   81f48:	20070a80 	.word	0x20070a80
   81f4c:	20070a61 	.word	0x20070a61
   81f50:	20070a81 	.word	0x20070a81
   81f54:	00081579 	.word	0x00081579
   81f58:	00088314 	.word	0x00088314
   81f5c:	20078e04 	.word	0x20078e04
   81f60:	00088324 	.word	0x00088324
   81f64:	20078d96 	.word	0x20078d96
   81f68:	20078d94 	.word	0x20078d94
   81f6c:	00084c0d 	.word	0x00084c0d
   81f70:	00084655 	.word	0x00084655
   81f74:	00084eb1 	.word	0x00084eb1
   81f78:	00084ec5 	.word	0x00084ec5
			}
			else
			{
				leftWheel(1500 + ( rotationSpeed*course) );
   81f7c:	f8df 90b8 	ldr.w	r9, [pc, #184]	; 82038 <task_move+0x3a8>
   81f80:	f8df 80b8 	ldr.w	r8, [pc, #184]	; 8203c <task_move+0x3ac>
   81f84:	f8d9 3000 	ldr.w	r3, [r9]
   81f88:	f8d8 2000 	ldr.w	r2, [r8]
   81f8c:	fb02 f003 	mul.w	r0, r2, r3
   81f90:	f200 50dc 	addw	r0, r0, #1500	; 0x5dc
   81f94:	4b1c      	ldr	r3, [pc, #112]	; (82008 <task_move+0x378>)
   81f96:	4798      	blx	r3
				rightWheel(1500 - ( rotationSpeed*course) );
   81f98:	f8d9 3000 	ldr.w	r3, [r9]
   81f9c:	f8d8 2000 	ldr.w	r2, [r8]
   81fa0:	f240 50dc 	movw	r0, #1500	; 0x5dc
   81fa4:	fb02 0013 	mls	r0, r2, r3, r0
   81fa8:	4b18      	ldr	r3, [pc, #96]	; (8200c <task_move+0x37c>)
   81faa:	4798      	blx	r3
				nextState = ROTATE;
   81fac:	2202      	movs	r2, #2
   81fae:	4b18      	ldr	r3, [pc, #96]	; (82010 <task_move+0x380>)
   81fb0:	701a      	strb	r2, [r3, #0]
   81fb2:	e024      	b.n	81ffe <task_move+0x36e>
			}
			break;
			case CLOSE:
			printf("CLOSE");
   81fb4:	4817      	ldr	r0, [pc, #92]	; (82014 <task_move+0x384>)
   81fb6:	4b18      	ldr	r3, [pc, #96]	; (82018 <task_move+0x388>)
   81fb8:	4798      	blx	r3
   81fba:	e7fe      	b.n	81fba <task_move+0x32a>
			/************************************************************************/
			/*                                 COMM                                 */
			/************************************************************************/
			case COMM:
			
			if (pick_up_process_finished)
   81fbc:	4b17      	ldr	r3, [pc, #92]	; (8201c <task_move+0x38c>)
   81fbe:	781b      	ldrb	r3, [r3, #0]
   81fc0:	b17b      	cbz	r3, 81fe2 <task_move+0x352>
			{
				printf("Pick up process finished\r\n");
   81fc2:	4817      	ldr	r0, [pc, #92]	; (82020 <task_move+0x390>)
   81fc4:	f8df 8050 	ldr.w	r8, [pc, #80]	; 82018 <task_move+0x388>
   81fc8:	47c0      	blx	r8
				
				printf("FINISHED!!!!!!!!!!!\r\n");
   81fca:	4816      	ldr	r0, [pc, #88]	; (82024 <task_move+0x394>)
   81fcc:	47c0      	blx	r8
				//vTaskSuspend(xTaskCom);
				// status = arlo_get_pick_up_status();
				//status=0;
				//flag_i=1;
				comAlreadyOn=false;
   81fce:	2300      	movs	r3, #0
   81fd0:	4a15      	ldr	r2, [pc, #84]	; (82028 <task_move+0x398>)
   81fd2:	7013      	strb	r3, [r2, #0]
				process_running=false;
   81fd4:	4a15      	ldr	r2, [pc, #84]	; (8202c <task_move+0x39c>)
   81fd6:	7013      	strb	r3, [r2, #0]
				pick_up_process_finished=false;
   81fd8:	4a10      	ldr	r2, [pc, #64]	; (8201c <task_move+0x38c>)
   81fda:	7013      	strb	r3, [r2, #0]
				// nextState = STARTGL;
				nextState = START;
   81fdc:	4a0c      	ldr	r2, [pc, #48]	; (82010 <task_move+0x380>)
   81fde:	7013      	strb	r3, [r2, #0]
   81fe0:	e00d      	b.n	81ffe <task_move+0x36e>
// 				nextState = ROTATE;
// 			}
			else
			{
				// vTaskResume(xTaskCom);
				nextState = COMM;
   81fe2:	2204      	movs	r2, #4
   81fe4:	4b0a      	ldr	r3, [pc, #40]	; (82010 <task_move+0x380>)
   81fe6:	701a      	strb	r2, [r3, #0]
   81fe8:	e009      	b.n	81ffe <task_move+0x36e>
			}
			
			break;
			
			case WAIT:
				if (!newData)
   81fea:	4b11      	ldr	r3, [pc, #68]	; (82030 <task_move+0x3a0>)
   81fec:	781b      	ldrb	r3, [r3, #0]
   81fee:	b91b      	cbnz	r3, 81ff8 <task_move+0x368>
				{
					nextState=START;
   81ff0:	2200      	movs	r2, #0
   81ff2:	4b07      	ldr	r3, [pc, #28]	; (82010 <task_move+0x380>)
   81ff4:	701a      	strb	r2, [r3, #0]
   81ff6:	e002      	b.n	81ffe <task_move+0x36e>
				}
				else
				{
					nextState = WAIT;
   81ff8:	2207      	movs	r2, #7
   81ffa:	4b05      	ldr	r3, [pc, #20]	; (82010 <task_move+0x380>)
   81ffc:	701a      	strb	r2, [r3, #0]
			break;
			/************************************************************************/
			/*                           SLUTET AV SWITCH CASE                      */
			/************************************************************************/
		}
		currentState = nextState;
   81ffe:	4b04      	ldr	r3, [pc, #16]	; (82010 <task_move+0x380>)
   82000:	781a      	ldrb	r2, [r3, #0]
   82002:	4b0c      	ldr	r3, [pc, #48]	; (82034 <task_move+0x3a4>)
   82004:	701a      	strb	r2, [r3, #0]
	}
   82006:	e653      	b.n	81cb0 <task_move+0x20>
   82008:	000810d5 	.word	0x000810d5
   8200c:	00081105 	.word	0x00081105
   82010:	20078e00 	.word	0x20078e00
   82014:	0008832c 	.word	0x0008832c
   82018:	00084fd9 	.word	0x00084fd9
   8201c:	20070a80 	.word	0x20070a80
   82020:	00088334 	.word	0x00088334
   82024:	00088350 	.word	0x00088350
   82028:	20070a60 	.word	0x20070a60
   8202c:	20070a40 	.word	0x20070a40
   82030:	20070ab0 	.word	0x20070ab0
   82034:	20070a50 	.word	0x20070a50
   82038:	20070154 	.word	0x20070154
   8203c:	20078e04 	.word	0x20078e04

00082040 <vListInitialise>:
void vListInitialise( xList *pxList )
{
	/* The list structure contains a list item which is used to mark the
	end of the list.  To initialise the list the list end is inserted
	as the only list entry. */
	pxList->pxIndex = ( xListItem * ) &( pxList->xListEnd );
   82040:	f100 0308 	add.w	r3, r0, #8
   82044:	6043      	str	r3, [r0, #4]

	/* The list end value is the highest possible value in the list to
	ensure it remains at the end of the list. */
	pxList->xListEnd.xItemValue = portMAX_DELAY;
   82046:	f64f 72ff 	movw	r2, #65535	; 0xffff
   8204a:	8102      	strh	r2, [r0, #8]

	/* The list end next and previous pointers point to itself so we know
	when the list is empty. */
	pxList->xListEnd.pxNext = ( xListItem * ) &( pxList->xListEnd );
   8204c:	60c3      	str	r3, [r0, #12]
	pxList->xListEnd.pxPrevious = ( xListItem * ) &( pxList->xListEnd );
   8204e:	6103      	str	r3, [r0, #16]

	pxList->uxNumberOfItems = ( unsigned portBASE_TYPE ) 0U;
   82050:	2300      	movs	r3, #0
   82052:	6003      	str	r3, [r0, #0]
   82054:	4770      	bx	lr
   82056:	bf00      	nop

00082058 <vListInitialiseItem>:
/*-----------------------------------------------------------*/

void vListInitialiseItem( xListItem *pxItem )
{
	/* Make sure the list item is not recorded as being on a list. */
	pxItem->pvContainer = NULL;
   82058:	2300      	movs	r3, #0
   8205a:	6103      	str	r3, [r0, #16]
   8205c:	4770      	bx	lr
   8205e:	bf00      	nop

00082060 <vListInsertEnd>:

	/* Insert a new list item into pxList, but rather than sort the list,
	makes the new list item the last item to be removed by a call to
	pvListGetOwnerOfNextEntry.  This means it has to be the item pointed to by
	the pxIndex member. */
	pxIndex = pxList->pxIndex;
   82060:	6843      	ldr	r3, [r0, #4]

	pxNewListItem->pxNext = pxIndex->pxNext;
   82062:	685a      	ldr	r2, [r3, #4]
   82064:	604a      	str	r2, [r1, #4]
	pxNewListItem->pxPrevious = pxList->pxIndex;
   82066:	6842      	ldr	r2, [r0, #4]
   82068:	608a      	str	r2, [r1, #8]
	pxIndex->pxNext->pxPrevious = ( volatile xListItem * ) pxNewListItem;
   8206a:	685a      	ldr	r2, [r3, #4]
   8206c:	6091      	str	r1, [r2, #8]
	pxIndex->pxNext = ( volatile xListItem * ) pxNewListItem;
   8206e:	6059      	str	r1, [r3, #4]
	pxList->pxIndex = ( volatile xListItem * ) pxNewListItem;
   82070:	6041      	str	r1, [r0, #4]

	/* Remember which list the item is in. */
	pxNewListItem->pvContainer = ( void * ) pxList;
   82072:	6108      	str	r0, [r1, #16]

	( pxList->uxNumberOfItems )++;
   82074:	6803      	ldr	r3, [r0, #0]
   82076:	3301      	adds	r3, #1
   82078:	6003      	str	r3, [r0, #0]
   8207a:	4770      	bx	lr

0008207c <vListInsert>:
}
/*-----------------------------------------------------------*/

void vListInsert( xList *pxList, xListItem *pxNewListItem )
{
   8207c:	b410      	push	{r4}
volatile xListItem *pxIterator;
portTickType xValueOfInsertion;

	/* Insert the new list item into the list, sorted in ulListItem order. */
	xValueOfInsertion = pxNewListItem->xItemValue;
   8207e:	880c      	ldrh	r4, [r1, #0]
	are stored in ready lists (all of which have the same ulListItem value)
	get an equal share of the CPU.  However, if the xItemValue is the same as
	the back marker the iteration loop below will not end.  This means we need
	to guard against this by checking the value first and modifying the
	algorithm slightly if necessary. */
	if( xValueOfInsertion == portMAX_DELAY )
   82080:	f64f 73ff 	movw	r3, #65535	; 0xffff
   82084:	429c      	cmp	r4, r3
   82086:	d101      	bne.n	8208c <vListInsert+0x10>
	{
		pxIterator = pxList->xListEnd.pxPrevious;
   82088:	6903      	ldr	r3, [r0, #16]
   8208a:	e00c      	b.n	820a6 <vListInsert+0x2a>
			   before the scheduler has been started (are interrupts firing
			   before vTaskStartScheduler() has been called?).
		See http://www.freertos.org/FAQHelp.html for more tips.
		**********************************************************************/

		for( pxIterator = ( xListItem * ) &( pxList->xListEnd ); pxIterator->pxNext->xItemValue <= xValueOfInsertion; pxIterator = pxIterator->pxNext )
   8208c:	f100 0308 	add.w	r3, r0, #8
   82090:	68c2      	ldr	r2, [r0, #12]
   82092:	8812      	ldrh	r2, [r2, #0]
   82094:	b292      	uxth	r2, r2
   82096:	4294      	cmp	r4, r2
   82098:	d305      	bcc.n	820a6 <vListInsert+0x2a>
   8209a:	685b      	ldr	r3, [r3, #4]
   8209c:	685a      	ldr	r2, [r3, #4]
   8209e:	8812      	ldrh	r2, [r2, #0]
   820a0:	b292      	uxth	r2, r2
   820a2:	4294      	cmp	r4, r2
   820a4:	d2f9      	bcs.n	8209a <vListInsert+0x1e>
			/* There is nothing to do here, we are just iterating to the
			wanted insertion position. */
		}
	}

	pxNewListItem->pxNext = pxIterator->pxNext;
   820a6:	685a      	ldr	r2, [r3, #4]
   820a8:	604a      	str	r2, [r1, #4]
	pxNewListItem->pxNext->pxPrevious = ( volatile xListItem * ) pxNewListItem;
   820aa:	6091      	str	r1, [r2, #8]
	pxNewListItem->pxPrevious = pxIterator;
   820ac:	608b      	str	r3, [r1, #8]
	pxIterator->pxNext = ( volatile xListItem * ) pxNewListItem;
   820ae:	6059      	str	r1, [r3, #4]

	/* Remember which list the item is in.  This allows fast removal of the
	item later. */
	pxNewListItem->pvContainer = ( void * ) pxList;
   820b0:	6108      	str	r0, [r1, #16]

	( pxList->uxNumberOfItems )++;
   820b2:	6803      	ldr	r3, [r0, #0]
   820b4:	3301      	adds	r3, #1
   820b6:	6003      	str	r3, [r0, #0]
}
   820b8:	f85d 4b04 	ldr.w	r4, [sp], #4
   820bc:	4770      	bx	lr
   820be:	bf00      	nop

000820c0 <uxListRemove>:

unsigned portBASE_TYPE uxListRemove( xListItem *pxItemToRemove )
{
xList * pxList;

	pxItemToRemove->pxNext->pxPrevious = pxItemToRemove->pxPrevious;
   820c0:	6843      	ldr	r3, [r0, #4]
   820c2:	6882      	ldr	r2, [r0, #8]
   820c4:	609a      	str	r2, [r3, #8]
	pxItemToRemove->pxPrevious->pxNext = pxItemToRemove->pxNext;
   820c6:	6883      	ldr	r3, [r0, #8]
   820c8:	6842      	ldr	r2, [r0, #4]
   820ca:	605a      	str	r2, [r3, #4]

	/* The list item knows which list it is in.  Obtain the list from the list
	item. */
	pxList = ( xList * ) pxItemToRemove->pvContainer;
   820cc:	6903      	ldr	r3, [r0, #16]

	/* Make sure the index is left pointing to a valid item. */
	if( pxList->pxIndex == pxItemToRemove )
   820ce:	685a      	ldr	r2, [r3, #4]
   820d0:	4282      	cmp	r2, r0
	{
		pxList->pxIndex = pxItemToRemove->pxPrevious;
   820d2:	bf04      	itt	eq
   820d4:	6882      	ldreq	r2, [r0, #8]
   820d6:	605a      	streq	r2, [r3, #4]
	}

	pxItemToRemove->pvContainer = NULL;
   820d8:	2200      	movs	r2, #0
   820da:	6102      	str	r2, [r0, #16]
	( pxList->uxNumberOfItems )--;
   820dc:	681a      	ldr	r2, [r3, #0]
   820de:	3a01      	subs	r2, #1
   820e0:	601a      	str	r2, [r3, #0]

	return pxList->uxNumberOfItems;
   820e2:	6818      	ldr	r0, [r3, #0]
}
   820e4:	4770      	bx	lr
   820e6:	bf00      	nop

000820e8 <prvPortStartFirstTask>:
}
/*-----------------------------------------------------------*/

static void prvPortStartFirstTask( void )
{
	__asm volatile(
   820e8:	4803      	ldr	r0, [pc, #12]	; (820f8 <prvPortStartFirstTask+0x10>)
   820ea:	6800      	ldr	r0, [r0, #0]
   820ec:	6800      	ldr	r0, [r0, #0]
   820ee:	f380 8808 	msr	MSP, r0
   820f2:	b662      	cpsie	i
   820f4:	df00      	svc	0
   820f6:	bf00      	nop
   820f8:	e000ed08 	.word	0xe000ed08

000820fc <pxPortInitialiseStack>:
portSTACK_TYPE *pxPortInitialiseStack( portSTACK_TYPE *pxTopOfStack, pdTASK_CODE pxCode, void *pvParameters )
{
	/* Simulate the stack frame as it would be created by a context switch
	interrupt. */
	pxTopOfStack--; /* Offset added to account for the way the MCU uses the stack on entry/exit of interrupts. */
	*pxTopOfStack = portINITIAL_XPSR;	/* xPSR */
   820fc:	f04f 7380 	mov.w	r3, #16777216	; 0x1000000
   82100:	f840 3c04 	str.w	r3, [r0, #-4]
	pxTopOfStack--;
	*pxTopOfStack = ( portSTACK_TYPE ) pxCode;	/* PC */
   82104:	f840 1c08 	str.w	r1, [r0, #-8]
	pxTopOfStack--;
	*pxTopOfStack = 0;	/* LR */
   82108:	2300      	movs	r3, #0
   8210a:	f840 3c0c 	str.w	r3, [r0, #-12]
	pxTopOfStack -= 5;	/* R12, R3, R2 and R1. */
	*pxTopOfStack = ( portSTACK_TYPE ) pvParameters;	/* R0 */
   8210e:	f840 2c20 	str.w	r2, [r0, #-32]
	pxTopOfStack -= 8;	/* R11, R10, R9, R8, R7, R6, R5 and R4. */

	return pxTopOfStack;
}
   82112:	3840      	subs	r0, #64	; 0x40
   82114:	4770      	bx	lr
   82116:	bf00      	nop

00082118 <SVC_Handler>:
/*-----------------------------------------------------------*/

__attribute__ (( naked )) void SVC_Handler( void )
{
	__asm volatile (
   82118:	4b06      	ldr	r3, [pc, #24]	; (82134 <pxCurrentTCBConst2>)
   8211a:	6819      	ldr	r1, [r3, #0]
   8211c:	6808      	ldr	r0, [r1, #0]
   8211e:	e8b0 0ff0 	ldmia.w	r0!, {r4, r5, r6, r7, r8, r9, sl, fp}
   82122:	f380 8809 	msr	PSP, r0
   82126:	f04f 0000 	mov.w	r0, #0
   8212a:	f380 8811 	msr	BASEPRI, r0
   8212e:	f04e 0e0d 	orr.w	lr, lr, #13
   82132:	4770      	bx	lr

00082134 <pxCurrentTCBConst2>:
   82134:	20078be0 	.word	0x20078be0

00082138 <vPortYieldFromISR>:
/*-----------------------------------------------------------*/

void vPortYieldFromISR( void )
{
	/* Set a PendSV to request a context switch. */
	portNVIC_INT_CTRL_REG = portNVIC_PENDSVSET_BIT;
   82138:	f04f 5280 	mov.w	r2, #268435456	; 0x10000000
   8213c:	4b01      	ldr	r3, [pc, #4]	; (82144 <vPortYieldFromISR+0xc>)
   8213e:	601a      	str	r2, [r3, #0]
   82140:	4770      	bx	lr
   82142:	bf00      	nop
   82144:	e000ed04 	.word	0xe000ed04

00082148 <ulPortSetInterruptMask>:
}
/*-----------------------------------------------------------*/

__attribute__(( naked )) unsigned long ulPortSetInterruptMask( void )
{
	__asm volatile														\
   82148:	f3ef 8011 	mrs	r0, BASEPRI
   8214c:	f04f 01a0 	mov.w	r1, #160	; 0xa0
   82150:	f381 8811 	msr	BASEPRI, r1
   82154:	4770      	bx	lr
	);

	/* This return will not be reached but is necessary to prevent compiler
	warnings. */
	return 0;
}
   82156:	2000      	movs	r0, #0

00082158 <vPortEnterCritical>:
	portNVIC_INT_CTRL_REG = portNVIC_PENDSVSET_BIT;
}
/*-----------------------------------------------------------*/

void vPortEnterCritical( void )
{
   82158:	b508      	push	{r3, lr}
	portDISABLE_INTERRUPTS();
   8215a:	4b03      	ldr	r3, [pc, #12]	; (82168 <vPortEnterCritical+0x10>)
   8215c:	4798      	blx	r3
	uxCriticalNesting++;
   8215e:	4b03      	ldr	r3, [pc, #12]	; (8216c <vPortEnterCritical+0x14>)
   82160:	681a      	ldr	r2, [r3, #0]
   82162:	3201      	adds	r2, #1
   82164:	601a      	str	r2, [r3, #0]
   82166:	bd08      	pop	{r3, pc}
   82168:	00082149 	.word	0x00082149
   8216c:	20070170 	.word	0x20070170

00082170 <vPortClearInterruptMask>:
}
/*-----------------------------------------------------------*/

__attribute__(( naked )) void vPortClearInterruptMask( unsigned long ulNewMaskValue )
{
	__asm volatile													\
   82170:	f380 8811 	msr	BASEPRI, r0
   82174:	4770      	bx	lr
   82176:	bf00      	nop

00082178 <vPortExitCritical>:
	uxCriticalNesting++;
}
/*-----------------------------------------------------------*/

void vPortExitCritical( void )
{
   82178:	b508      	push	{r3, lr}
	uxCriticalNesting--;
   8217a:	4a04      	ldr	r2, [pc, #16]	; (8218c <vPortExitCritical+0x14>)
   8217c:	6813      	ldr	r3, [r2, #0]
   8217e:	3b01      	subs	r3, #1
   82180:	6013      	str	r3, [r2, #0]
	if( uxCriticalNesting == 0 )
   82182:	b913      	cbnz	r3, 8218a <vPortExitCritical+0x12>
	{
		portENABLE_INTERRUPTS();
   82184:	2000      	movs	r0, #0
   82186:	4b02      	ldr	r3, [pc, #8]	; (82190 <vPortExitCritical+0x18>)
   82188:	4798      	blx	r3
   8218a:	bd08      	pop	{r3, pc}
   8218c:	20070170 	.word	0x20070170
   82190:	00082171 	.word	0x00082171

00082194 <PendSV_Handler>:

__attribute__(( naked )) void PendSV_Handler( void )
{
	/* This is a naked function. */

	__asm volatile
   82194:	f3ef 8009 	mrs	r0, PSP
   82198:	4b0c      	ldr	r3, [pc, #48]	; (821cc <pxCurrentTCBConst>)
   8219a:	681a      	ldr	r2, [r3, #0]
   8219c:	e920 0ff0 	stmdb	r0!, {r4, r5, r6, r7, r8, r9, sl, fp}
   821a0:	6010      	str	r0, [r2, #0]
   821a2:	e92d 4008 	stmdb	sp!, {r3, lr}
   821a6:	f04f 00a0 	mov.w	r0, #160	; 0xa0
   821aa:	f380 8811 	msr	BASEPRI, r0
   821ae:	f000 ff27 	bl	83000 <vTaskSwitchContext>
   821b2:	f04f 0000 	mov.w	r0, #0
   821b6:	f380 8811 	msr	BASEPRI, r0
   821ba:	e8bd 4008 	ldmia.w	sp!, {r3, lr}
   821be:	6819      	ldr	r1, [r3, #0]
   821c0:	6808      	ldr	r0, [r1, #0]
   821c2:	e8b0 0ff0 	ldmia.w	r0!, {r4, r5, r6, r7, r8, r9, sl, fp}
   821c6:	f380 8809 	msr	PSP, r0
   821ca:	4770      	bx	lr

000821cc <pxCurrentTCBConst>:
   821cc:	20078be0 	.word	0x20078be0

000821d0 <SysTick_Handler>:
	);
}
/*-----------------------------------------------------------*/

void SysTick_Handler( void )
{
   821d0:	b508      	push	{r3, lr}
	/* If using preemption, also force a context switch. */
	#if configUSE_PREEMPTION == 1
		portNVIC_INT_CTRL_REG = portNVIC_PENDSVSET_BIT;
   821d2:	f04f 5280 	mov.w	r2, #268435456	; 0x10000000
   821d6:	4b05      	ldr	r3, [pc, #20]	; (821ec <SysTick_Handler+0x1c>)
   821d8:	601a      	str	r2, [r3, #0]
	to generate the tick interrupt. */
	#if configUSE_TICKLESS_IDLE == 1
		portNVIC_SYSTICK_LOAD_REG = ulTimerReloadValueForOneTick;
	#endif

	( void ) portSET_INTERRUPT_MASK_FROM_ISR();
   821da:	4b05      	ldr	r3, [pc, #20]	; (821f0 <SysTick_Handler+0x20>)
   821dc:	4798      	blx	r3
	{
		vTaskIncrementTick();
   821de:	4b05      	ldr	r3, [pc, #20]	; (821f4 <SysTick_Handler+0x24>)
   821e0:	4798      	blx	r3
	}
	portCLEAR_INTERRUPT_MASK_FROM_ISR( 0 );
   821e2:	2000      	movs	r0, #0
   821e4:	4b04      	ldr	r3, [pc, #16]	; (821f8 <SysTick_Handler+0x28>)
   821e6:	4798      	blx	r3
   821e8:	bd08      	pop	{r3, pc}
   821ea:	bf00      	nop
   821ec:	e000ed04 	.word	0xe000ed04
   821f0:	00082149 	.word	0x00082149
   821f4:	00082cb1 	.word	0x00082cb1
   821f8:	00082171 	.word	0x00082171

000821fc <vPortSetupTimerInterrupt>:
		ulStoppedTimerCompensation = 45UL / ( configCPU_CLOCK_HZ / configSYSTICK_CLOCK_HZ );
	}
	#endif /* configUSE_TICKLESS_IDLE */

	/* Configure SysTick to interrupt at the requested rate. */
	portNVIC_SYSTICK_LOAD_REG = ( configSYSTICK_CLOCK_HZ / configTICK_RATE_HZ ) - 1UL;;
   821fc:	4a03      	ldr	r2, [pc, #12]	; (8220c <vPortSetupTimerInterrupt+0x10>)
   821fe:	4b04      	ldr	r3, [pc, #16]	; (82210 <vPortSetupTimerInterrupt+0x14>)
   82200:	601a      	str	r2, [r3, #0]
	portNVIC_SYSTICK_CTRL_REG = portNVIC_SYSTICK_CLK_BIT | portNVIC_SYSTICK_INT_BIT | portNVIC_SYSTICK_ENABLE_BIT;
   82202:	2207      	movs	r2, #7
   82204:	3b04      	subs	r3, #4
   82206:	601a      	str	r2, [r3, #0]
   82208:	4770      	bx	lr
   8220a:	bf00      	nop
   8220c:	0001481f 	.word	0x0001481f
   82210:	e000e014 	.word	0xe000e014

00082214 <xPortStartScheduler>:

/*
 * See header file for description.
 */
portBASE_TYPE xPortStartScheduler( void )
{
   82214:	b510      	push	{r4, lr}
	/* configMAX_SYSCALL_INTERRUPT_PRIORITY must not be set to 0.
	See http://www.FreeRTOS.org/RTOS-Cortex-M3-M4.html */
	configASSERT( configMAX_SYSCALL_INTERRUPT_PRIORITY );

	/* Make PendSV, CallSV and SysTick the same priroity as the kernel. */
	portNVIC_SYSPRI2_REG |= portNVIC_PENDSV_PRI;
   82216:	4b09      	ldr	r3, [pc, #36]	; (8223c <xPortStartScheduler+0x28>)
   82218:	681a      	ldr	r2, [r3, #0]
   8221a:	f442 0270 	orr.w	r2, r2, #15728640	; 0xf00000
   8221e:	601a      	str	r2, [r3, #0]
	portNVIC_SYSPRI2_REG |= portNVIC_SYSTICK_PRI;
   82220:	681a      	ldr	r2, [r3, #0]
   82222:	f042 4270 	orr.w	r2, r2, #4026531840	; 0xf0000000
   82226:	601a      	str	r2, [r3, #0]

	/* Start the timer that generates the tick ISR.  Interrupts are disabled
	here already. */
	vPortSetupTimerInterrupt();
   82228:	4b05      	ldr	r3, [pc, #20]	; (82240 <xPortStartScheduler+0x2c>)
   8222a:	4798      	blx	r3

	/* Initialise the critical nesting count ready for the first task. */
	uxCriticalNesting = 0;
   8222c:	2400      	movs	r4, #0
   8222e:	4b05      	ldr	r3, [pc, #20]	; (82244 <xPortStartScheduler+0x30>)
   82230:	601c      	str	r4, [r3, #0]

	/* Start the first task. */
	prvPortStartFirstTask();
   82232:	4b05      	ldr	r3, [pc, #20]	; (82248 <xPortStartScheduler+0x34>)
   82234:	4798      	blx	r3

	/* Should not get here! */
	return 0;
}
   82236:	4620      	mov	r0, r4
   82238:	bd10      	pop	{r4, pc}
   8223a:	bf00      	nop
   8223c:	e000ed20 	.word	0xe000ed20
   82240:	000821fd 	.word	0x000821fd
   82244:	20070170 	.word	0x20070170
   82248:	000820e9 	.word	0x000820e9

0008224c <prvInsertBlockIntoFreeList>:
	xFreeBytesRemaining -= heapSTRUCT_SIZE;
}
/*-----------------------------------------------------------*/

static void prvInsertBlockIntoFreeList( xBlockLink *pxBlockToInsert )
{
   8224c:	b430      	push	{r4, r5}
xBlockLink *pxIterator;
unsigned char *puc;

	/* Iterate through the list until a block is found that has a higher address
	than the block being inserted. */
	for( pxIterator = &xStart; pxIterator->pxNextFreeBlock < pxBlockToInsert; pxIterator = pxIterator->pxNextFreeBlock )
   8224e:	4a13      	ldr	r2, [pc, #76]	; (8229c <prvInsertBlockIntoFreeList+0x50>)
   82250:	6813      	ldr	r3, [r2, #0]
   82252:	4283      	cmp	r3, r0
   82254:	d201      	bcs.n	8225a <prvInsertBlockIntoFreeList+0xe>
   82256:	461a      	mov	r2, r3
   82258:	e7fa      	b.n	82250 <prvInsertBlockIntoFreeList+0x4>
   8225a:	4611      	mov	r1, r2
	}

	/* Do the block being inserted, and the block it is being inserted after
	make a contiguous block of memory? */	
	puc = ( unsigned char * ) pxIterator;
	if( ( puc + pxIterator->xBlockSize ) == ( unsigned char * ) pxBlockToInsert )
   8225c:	6854      	ldr	r4, [r2, #4]
   8225e:	1915      	adds	r5, r2, r4
   82260:	4285      	cmp	r5, r0
   82262:	d103      	bne.n	8226c <prvInsertBlockIntoFreeList+0x20>
	{
		pxIterator->xBlockSize += pxBlockToInsert->xBlockSize;
   82264:	6868      	ldr	r0, [r5, #4]
   82266:	4404      	add	r4, r0
   82268:	6054      	str	r4, [r2, #4]
   8226a:	4610      	mov	r0, r2
	}

	/* Do the block being inserted, and the block it is being inserted before
	make a contiguous block of memory? */
	puc = ( unsigned char * ) pxBlockToInsert;
	if( ( puc + pxBlockToInsert->xBlockSize ) == ( unsigned char * ) pxIterator->pxNextFreeBlock )
   8226c:	6842      	ldr	r2, [r0, #4]
   8226e:	1884      	adds	r4, r0, r2
   82270:	42a3      	cmp	r3, r4
   82272:	d10c      	bne.n	8228e <prvInsertBlockIntoFreeList+0x42>
	{
		if( pxIterator->pxNextFreeBlock != pxEnd )
   82274:	4c0a      	ldr	r4, [pc, #40]	; (822a0 <prvInsertBlockIntoFreeList+0x54>)
   82276:	6824      	ldr	r4, [r4, #0]
   82278:	429c      	cmp	r4, r3
   8227a:	d006      	beq.n	8228a <prvInsertBlockIntoFreeList+0x3e>
		{
			/* Form one big block from the two blocks. */
			pxBlockToInsert->xBlockSize += pxIterator->pxNextFreeBlock->xBlockSize;
   8227c:	685b      	ldr	r3, [r3, #4]
   8227e:	441a      	add	r2, r3
   82280:	6042      	str	r2, [r0, #4]
			pxBlockToInsert->pxNextFreeBlock = pxIterator->pxNextFreeBlock->pxNextFreeBlock;
   82282:	680b      	ldr	r3, [r1, #0]
   82284:	681b      	ldr	r3, [r3, #0]
   82286:	6003      	str	r3, [r0, #0]
   82288:	e002      	b.n	82290 <prvInsertBlockIntoFreeList+0x44>
		}
		else
		{
			pxBlockToInsert->pxNextFreeBlock = pxEnd;
   8228a:	6003      	str	r3, [r0, #0]
   8228c:	e000      	b.n	82290 <prvInsertBlockIntoFreeList+0x44>
		}
	}
	else
	{
		pxBlockToInsert->pxNextFreeBlock = pxIterator->pxNextFreeBlock;		
   8228e:	6003      	str	r3, [r0, #0]

	/* If the block being inserted plugged a gab, so was merged with the block
	before and the block after, then it's pxNextFreeBlock pointer will have
	already been set, and should not be set here as that would make it point
	to itself. */
	if( pxIterator != pxBlockToInsert )
   82290:	4281      	cmp	r1, r0
	{
		pxIterator->pxNextFreeBlock = pxBlockToInsert;
   82292:	bf18      	it	ne
   82294:	6008      	strne	r0, [r1, #0]
	}
}
   82296:	bc30      	pop	{r4, r5}
   82298:	4770      	bx	lr
   8229a:	bf00      	nop
   8229c:	20078abc 	.word	0x20078abc
   822a0:	20078ab8 	.word	0x20078ab8

000822a4 <pvPortMalloc>:
/* STATIC FUNCTIONS ARE DEFINED AS MACROS TO MINIMIZE THE FUNCTION CALL DEPTH. */

/*-----------------------------------------------------------*/

void *pvPortMalloc( size_t xWantedSize )
{
   822a4:	b538      	push	{r3, r4, r5, lr}
   822a6:	4604      	mov	r4, r0
xBlockLink *pxBlock, *pxPreviousBlock, *pxNewBlockLink;
void *pvReturn = NULL;

	vTaskSuspendAll();
   822a8:	4b28      	ldr	r3, [pc, #160]	; (8234c <pvPortMalloc+0xa8>)
   822aa:	4798      	blx	r3
	{
		/* If this is the first call to malloc then the heap will require
		initialisation to setup the list of free blocks. */
		if( pxEnd == NULL )
   822ac:	4b28      	ldr	r3, [pc, #160]	; (82350 <pvPortMalloc+0xac>)
   822ae:	681b      	ldr	r3, [r3, #0]
   822b0:	b99b      	cbnz	r3, 822da <pvPortMalloc+0x36>
	/* Ensure the start of the heap is aligned. */
	configASSERT( ( ( ( unsigned long ) xHeap.ucHeap ) & ( ( unsigned long ) portBYTE_ALIGNMENT_MASK ) ) == 0UL );

	/* xStart is used to hold a pointer to the first item in the list of free
	blocks.  The void cast is used to prevent compiler warnings. */
	xStart.pxNextFreeBlock = ( void * ) xHeap.ucHeap;
   822b2:	4a28      	ldr	r2, [pc, #160]	; (82354 <pvPortMalloc+0xb0>)
   822b4:	4b28      	ldr	r3, [pc, #160]	; (82358 <pvPortMalloc+0xb4>)
   822b6:	6013      	str	r3, [r2, #0]
	xStart.xBlockSize = ( size_t ) 0;
   822b8:	2100      	movs	r1, #0
   822ba:	6051      	str	r1, [r2, #4]

	/* pxEnd is used to mark the end of the list of free blocks and is inserted
	at the end of the heap space. */
	pucHeapEnd = xHeap.ucHeap + xTotalHeapSize;
	pucHeapEnd -= heapSTRUCT_SIZE;
	pxEnd = ( void * ) pucHeapEnd;
   822bc:	f647 72f0 	movw	r2, #32752	; 0x7ff0
   822c0:	1898      	adds	r0, r3, r2
   822c2:	4d23      	ldr	r5, [pc, #140]	; (82350 <pvPortMalloc+0xac>)
   822c4:	6028      	str	r0, [r5, #0]
	configASSERT( ( ( ( unsigned long ) pxEnd ) & ( ( unsigned long ) portBYTE_ALIGNMENT_MASK ) ) == 0UL );
	pxEnd->xBlockSize = 0;
   822c6:	f647 75f4 	movw	r5, #32756	; 0x7ff4
   822ca:	5159      	str	r1, [r3, r5]
	pxEnd->pxNextFreeBlock = NULL;
   822cc:	5099      	str	r1, [r3, r2]

	/* To start with there is a single free block that is sized to take up the
	entire heap space, minus the space taken by pxEnd. */
	pxFirstFreeBlock = ( void * ) xHeap.ucHeap;
	pxFirstFreeBlock->xBlockSize = xTotalHeapSize - heapSTRUCT_SIZE;
   822ce:	605a      	str	r2, [r3, #4]
	pxFirstFreeBlock->pxNextFreeBlock = pxEnd;
   822d0:	6018      	str	r0, [r3, #0]

	/* The heap now contains pxEnd. */
	xFreeBytesRemaining -= heapSTRUCT_SIZE;
   822d2:	4b22      	ldr	r3, [pc, #136]	; (8235c <pvPortMalloc+0xb8>)
   822d4:	681a      	ldr	r2, [r3, #0]
   822d6:	3a10      	subs	r2, #16
   822d8:	601a      	str	r2, [r3, #0]
			prvHeapInit();
		}

		/* The wanted size is increased so it can contain a xBlockLink
		structure in addition to the requested amount of bytes. */
		if( xWantedSize > 0 )
   822da:	2c00      	cmp	r4, #0
   822dc:	d02d      	beq.n	8233a <pvPortMalloc+0x96>
		{
			xWantedSize += heapSTRUCT_SIZE;
   822de:	f104 0210 	add.w	r2, r4, #16

			/* Ensure that blocks are always aligned to the required number of 
			bytes. */
			if( xWantedSize & portBYTE_ALIGNMENT_MASK )
   822e2:	f012 0f07 	tst.w	r2, #7
			{
				/* Byte alignment required. */
				xWantedSize += ( portBYTE_ALIGNMENT - ( xWantedSize & portBYTE_ALIGNMENT_MASK ) );
   822e6:	bf1c      	itt	ne
   822e8:	f022 0207 	bicne.w	r2, r2, #7
   822ec:	3208      	addne	r2, #8
			}
		}

		if( ( xWantedSize > 0 ) && ( xWantedSize < xTotalHeapSize ) )
   822ee:	1e51      	subs	r1, r2, #1
   822f0:	f647 73fe 	movw	r3, #32766	; 0x7ffe
   822f4:	4299      	cmp	r1, r3
   822f6:	d822      	bhi.n	8233e <pvPortMalloc+0x9a>
		{
			/* Traverse the list from the start	(lowest address) block until one
			of adequate size is found. */
			pxPreviousBlock = &xStart;
			pxBlock = xStart.pxNextFreeBlock;
   822f8:	4916      	ldr	r1, [pc, #88]	; (82354 <pvPortMalloc+0xb0>)
   822fa:	680c      	ldr	r4, [r1, #0]
			while( ( pxBlock->xBlockSize < xWantedSize ) && ( pxBlock->pxNextFreeBlock != NULL ) )
   822fc:	6863      	ldr	r3, [r4, #4]
   822fe:	429a      	cmp	r2, r3
   82300:	d904      	bls.n	8230c <pvPortMalloc+0x68>
   82302:	6823      	ldr	r3, [r4, #0]
   82304:	b113      	cbz	r3, 8230c <pvPortMalloc+0x68>
   82306:	4621      	mov	r1, r4
			{
				pxPreviousBlock = pxBlock;
				pxBlock = pxBlock->pxNextFreeBlock;
   82308:	461c      	mov	r4, r3
   8230a:	e7f7      	b.n	822fc <pvPortMalloc+0x58>
			}

			/* If the end marker was reached then a block of adequate size was
			not found. */
			if( pxBlock != pxEnd )
   8230c:	4b10      	ldr	r3, [pc, #64]	; (82350 <pvPortMalloc+0xac>)
   8230e:	681b      	ldr	r3, [r3, #0]
   82310:	429c      	cmp	r4, r3
   82312:	d016      	beq.n	82342 <pvPortMalloc+0x9e>
			{
				/* Return the memory space - jumping over the xBlockLink structure
				at its start. */
				pvReturn = ( void * ) ( ( ( unsigned char * ) pxPreviousBlock->pxNextFreeBlock ) + heapSTRUCT_SIZE );
   82314:	680d      	ldr	r5, [r1, #0]
   82316:	3510      	adds	r5, #16

				/* This block is being returned for use so must be taken out of
				the	list of free blocks. */
				pxPreviousBlock->pxNextFreeBlock = pxBlock->pxNextFreeBlock;
   82318:	6823      	ldr	r3, [r4, #0]
   8231a:	600b      	str	r3, [r1, #0]

				/* If the block is larger than required it can be split into two. */
				if( ( pxBlock->xBlockSize - xWantedSize ) > heapMINIMUM_BLOCK_SIZE )
   8231c:	6863      	ldr	r3, [r4, #4]
   8231e:	1a9b      	subs	r3, r3, r2
   82320:	2b20      	cmp	r3, #32
   82322:	d904      	bls.n	8232e <pvPortMalloc+0x8a>
				{
					/* This block is to be split into two.  Create a new block
					following the number of bytes requested. The void cast is
					used to prevent byte alignment warnings from the compiler. */
					pxNewBlockLink = ( void * ) ( ( ( unsigned char * ) pxBlock ) + xWantedSize );
   82324:	18a0      	adds	r0, r4, r2

					/* Calculate the sizes of two blocks split from the single
					block. */
					pxNewBlockLink->xBlockSize = pxBlock->xBlockSize - xWantedSize;
   82326:	6043      	str	r3, [r0, #4]
					pxBlock->xBlockSize = xWantedSize;
   82328:	6062      	str	r2, [r4, #4]

					/* Insert the new block into the list of free blocks. */
					prvInsertBlockIntoFreeList( ( pxNewBlockLink ) );
   8232a:	4b0d      	ldr	r3, [pc, #52]	; (82360 <pvPortMalloc+0xbc>)
   8232c:	4798      	blx	r3
				}

				xFreeBytesRemaining -= pxBlock->xBlockSize;
   8232e:	4b0b      	ldr	r3, [pc, #44]	; (8235c <pvPortMalloc+0xb8>)
   82330:	681a      	ldr	r2, [r3, #0]
   82332:	6861      	ldr	r1, [r4, #4]
   82334:	1a52      	subs	r2, r2, r1
   82336:	601a      	str	r2, [r3, #0]
   82338:	e004      	b.n	82344 <pvPortMalloc+0xa0>
/*-----------------------------------------------------------*/

void *pvPortMalloc( size_t xWantedSize )
{
xBlockLink *pxBlock, *pxPreviousBlock, *pxNewBlockLink;
void *pvReturn = NULL;
   8233a:	2500      	movs	r5, #0
   8233c:	e002      	b.n	82344 <pvPortMalloc+0xa0>
   8233e:	2500      	movs	r5, #0
   82340:	e000      	b.n	82344 <pvPortMalloc+0xa0>
   82342:	2500      	movs	r5, #0

				xFreeBytesRemaining -= pxBlock->xBlockSize;
			}
		}
	}
	xTaskResumeAll();
   82344:	4b07      	ldr	r3, [pc, #28]	; (82364 <pvPortMalloc+0xc0>)
   82346:	4798      	blx	r3
		}
	}
	#endif

	return pvReturn;
}
   82348:	4628      	mov	r0, r5
   8234a:	bd38      	pop	{r3, r4, r5, pc}
   8234c:	00082c81 	.word	0x00082c81
   82350:	20078ab8 	.word	0x20078ab8
   82354:	20078abc 	.word	0x20078abc
   82358:	20070ab8 	.word	0x20070ab8
   8235c:	20070174 	.word	0x20070174
   82360:	0008224d 	.word	0x0008224d
   82364:	00082ddd 	.word	0x00082ddd

00082368 <vPortFree>:
/*-----------------------------------------------------------*/

void vPortFree( void *pv )
{
   82368:	b510      	push	{r4, lr}
unsigned char *puc = ( unsigned char * ) pv;
xBlockLink *pxLink;

	if( pv != NULL )
   8236a:	4604      	mov	r4, r0
   8236c:	b168      	cbz	r0, 8238a <vPortFree+0x22>
		puc -= heapSTRUCT_SIZE;

		/* This casting is to keep the compiler from issuing warnings. */
		pxLink = ( void * ) puc;

		vTaskSuspendAll();
   8236e:	4b07      	ldr	r3, [pc, #28]	; (8238c <vPortFree+0x24>)
   82370:	4798      	blx	r3
		{
			/* Add this block to the list of free blocks. */
			xFreeBytesRemaining += pxLink->xBlockSize;
   82372:	4b07      	ldr	r3, [pc, #28]	; (82390 <vPortFree+0x28>)
   82374:	6819      	ldr	r1, [r3, #0]
   82376:	f854 2c0c 	ldr.w	r2, [r4, #-12]
   8237a:	440a      	add	r2, r1
   8237c:	601a      	str	r2, [r3, #0]
			prvInsertBlockIntoFreeList( ( ( xBlockLink * ) pxLink ) );			
   8237e:	f1a4 0010 	sub.w	r0, r4, #16
   82382:	4b04      	ldr	r3, [pc, #16]	; (82394 <vPortFree+0x2c>)
   82384:	4798      	blx	r3
		}
		xTaskResumeAll();
   82386:	4b04      	ldr	r3, [pc, #16]	; (82398 <vPortFree+0x30>)
   82388:	4798      	blx	r3
   8238a:	bd10      	pop	{r4, pc}
   8238c:	00082c81 	.word	0x00082c81
   82390:	20070174 	.word	0x20070174
   82394:	0008224d 	.word	0x0008224d
   82398:	00082ddd 	.word	0x00082ddd

0008239c <prvCopyDataToQueue>:

#endif
/*-----------------------------------------------------------*/

static void prvCopyDataToQueue( xQUEUE *pxQueue, const void *pvItemToQueue, portBASE_TYPE xPosition )
{
   8239c:	b510      	push	{r4, lr}
   8239e:	4604      	mov	r4, r0
	if( pxQueue->uxItemSize == ( unsigned portBASE_TYPE ) 0 )
   823a0:	6c03      	ldr	r3, [r0, #64]	; 0x40
   823a2:	b93b      	cbnz	r3, 823b4 <prvCopyDataToQueue+0x18>
	{
		#if ( configUSE_MUTEXES == 1 )
		{
			if( pxQueue->uxQueueType == queueQUEUE_IS_MUTEX )
   823a4:	6803      	ldr	r3, [r0, #0]
   823a6:	bb1b      	cbnz	r3, 823f0 <prvCopyDataToQueue+0x54>
			{
				/* The mutex is no longer being held. */
				vTaskPriorityDisinherit( ( void * ) pxQueue->pxMutexHolder );
   823a8:	6840      	ldr	r0, [r0, #4]
   823aa:	4b13      	ldr	r3, [pc, #76]	; (823f8 <prvCopyDataToQueue+0x5c>)
   823ac:	4798      	blx	r3
				pxQueue->pxMutexHolder = NULL;
   823ae:	2300      	movs	r3, #0
   823b0:	6063      	str	r3, [r4, #4]
   823b2:	e01d      	b.n	823f0 <prvCopyDataToQueue+0x54>
			}
		}
		#endif
	}
	else if( xPosition == queueSEND_TO_BACK )
   823b4:	b96a      	cbnz	r2, 823d2 <prvCopyDataToQueue+0x36>
	{
		memcpy( ( void * ) pxQueue->pcWriteTo, pvItemToQueue, ( unsigned ) pxQueue->uxItemSize );
   823b6:	6880      	ldr	r0, [r0, #8]
   823b8:	461a      	mov	r2, r3
   823ba:	4b10      	ldr	r3, [pc, #64]	; (823fc <prvCopyDataToQueue+0x60>)
   823bc:	4798      	blx	r3
		pxQueue->pcWriteTo += pxQueue->uxItemSize;
   823be:	68a2      	ldr	r2, [r4, #8]
   823c0:	6c23      	ldr	r3, [r4, #64]	; 0x40
   823c2:	4413      	add	r3, r2
   823c4:	60a3      	str	r3, [r4, #8]
		if( pxQueue->pcWriteTo >= pxQueue->pcTail )
   823c6:	6862      	ldr	r2, [r4, #4]
   823c8:	4293      	cmp	r3, r2
   823ca:	d311      	bcc.n	823f0 <prvCopyDataToQueue+0x54>
		{
			pxQueue->pcWriteTo = pxQueue->pcHead;
   823cc:	6823      	ldr	r3, [r4, #0]
   823ce:	60a3      	str	r3, [r4, #8]
   823d0:	e00e      	b.n	823f0 <prvCopyDataToQueue+0x54>
		}
	}
	else
	{
		memcpy( ( void * ) pxQueue->pcReadFrom, pvItemToQueue, ( unsigned ) pxQueue->uxItemSize );
   823d2:	68c0      	ldr	r0, [r0, #12]
   823d4:	461a      	mov	r2, r3
   823d6:	4b09      	ldr	r3, [pc, #36]	; (823fc <prvCopyDataToQueue+0x60>)
   823d8:	4798      	blx	r3
		pxQueue->pcReadFrom -= pxQueue->uxItemSize;
   823da:	6c22      	ldr	r2, [r4, #64]	; 0x40
   823dc:	4252      	negs	r2, r2
   823de:	68e3      	ldr	r3, [r4, #12]
   823e0:	4413      	add	r3, r2
   823e2:	60e3      	str	r3, [r4, #12]
		if( pxQueue->pcReadFrom < pxQueue->pcHead )
   823e4:	6821      	ldr	r1, [r4, #0]
   823e6:	428b      	cmp	r3, r1
   823e8:	d202      	bcs.n	823f0 <prvCopyDataToQueue+0x54>
		{
			pxQueue->pcReadFrom = ( pxQueue->pcTail - pxQueue->uxItemSize );
   823ea:	6863      	ldr	r3, [r4, #4]
   823ec:	441a      	add	r2, r3
   823ee:	60e2      	str	r2, [r4, #12]
		}
	}

	++( pxQueue->uxMessagesWaiting );
   823f0:	6ba3      	ldr	r3, [r4, #56]	; 0x38
   823f2:	3301      	adds	r3, #1
   823f4:	63a3      	str	r3, [r4, #56]	; 0x38
   823f6:	bd10      	pop	{r4, pc}
   823f8:	000833b9 	.word	0x000833b9
   823fc:	00085001 	.word	0x00085001

00082400 <prvCopyDataFromQueue>:
}
/*-----------------------------------------------------------*/

static void prvCopyDataFromQueue( xQUEUE * const pxQueue, const void *pvBuffer )
{
   82400:	b538      	push	{r3, r4, r5, lr}
   82402:	4603      	mov	r3, r0
	if( pxQueue->uxQueueType != queueQUEUE_IS_MUTEX )
   82404:	6805      	ldr	r5, [r0, #0]
   82406:	b15d      	cbz	r5, 82420 <prvCopyDataFromQueue+0x20>
	{
		pxQueue->pcReadFrom += pxQueue->uxItemSize;
   82408:	6c02      	ldr	r2, [r0, #64]	; 0x40
   8240a:	68c4      	ldr	r4, [r0, #12]
   8240c:	4414      	add	r4, r2
   8240e:	60c4      	str	r4, [r0, #12]
		if( pxQueue->pcReadFrom >= pxQueue->pcTail )
   82410:	6840      	ldr	r0, [r0, #4]
   82412:	4284      	cmp	r4, r0
		{
			pxQueue->pcReadFrom = pxQueue->pcHead;
   82414:	bf28      	it	cs
   82416:	60dd      	strcs	r5, [r3, #12]
		}
		memcpy( ( void * ) pvBuffer, ( void * ) pxQueue->pcReadFrom, ( unsigned ) pxQueue->uxItemSize );
   82418:	4608      	mov	r0, r1
   8241a:	68d9      	ldr	r1, [r3, #12]
   8241c:	4b01      	ldr	r3, [pc, #4]	; (82424 <prvCopyDataFromQueue+0x24>)
   8241e:	4798      	blx	r3
   82420:	bd38      	pop	{r3, r4, r5, pc}
   82422:	bf00      	nop
   82424:	00085001 	.word	0x00085001

00082428 <prvUnlockQueue>:
	}
}
/*-----------------------------------------------------------*/

static void prvUnlockQueue( xQueueHandle pxQueue )
{
   82428:	b5f8      	push	{r3, r4, r5, r6, r7, lr}
   8242a:	4604      	mov	r4, r0

	/* The lock counts contains the number of extra data items placed or
	removed from the queue while the queue was locked.  When a queue is
	locked items can be added or removed, but the event lists cannot be
	updated. */
	taskENTER_CRITICAL();
   8242c:	4b1d      	ldr	r3, [pc, #116]	; (824a4 <prvUnlockQueue+0x7c>)
   8242e:	4798      	blx	r3
	{
		/* See if data was added to the queue while it was locked. */
		while( pxQueue->xTxLock > queueLOCKED_UNMODIFIED )
   82430:	6ca3      	ldr	r3, [r4, #72]	; 0x48
   82432:	2b00      	cmp	r3, #0
   82434:	dd12      	ble.n	8245c <prvUnlockQueue+0x34>
		{
			/* Data was posted while the queue was locked.  Are any tasks
			blocked waiting for data to become available? */
			if( listLIST_IS_EMPTY( &( pxQueue->xTasksWaitingToReceive ) ) == pdFALSE )
   82436:	6a63      	ldr	r3, [r4, #36]	; 0x24
   82438:	b183      	cbz	r3, 8245c <prvUnlockQueue+0x34>
			{
				/* Tasks that are removed from the event list will get added to
				the pending ready list as the scheduler is still suspended. */
				if( xTaskRemoveFromEventList( &( pxQueue->xTasksWaitingToReceive ) ) != pdFALSE )
   8243a:	f104 0624 	add.w	r6, r4, #36	; 0x24
   8243e:	4d1a      	ldr	r5, [pc, #104]	; (824a8 <prvUnlockQueue+0x80>)
				{
					/* The task waiting has a higher priority so record that a
					context	switch is required. */
					vTaskMissedYield();
   82440:	4f1a      	ldr	r7, [pc, #104]	; (824ac <prvUnlockQueue+0x84>)
   82442:	e001      	b.n	82448 <prvUnlockQueue+0x20>
		/* See if data was added to the queue while it was locked. */
		while( pxQueue->xTxLock > queueLOCKED_UNMODIFIED )
		{
			/* Data was posted while the queue was locked.  Are any tasks
			blocked waiting for data to become available? */
			if( listLIST_IS_EMPTY( &( pxQueue->xTasksWaitingToReceive ) ) == pdFALSE )
   82444:	6a63      	ldr	r3, [r4, #36]	; 0x24
   82446:	b14b      	cbz	r3, 8245c <prvUnlockQueue+0x34>
			{
				/* Tasks that are removed from the event list will get added to
				the pending ready list as the scheduler is still suspended. */
				if( xTaskRemoveFromEventList( &( pxQueue->xTasksWaitingToReceive ) ) != pdFALSE )
   82448:	4630      	mov	r0, r6
   8244a:	47a8      	blx	r5
   8244c:	b100      	cbz	r0, 82450 <prvUnlockQueue+0x28>
				{
					/* The task waiting has a higher priority so record that a
					context	switch is required. */
					vTaskMissedYield();
   8244e:	47b8      	blx	r7
				}

				--( pxQueue->xTxLock );
   82450:	6ca3      	ldr	r3, [r4, #72]	; 0x48
   82452:	3b01      	subs	r3, #1
   82454:	64a3      	str	r3, [r4, #72]	; 0x48
	locked items can be added or removed, but the event lists cannot be
	updated. */
	taskENTER_CRITICAL();
	{
		/* See if data was added to the queue while it was locked. */
		while( pxQueue->xTxLock > queueLOCKED_UNMODIFIED )
   82456:	6ca3      	ldr	r3, [r4, #72]	; 0x48
   82458:	2b00      	cmp	r3, #0
   8245a:	dcf3      	bgt.n	82444 <prvUnlockQueue+0x1c>
			{
				break;
			}
		}

		pxQueue->xTxLock = queueUNLOCKED;
   8245c:	f04f 33ff 	mov.w	r3, #4294967295
   82460:	64a3      	str	r3, [r4, #72]	; 0x48
	}
	taskEXIT_CRITICAL();
   82462:	4b13      	ldr	r3, [pc, #76]	; (824b0 <prvUnlockQueue+0x88>)
   82464:	4798      	blx	r3

	/* Do the same for the Rx lock. */
	taskENTER_CRITICAL();
   82466:	4b0f      	ldr	r3, [pc, #60]	; (824a4 <prvUnlockQueue+0x7c>)
   82468:	4798      	blx	r3
	{
		while( pxQueue->xRxLock > queueLOCKED_UNMODIFIED )
   8246a:	6c63      	ldr	r3, [r4, #68]	; 0x44
   8246c:	2b00      	cmp	r3, #0
   8246e:	dd12      	ble.n	82496 <prvUnlockQueue+0x6e>
		{
			if( listLIST_IS_EMPTY( &( pxQueue->xTasksWaitingToSend ) ) == pdFALSE )
   82470:	6923      	ldr	r3, [r4, #16]
   82472:	b183      	cbz	r3, 82496 <prvUnlockQueue+0x6e>
			{
				if( xTaskRemoveFromEventList( &( pxQueue->xTasksWaitingToSend ) ) != pdFALSE )
   82474:	f104 0610 	add.w	r6, r4, #16
   82478:	4d0b      	ldr	r5, [pc, #44]	; (824a8 <prvUnlockQueue+0x80>)
				{
					vTaskMissedYield();
   8247a:	4f0c      	ldr	r7, [pc, #48]	; (824ac <prvUnlockQueue+0x84>)
   8247c:	e001      	b.n	82482 <prvUnlockQueue+0x5a>
	/* Do the same for the Rx lock. */
	taskENTER_CRITICAL();
	{
		while( pxQueue->xRxLock > queueLOCKED_UNMODIFIED )
		{
			if( listLIST_IS_EMPTY( &( pxQueue->xTasksWaitingToSend ) ) == pdFALSE )
   8247e:	6923      	ldr	r3, [r4, #16]
   82480:	b14b      	cbz	r3, 82496 <prvUnlockQueue+0x6e>
			{
				if( xTaskRemoveFromEventList( &( pxQueue->xTasksWaitingToSend ) ) != pdFALSE )
   82482:	4630      	mov	r0, r6
   82484:	47a8      	blx	r5
   82486:	b100      	cbz	r0, 8248a <prvUnlockQueue+0x62>
				{
					vTaskMissedYield();
   82488:	47b8      	blx	r7
				}

				--( pxQueue->xRxLock );
   8248a:	6c63      	ldr	r3, [r4, #68]	; 0x44
   8248c:	3b01      	subs	r3, #1
   8248e:	6463      	str	r3, [r4, #68]	; 0x44
	taskEXIT_CRITICAL();

	/* Do the same for the Rx lock. */
	taskENTER_CRITICAL();
	{
		while( pxQueue->xRxLock > queueLOCKED_UNMODIFIED )
   82490:	6c63      	ldr	r3, [r4, #68]	; 0x44
   82492:	2b00      	cmp	r3, #0
   82494:	dcf3      	bgt.n	8247e <prvUnlockQueue+0x56>
			{
				break;
			}
		}

		pxQueue->xRxLock = queueUNLOCKED;
   82496:	f04f 33ff 	mov.w	r3, #4294967295
   8249a:	6463      	str	r3, [r4, #68]	; 0x44
	}
	taskEXIT_CRITICAL();
   8249c:	4b04      	ldr	r3, [pc, #16]	; (824b0 <prvUnlockQueue+0x88>)
   8249e:	4798      	blx	r3
   824a0:	bdf8      	pop	{r3, r4, r5, r6, r7, pc}
   824a2:	bf00      	nop
   824a4:	00082159 	.word	0x00082159
   824a8:	000831cd 	.word	0x000831cd
   824ac:	00083305 	.word	0x00083305
   824b0:	00082179 	.word	0x00082179

000824b4 <xQueueGenericReset>:
/*-----------------------------------------------------------
 * PUBLIC QUEUE MANAGEMENT API documented in queue.h
 *----------------------------------------------------------*/

portBASE_TYPE xQueueGenericReset( xQueueHandle pxQueue, portBASE_TYPE xNewQueue )
{
   824b4:	b538      	push	{r3, r4, r5, lr}
   824b6:	460d      	mov	r5, r1
	configASSERT( pxQueue );
   824b8:	4604      	mov	r4, r0
   824ba:	b918      	cbnz	r0, 824c4 <xQueueGenericReset+0x10>
   824bc:	4b16      	ldr	r3, [pc, #88]	; (82518 <xQueueGenericReset+0x64>)
   824be:	4798      	blx	r3
   824c0:	bf00      	nop
   824c2:	e7fd      	b.n	824c0 <xQueueGenericReset+0xc>

	taskENTER_CRITICAL();
   824c4:	4b15      	ldr	r3, [pc, #84]	; (8251c <xQueueGenericReset+0x68>)
   824c6:	4798      	blx	r3
	{
		pxQueue->pcTail = pxQueue->pcHead + ( pxQueue->uxLength * pxQueue->uxItemSize );
   824c8:	6823      	ldr	r3, [r4, #0]
   824ca:	6c22      	ldr	r2, [r4, #64]	; 0x40
   824cc:	6be0      	ldr	r0, [r4, #60]	; 0x3c
   824ce:	fb00 f002 	mul.w	r0, r0, r2
   824d2:	1819      	adds	r1, r3, r0
   824d4:	6061      	str	r1, [r4, #4]
		pxQueue->uxMessagesWaiting = ( unsigned portBASE_TYPE ) 0U;
   824d6:	2100      	movs	r1, #0
   824d8:	63a1      	str	r1, [r4, #56]	; 0x38
		pxQueue->pcWriteTo = pxQueue->pcHead;
   824da:	60a3      	str	r3, [r4, #8]
		pxQueue->pcReadFrom = pxQueue->pcHead + ( ( pxQueue->uxLength - ( unsigned portBASE_TYPE ) 1U ) * pxQueue->uxItemSize );
   824dc:	1a82      	subs	r2, r0, r2
   824de:	4413      	add	r3, r2
   824e0:	60e3      	str	r3, [r4, #12]
		pxQueue->xRxLock = queueUNLOCKED;
   824e2:	f04f 33ff 	mov.w	r3, #4294967295
   824e6:	6463      	str	r3, [r4, #68]	; 0x44
		pxQueue->xTxLock = queueUNLOCKED;
   824e8:	64a3      	str	r3, [r4, #72]	; 0x48

		if( xNewQueue == pdFALSE )
   824ea:	b955      	cbnz	r5, 82502 <xQueueGenericReset+0x4e>
			/* If there are tasks blocked waiting to read from the queue, then
			the tasks will remain blocked as after this function exits the queue
			will still be empty.  If there are tasks blocked waiting to	write to
			the queue, then one should be unblocked as after this function exits
			it will be possible to write to it. */
			if( listLIST_IS_EMPTY( &( pxQueue->xTasksWaitingToSend ) ) == pdFALSE )
   824ec:	6923      	ldr	r3, [r4, #16]
   824ee:	b17b      	cbz	r3, 82510 <xQueueGenericReset+0x5c>
			{
				if( xTaskRemoveFromEventList( &( pxQueue->xTasksWaitingToSend ) ) == pdTRUE )
   824f0:	f104 0010 	add.w	r0, r4, #16
   824f4:	4b0a      	ldr	r3, [pc, #40]	; (82520 <xQueueGenericReset+0x6c>)
   824f6:	4798      	blx	r3
   824f8:	2801      	cmp	r0, #1
   824fa:	d109      	bne.n	82510 <xQueueGenericReset+0x5c>
				{
					portYIELD_WITHIN_API();
   824fc:	4b09      	ldr	r3, [pc, #36]	; (82524 <xQueueGenericReset+0x70>)
   824fe:	4798      	blx	r3
   82500:	e006      	b.n	82510 <xQueueGenericReset+0x5c>
			}
		}
		else
		{
			/* Ensure the event queues start in the correct state. */
			vListInitialise( &( pxQueue->xTasksWaitingToSend ) );
   82502:	f104 0010 	add.w	r0, r4, #16
   82506:	4d08      	ldr	r5, [pc, #32]	; (82528 <xQueueGenericReset+0x74>)
   82508:	47a8      	blx	r5
			vListInitialise( &( pxQueue->xTasksWaitingToReceive ) );
   8250a:	f104 0024 	add.w	r0, r4, #36	; 0x24
   8250e:	47a8      	blx	r5
		}
	}
	taskEXIT_CRITICAL();
   82510:	4b06      	ldr	r3, [pc, #24]	; (8252c <xQueueGenericReset+0x78>)
   82512:	4798      	blx	r3

	/* A value is returned for calling semantic consistency with previous
	versions. */
	return pdPASS;
}
   82514:	2001      	movs	r0, #1
   82516:	bd38      	pop	{r3, r4, r5, pc}
   82518:	00082149 	.word	0x00082149
   8251c:	00082159 	.word	0x00082159
   82520:	000831cd 	.word	0x000831cd
   82524:	00082139 	.word	0x00082139
   82528:	00082041 	.word	0x00082041
   8252c:	00082179 	.word	0x00082179

00082530 <xQueueGenericCreate>:
/*-----------------------------------------------------------*/

xQueueHandle xQueueGenericCreate( unsigned portBASE_TYPE uxQueueLength, unsigned portBASE_TYPE uxItemSize, unsigned char ucQueueType )
{
   82530:	b5f8      	push	{r3, r4, r5, r6, r7, lr}
   82532:	460d      	mov	r5, r1
   82534:	4617      	mov	r7, r2
	/* Remove compiler warnings about unused parameters should
	configUSE_TRACE_FACILITY not be set to 1. */
	( void ) ucQueueType;

	/* Allocate the new queue structure. */
	if( uxQueueLength > ( unsigned portBASE_TYPE ) 0 )
   82536:	4606      	mov	r6, r0
   82538:	b188      	cbz	r0, 8255e <xQueueGenericCreate+0x2e>
	{
		pxNewQueue = ( xQUEUE * ) pvPortMalloc( sizeof( xQUEUE ) );
   8253a:	2050      	movs	r0, #80	; 0x50
   8253c:	4b0e      	ldr	r3, [pc, #56]	; (82578 <xQueueGenericCreate+0x48>)
   8253e:	4798      	blx	r3
		if( pxNewQueue != NULL )
   82540:	4604      	mov	r4, r0
   82542:	b160      	cbz	r0, 8255e <xQueueGenericCreate+0x2e>
		{
			/* Create the list of pointers to queue items.  The queue is one byte
			longer than asked for to make wrap checking easier/faster. */
			xQueueSizeInBytes = ( size_t ) ( uxQueueLength * uxItemSize ) + ( size_t ) 1;
   82544:	fb05 f006 	mul.w	r0, r5, r6

			pxNewQueue->pcHead = ( signed char * ) pvPortMalloc( xQueueSizeInBytes );
   82548:	3001      	adds	r0, #1
   8254a:	4b0b      	ldr	r3, [pc, #44]	; (82578 <xQueueGenericCreate+0x48>)
   8254c:	4798      	blx	r3
   8254e:	6020      	str	r0, [r4, #0]
			if( pxNewQueue->pcHead != NULL )
   82550:	b940      	cbnz	r0, 82564 <xQueueGenericCreate+0x34>
				xReturn = pxNewQueue;
			}
			else
			{
				traceQUEUE_CREATE_FAILED( ucQueueType );
				vPortFree( pxNewQueue );
   82552:	4620      	mov	r0, r4
   82554:	4b09      	ldr	r3, [pc, #36]	; (8257c <xQueueGenericCreate+0x4c>)
   82556:	4798      	blx	r3
   82558:	e001      	b.n	8255e <xQueueGenericCreate+0x2e>
			}
		}
	}

	configASSERT( xReturn );
   8255a:	bf00      	nop
   8255c:	e7fd      	b.n	8255a <xQueueGenericCreate+0x2a>
   8255e:	4b08      	ldr	r3, [pc, #32]	; (82580 <xQueueGenericCreate+0x50>)
   82560:	4798      	blx	r3
   82562:	e7fa      	b.n	8255a <xQueueGenericCreate+0x2a>
			pxNewQueue->pcHead = ( signed char * ) pvPortMalloc( xQueueSizeInBytes );
			if( pxNewQueue->pcHead != NULL )
			{
				/* Initialise the queue members as described above where the
				queue type is defined. */
				pxNewQueue->uxLength = uxQueueLength;
   82564:	63e6      	str	r6, [r4, #60]	; 0x3c
				pxNewQueue->uxItemSize = uxItemSize;
   82566:	6425      	str	r5, [r4, #64]	; 0x40
				xQueueGenericReset( pxNewQueue, pdTRUE );
   82568:	4620      	mov	r0, r4
   8256a:	2101      	movs	r1, #1
   8256c:	4b05      	ldr	r3, [pc, #20]	; (82584 <xQueueGenericCreate+0x54>)
   8256e:	4798      	blx	r3
				#if ( configUSE_TRACE_FACILITY == 1 )
				{
					pxNewQueue->ucQueueType = ucQueueType;
   82570:	f884 704d 	strb.w	r7, [r4, #77]	; 0x4d
	}

	configASSERT( xReturn );

	return xReturn;
}
   82574:	4620      	mov	r0, r4
   82576:	bdf8      	pop	{r3, r4, r5, r6, r7, pc}
   82578:	000822a5 	.word	0x000822a5
   8257c:	00082369 	.word	0x00082369
   82580:	00082149 	.word	0x00082149
   82584:	000824b5 	.word	0x000824b5

00082588 <xQueueGenericSend>:

#endif /* configUSE_COUNTING_SEMAPHORES */
/*-----------------------------------------------------------*/

signed portBASE_TYPE xQueueGenericSend( xQueueHandle pxQueue, const void * const pvItemToQueue, portTickType xTicksToWait, portBASE_TYPE xCopyPosition )
{
   82588:	e92d 4ff0 	stmdb	sp!, {r4, r5, r6, r7, r8, r9, sl, fp, lr}
   8258c:	b085      	sub	sp, #20
   8258e:	468a      	mov	sl, r1
   82590:	469b      	mov	fp, r3
   82592:	f8ad 2006 	strh.w	r2, [sp, #6]
signed portBASE_TYPE xEntryTimeSet = pdFALSE;
xTimeOutType xTimeOut;

	configASSERT( pxQueue );
   82596:	4604      	mov	r4, r0
   82598:	b918      	cbnz	r0, 825a2 <xQueueGenericSend+0x1a>
   8259a:	4b38      	ldr	r3, [pc, #224]	; (8267c <xQueueGenericSend+0xf4>)
   8259c:	4798      	blx	r3
   8259e:	bf00      	nop
   825a0:	e7fd      	b.n	8259e <xQueueGenericSend+0x16>
	configASSERT( !( ( pvItemToQueue == NULL ) && ( pxQueue->uxItemSize != ( unsigned portBASE_TYPE ) 0U ) ) );
   825a2:	b909      	cbnz	r1, 825a8 <xQueueGenericSend+0x20>
   825a4:	6c03      	ldr	r3, [r0, #64]	; 0x40
   825a6:	b91b      	cbnz	r3, 825b0 <xQueueGenericSend+0x28>

#endif /* configUSE_COUNTING_SEMAPHORES */
/*-----------------------------------------------------------*/

signed portBASE_TYPE xQueueGenericSend( xQueueHandle pxQueue, const void * const pvItemToQueue, portTickType xTicksToWait, portBASE_TYPE xCopyPosition )
{
   825a8:	2700      	movs	r7, #0
	/* This function relaxes the coding standard somewhat to allow return
	statements within the function itself.  This is done in the interest
	of execution time efficiency. */
	for( ;; )
	{
		taskENTER_CRITICAL();
   825aa:	4e35      	ldr	r6, [pc, #212]	; (82680 <xQueueGenericSend+0xf8>)
					vTaskSetTimeOutState( &xTimeOut );
					xEntryTimeSet = pdTRUE;
				}
			}
		}
		taskEXIT_CRITICAL();
   825ac:	4d35      	ldr	r5, [pc, #212]	; (82684 <xQueueGenericSend+0xfc>)
   825ae:	e003      	b.n	825b8 <xQueueGenericSend+0x30>
{
signed portBASE_TYPE xEntryTimeSet = pdFALSE;
xTimeOutType xTimeOut;

	configASSERT( pxQueue );
	configASSERT( !( ( pvItemToQueue == NULL ) && ( pxQueue->uxItemSize != ( unsigned portBASE_TYPE ) 0U ) ) );
   825b0:	4b32      	ldr	r3, [pc, #200]	; (8267c <xQueueGenericSend+0xf4>)
   825b2:	4798      	blx	r3
   825b4:	bf00      	nop
   825b6:	e7fd      	b.n	825b4 <xQueueGenericSend+0x2c>
	/* This function relaxes the coding standard somewhat to allow return
	statements within the function itself.  This is done in the interest
	of execution time efficiency. */
	for( ;; )
	{
		taskENTER_CRITICAL();
   825b8:	47b0      	blx	r6
		{
			/* Is there room on the queue now?  To be running we must be
			the highest priority task wanting to access the queue. */
			if( pxQueue->uxMessagesWaiting < pxQueue->uxLength )
   825ba:	6ba2      	ldr	r2, [r4, #56]	; 0x38
   825bc:	6be3      	ldr	r3, [r4, #60]	; 0x3c
   825be:	429a      	cmp	r2, r3
   825c0:	d212      	bcs.n	825e8 <xQueueGenericSend+0x60>
			{
				traceQUEUE_SEND( pxQueue );
				prvCopyDataToQueue( pxQueue, pvItemToQueue, xCopyPosition );
   825c2:	4620      	mov	r0, r4
   825c4:	4651      	mov	r1, sl
   825c6:	465a      	mov	r2, fp
   825c8:	4b2f      	ldr	r3, [pc, #188]	; (82688 <xQueueGenericSend+0x100>)
   825ca:	4798      	blx	r3

				/* If there was a task waiting for data to arrive on the
				queue then unblock it now. */
				if( listLIST_IS_EMPTY( &( pxQueue->xTasksWaitingToReceive ) ) == pdFALSE )
   825cc:	6a63      	ldr	r3, [r4, #36]	; 0x24
   825ce:	b13b      	cbz	r3, 825e0 <xQueueGenericSend+0x58>
				{
					if( xTaskRemoveFromEventList( &( pxQueue->xTasksWaitingToReceive ) ) == pdTRUE )
   825d0:	f104 0024 	add.w	r0, r4, #36	; 0x24
   825d4:	4b2d      	ldr	r3, [pc, #180]	; (8268c <xQueueGenericSend+0x104>)
   825d6:	4798      	blx	r3
   825d8:	2801      	cmp	r0, #1
   825da:	d101      	bne.n	825e0 <xQueueGenericSend+0x58>
					{
						/* The unblocked task has a priority higher than
						our own so yield immediately.  Yes it is ok to do
						this from within the critical section - the kernel
						takes care of that. */
						portYIELD_WITHIN_API();
   825dc:	4b2c      	ldr	r3, [pc, #176]	; (82690 <xQueueGenericSend+0x108>)
   825de:	4798      	blx	r3
					}
				}

				taskEXIT_CRITICAL();
   825e0:	4b28      	ldr	r3, [pc, #160]	; (82684 <xQueueGenericSend+0xfc>)
   825e2:	4798      	blx	r3

				/* Return to the original privilege level before exiting the
				function. */
				return pdPASS;
   825e4:	2001      	movs	r0, #1
   825e6:	e046      	b.n	82676 <xQueueGenericSend+0xee>
			}
			else
			{
				if( xTicksToWait == ( portTickType ) 0 )
   825e8:	f8bd 3006 	ldrh.w	r3, [sp, #6]
   825ec:	b91b      	cbnz	r3, 825f6 <xQueueGenericSend+0x6e>
				{
					/* The queue was full and no block time is specified (or
					the block time has expired) so leave now. */
					taskEXIT_CRITICAL();
   825ee:	4b25      	ldr	r3, [pc, #148]	; (82684 <xQueueGenericSend+0xfc>)
   825f0:	4798      	blx	r3

					/* Return to the original privilege level before exiting
					the function. */
					traceQUEUE_SEND_FAILED( pxQueue );
					return errQUEUE_FULL;
   825f2:	2000      	movs	r0, #0
   825f4:	e03f      	b.n	82676 <xQueueGenericSend+0xee>
				}
				else if( xEntryTimeSet == pdFALSE )
   825f6:	b91f      	cbnz	r7, 82600 <xQueueGenericSend+0x78>
				{
					/* The queue was full and a block time was specified so
					configure the timeout structure. */
					vTaskSetTimeOutState( &xTimeOut );
   825f8:	a802      	add	r0, sp, #8
   825fa:	4b26      	ldr	r3, [pc, #152]	; (82694 <xQueueGenericSend+0x10c>)
   825fc:	4798      	blx	r3
					xEntryTimeSet = pdTRUE;
   825fe:	2701      	movs	r7, #1
				}
			}
		}
		taskEXIT_CRITICAL();
   82600:	47a8      	blx	r5

		/* Interrupts and other tasks can send to and receive from the queue
		now the critical section has been exited. */

		vTaskSuspendAll();
   82602:	4b25      	ldr	r3, [pc, #148]	; (82698 <xQueueGenericSend+0x110>)
   82604:	4798      	blx	r3
		prvLockQueue( pxQueue );
   82606:	47b0      	blx	r6
   82608:	6c63      	ldr	r3, [r4, #68]	; 0x44
   8260a:	f1b3 3fff 	cmp.w	r3, #4294967295
   8260e:	bf04      	itt	eq
   82610:	2300      	moveq	r3, #0
   82612:	6463      	streq	r3, [r4, #68]	; 0x44
   82614:	6ca3      	ldr	r3, [r4, #72]	; 0x48
   82616:	f1b3 3fff 	cmp.w	r3, #4294967295
   8261a:	bf04      	itt	eq
   8261c:	2300      	moveq	r3, #0
   8261e:	64a3      	streq	r3, [r4, #72]	; 0x48
   82620:	47a8      	blx	r5

		/* Update the timeout state to see if it has expired yet. */
		if( xTaskCheckForTimeOut( &xTimeOut, &xTicksToWait ) == pdFALSE )
   82622:	a802      	add	r0, sp, #8
   82624:	f10d 0106 	add.w	r1, sp, #6
   82628:	4b1c      	ldr	r3, [pc, #112]	; (8269c <xQueueGenericSend+0x114>)
   8262a:	4798      	blx	r3
   8262c:	b9e8      	cbnz	r0, 8266a <xQueueGenericSend+0xe2>

static signed portBASE_TYPE prvIsQueueFull( const xQueueHandle pxQueue )
{
signed portBASE_TYPE xReturn;

	taskENTER_CRITICAL();
   8262e:	47b0      	blx	r6
		xReturn = ( pxQueue->uxMessagesWaiting == pxQueue->uxLength );
   82630:	f8d4 9038 	ldr.w	r9, [r4, #56]	; 0x38
   82634:	f8d4 803c 	ldr.w	r8, [r4, #60]	; 0x3c
	taskEXIT_CRITICAL();
   82638:	47a8      	blx	r5
		prvLockQueue( pxQueue );

		/* Update the timeout state to see if it has expired yet. */
		if( xTaskCheckForTimeOut( &xTimeOut, &xTicksToWait ) == pdFALSE )
		{
			if( prvIsQueueFull( pxQueue ) != pdFALSE )
   8263a:	45c1      	cmp	r9, r8
   8263c:	d10f      	bne.n	8265e <xQueueGenericSend+0xd6>
			{
				traceBLOCKING_ON_QUEUE_SEND( pxQueue );
				vTaskPlaceOnEventList( &( pxQueue->xTasksWaitingToSend ), xTicksToWait );
   8263e:	f104 0010 	add.w	r0, r4, #16
   82642:	f8bd 1006 	ldrh.w	r1, [sp, #6]
   82646:	4b16      	ldr	r3, [pc, #88]	; (826a0 <xQueueGenericSend+0x118>)
   82648:	4798      	blx	r3
				/* Unlocking the queue means queue events can effect the
				event list.  It is possible	that interrupts occurring now
				remove this task from the event	list again - but as the
				scheduler is suspended the task will go onto the pending
				ready last instead of the actual ready list. */
				prvUnlockQueue( pxQueue );
   8264a:	4620      	mov	r0, r4
   8264c:	4b15      	ldr	r3, [pc, #84]	; (826a4 <xQueueGenericSend+0x11c>)
   8264e:	4798      	blx	r3
				/* Resuming the scheduler will move tasks from the pending
				ready list into the ready list - so it is feasible that this
				task is already in a ready list before it yields - in which
				case the yield will not cause a context switch unless there
				is also a higher priority task in the pending ready list. */
				if( xTaskResumeAll() == pdFALSE )
   82650:	4b15      	ldr	r3, [pc, #84]	; (826a8 <xQueueGenericSend+0x120>)
   82652:	4798      	blx	r3
   82654:	2800      	cmp	r0, #0
   82656:	d1af      	bne.n	825b8 <xQueueGenericSend+0x30>
				{
					portYIELD_WITHIN_API();
   82658:	4b0d      	ldr	r3, [pc, #52]	; (82690 <xQueueGenericSend+0x108>)
   8265a:	4798      	blx	r3
   8265c:	e7ac      	b.n	825b8 <xQueueGenericSend+0x30>
				}
			}
			else
			{
				/* Try again. */
				prvUnlockQueue( pxQueue );
   8265e:	4620      	mov	r0, r4
   82660:	4b10      	ldr	r3, [pc, #64]	; (826a4 <xQueueGenericSend+0x11c>)
   82662:	4798      	blx	r3
				( void ) xTaskResumeAll();
   82664:	4b10      	ldr	r3, [pc, #64]	; (826a8 <xQueueGenericSend+0x120>)
   82666:	4798      	blx	r3
   82668:	e7a6      	b.n	825b8 <xQueueGenericSend+0x30>
			}
		}
		else
		{
			/* The timeout has expired. */
			prvUnlockQueue( pxQueue );
   8266a:	4620      	mov	r0, r4
   8266c:	4b0d      	ldr	r3, [pc, #52]	; (826a4 <xQueueGenericSend+0x11c>)
   8266e:	4798      	blx	r3
			( void ) xTaskResumeAll();
   82670:	4b0d      	ldr	r3, [pc, #52]	; (826a8 <xQueueGenericSend+0x120>)
   82672:	4798      	blx	r3

			/* Return to the original privilege level before exiting the
			function. */
			traceQUEUE_SEND_FAILED( pxQueue );
			return errQUEUE_FULL;
   82674:	2000      	movs	r0, #0
		}
	}
}
   82676:	b005      	add	sp, #20
   82678:	e8bd 8ff0 	ldmia.w	sp!, {r4, r5, r6, r7, r8, r9, sl, fp, pc}
   8267c:	00082149 	.word	0x00082149
   82680:	00082159 	.word	0x00082159
   82684:	00082179 	.word	0x00082179
   82688:	0008239d 	.word	0x0008239d
   8268c:	000831cd 	.word	0x000831cd
   82690:	00082139 	.word	0x00082139
   82694:	00083251 	.word	0x00083251
   82698:	00082c81 	.word	0x00082c81
   8269c:	00083279 	.word	0x00083279
   826a0:	00083121 	.word	0x00083121
   826a4:	00082429 	.word	0x00082429
   826a8:	00082ddd 	.word	0x00082ddd

000826ac <xQueueGenericSendFromISR>:

#endif /* configUSE_ALTERNATIVE_API */
/*-----------------------------------------------------------*/

signed portBASE_TYPE xQueueGenericSendFromISR( xQueueHandle pxQueue, const void * const pvItemToQueue, signed portBASE_TYPE *pxHigherPriorityTaskWoken, portBASE_TYPE xCopyPosition )
{
   826ac:	e92d 41f0 	stmdb	sp!, {r4, r5, r6, r7, r8, lr}
   826b0:	460e      	mov	r6, r1
   826b2:	4615      	mov	r5, r2
   826b4:	4698      	mov	r8, r3
signed portBASE_TYPE xReturn;
unsigned portBASE_TYPE uxSavedInterruptStatus;

	configASSERT( pxQueue );
   826b6:	4604      	mov	r4, r0
   826b8:	b918      	cbnz	r0, 826c2 <xQueueGenericSendFromISR+0x16>
   826ba:	4b1c      	ldr	r3, [pc, #112]	; (8272c <xQueueGenericSendFromISR+0x80>)
   826bc:	4798      	blx	r3
   826be:	bf00      	nop
   826c0:	e7fd      	b.n	826be <xQueueGenericSendFromISR+0x12>
	configASSERT( !( ( pvItemToQueue == NULL ) && ( pxQueue->uxItemSize != ( unsigned portBASE_TYPE ) 0U ) ) );
   826c2:	b929      	cbnz	r1, 826d0 <xQueueGenericSendFromISR+0x24>
   826c4:	6c03      	ldr	r3, [r0, #64]	; 0x40
   826c6:	b11b      	cbz	r3, 826d0 <xQueueGenericSendFromISR+0x24>
   826c8:	4b18      	ldr	r3, [pc, #96]	; (8272c <xQueueGenericSendFromISR+0x80>)
   826ca:	4798      	blx	r3
   826cc:	bf00      	nop
   826ce:	e7fd      	b.n	826cc <xQueueGenericSendFromISR+0x20>
	/* Similar to xQueueGenericSend, except we don't block if there is no room
	in the queue.  Also we don't directly wake a task that was blocked on a
	queue read, instead we return a flag to say whether a context switch is
	required or not (i.e. has a task with a higher priority than us been woken
	by this	post). */
	uxSavedInterruptStatus = portSET_INTERRUPT_MASK_FROM_ISR();
   826d0:	4b16      	ldr	r3, [pc, #88]	; (8272c <xQueueGenericSendFromISR+0x80>)
   826d2:	4798      	blx	r3
   826d4:	4607      	mov	r7, r0
	{
		if( pxQueue->uxMessagesWaiting < pxQueue->uxLength )
   826d6:	6ba2      	ldr	r2, [r4, #56]	; 0x38
   826d8:	6be3      	ldr	r3, [r4, #60]	; 0x3c
   826da:	429a      	cmp	r2, r3
   826dc:	d218      	bcs.n	82710 <xQueueGenericSendFromISR+0x64>
		{
			traceQUEUE_SEND_FROM_ISR( pxQueue );

			prvCopyDataToQueue( pxQueue, pvItemToQueue, xCopyPosition );
   826de:	4620      	mov	r0, r4
   826e0:	4631      	mov	r1, r6
   826e2:	4642      	mov	r2, r8
   826e4:	4b12      	ldr	r3, [pc, #72]	; (82730 <xQueueGenericSendFromISR+0x84>)
   826e6:	4798      	blx	r3

			/* If the queue is locked we do not alter the event list.  This will
			be done when the queue is unlocked later. */
			if( pxQueue->xTxLock == queueUNLOCKED )
   826e8:	6ca3      	ldr	r3, [r4, #72]	; 0x48
   826ea:	f1b3 3fff 	cmp.w	r3, #4294967295
   826ee:	d10a      	bne.n	82706 <xQueueGenericSendFromISR+0x5a>
			{
				if( listLIST_IS_EMPTY( &( pxQueue->xTasksWaitingToReceive ) ) == pdFALSE )
   826f0:	6a63      	ldr	r3, [r4, #36]	; 0x24
   826f2:	b17b      	cbz	r3, 82714 <xQueueGenericSendFromISR+0x68>
				{
					if( xTaskRemoveFromEventList( &( pxQueue->xTasksWaitingToReceive ) ) != pdFALSE )
   826f4:	f104 0024 	add.w	r0, r4, #36	; 0x24
   826f8:	4b0e      	ldr	r3, [pc, #56]	; (82734 <xQueueGenericSendFromISR+0x88>)
   826fa:	4798      	blx	r3
   826fc:	b160      	cbz	r0, 82718 <xQueueGenericSendFromISR+0x6c>
					{
						/* The task waiting has a higher priority so record that a
						context	switch is required. */
						if( pxHigherPriorityTaskWoken != NULL )
   826fe:	b16d      	cbz	r5, 8271c <xQueueGenericSendFromISR+0x70>
						{
							*pxHigherPriorityTaskWoken = pdTRUE;
   82700:	2401      	movs	r4, #1
   82702:	602c      	str	r4, [r5, #0]
   82704:	e00b      	b.n	8271e <xQueueGenericSendFromISR+0x72>
			}
			else
			{
				/* Increment the lock count so the task that unlocks the queue
				knows that data was posted while it was locked. */
				++( pxQueue->xTxLock );
   82706:	6ca3      	ldr	r3, [r4, #72]	; 0x48
   82708:	3301      	adds	r3, #1
   8270a:	64a3      	str	r3, [r4, #72]	; 0x48
			}

			xReturn = pdPASS;
   8270c:	2401      	movs	r4, #1
   8270e:	e006      	b.n	8271e <xQueueGenericSendFromISR+0x72>
		}
		else
		{
			traceQUEUE_SEND_FROM_ISR_FAILED( pxQueue );
			xReturn = errQUEUE_FULL;
   82710:	2400      	movs	r4, #0
   82712:	e004      	b.n	8271e <xQueueGenericSendFromISR+0x72>
				/* Increment the lock count so the task that unlocks the queue
				knows that data was posted while it was locked. */
				++( pxQueue->xTxLock );
			}

			xReturn = pdPASS;
   82714:	2401      	movs	r4, #1
   82716:	e002      	b.n	8271e <xQueueGenericSendFromISR+0x72>
   82718:	2401      	movs	r4, #1
   8271a:	e000      	b.n	8271e <xQueueGenericSendFromISR+0x72>
   8271c:	2401      	movs	r4, #1
		{
			traceQUEUE_SEND_FROM_ISR_FAILED( pxQueue );
			xReturn = errQUEUE_FULL;
		}
	}
	portCLEAR_INTERRUPT_MASK_FROM_ISR( uxSavedInterruptStatus );
   8271e:	4638      	mov	r0, r7
   82720:	4b05      	ldr	r3, [pc, #20]	; (82738 <xQueueGenericSendFromISR+0x8c>)
   82722:	4798      	blx	r3

	return xReturn;
}
   82724:	4620      	mov	r0, r4
   82726:	e8bd 81f0 	ldmia.w	sp!, {r4, r5, r6, r7, r8, pc}
   8272a:	bf00      	nop
   8272c:	00082149 	.word	0x00082149
   82730:	0008239d 	.word	0x0008239d
   82734:	000831cd 	.word	0x000831cd
   82738:	00082171 	.word	0x00082171

0008273c <xQueueGenericReceive>:
/*-----------------------------------------------------------*/

signed portBASE_TYPE xQueueGenericReceive( xQueueHandle pxQueue, void * const pvBuffer, portTickType xTicksToWait, portBASE_TYPE xJustPeeking )
{
   8273c:	e92d 4ff0 	stmdb	sp!, {r4, r5, r6, r7, r8, r9, sl, fp, lr}
   82740:	b085      	sub	sp, #20
   82742:	4689      	mov	r9, r1
   82744:	469a      	mov	sl, r3
   82746:	f8ad 2006 	strh.w	r2, [sp, #6]
signed portBASE_TYPE xEntryTimeSet = pdFALSE;
xTimeOutType xTimeOut;
signed char *pcOriginalReadPosition;

	configASSERT( pxQueue );
   8274a:	4604      	mov	r4, r0
   8274c:	b918      	cbnz	r0, 82756 <xQueueGenericReceive+0x1a>
   8274e:	4b46      	ldr	r3, [pc, #280]	; (82868 <xQueueGenericReceive+0x12c>)
   82750:	4798      	blx	r3
   82752:	bf00      	nop
   82754:	e7fd      	b.n	82752 <xQueueGenericReceive+0x16>
	configASSERT( !( ( pvBuffer == NULL ) && ( pxQueue->uxItemSize != ( unsigned portBASE_TYPE ) 0U ) ) );
   82756:	b909      	cbnz	r1, 8275c <xQueueGenericReceive+0x20>
   82758:	6c03      	ldr	r3, [r0, #64]	; 0x40
   8275a:	b92b      	cbnz	r3, 82768 <xQueueGenericReceive+0x2c>
	return xReturn;
}
/*-----------------------------------------------------------*/

signed portBASE_TYPE xQueueGenericReceive( xQueueHandle pxQueue, void * const pvBuffer, portTickType xTicksToWait, portBASE_TYPE xJustPeeking )
{
   8275c:	2700      	movs	r7, #0
	statements within the function itself.  This is done in the interest
	of execution time efficiency. */

	for( ;; )
	{
		taskENTER_CRITICAL();
   8275e:	4e43      	ldr	r6, [pc, #268]	; (8286c <xQueueGenericReceive+0x130>)
				}
				else if( xEntryTimeSet == pdFALSE )
				{
					/* The queue was empty and a block time was specified so
					configure the timeout structure. */
					vTaskSetTimeOutState( &xTimeOut );
   82760:	f8df b138 	ldr.w	fp, [pc, #312]	; 8289c <xQueueGenericReceive+0x160>
					xEntryTimeSet = pdTRUE;
				}
			}
		}
		taskEXIT_CRITICAL();
   82764:	4d42      	ldr	r5, [pc, #264]	; (82870 <xQueueGenericReceive+0x134>)
   82766:	e003      	b.n	82770 <xQueueGenericReceive+0x34>
signed portBASE_TYPE xEntryTimeSet = pdFALSE;
xTimeOutType xTimeOut;
signed char *pcOriginalReadPosition;

	configASSERT( pxQueue );
	configASSERT( !( ( pvBuffer == NULL ) && ( pxQueue->uxItemSize != ( unsigned portBASE_TYPE ) 0U ) ) );
   82768:	4b3f      	ldr	r3, [pc, #252]	; (82868 <xQueueGenericReceive+0x12c>)
   8276a:	4798      	blx	r3
   8276c:	bf00      	nop
   8276e:	e7fd      	b.n	8276c <xQueueGenericReceive+0x30>
	statements within the function itself.  This is done in the interest
	of execution time efficiency. */

	for( ;; )
	{
		taskENTER_CRITICAL();
   82770:	47b0      	blx	r6
		{
			/* Is there data in the queue now?  To be running we must be
			the highest priority task wanting to access the queue. */
			if( pxQueue->uxMessagesWaiting > ( unsigned portBASE_TYPE ) 0 )
   82772:	6ba3      	ldr	r3, [r4, #56]	; 0x38
   82774:	2b00      	cmp	r3, #0
   82776:	d028      	beq.n	827ca <xQueueGenericReceive+0x8e>
			{
				/* Remember our read position in case we are just peeking. */
				pcOriginalReadPosition = pxQueue->pcReadFrom;
   82778:	68e5      	ldr	r5, [r4, #12]

				prvCopyDataFromQueue( pxQueue, pvBuffer );
   8277a:	4620      	mov	r0, r4
   8277c:	4649      	mov	r1, r9
   8277e:	4b3d      	ldr	r3, [pc, #244]	; (82874 <xQueueGenericReceive+0x138>)
   82780:	4798      	blx	r3

				if( xJustPeeking == pdFALSE )
   82782:	f1ba 0f00 	cmp.w	sl, #0
   82786:	d112      	bne.n	827ae <xQueueGenericReceive+0x72>
				{
					traceQUEUE_RECEIVE( pxQueue );

					/* We are actually removing data. */
					--( pxQueue->uxMessagesWaiting );
   82788:	6ba3      	ldr	r3, [r4, #56]	; 0x38
   8278a:	3b01      	subs	r3, #1
   8278c:	63a3      	str	r3, [r4, #56]	; 0x38

					#if ( configUSE_MUTEXES == 1 )
					{
						if( pxQueue->uxQueueType == queueQUEUE_IS_MUTEX )
   8278e:	6823      	ldr	r3, [r4, #0]
   82790:	b913      	cbnz	r3, 82798 <xQueueGenericReceive+0x5c>
						{
							/* Record the information required to implement
							priority inheritance should it become necessary. */
							pxQueue->pxMutexHolder = xTaskGetCurrentTaskHandle();
   82792:	4b39      	ldr	r3, [pc, #228]	; (82878 <xQueueGenericReceive+0x13c>)
   82794:	4798      	blx	r3
   82796:	6060      	str	r0, [r4, #4]
						}
					}
					#endif

					if( listLIST_IS_EMPTY( &( pxQueue->xTasksWaitingToSend ) ) == pdFALSE )
   82798:	6923      	ldr	r3, [r4, #16]
   8279a:	b193      	cbz	r3, 827c2 <xQueueGenericReceive+0x86>
					{
						if( xTaskRemoveFromEventList( &( pxQueue->xTasksWaitingToSend ) ) == pdTRUE )
   8279c:	f104 0010 	add.w	r0, r4, #16
   827a0:	4b36      	ldr	r3, [pc, #216]	; (8287c <xQueueGenericReceive+0x140>)
   827a2:	4798      	blx	r3
   827a4:	2801      	cmp	r0, #1
   827a6:	d10c      	bne.n	827c2 <xQueueGenericReceive+0x86>
						{
							portYIELD_WITHIN_API();
   827a8:	4b35      	ldr	r3, [pc, #212]	; (82880 <xQueueGenericReceive+0x144>)
   827aa:	4798      	blx	r3
   827ac:	e009      	b.n	827c2 <xQueueGenericReceive+0x86>
				{
					traceQUEUE_PEEK( pxQueue );

					/* We are not removing the data, so reset our read
					pointer. */
					pxQueue->pcReadFrom = pcOriginalReadPosition;
   827ae:	60e5      	str	r5, [r4, #12]

					/* The data is being left in the queue, so see if there are
					any other tasks waiting for the data. */
					if( listLIST_IS_EMPTY( &( pxQueue->xTasksWaitingToReceive ) ) == pdFALSE )
   827b0:	6a63      	ldr	r3, [r4, #36]	; 0x24
   827b2:	b133      	cbz	r3, 827c2 <xQueueGenericReceive+0x86>
					{
						/* Tasks that are removed from the event list will get added to
						the pending ready list as the scheduler is still suspended. */
						if( xTaskRemoveFromEventList( &( pxQueue->xTasksWaitingToReceive ) ) != pdFALSE )
   827b4:	f104 0024 	add.w	r0, r4, #36	; 0x24
   827b8:	4b30      	ldr	r3, [pc, #192]	; (8287c <xQueueGenericReceive+0x140>)
   827ba:	4798      	blx	r3
   827bc:	b108      	cbz	r0, 827c2 <xQueueGenericReceive+0x86>
						{
							/* The task waiting has a higher priority than this task. */
							portYIELD_WITHIN_API();
   827be:	4b30      	ldr	r3, [pc, #192]	; (82880 <xQueueGenericReceive+0x144>)
   827c0:	4798      	blx	r3
						}
					}
				}

				taskEXIT_CRITICAL();
   827c2:	4b2b      	ldr	r3, [pc, #172]	; (82870 <xQueueGenericReceive+0x134>)
   827c4:	4798      	blx	r3
				return pdPASS;
   827c6:	2001      	movs	r0, #1
   827c8:	e04b      	b.n	82862 <xQueueGenericReceive+0x126>
			}
			else
			{
				if( xTicksToWait == ( portTickType ) 0 )
   827ca:	f8bd 3006 	ldrh.w	r3, [sp, #6]
   827ce:	b91b      	cbnz	r3, 827d8 <xQueueGenericReceive+0x9c>
				{
					/* The queue was empty and no block time is specified (or
					the block time has expired) so leave now. */
					taskEXIT_CRITICAL();
   827d0:	4b27      	ldr	r3, [pc, #156]	; (82870 <xQueueGenericReceive+0x134>)
   827d2:	4798      	blx	r3
					traceQUEUE_RECEIVE_FAILED( pxQueue );
					return errQUEUE_EMPTY;
   827d4:	2000      	movs	r0, #0
   827d6:	e044      	b.n	82862 <xQueueGenericReceive+0x126>
				}
				else if( xEntryTimeSet == pdFALSE )
   827d8:	b917      	cbnz	r7, 827e0 <xQueueGenericReceive+0xa4>
				{
					/* The queue was empty and a block time was specified so
					configure the timeout structure. */
					vTaskSetTimeOutState( &xTimeOut );
   827da:	a802      	add	r0, sp, #8
   827dc:	47d8      	blx	fp
					xEntryTimeSet = pdTRUE;
   827de:	2701      	movs	r7, #1
				}
			}
		}
		taskEXIT_CRITICAL();
   827e0:	47a8      	blx	r5

		/* Interrupts and other tasks can send to and receive from the queue
		now the critical section has been exited. */

		vTaskSuspendAll();
   827e2:	4b28      	ldr	r3, [pc, #160]	; (82884 <xQueueGenericReceive+0x148>)
   827e4:	4798      	blx	r3
		prvLockQueue( pxQueue );
   827e6:	47b0      	blx	r6
   827e8:	6c63      	ldr	r3, [r4, #68]	; 0x44
   827ea:	f1b3 3fff 	cmp.w	r3, #4294967295
   827ee:	bf04      	itt	eq
   827f0:	2300      	moveq	r3, #0
   827f2:	6463      	streq	r3, [r4, #68]	; 0x44
   827f4:	6ca3      	ldr	r3, [r4, #72]	; 0x48
   827f6:	f1b3 3fff 	cmp.w	r3, #4294967295
   827fa:	bf04      	itt	eq
   827fc:	2300      	moveq	r3, #0
   827fe:	64a3      	streq	r3, [r4, #72]	; 0x48
   82800:	47a8      	blx	r5

		/* Update the timeout state to see if it has expired yet. */
		if( xTaskCheckForTimeOut( &xTimeOut, &xTicksToWait ) == pdFALSE )
   82802:	a802      	add	r0, sp, #8
   82804:	f10d 0106 	add.w	r1, sp, #6
   82808:	4b1f      	ldr	r3, [pc, #124]	; (82888 <xQueueGenericReceive+0x14c>)
   8280a:	4798      	blx	r3
   8280c:	bb18      	cbnz	r0, 82856 <xQueueGenericReceive+0x11a>

static signed portBASE_TYPE prvIsQueueEmpty( const xQueueHandle pxQueue )
{
signed portBASE_TYPE xReturn;

	taskENTER_CRITICAL();
   8280e:	47b0      	blx	r6
		xReturn = ( pxQueue->uxMessagesWaiting == ( unsigned portBASE_TYPE ) 0 );
   82810:	f8d4 8038 	ldr.w	r8, [r4, #56]	; 0x38
	taskEXIT_CRITICAL();
   82814:	47a8      	blx	r5
		prvLockQueue( pxQueue );

		/* Update the timeout state to see if it has expired yet. */
		if( xTaskCheckForTimeOut( &xTimeOut, &xTicksToWait ) == pdFALSE )
		{
			if( prvIsQueueEmpty( pxQueue ) != pdFALSE )
   82816:	f1b8 0f00 	cmp.w	r8, #0
   8281a:	d116      	bne.n	8284a <xQueueGenericReceive+0x10e>
			{
				traceBLOCKING_ON_QUEUE_RECEIVE( pxQueue );

				#if ( configUSE_MUTEXES == 1 )
				{
					if( pxQueue->uxQueueType == queueQUEUE_IS_MUTEX )
   8281c:	6823      	ldr	r3, [r4, #0]
   8281e:	b923      	cbnz	r3, 8282a <xQueueGenericReceive+0xee>
					{
						portENTER_CRITICAL();
   82820:	47b0      	blx	r6
						{
							vTaskPriorityInherit( ( void * ) pxQueue->pxMutexHolder );
   82822:	6860      	ldr	r0, [r4, #4]
   82824:	4b19      	ldr	r3, [pc, #100]	; (8288c <xQueueGenericReceive+0x150>)
   82826:	4798      	blx	r3
						}
						portEXIT_CRITICAL();
   82828:	47a8      	blx	r5
					}
				}
				#endif

				vTaskPlaceOnEventList( &( pxQueue->xTasksWaitingToReceive ), xTicksToWait );
   8282a:	f104 0024 	add.w	r0, r4, #36	; 0x24
   8282e:	f8bd 1006 	ldrh.w	r1, [sp, #6]
   82832:	4b17      	ldr	r3, [pc, #92]	; (82890 <xQueueGenericReceive+0x154>)
   82834:	4798      	blx	r3
				prvUnlockQueue( pxQueue );
   82836:	4620      	mov	r0, r4
   82838:	4b16      	ldr	r3, [pc, #88]	; (82894 <xQueueGenericReceive+0x158>)
   8283a:	4798      	blx	r3
				if( xTaskResumeAll() == pdFALSE )
   8283c:	4b16      	ldr	r3, [pc, #88]	; (82898 <xQueueGenericReceive+0x15c>)
   8283e:	4798      	blx	r3
   82840:	2800      	cmp	r0, #0
   82842:	d195      	bne.n	82770 <xQueueGenericReceive+0x34>
				{
					portYIELD_WITHIN_API();
   82844:	4b0e      	ldr	r3, [pc, #56]	; (82880 <xQueueGenericReceive+0x144>)
   82846:	4798      	blx	r3
   82848:	e792      	b.n	82770 <xQueueGenericReceive+0x34>
				}
			}
			else
			{
				/* Try again. */
				prvUnlockQueue( pxQueue );
   8284a:	4620      	mov	r0, r4
   8284c:	4b11      	ldr	r3, [pc, #68]	; (82894 <xQueueGenericReceive+0x158>)
   8284e:	4798      	blx	r3
				( void ) xTaskResumeAll();
   82850:	4b11      	ldr	r3, [pc, #68]	; (82898 <xQueueGenericReceive+0x15c>)
   82852:	4798      	blx	r3
   82854:	e78c      	b.n	82770 <xQueueGenericReceive+0x34>
			}
		}
		else
		{
			prvUnlockQueue( pxQueue );
   82856:	4620      	mov	r0, r4
   82858:	4b0e      	ldr	r3, [pc, #56]	; (82894 <xQueueGenericReceive+0x158>)
   8285a:	4798      	blx	r3
			( void ) xTaskResumeAll();
   8285c:	4b0e      	ldr	r3, [pc, #56]	; (82898 <xQueueGenericReceive+0x15c>)
   8285e:	4798      	blx	r3
			traceQUEUE_RECEIVE_FAILED( pxQueue );
			return errQUEUE_EMPTY;
   82860:	2000      	movs	r0, #0
		}
	}
}
   82862:	b005      	add	sp, #20
   82864:	e8bd 8ff0 	ldmia.w	sp!, {r4, r5, r6, r7, r8, r9, sl, fp, pc}
   82868:	00082149 	.word	0x00082149
   8286c:	00082159 	.word	0x00082159
   82870:	00082179 	.word	0x00082179
   82874:	00082401 	.word	0x00082401
   82878:	00083311 	.word	0x00083311
   8287c:	000831cd 	.word	0x000831cd
   82880:	00082139 	.word	0x00082139
   82884:	00082c81 	.word	0x00082c81
   82888:	00083279 	.word	0x00083279
   8288c:	0008333d 	.word	0x0008333d
   82890:	00083121 	.word	0x00083121
   82894:	00082429 	.word	0x00082429
   82898:	00082ddd 	.word	0x00082ddd
   8289c:	00083251 	.word	0x00083251

000828a0 <vQueueWaitForMessageRestricted>:
/*-----------------------------------------------------------*/

#if configUSE_TIMERS == 1

	void vQueueWaitForMessageRestricted( xQueueHandle pxQueue, portTickType xTicksToWait )
	{
   828a0:	b538      	push	{r3, r4, r5, lr}
   828a2:	4604      	mov	r4, r0
   828a4:	460d      	mov	r5, r1
		will not actually cause the task to block, just place it on a blocked
		list.  It will not block until the scheduler is unlocked - at which
		time a yield will be performed.  If an item is added to the queue while
		the queue is locked, and the calling task blocks on the queue, then the
		calling task will be immediately unblocked when the queue is unlocked. */
		prvLockQueue( pxQueue );
   828a6:	4b0d      	ldr	r3, [pc, #52]	; (828dc <vQueueWaitForMessageRestricted+0x3c>)
   828a8:	4798      	blx	r3
   828aa:	6c63      	ldr	r3, [r4, #68]	; 0x44
   828ac:	f1b3 3fff 	cmp.w	r3, #4294967295
   828b0:	bf04      	itt	eq
   828b2:	2300      	moveq	r3, #0
   828b4:	6463      	streq	r3, [r4, #68]	; 0x44
   828b6:	6ca3      	ldr	r3, [r4, #72]	; 0x48
   828b8:	f1b3 3fff 	cmp.w	r3, #4294967295
   828bc:	bf04      	itt	eq
   828be:	2300      	moveq	r3, #0
   828c0:	64a3      	streq	r3, [r4, #72]	; 0x48
   828c2:	4b07      	ldr	r3, [pc, #28]	; (828e0 <vQueueWaitForMessageRestricted+0x40>)
   828c4:	4798      	blx	r3
		if( pxQueue->uxMessagesWaiting == ( unsigned portBASE_TYPE ) 0U )
   828c6:	6ba3      	ldr	r3, [r4, #56]	; 0x38
   828c8:	b923      	cbnz	r3, 828d4 <vQueueWaitForMessageRestricted+0x34>
		{
			/* There is nothing in the queue, block for the specified period. */
			vTaskPlaceOnEventListRestricted( &( pxQueue->xTasksWaitingToReceive ), xTicksToWait );
   828ca:	f104 0024 	add.w	r0, r4, #36	; 0x24
   828ce:	4629      	mov	r1, r5
   828d0:	4b04      	ldr	r3, [pc, #16]	; (828e4 <vQueueWaitForMessageRestricted+0x44>)
   828d2:	4798      	blx	r3
		}
		prvUnlockQueue( pxQueue );
   828d4:	4620      	mov	r0, r4
   828d6:	4b04      	ldr	r3, [pc, #16]	; (828e8 <vQueueWaitForMessageRestricted+0x48>)
   828d8:	4798      	blx	r3
   828da:	bd38      	pop	{r3, r4, r5, pc}
   828dc:	00082159 	.word	0x00082159
   828e0:	00082179 	.word	0x00082179
   828e4:	00083185 	.word	0x00083185
   828e8:	00082429 	.word	0x00082429

000828ec <prvAddCurrentTaskToDelayedList>:
	#endif
}
/*-----------------------------------------------------------*/

static void prvAddCurrentTaskToDelayedList( portTickType xTimeToWake )
{
   828ec:	b510      	push	{r4, lr}
   828ee:	4604      	mov	r4, r0
	/* The list item will be inserted in wake time order. */
	listSET_LIST_ITEM_VALUE( &( pxCurrentTCB->xGenericListItem ), xTimeToWake );
   828f0:	4b0f      	ldr	r3, [pc, #60]	; (82930 <prvAddCurrentTaskToDelayedList+0x44>)
   828f2:	681b      	ldr	r3, [r3, #0]
   828f4:	8098      	strh	r0, [r3, #4]

	if( xTimeToWake < xTickCount )
   828f6:	4b0f      	ldr	r3, [pc, #60]	; (82934 <prvAddCurrentTaskToDelayedList+0x48>)
   828f8:	881b      	ldrh	r3, [r3, #0]
   828fa:	b29b      	uxth	r3, r3
   828fc:	4298      	cmp	r0, r3
   828fe:	d207      	bcs.n	82910 <prvAddCurrentTaskToDelayedList+0x24>
	{
		/* Wake time has overflowed.  Place this item in the overflow list. */
		vListInsert( ( xList * ) pxOverflowDelayedTaskList, ( xListItem * ) &( pxCurrentTCB->xGenericListItem ) );
   82900:	4b0d      	ldr	r3, [pc, #52]	; (82938 <prvAddCurrentTaskToDelayedList+0x4c>)
   82902:	6818      	ldr	r0, [r3, #0]
   82904:	4b0a      	ldr	r3, [pc, #40]	; (82930 <prvAddCurrentTaskToDelayedList+0x44>)
   82906:	6819      	ldr	r1, [r3, #0]
   82908:	3104      	adds	r1, #4
   8290a:	4b0c      	ldr	r3, [pc, #48]	; (8293c <prvAddCurrentTaskToDelayedList+0x50>)
   8290c:	4798      	blx	r3
   8290e:	bd10      	pop	{r4, pc}
	}
	else
	{
		/* The wake time has not overflowed, so we can use the current block list. */
		vListInsert( ( xList * ) pxDelayedTaskList, ( xListItem * ) &( pxCurrentTCB->xGenericListItem ) );
   82910:	4b0b      	ldr	r3, [pc, #44]	; (82940 <prvAddCurrentTaskToDelayedList+0x54>)
   82912:	6818      	ldr	r0, [r3, #0]
   82914:	4b06      	ldr	r3, [pc, #24]	; (82930 <prvAddCurrentTaskToDelayedList+0x44>)
   82916:	6819      	ldr	r1, [r3, #0]
   82918:	3104      	adds	r1, #4
   8291a:	4b08      	ldr	r3, [pc, #32]	; (8293c <prvAddCurrentTaskToDelayedList+0x50>)
   8291c:	4798      	blx	r3

		/* If the task entering the blocked state was placed at the head of the
		list of blocked tasks then xNextTaskUnblockTime needs to be updated
		too. */
		if( xTimeToWake < xNextTaskUnblockTime )
   8291e:	4b09      	ldr	r3, [pc, #36]	; (82944 <prvAddCurrentTaskToDelayedList+0x58>)
   82920:	881b      	ldrh	r3, [r3, #0]
   82922:	b29b      	uxth	r3, r3
   82924:	429c      	cmp	r4, r3
		{
			xNextTaskUnblockTime = xTimeToWake;
   82926:	bf3c      	itt	cc
   82928:	4b06      	ldrcc	r3, [pc, #24]	; (82944 <prvAddCurrentTaskToDelayedList+0x58>)
   8292a:	801c      	strhcc	r4, [r3, #0]
   8292c:	bd10      	pop	{r4, pc}
   8292e:	bf00      	nop
   82930:	20078be0 	.word	0x20078be0
   82934:	20078bfc 	.word	0x20078bfc
   82938:	20078c00 	.word	0x20078c00
   8293c:	0008207d 	.word	0x0008207d
   82940:	20078adc 	.word	0x20078adc
   82944:	20070178 	.word	0x20070178

00082948 <xTaskGenericCreate>:
/*-----------------------------------------------------------
 * TASK CREATION API documented in task.h
 *----------------------------------------------------------*/

signed portBASE_TYPE xTaskGenericCreate( pdTASK_CODE pxTaskCode, const signed char * const pcName, unsigned short usStackDepth, void *pvParameters, unsigned portBASE_TYPE uxPriority, xTaskHandle *pxCreatedTask, portSTACK_TYPE *puxStackBuffer, const xMemoryRegion * const xRegions )
{
   82948:	e92d 4ff8 	stmdb	sp!, {r3, r4, r5, r6, r7, r8, r9, sl, fp, lr}
   8294c:	460e      	mov	r6, r1
   8294e:	4617      	mov	r7, r2
   82950:	469a      	mov	sl, r3
   82952:	9d0a      	ldr	r5, [sp, #40]	; 0x28
   82954:	f8dd 8030 	ldr.w	r8, [sp, #48]	; 0x30
signed portBASE_TYPE xReturn;
tskTCB * pxNewTCB;

	configASSERT( pxTaskCode );
   82958:	4681      	mov	r9, r0
   8295a:	b918      	cbnz	r0, 82964 <xTaskGenericCreate+0x1c>
   8295c:	4b62      	ldr	r3, [pc, #392]	; (82ae8 <xTaskGenericCreate+0x1a0>)
   8295e:	4798      	blx	r3
   82960:	bf00      	nop
   82962:	e7fd      	b.n	82960 <xTaskGenericCreate+0x18>
	configASSERT( ( ( uxPriority & ( ~portPRIVILEGE_BIT ) ) < configMAX_PRIORITIES ) );
   82964:	2d09      	cmp	r5, #9
   82966:	d903      	bls.n	82970 <xTaskGenericCreate+0x28>
   82968:	4b5f      	ldr	r3, [pc, #380]	; (82ae8 <xTaskGenericCreate+0x1a0>)
   8296a:	4798      	blx	r3
   8296c:	bf00      	nop
   8296e:	e7fd      	b.n	8296c <xTaskGenericCreate+0x24>
{
tskTCB *pxNewTCB;

	/* Allocate space for the TCB.  Where the memory comes from depends on
	the implementation of the port malloc function. */
	pxNewTCB = ( tskTCB * ) pvPortMalloc( sizeof( tskTCB ) );
   82970:	2050      	movs	r0, #80	; 0x50
   82972:	4b5e      	ldr	r3, [pc, #376]	; (82aec <xTaskGenericCreate+0x1a4>)
   82974:	4798      	blx	r3

	if( pxNewTCB != NULL )
   82976:	4604      	mov	r4, r0
   82978:	2800      	cmp	r0, #0
   8297a:	f000 80b1 	beq.w	82ae0 <xTaskGenericCreate+0x198>
	{
		/* Allocate space for the stack used by the task being created.
		The base of the stack memory stored in the TCB so the task can
		be deleted later if required. */
		pxNewTCB->pxStack = ( portSTACK_TYPE * ) pvPortMallocAligned( ( ( ( size_t )usStackDepth ) * sizeof( portSTACK_TYPE ) ), puxStackBuffer );
   8297e:	f1b8 0f00 	cmp.w	r8, #0
   82982:	f040 80a9 	bne.w	82ad8 <xTaskGenericCreate+0x190>
   82986:	00b8      	lsls	r0, r7, #2
   82988:	4b58      	ldr	r3, [pc, #352]	; (82aec <xTaskGenericCreate+0x1a4>)
   8298a:	4798      	blx	r3
   8298c:	6320      	str	r0, [r4, #48]	; 0x30

		if( pxNewTCB->pxStack == NULL )
   8298e:	b918      	cbnz	r0, 82998 <xTaskGenericCreate+0x50>
		{
			/* Could not allocate the stack.  Delete the allocated TCB. */
			vPortFree( pxNewTCB );
   82990:	4620      	mov	r0, r4
   82992:	4b57      	ldr	r3, [pc, #348]	; (82af0 <xTaskGenericCreate+0x1a8>)
   82994:	4798      	blx	r3
   82996:	e0a3      	b.n	82ae0 <xTaskGenericCreate+0x198>
			pxNewTCB = NULL;
		}
		else
		{
			/* Just to help debugging. */
			memset( pxNewTCB->pxStack, ( int ) tskSTACK_FILL_BYTE, ( size_t ) usStackDepth * sizeof( portSTACK_TYPE ) );
   82998:	21a5      	movs	r1, #165	; 0xa5
   8299a:	00ba      	lsls	r2, r7, #2
   8299c:	4b55      	ldr	r3, [pc, #340]	; (82af4 <xTaskGenericCreate+0x1ac>)
   8299e:	4798      	blx	r3
		stack grows from high memory to low (as per the 80x86) or visa versa.
		portSTACK_GROWTH is used to make the result positive or negative as
		required by the port. */
		#if( portSTACK_GROWTH < 0 )
		{
			pxTopOfStack = pxNewTCB->pxStack + ( usStackDepth - ( unsigned short ) 1 );
   829a0:	f107 4780 	add.w	r7, r7, #1073741824	; 0x40000000
   829a4:	3f01      	subs	r7, #1
   829a6:	6b23      	ldr	r3, [r4, #48]	; 0x30
   829a8:	eb03 0387 	add.w	r3, r3, r7, lsl #2
			pxTopOfStack = ( portSTACK_TYPE * ) ( ( ( portPOINTER_SIZE_TYPE ) pxTopOfStack ) & ( ( portPOINTER_SIZE_TYPE ) ~portBYTE_ALIGNMENT_MASK  ) );
   829ac:	f023 0b07 	bic.w	fp, r3, #7
{
	/* Store the function name in the TCB. */
	#if configMAX_TASK_NAME_LEN > 1
	{
		/* Don't bring strncpy into the build unnecessarily. */
		strncpy( ( char * ) pxTCB->pcTaskName, ( const char * ) pcName, ( unsigned short ) configMAX_TASK_NAME_LEN );
   829b0:	f104 0034 	add.w	r0, r4, #52	; 0x34
   829b4:	4631      	mov	r1, r6
   829b6:	2210      	movs	r2, #16
   829b8:	4b4f      	ldr	r3, [pc, #316]	; (82af8 <xTaskGenericCreate+0x1b0>)
   829ba:	4798      	blx	r3
	}
	#endif
	pxTCB->pcTaskName[ ( unsigned short ) configMAX_TASK_NAME_LEN - ( unsigned short ) 1 ] = ( signed char ) '\0';
   829bc:	2300      	movs	r3, #0
   829be:	f884 3043 	strb.w	r3, [r4, #67]	; 0x43
   829c2:	2d09      	cmp	r5, #9
   829c4:	bf34      	ite	cc
   829c6:	462e      	movcc	r6, r5
   829c8:	2609      	movcs	r6, #9
	if( uxPriority >= configMAX_PRIORITIES )
	{
		uxPriority = configMAX_PRIORITIES - ( unsigned portBASE_TYPE ) 1U;
	}

	pxTCB->uxPriority = uxPriority;
   829ca:	62e6      	str	r6, [r4, #44]	; 0x2c
	#if ( configUSE_MUTEXES == 1 )
	{
		pxTCB->uxBasePriority = uxPriority;
   829cc:	64e6      	str	r6, [r4, #76]	; 0x4c
	}
	#endif

	vListInitialiseItem( &( pxTCB->xGenericListItem ) );
   829ce:	1d27      	adds	r7, r4, #4
   829d0:	4638      	mov	r0, r7
   829d2:	f8df 8170 	ldr.w	r8, [pc, #368]	; 82b44 <xTaskGenericCreate+0x1fc>
   829d6:	47c0      	blx	r8
	vListInitialiseItem( &( pxTCB->xEventListItem ) );
   829d8:	f104 0018 	add.w	r0, r4, #24
   829dc:	47c0      	blx	r8

	/* Set the pxTCB as a link back from the xListItem.  This is so we can get
	back to	the containing TCB from a generic item in a list. */
	listSET_LIST_ITEM_OWNER( &( pxTCB->xGenericListItem ), pxTCB );
   829de:	6124      	str	r4, [r4, #16]

	/* Event lists are always in priority order. */
	listSET_LIST_ITEM_VALUE( &( pxTCB->xEventListItem ), configMAX_PRIORITIES - ( portTickType ) uxPriority );
   829e0:	f1c6 060a 	rsb	r6, r6, #10
   829e4:	8326      	strh	r6, [r4, #24]
	listSET_LIST_ITEM_OWNER( &( pxTCB->xEventListItem ), pxTCB );
   829e6:	6264      	str	r4, [r4, #36]	; 0x24
		{
			pxNewTCB->pxTopOfStack = pxPortInitialiseStack( pxTopOfStack, pxTaskCode, pvParameters, xRunPrivileged );
		}
		#else
		{
			pxNewTCB->pxTopOfStack = pxPortInitialiseStack( pxTopOfStack, pxTaskCode, pvParameters );
   829e8:	4658      	mov	r0, fp
   829ea:	4649      	mov	r1, r9
   829ec:	4652      	mov	r2, sl
   829ee:	4b43      	ldr	r3, [pc, #268]	; (82afc <xTaskGenericCreate+0x1b4>)
   829f0:	4798      	blx	r3
   829f2:	6020      	str	r0, [r4, #0]
		}
		#endif

		/* Check the alignment of the initialised stack. */
		portALIGNMENT_ASSERT_pxCurrentTCB( ( ( ( unsigned long ) pxNewTCB->pxTopOfStack & ( unsigned long ) portBYTE_ALIGNMENT_MASK ) == 0UL ) );
   829f4:	f010 0f07 	tst.w	r0, #7
   829f8:	d003      	beq.n	82a02 <xTaskGenericCreate+0xba>
   829fa:	4b3b      	ldr	r3, [pc, #236]	; (82ae8 <xTaskGenericCreate+0x1a0>)
   829fc:	4798      	blx	r3
   829fe:	bf00      	nop
   82a00:	e7fd      	b.n	829fe <xTaskGenericCreate+0xb6>

		if( ( void * ) pxCreatedTask != NULL )
   82a02:	9b0b      	ldr	r3, [sp, #44]	; 0x2c
   82a04:	b103      	cbz	r3, 82a08 <xTaskGenericCreate+0xc0>
		{
			/* Pass the TCB out - in an anonymous way.  The calling function/
			task can use this as a handle to delete the task later if
			required.*/
			*pxCreatedTask = ( xTaskHandle ) pxNewTCB;
   82a06:	601c      	str	r4, [r3, #0]
		}

		/* We are going to manipulate the task queues to add this task to a
		ready list, so must make sure no interrupts occur. */
		taskENTER_CRITICAL();
   82a08:	4b3d      	ldr	r3, [pc, #244]	; (82b00 <xTaskGenericCreate+0x1b8>)
   82a0a:	4798      	blx	r3
		{
			uxCurrentNumberOfTasks++;
   82a0c:	4b3d      	ldr	r3, [pc, #244]	; (82b04 <xTaskGenericCreate+0x1bc>)
   82a0e:	681a      	ldr	r2, [r3, #0]
   82a10:	3201      	adds	r2, #1
   82a12:	601a      	str	r2, [r3, #0]
			if( pxCurrentTCB == NULL )
   82a14:	4b3c      	ldr	r3, [pc, #240]	; (82b08 <xTaskGenericCreate+0x1c0>)
   82a16:	681b      	ldr	r3, [r3, #0]
   82a18:	bb2b      	cbnz	r3, 82a66 <xTaskGenericCreate+0x11e>
			{
				/* There are no other tasks, or all the other tasks are in
				the suspended state - make this the current task. */
				pxCurrentTCB =  pxNewTCB;
   82a1a:	4b3b      	ldr	r3, [pc, #236]	; (82b08 <xTaskGenericCreate+0x1c0>)
   82a1c:	601c      	str	r4, [r3, #0]

				if( uxCurrentNumberOfTasks == ( unsigned portBASE_TYPE ) 1 )
   82a1e:	4b39      	ldr	r3, [pc, #228]	; (82b04 <xTaskGenericCreate+0x1bc>)
   82a20:	681b      	ldr	r3, [r3, #0]
   82a22:	2b01      	cmp	r3, #1
   82a24:	d129      	bne.n	82a7a <xTaskGenericCreate+0x132>
   82a26:	4e39      	ldr	r6, [pc, #228]	; (82b0c <xTaskGenericCreate+0x1c4>)
   82a28:	f106 09c8 	add.w	r9, r6, #200	; 0xc8
{
unsigned portBASE_TYPE uxPriority;

	for( uxPriority = ( unsigned portBASE_TYPE ) 0U; uxPriority < configMAX_PRIORITIES; uxPriority++ )
	{
		vListInitialise( ( xList * ) &( pxReadyTasksLists[ uxPriority ] ) );
   82a2c:	f8df 80e0 	ldr.w	r8, [pc, #224]	; 82b10 <xTaskGenericCreate+0x1c8>
   82a30:	4630      	mov	r0, r6
   82a32:	47c0      	blx	r8
   82a34:	3614      	adds	r6, #20

static void prvInitialiseTaskLists( void )
{
unsigned portBASE_TYPE uxPriority;

	for( uxPriority = ( unsigned portBASE_TYPE ) 0U; uxPriority < configMAX_PRIORITIES; uxPriority++ )
   82a36:	454e      	cmp	r6, r9
   82a38:	d1fa      	bne.n	82a30 <xTaskGenericCreate+0xe8>
	{
		vListInitialise( ( xList * ) &( pxReadyTasksLists[ uxPriority ] ) );
	}

	vListInitialise( ( xList * ) &xDelayedTaskList1 );
   82a3a:	f8df 910c 	ldr.w	r9, [pc, #268]	; 82b48 <xTaskGenericCreate+0x200>
   82a3e:	4648      	mov	r0, r9
   82a40:	4e33      	ldr	r6, [pc, #204]	; (82b10 <xTaskGenericCreate+0x1c8>)
   82a42:	47b0      	blx	r6
	vListInitialise( ( xList * ) &xDelayedTaskList2 );
   82a44:	f8df 8104 	ldr.w	r8, [pc, #260]	; 82b4c <xTaskGenericCreate+0x204>
   82a48:	4640      	mov	r0, r8
   82a4a:	47b0      	blx	r6
	vListInitialise( ( xList * ) &xPendingReadyList );
   82a4c:	4831      	ldr	r0, [pc, #196]	; (82b14 <xTaskGenericCreate+0x1cc>)
   82a4e:	47b0      	blx	r6

	#if ( INCLUDE_vTaskDelete == 1 )
	{
		vListInitialise( ( xList * ) &xTasksWaitingTermination );
   82a50:	4831      	ldr	r0, [pc, #196]	; (82b18 <xTaskGenericCreate+0x1d0>)
   82a52:	47b0      	blx	r6
	}
	#endif

	#if ( INCLUDE_vTaskSuspend == 1 )
	{
		vListInitialise( ( xList * ) &xSuspendedTaskList );
   82a54:	4831      	ldr	r0, [pc, #196]	; (82b1c <xTaskGenericCreate+0x1d4>)
   82a56:	47b0      	blx	r6
	}
	#endif

	/* Start with pxDelayedTaskList using list1 and the pxOverflowDelayedTaskList
	using list2. */
	pxDelayedTaskList = &xDelayedTaskList1;
   82a58:	4b31      	ldr	r3, [pc, #196]	; (82b20 <xTaskGenericCreate+0x1d8>)
   82a5a:	f8c3 9000 	str.w	r9, [r3]
	pxOverflowDelayedTaskList = &xDelayedTaskList2;
   82a5e:	4b31      	ldr	r3, [pc, #196]	; (82b24 <xTaskGenericCreate+0x1dc>)
   82a60:	f8c3 8000 	str.w	r8, [r3]
   82a64:	e009      	b.n	82a7a <xTaskGenericCreate+0x132>
			else
			{
				/* If the scheduler is not already running, make this task the
				current task if it is the highest priority task to be created
				so far. */
				if( xSchedulerRunning == pdFALSE )
   82a66:	4b30      	ldr	r3, [pc, #192]	; (82b28 <xTaskGenericCreate+0x1e0>)
   82a68:	681b      	ldr	r3, [r3, #0]
   82a6a:	b933      	cbnz	r3, 82a7a <xTaskGenericCreate+0x132>
				{
					if( pxCurrentTCB->uxPriority <= uxPriority )
   82a6c:	4b26      	ldr	r3, [pc, #152]	; (82b08 <xTaskGenericCreate+0x1c0>)
   82a6e:	681b      	ldr	r3, [r3, #0]
   82a70:	6adb      	ldr	r3, [r3, #44]	; 0x2c
   82a72:	429d      	cmp	r5, r3
					{
						pxCurrentTCB = pxNewTCB;
   82a74:	bf24      	itt	cs
   82a76:	4b24      	ldrcs	r3, [pc, #144]	; (82b08 <xTaskGenericCreate+0x1c0>)
   82a78:	601c      	strcs	r4, [r3, #0]
				}
			}

			/* Remember the top priority to make context switching faster.  Use
			the priority in pxNewTCB as this has been capped to a valid value. */
			if( pxNewTCB->uxPriority > uxTopUsedPriority )
   82a7a:	6ae3      	ldr	r3, [r4, #44]	; 0x2c
   82a7c:	4a2b      	ldr	r2, [pc, #172]	; (82b2c <xTaskGenericCreate+0x1e4>)
   82a7e:	6812      	ldr	r2, [r2, #0]
   82a80:	4293      	cmp	r3, r2
			{
				uxTopUsedPriority = pxNewTCB->uxPriority;
   82a82:	bf84      	itt	hi
   82a84:	4a29      	ldrhi	r2, [pc, #164]	; (82b2c <xTaskGenericCreate+0x1e4>)
   82a86:	6013      	strhi	r3, [r2, #0]
			}

			#if ( configUSE_TRACE_FACILITY == 1 )
			{
				/* Add a counter into the TCB for tracing only. */
				pxNewTCB->uxTCBNumber = uxTaskNumber;
   82a88:	4a29      	ldr	r2, [pc, #164]	; (82b30 <xTaskGenericCreate+0x1e8>)
   82a8a:	6811      	ldr	r1, [r2, #0]
   82a8c:	6461      	str	r1, [r4, #68]	; 0x44
			}
			#endif
			uxTaskNumber++;
   82a8e:	3101      	adds	r1, #1
   82a90:	6011      	str	r1, [r2, #0]

			prvAddTaskToReadyQueue( pxNewTCB );
   82a92:	4a28      	ldr	r2, [pc, #160]	; (82b34 <xTaskGenericCreate+0x1ec>)
   82a94:	6812      	ldr	r2, [r2, #0]
   82a96:	4293      	cmp	r3, r2
   82a98:	bf84      	itt	hi
   82a9a:	4a26      	ldrhi	r2, [pc, #152]	; (82b34 <xTaskGenericCreate+0x1ec>)
   82a9c:	6013      	strhi	r3, [r2, #0]
   82a9e:	eb03 0383 	add.w	r3, r3, r3, lsl #2
   82aa2:	481a      	ldr	r0, [pc, #104]	; (82b0c <xTaskGenericCreate+0x1c4>)
   82aa4:	eb00 0083 	add.w	r0, r0, r3, lsl #2
   82aa8:	4639      	mov	r1, r7
   82aaa:	4b23      	ldr	r3, [pc, #140]	; (82b38 <xTaskGenericCreate+0x1f0>)
   82aac:	4798      	blx	r3

			xReturn = pdPASS;
			portSETUP_TCB( pxNewTCB );
			traceTASK_CREATE( pxNewTCB );
		}
		taskEXIT_CRITICAL();
   82aae:	4b23      	ldr	r3, [pc, #140]	; (82b3c <xTaskGenericCreate+0x1f4>)
   82ab0:	4798      	blx	r3
		traceTASK_CREATE_FAILED();
	}

	if( xReturn == pdPASS )
	{
		if( xSchedulerRunning != pdFALSE )
   82ab2:	4b1d      	ldr	r3, [pc, #116]	; (82b28 <xTaskGenericCreate+0x1e0>)
   82ab4:	681b      	ldr	r3, [r3, #0]
   82ab6:	b14b      	cbz	r3, 82acc <xTaskGenericCreate+0x184>
		{
			/* If the created task is of a higher priority than the current task
			then it should run now. */
			if( pxCurrentTCB->uxPriority < uxPriority )
   82ab8:	4b13      	ldr	r3, [pc, #76]	; (82b08 <xTaskGenericCreate+0x1c0>)
   82aba:	681b      	ldr	r3, [r3, #0]
   82abc:	6adb      	ldr	r3, [r3, #44]	; 0x2c
   82abe:	429d      	cmp	r5, r3
   82ac0:	d907      	bls.n	82ad2 <xTaskGenericCreate+0x18a>
			{
				portYIELD_WITHIN_API();
   82ac2:	4b1f      	ldr	r3, [pc, #124]	; (82b40 <xTaskGenericCreate+0x1f8>)
   82ac4:	4798      	blx	r3
			#endif
			uxTaskNumber++;

			prvAddTaskToReadyQueue( pxNewTCB );

			xReturn = pdPASS;
   82ac6:	2001      	movs	r0, #1
   82ac8:	e8bd 8ff8 	ldmia.w	sp!, {r3, r4, r5, r6, r7, r8, r9, sl, fp, pc}
   82acc:	2001      	movs	r0, #1
   82ace:	e8bd 8ff8 	ldmia.w	sp!, {r3, r4, r5, r6, r7, r8, r9, sl, fp, pc}
   82ad2:	2001      	movs	r0, #1
   82ad4:	e8bd 8ff8 	ldmia.w	sp!, {r3, r4, r5, r6, r7, r8, r9, sl, fp, pc}
	if( pxNewTCB != NULL )
	{
		/* Allocate space for the stack used by the task being created.
		The base of the stack memory stored in the TCB so the task can
		be deleted later if required. */
		pxNewTCB->pxStack = ( portSTACK_TYPE * ) pvPortMallocAligned( ( ( ( size_t )usStackDepth ) * sizeof( portSTACK_TYPE ) ), puxStackBuffer );
   82ad8:	f8c0 8030 	str.w	r8, [r0, #48]	; 0x30
   82adc:	4640      	mov	r0, r8
   82ade:	e75b      	b.n	82998 <xTaskGenericCreate+0x50>
		}
		taskEXIT_CRITICAL();
	}
	else
	{
		xReturn = errCOULD_NOT_ALLOCATE_REQUIRED_MEMORY;
   82ae0:	f04f 30ff 	mov.w	r0, #4294967295
			}
		}
	}

	return xReturn;
}
   82ae4:	e8bd 8ff8 	ldmia.w	sp!, {r3, r4, r5, r6, r7, r8, r9, sl, fp, pc}
   82ae8:	00082149 	.word	0x00082149
   82aec:	000822a5 	.word	0x000822a5
   82af0:	00082369 	.word	0x00082369
   82af4:	000850ed 	.word	0x000850ed
   82af8:	000852f1 	.word	0x000852f1
   82afc:	000820fd 	.word	0x000820fd
   82b00:	00082159 	.word	0x00082159
   82b04:	20078c20 	.word	0x20078c20
   82b08:	20078be0 	.word	0x20078be0
   82b0c:	20078b14 	.word	0x20078b14
   82b10:	00082041 	.word	0x00082041
   82b14:	20078be4 	.word	0x20078be4
   82b18:	20078ae8 	.word	0x20078ae8
   82b1c:	20078ac8 	.word	0x20078ac8
   82b20:	20078adc 	.word	0x20078adc
   82b24:	20078c00 	.word	0x20078c00
   82b28:	20078ae0 	.word	0x20078ae0
   82b2c:	20078c24 	.word	0x20078c24
   82b30:	20078c04 	.word	0x20078c04
   82b34:	20078b10 	.word	0x20078b10
   82b38:	00082061 	.word	0x00082061
   82b3c:	00082179 	.word	0x00082179
   82b40:	00082139 	.word	0x00082139
   82b44:	00082059 	.word	0x00082059
   82b48:	20078c08 	.word	0x20078c08
   82b4c:	20078afc 	.word	0x20078afc

00082b50 <xTaskIsTaskSuspended>:
/*-----------------------------------------------------------*/

#if ( INCLUDE_vTaskSuspend == 1 )

	signed portBASE_TYPE xTaskIsTaskSuspended( xTaskHandle xTask )
	{
   82b50:	b508      	push	{r3, lr}
	portBASE_TYPE xReturn = pdFALSE;
	const tskTCB * const pxTCB = ( tskTCB * ) xTask;

		/* It does not make sense to check if the calling task is suspended. */
		configASSERT( xTask );
   82b52:	b918      	cbnz	r0, 82b5c <xTaskIsTaskSuspended+0xc>
   82b54:	4b0a      	ldr	r3, [pc, #40]	; (82b80 <xTaskIsTaskSuspended+0x30>)
   82b56:	4798      	blx	r3
   82b58:	bf00      	nop
   82b5a:	e7fd      	b.n	82b58 <xTaskIsTaskSuspended+0x8>

		/* Is the task we are attempting to resume actually in the
		suspended list? */
		if( listIS_CONTAINED_WITHIN( &xSuspendedTaskList, &( pxTCB->xGenericListItem ) ) != pdFALSE )
   82b5c:	6942      	ldr	r2, [r0, #20]
   82b5e:	4909      	ldr	r1, [pc, #36]	; (82b84 <xTaskIsTaskSuspended+0x34>)
   82b60:	428a      	cmp	r2, r1
   82b62:	d108      	bne.n	82b76 <xTaskIsTaskSuspended+0x26>
		{
			/* Has the task already been resumed from within an ISR? */
			if( listIS_CONTAINED_WITHIN( &xPendingReadyList, &( pxTCB->xEventListItem ) ) != pdTRUE )
   82b64:	6a80      	ldr	r0, [r0, #40]	; 0x28
   82b66:	4b08      	ldr	r3, [pc, #32]	; (82b88 <xTaskIsTaskSuspended+0x38>)
   82b68:	4298      	cmp	r0, r3
   82b6a:	d006      	beq.n	82b7a <xTaskIsTaskSuspended+0x2a>
			{
				/* Is it in the suspended list because it is in the
				Suspended state?  It is possible to be in the suspended
				list because it is blocked on a task with no timeout
				specified. */
				if( listIS_CONTAINED_WITHIN( NULL, &( pxTCB->xEventListItem ) ) == pdTRUE )
   82b6c:	f1d0 0001 	rsbs	r0, r0, #1
   82b70:	bf38      	it	cc
   82b72:	2000      	movcc	r0, #0
   82b74:	bd08      	pop	{r3, pc}

#if ( INCLUDE_vTaskSuspend == 1 )

	signed portBASE_TYPE xTaskIsTaskSuspended( xTaskHandle xTask )
	{
	portBASE_TYPE xReturn = pdFALSE;
   82b76:	2000      	movs	r0, #0
   82b78:	bd08      	pop	{r3, pc}
   82b7a:	2000      	movs	r0, #0
				}
			}
		}

		return xReturn;
	}
   82b7c:	bd08      	pop	{r3, pc}
   82b7e:	bf00      	nop
   82b80:	00082149 	.word	0x00082149
   82b84:	20078ac8 	.word	0x20078ac8
   82b88:	20078be4 	.word	0x20078be4

00082b8c <vTaskResume>:
/*-----------------------------------------------------------*/

#if ( INCLUDE_vTaskSuspend == 1 )

	void vTaskResume( xTaskHandle pxTaskToResume )
	{
   82b8c:	b538      	push	{r3, r4, r5, lr}
	tskTCB *pxTCB;

		/* It does not make sense to resume the calling task. */
		configASSERT( pxTaskToResume );
   82b8e:	4604      	mov	r4, r0
   82b90:	b918      	cbnz	r0, 82b9a <vTaskResume+0xe>
   82b92:	4b16      	ldr	r3, [pc, #88]	; (82bec <vTaskResume+0x60>)
   82b94:	4798      	blx	r3
   82b96:	bf00      	nop
   82b98:	e7fd      	b.n	82b96 <vTaskResume+0xa>
		it in the ready list. */
		pxTCB = ( tskTCB * ) pxTaskToResume;

		/* The parameter cannot be NULL as it is impossible to resume the
		currently executing task. */
		if( ( pxTCB != NULL ) && ( pxTCB != pxCurrentTCB ) )
   82b9a:	4b15      	ldr	r3, [pc, #84]	; (82bf0 <vTaskResume+0x64>)
   82b9c:	681b      	ldr	r3, [r3, #0]
   82b9e:	4298      	cmp	r0, r3
   82ba0:	d023      	beq.n	82bea <vTaskResume+0x5e>
		{
			taskENTER_CRITICAL();
   82ba2:	4b14      	ldr	r3, [pc, #80]	; (82bf4 <vTaskResume+0x68>)
   82ba4:	4798      	blx	r3
			{
				if( xTaskIsTaskSuspended( pxTCB ) == pdTRUE )
   82ba6:	4620      	mov	r0, r4
   82ba8:	4b13      	ldr	r3, [pc, #76]	; (82bf8 <vTaskResume+0x6c>)
   82baa:	4798      	blx	r3
   82bac:	2801      	cmp	r0, #1
   82bae:	d11a      	bne.n	82be6 <vTaskResume+0x5a>
				{
					traceTASK_RESUME( pxTCB );

					/* As we are in a critical section we can access the ready
					lists even if the scheduler is suspended. */
					uxListRemove(  &( pxTCB->xGenericListItem ) );
   82bb0:	1d25      	adds	r5, r4, #4
   82bb2:	4628      	mov	r0, r5
   82bb4:	4b11      	ldr	r3, [pc, #68]	; (82bfc <vTaskResume+0x70>)
   82bb6:	4798      	blx	r3
					prvAddTaskToReadyQueue( pxTCB );
   82bb8:	6ae3      	ldr	r3, [r4, #44]	; 0x2c
   82bba:	4a11      	ldr	r2, [pc, #68]	; (82c00 <vTaskResume+0x74>)
   82bbc:	6812      	ldr	r2, [r2, #0]
   82bbe:	4293      	cmp	r3, r2
   82bc0:	bf84      	itt	hi
   82bc2:	4a0f      	ldrhi	r2, [pc, #60]	; (82c00 <vTaskResume+0x74>)
   82bc4:	6013      	strhi	r3, [r2, #0]
   82bc6:	eb03 0383 	add.w	r3, r3, r3, lsl #2
   82bca:	480e      	ldr	r0, [pc, #56]	; (82c04 <vTaskResume+0x78>)
   82bcc:	eb00 0083 	add.w	r0, r0, r3, lsl #2
   82bd0:	4629      	mov	r1, r5
   82bd2:	4b0d      	ldr	r3, [pc, #52]	; (82c08 <vTaskResume+0x7c>)
   82bd4:	4798      	blx	r3

					/* We may have just resumed a higher priority task. */
					if( pxTCB->uxPriority >= pxCurrentTCB->uxPriority )
   82bd6:	4b06      	ldr	r3, [pc, #24]	; (82bf0 <vTaskResume+0x64>)
   82bd8:	681b      	ldr	r3, [r3, #0]
   82bda:	6ae2      	ldr	r2, [r4, #44]	; 0x2c
   82bdc:	6adb      	ldr	r3, [r3, #44]	; 0x2c
   82bde:	429a      	cmp	r2, r3
   82be0:	d301      	bcc.n	82be6 <vTaskResume+0x5a>
					{
						/* This yield may not cause the task just resumed to run, but
						will leave the lists in the correct state for the next yield. */
						portYIELD_WITHIN_API();
   82be2:	4b0a      	ldr	r3, [pc, #40]	; (82c0c <vTaskResume+0x80>)
   82be4:	4798      	blx	r3
					}
				}
			}
			taskEXIT_CRITICAL();
   82be6:	4b0a      	ldr	r3, [pc, #40]	; (82c10 <vTaskResume+0x84>)
   82be8:	4798      	blx	r3
   82bea:	bd38      	pop	{r3, r4, r5, pc}
   82bec:	00082149 	.word	0x00082149
   82bf0:	20078be0 	.word	0x20078be0
   82bf4:	00082159 	.word	0x00082159
   82bf8:	00082b51 	.word	0x00082b51
   82bfc:	000820c1 	.word	0x000820c1
   82c00:	20078b10 	.word	0x20078b10
   82c04:	20078b14 	.word	0x20078b14
   82c08:	00082061 	.word	0x00082061
   82c0c:	00082139 	.word	0x00082139
   82c10:	00082179 	.word	0x00082179

00082c14 <vTaskStartScheduler>:
 * PUBLIC SCHEDULER CONTROL documented in task.h
 *----------------------------------------------------------*/


void vTaskStartScheduler( void )
{
   82c14:	b510      	push	{r4, lr}
   82c16:	b084      	sub	sp, #16
		xReturn = xTaskCreate( prvIdleTask, ( signed char * ) "IDLE", tskIDLE_STACK_SIZE, ( void * ) NULL, ( tskIDLE_PRIORITY | portPRIVILEGE_BIT ), &xIdleTaskHandle );
	}
	#else
	{
		/* Create the idle task without storing its handle. */
		xReturn = xTaskCreate( prvIdleTask, ( signed char * ) "IDLE", tskIDLE_STACK_SIZE, ( void * ) NULL, ( tskIDLE_PRIORITY | portPRIVILEGE_BIT ), NULL );
   82c18:	2300      	movs	r3, #0
   82c1a:	9300      	str	r3, [sp, #0]
   82c1c:	9301      	str	r3, [sp, #4]
   82c1e:	9302      	str	r3, [sp, #8]
   82c20:	9303      	str	r3, [sp, #12]
   82c22:	480f      	ldr	r0, [pc, #60]	; (82c60 <vTaskStartScheduler+0x4c>)
   82c24:	490f      	ldr	r1, [pc, #60]	; (82c64 <vTaskStartScheduler+0x50>)
   82c26:	f44f 7280 	mov.w	r2, #256	; 0x100
   82c2a:	4c0f      	ldr	r4, [pc, #60]	; (82c68 <vTaskStartScheduler+0x54>)
   82c2c:	47a0      	blx	r4
	}
	#endif

	#if ( configUSE_TIMERS == 1 )
	{
		if( xReturn == pdPASS )
   82c2e:	2801      	cmp	r0, #1
   82c30:	d10e      	bne.n	82c50 <vTaskStartScheduler+0x3c>
		{
			xReturn = xTimerCreateTimerTask();
   82c32:	4b0e      	ldr	r3, [pc, #56]	; (82c6c <vTaskStartScheduler+0x58>)
   82c34:	4798      	blx	r3
		}
	}
	#endif

	if( xReturn == pdPASS )
   82c36:	2801      	cmp	r0, #1
   82c38:	d10a      	bne.n	82c50 <vTaskStartScheduler+0x3c>
		so interrupts will automatically get re-enabled when the first task
		starts to run.

		STEPPING THROUGH HERE USING A DEBUGGER CAN CAUSE BIG PROBLEMS IF THE
		DEBUGGER ALLOWS INTERRUPTS TO BE PROCESSED. */
		portDISABLE_INTERRUPTS();
   82c3a:	4b0d      	ldr	r3, [pc, #52]	; (82c70 <vTaskStartScheduler+0x5c>)
   82c3c:	4798      	blx	r3

		xSchedulerRunning = pdTRUE;
   82c3e:	2201      	movs	r2, #1
   82c40:	4b0c      	ldr	r3, [pc, #48]	; (82c74 <vTaskStartScheduler+0x60>)
   82c42:	601a      	str	r2, [r3, #0]
		xTickCount = ( portTickType ) 0U;
   82c44:	2200      	movs	r2, #0
   82c46:	4b0c      	ldr	r3, [pc, #48]	; (82c78 <vTaskStartScheduler+0x64>)
   82c48:	801a      	strh	r2, [r3, #0]
		the run time counter time base. */
		portCONFIGURE_TIMER_FOR_RUN_TIME_STATS();

		/* Setting up the timer tick is hardware specific and thus in the
		portable interface. */
		if( xPortStartScheduler() != pdFALSE )
   82c4a:	4b0c      	ldr	r3, [pc, #48]	; (82c7c <vTaskStartScheduler+0x68>)
   82c4c:	4798      	blx	r3
   82c4e:	e004      	b.n	82c5a <vTaskStartScheduler+0x46>
			/* Should only reach here if a task calls xTaskEndScheduler(). */
		}
	}

	/* This line will only be reached if the kernel could not be started. */
	configASSERT( xReturn );
   82c50:	b918      	cbnz	r0, 82c5a <vTaskStartScheduler+0x46>
   82c52:	4b07      	ldr	r3, [pc, #28]	; (82c70 <vTaskStartScheduler+0x5c>)
   82c54:	4798      	blx	r3
   82c56:	bf00      	nop
   82c58:	e7fd      	b.n	82c56 <vTaskStartScheduler+0x42>
}
   82c5a:	b004      	add	sp, #16
   82c5c:	bd10      	pop	{r4, pc}
   82c5e:	bf00      	nop
   82c60:	00082f7d 	.word	0x00082f7d
   82c64:	0008837c 	.word	0x0008837c
   82c68:	00082949 	.word	0x00082949
   82c6c:	000834b5 	.word	0x000834b5
   82c70:	00082149 	.word	0x00082149
   82c74:	20078ae0 	.word	0x20078ae0
   82c78:	20078bfc 	.word	0x20078bfc
   82c7c:	00082215 	.word	0x00082215

00082c80 <vTaskSuspendAll>:

void vTaskSuspendAll( void )
{
	/* A critical section is not required as the variable is of type
	portBASE_TYPE. */
	++uxSchedulerSuspended;
   82c80:	4b02      	ldr	r3, [pc, #8]	; (82c8c <vTaskSuspendAll+0xc>)
   82c82:	681a      	ldr	r2, [r3, #0]
   82c84:	3201      	adds	r2, #1
   82c86:	601a      	str	r2, [r3, #0]
   82c88:	4770      	bx	lr
   82c8a:	bf00      	nop
   82c8c:	20078bdc 	.word	0x20078bdc

00082c90 <xTaskGetTickCount>:
 *----------------------------------------------------------*/



portTickType xTaskGetTickCount( void )
{
   82c90:	b510      	push	{r4, lr}
portTickType xTicks;

	/* Critical section required if running on a 16 bit processor. */
	taskENTER_CRITICAL();
   82c92:	4b04      	ldr	r3, [pc, #16]	; (82ca4 <xTaskGetTickCount+0x14>)
   82c94:	4798      	blx	r3
	{
		xTicks = xTickCount;
   82c96:	4b04      	ldr	r3, [pc, #16]	; (82ca8 <xTaskGetTickCount+0x18>)
   82c98:	881c      	ldrh	r4, [r3, #0]
   82c9a:	b2a4      	uxth	r4, r4
	}
	taskEXIT_CRITICAL();
   82c9c:	4b03      	ldr	r3, [pc, #12]	; (82cac <xTaskGetTickCount+0x1c>)
   82c9e:	4798      	blx	r3

	return xTicks;
}
   82ca0:	4620      	mov	r0, r4
   82ca2:	bd10      	pop	{r4, pc}
   82ca4:	00082159 	.word	0x00082159
   82ca8:	20078bfc 	.word	0x20078bfc
   82cac:	00082179 	.word	0x00082179

00082cb0 <vTaskIncrementTick>:
 * SCHEDULER INTERNALS AVAILABLE FOR PORTING PURPOSES
 * documented in task.h
 *----------------------------------------------------------*/

void vTaskIncrementTick( void )
{
   82cb0:	e92d 41f0 	stmdb	sp!, {r4, r5, r6, r7, r8, lr}

	/* Called by the portable layer each time a tick interrupt occurs.
	Increments the tick then checks to see if the new tick value will cause any
	tasks to be unblocked. */
	traceTASK_INCREMENT_TICK( xTickCount );
	if( uxSchedulerSuspended == ( unsigned portBASE_TYPE ) pdFALSE )
   82cb4:	4b3d      	ldr	r3, [pc, #244]	; (82dac <vTaskIncrementTick+0xfc>)
   82cb6:	681b      	ldr	r3, [r3, #0]
   82cb8:	2b00      	cmp	r3, #0
   82cba:	d171      	bne.n	82da0 <vTaskIncrementTick+0xf0>
	{
		++xTickCount;
   82cbc:	4b3c      	ldr	r3, [pc, #240]	; (82db0 <vTaskIncrementTick+0x100>)
   82cbe:	881a      	ldrh	r2, [r3, #0]
   82cc0:	3201      	adds	r2, #1
   82cc2:	b292      	uxth	r2, r2
   82cc4:	801a      	strh	r2, [r3, #0]
		if( xTickCount == ( portTickType ) 0U )
   82cc6:	881b      	ldrh	r3, [r3, #0]
   82cc8:	b29b      	uxth	r3, r3
   82cca:	bb03      	cbnz	r3, 82d0e <vTaskIncrementTick+0x5e>
			xList *pxTemp;

			/* Tick count has overflowed so we need to swap the delay lists.
			If there are any items in pxDelayedTaskList here then there is
			an error! */
			configASSERT( ( listLIST_IS_EMPTY( pxDelayedTaskList ) ) );
   82ccc:	4b39      	ldr	r3, [pc, #228]	; (82db4 <vTaskIncrementTick+0x104>)
   82cce:	681b      	ldr	r3, [r3, #0]
   82cd0:	681b      	ldr	r3, [r3, #0]
   82cd2:	b11b      	cbz	r3, 82cdc <vTaskIncrementTick+0x2c>
   82cd4:	4b38      	ldr	r3, [pc, #224]	; (82db8 <vTaskIncrementTick+0x108>)
   82cd6:	4798      	blx	r3
   82cd8:	bf00      	nop
   82cda:	e7fd      	b.n	82cd8 <vTaskIncrementTick+0x28>

			pxTemp = pxDelayedTaskList;
   82cdc:	4b35      	ldr	r3, [pc, #212]	; (82db4 <vTaskIncrementTick+0x104>)
   82cde:	6819      	ldr	r1, [r3, #0]
			pxDelayedTaskList = pxOverflowDelayedTaskList;
   82ce0:	4a36      	ldr	r2, [pc, #216]	; (82dbc <vTaskIncrementTick+0x10c>)
   82ce2:	6810      	ldr	r0, [r2, #0]
   82ce4:	6018      	str	r0, [r3, #0]
			pxOverflowDelayedTaskList = pxTemp;
   82ce6:	6011      	str	r1, [r2, #0]
			xNumOfOverflows++;
   82ce8:	4a35      	ldr	r2, [pc, #212]	; (82dc0 <vTaskIncrementTick+0x110>)
   82cea:	6811      	ldr	r1, [r2, #0]
   82cec:	3101      	adds	r1, #1
   82cee:	6011      	str	r1, [r2, #0]

			if( listLIST_IS_EMPTY( pxDelayedTaskList ) != pdFALSE )
   82cf0:	681b      	ldr	r3, [r3, #0]
   82cf2:	681b      	ldr	r3, [r3, #0]
   82cf4:	b923      	cbnz	r3, 82d00 <vTaskIncrementTick+0x50>
				/* The new current delayed list is empty.  Set
				xNextTaskUnblockTime to the maximum possible value so it is
				extremely unlikely that the
				if( xTickCount >= xNextTaskUnblockTime ) test will pass until
				there is an item in the delayed list. */
				xNextTaskUnblockTime = portMAX_DELAY;
   82cf6:	f64f 72ff 	movw	r2, #65535	; 0xffff
   82cfa:	4b32      	ldr	r3, [pc, #200]	; (82dc4 <vTaskIncrementTick+0x114>)
   82cfc:	801a      	strh	r2, [r3, #0]
   82cfe:	e006      	b.n	82d0e <vTaskIncrementTick+0x5e>
			{
				/* The new current delayed list is not empty, get the value of
				the item at the head of the delayed list.  This is the time at
				which the task at the head of the delayed list should be removed
				from the Blocked state. */
				pxTCB = ( tskTCB * ) listGET_OWNER_OF_HEAD_ENTRY( pxDelayedTaskList );
   82d00:	4b2c      	ldr	r3, [pc, #176]	; (82db4 <vTaskIncrementTick+0x104>)
   82d02:	681b      	ldr	r3, [r3, #0]
   82d04:	68db      	ldr	r3, [r3, #12]
   82d06:	68db      	ldr	r3, [r3, #12]
				xNextTaskUnblockTime = listGET_LIST_ITEM_VALUE( &( pxTCB->xGenericListItem ) );
   82d08:	889a      	ldrh	r2, [r3, #4]
   82d0a:	4b2e      	ldr	r3, [pc, #184]	; (82dc4 <vTaskIncrementTick+0x114>)
   82d0c:	801a      	strh	r2, [r3, #0]
			}
		}

		/* See if this tick has made a timeout expire. */
		prvCheckDelayedTasks();
   82d0e:	4b28      	ldr	r3, [pc, #160]	; (82db0 <vTaskIncrementTick+0x100>)
   82d10:	881a      	ldrh	r2, [r3, #0]
   82d12:	b292      	uxth	r2, r2
   82d14:	4b2b      	ldr	r3, [pc, #172]	; (82dc4 <vTaskIncrementTick+0x114>)
   82d16:	881b      	ldrh	r3, [r3, #0]
   82d18:	b29b      	uxth	r3, r3
   82d1a:	429a      	cmp	r2, r3
   82d1c:	d344      	bcc.n	82da8 <vTaskIncrementTick+0xf8>
   82d1e:	4b25      	ldr	r3, [pc, #148]	; (82db4 <vTaskIncrementTick+0x104>)
   82d20:	681b      	ldr	r3, [r3, #0]
   82d22:	681b      	ldr	r3, [r3, #0]
   82d24:	b153      	cbz	r3, 82d3c <vTaskIncrementTick+0x8c>
   82d26:	4b23      	ldr	r3, [pc, #140]	; (82db4 <vTaskIncrementTick+0x104>)
   82d28:	681b      	ldr	r3, [r3, #0]
   82d2a:	68db      	ldr	r3, [r3, #12]
   82d2c:	68dc      	ldr	r4, [r3, #12]
   82d2e:	88a3      	ldrh	r3, [r4, #4]
   82d30:	4a1f      	ldr	r2, [pc, #124]	; (82db0 <vTaskIncrementTick+0x100>)
   82d32:	8812      	ldrh	r2, [r2, #0]
   82d34:	b292      	uxth	r2, r2
   82d36:	4293      	cmp	r3, r2
   82d38:	d914      	bls.n	82d64 <vTaskIncrementTick+0xb4>
   82d3a:	e00f      	b.n	82d5c <vTaskIncrementTick+0xac>
   82d3c:	f64f 72ff 	movw	r2, #65535	; 0xffff
   82d40:	4b20      	ldr	r3, [pc, #128]	; (82dc4 <vTaskIncrementTick+0x114>)
   82d42:	801a      	strh	r2, [r3, #0]
   82d44:	e8bd 81f0 	ldmia.w	sp!, {r4, r5, r6, r7, r8, pc}
   82d48:	4b1a      	ldr	r3, [pc, #104]	; (82db4 <vTaskIncrementTick+0x104>)
   82d4a:	681b      	ldr	r3, [r3, #0]
   82d4c:	68db      	ldr	r3, [r3, #12]
   82d4e:	68dc      	ldr	r4, [r3, #12]
   82d50:	88a3      	ldrh	r3, [r4, #4]
   82d52:	4a17      	ldr	r2, [pc, #92]	; (82db0 <vTaskIncrementTick+0x100>)
   82d54:	8812      	ldrh	r2, [r2, #0]
   82d56:	b292      	uxth	r2, r2
   82d58:	4293      	cmp	r3, r2
   82d5a:	d907      	bls.n	82d6c <vTaskIncrementTick+0xbc>
   82d5c:	4a19      	ldr	r2, [pc, #100]	; (82dc4 <vTaskIncrementTick+0x114>)
   82d5e:	8013      	strh	r3, [r2, #0]
   82d60:	e8bd 81f0 	ldmia.w	sp!, {r4, r5, r6, r7, r8, pc}
   82d64:	4e18      	ldr	r6, [pc, #96]	; (82dc8 <vTaskIncrementTick+0x118>)
   82d66:	4f19      	ldr	r7, [pc, #100]	; (82dcc <vTaskIncrementTick+0x11c>)
   82d68:	f8df 806c 	ldr.w	r8, [pc, #108]	; 82dd8 <vTaskIncrementTick+0x128>
   82d6c:	1d25      	adds	r5, r4, #4
   82d6e:	4628      	mov	r0, r5
   82d70:	47b0      	blx	r6
   82d72:	6aa3      	ldr	r3, [r4, #40]	; 0x28
   82d74:	b113      	cbz	r3, 82d7c <vTaskIncrementTick+0xcc>
   82d76:	f104 0018 	add.w	r0, r4, #24
   82d7a:	47b0      	blx	r6
   82d7c:	6ae3      	ldr	r3, [r4, #44]	; 0x2c
   82d7e:	683a      	ldr	r2, [r7, #0]
   82d80:	4293      	cmp	r3, r2
   82d82:	bf88      	it	hi
   82d84:	603b      	strhi	r3, [r7, #0]
   82d86:	eb03 0083 	add.w	r0, r3, r3, lsl #2
   82d8a:	eb08 0080 	add.w	r0, r8, r0, lsl #2
   82d8e:	4629      	mov	r1, r5
   82d90:	4b0f      	ldr	r3, [pc, #60]	; (82dd0 <vTaskIncrementTick+0x120>)
   82d92:	4798      	blx	r3
   82d94:	4b07      	ldr	r3, [pc, #28]	; (82db4 <vTaskIncrementTick+0x104>)
   82d96:	681b      	ldr	r3, [r3, #0]
   82d98:	681b      	ldr	r3, [r3, #0]
   82d9a:	2b00      	cmp	r3, #0
   82d9c:	d1d4      	bne.n	82d48 <vTaskIncrementTick+0x98>
   82d9e:	e7cd      	b.n	82d3c <vTaskIncrementTick+0x8c>
	}
	else
	{
		++uxMissedTicks;
   82da0:	4b0c      	ldr	r3, [pc, #48]	; (82dd4 <vTaskIncrementTick+0x124>)
   82da2:	681a      	ldr	r2, [r3, #0]
   82da4:	3201      	adds	r2, #1
   82da6:	601a      	str	r2, [r3, #0]
   82da8:	e8bd 81f0 	ldmia.w	sp!, {r4, r5, r6, r7, r8, pc}
   82dac:	20078bdc 	.word	0x20078bdc
   82db0:	20078bfc 	.word	0x20078bfc
   82db4:	20078adc 	.word	0x20078adc
   82db8:	00082149 	.word	0x00082149
   82dbc:	20078c00 	.word	0x20078c00
   82dc0:	20078bf8 	.word	0x20078bf8
   82dc4:	20070178 	.word	0x20070178
   82dc8:	000820c1 	.word	0x000820c1
   82dcc:	20078b10 	.word	0x20078b10
   82dd0:	00082061 	.word	0x00082061
   82dd4:	20078ac4 	.word	0x20078ac4
   82dd8:	20078b14 	.word	0x20078b14

00082ddc <xTaskResumeAll>:

#endif /* configUSE_TICKLESS_IDLE != 0  */
/*----------------------------------------------------------*/

signed portBASE_TYPE xTaskResumeAll( void )
{
   82ddc:	e92d 43f8 	stmdb	sp!, {r3, r4, r5, r6, r7, r8, r9, lr}
register tskTCB *pxTCB;
signed portBASE_TYPE xAlreadyYielded = pdFALSE;

	/* If uxSchedulerSuspended is zero then this function does not match a
	previous call to vTaskSuspendAll(). */
	configASSERT( uxSchedulerSuspended );
   82de0:	4b31      	ldr	r3, [pc, #196]	; (82ea8 <xTaskResumeAll+0xcc>)
   82de2:	681b      	ldr	r3, [r3, #0]
   82de4:	b91b      	cbnz	r3, 82dee <xTaskResumeAll+0x12>
   82de6:	4b31      	ldr	r3, [pc, #196]	; (82eac <xTaskResumeAll+0xd0>)
   82de8:	4798      	blx	r3
   82dea:	bf00      	nop
   82dec:	e7fd      	b.n	82dea <xTaskResumeAll+0xe>
	/* It is possible that an ISR caused a task to be removed from an event
	list while the scheduler was suspended.  If this was the case then the
	removed task will have been added to the xPendingReadyList.  Once the
	scheduler has been resumed it is safe to move all the pending ready
	tasks from this list into their appropriate ready list. */
	taskENTER_CRITICAL();
   82dee:	4b30      	ldr	r3, [pc, #192]	; (82eb0 <xTaskResumeAll+0xd4>)
   82df0:	4798      	blx	r3
	{
		--uxSchedulerSuspended;
   82df2:	4b2d      	ldr	r3, [pc, #180]	; (82ea8 <xTaskResumeAll+0xcc>)
   82df4:	681a      	ldr	r2, [r3, #0]
   82df6:	3a01      	subs	r2, #1
   82df8:	601a      	str	r2, [r3, #0]

		if( uxSchedulerSuspended == ( unsigned portBASE_TYPE ) pdFALSE )
   82dfa:	681b      	ldr	r3, [r3, #0]
   82dfc:	2b00      	cmp	r3, #0
   82dfe:	d148      	bne.n	82e92 <xTaskResumeAll+0xb6>
		{
			if( uxCurrentNumberOfTasks > ( unsigned portBASE_TYPE ) 0U )
   82e00:	4b2c      	ldr	r3, [pc, #176]	; (82eb4 <xTaskResumeAll+0xd8>)
   82e02:	681b      	ldr	r3, [r3, #0]
   82e04:	2b00      	cmp	r3, #0
   82e06:	d046      	beq.n	82e96 <xTaskResumeAll+0xba>
   82e08:	2500      	movs	r5, #0
			{
				portBASE_TYPE xYieldRequired = pdFALSE;

				/* Move any readied tasks from the pending list into the
				appropriate ready list. */
				while( listLIST_IS_EMPTY( ( xList * ) &xPendingReadyList ) == pdFALSE )
   82e0a:	f8df 80d4 	ldr.w	r8, [pc, #212]	; 82ee0 <xTaskResumeAll+0x104>
				{
					pxTCB = ( tskTCB * ) listGET_OWNER_OF_HEAD_ENTRY(  ( ( xList * ) &xPendingReadyList ) );
					uxListRemove( &( pxTCB->xEventListItem ) );
   82e0e:	4f2a      	ldr	r7, [pc, #168]	; (82eb8 <xTaskResumeAll+0xdc>)
					uxListRemove( &( pxTCB->xGenericListItem ) );
					prvAddTaskToReadyQueue( pxTCB );
   82e10:	4e2a      	ldr	r6, [pc, #168]	; (82ebc <xTaskResumeAll+0xe0>)
   82e12:	e01d      	b.n	82e50 <xTaskResumeAll+0x74>

				/* Move any readied tasks from the pending list into the
				appropriate ready list. */
				while( listLIST_IS_EMPTY( ( xList * ) &xPendingReadyList ) == pdFALSE )
				{
					pxTCB = ( tskTCB * ) listGET_OWNER_OF_HEAD_ENTRY(  ( ( xList * ) &xPendingReadyList ) );
   82e14:	f8d8 300c 	ldr.w	r3, [r8, #12]
   82e18:	68dc      	ldr	r4, [r3, #12]
					uxListRemove( &( pxTCB->xEventListItem ) );
   82e1a:	f104 0018 	add.w	r0, r4, #24
   82e1e:	47b8      	blx	r7
					uxListRemove( &( pxTCB->xGenericListItem ) );
   82e20:	f104 0904 	add.w	r9, r4, #4
   82e24:	4648      	mov	r0, r9
   82e26:	47b8      	blx	r7
					prvAddTaskToReadyQueue( pxTCB );
   82e28:	6ae3      	ldr	r3, [r4, #44]	; 0x2c
   82e2a:	6832      	ldr	r2, [r6, #0]
   82e2c:	4293      	cmp	r3, r2
   82e2e:	bf88      	it	hi
   82e30:	6033      	strhi	r3, [r6, #0]
   82e32:	eb03 0383 	add.w	r3, r3, r3, lsl #2
   82e36:	4822      	ldr	r0, [pc, #136]	; (82ec0 <xTaskResumeAll+0xe4>)
   82e38:	eb00 0083 	add.w	r0, r0, r3, lsl #2
   82e3c:	4649      	mov	r1, r9
   82e3e:	4b21      	ldr	r3, [pc, #132]	; (82ec4 <xTaskResumeAll+0xe8>)
   82e40:	4798      	blx	r3

					/* If we have moved a task that has a priority higher than
					the current task then we should yield. */
					if( pxTCB->uxPriority >= pxCurrentTCB->uxPriority )
   82e42:	4b21      	ldr	r3, [pc, #132]	; (82ec8 <xTaskResumeAll+0xec>)
   82e44:	681b      	ldr	r3, [r3, #0]
   82e46:	6ae2      	ldr	r2, [r4, #44]	; 0x2c
   82e48:	6adb      	ldr	r3, [r3, #44]	; 0x2c
					{
						xYieldRequired = pdTRUE;
   82e4a:	429a      	cmp	r2, r3
   82e4c:	bf28      	it	cs
   82e4e:	2501      	movcs	r5, #1
			{
				portBASE_TYPE xYieldRequired = pdFALSE;

				/* Move any readied tasks from the pending list into the
				appropriate ready list. */
				while( listLIST_IS_EMPTY( ( xList * ) &xPendingReadyList ) == pdFALSE )
   82e50:	f8d8 3000 	ldr.w	r3, [r8]
   82e54:	2b00      	cmp	r3, #0
   82e56:	d1dd      	bne.n	82e14 <xTaskResumeAll+0x38>
				}

				/* If any ticks occurred while the scheduler was suspended then
				they should be processed now.  This ensures the tick count does not
				slip, and that any delayed tasks are resumed at the correct time. */
				if( uxMissedTicks > ( unsigned portBASE_TYPE ) 0U )
   82e58:	4b1c      	ldr	r3, [pc, #112]	; (82ecc <xTaskResumeAll+0xf0>)
   82e5a:	681b      	ldr	r3, [r3, #0]
   82e5c:	b163      	cbz	r3, 82e78 <xTaskResumeAll+0x9c>
				{
					while( uxMissedTicks > ( unsigned portBASE_TYPE ) 0U )
   82e5e:	4b1b      	ldr	r3, [pc, #108]	; (82ecc <xTaskResumeAll+0xf0>)
   82e60:	681b      	ldr	r3, [r3, #0]
   82e62:	b17b      	cbz	r3, 82e84 <xTaskResumeAll+0xa8>
					{
						vTaskIncrementTick();
   82e64:	4d1a      	ldr	r5, [pc, #104]	; (82ed0 <xTaskResumeAll+0xf4>)
						--uxMissedTicks;
   82e66:	4c19      	ldr	r4, [pc, #100]	; (82ecc <xTaskResumeAll+0xf0>)
				slip, and that any delayed tasks are resumed at the correct time. */
				if( uxMissedTicks > ( unsigned portBASE_TYPE ) 0U )
				{
					while( uxMissedTicks > ( unsigned portBASE_TYPE ) 0U )
					{
						vTaskIncrementTick();
   82e68:	47a8      	blx	r5
						--uxMissedTicks;
   82e6a:	6823      	ldr	r3, [r4, #0]
   82e6c:	3b01      	subs	r3, #1
   82e6e:	6023      	str	r3, [r4, #0]
				/* If any ticks occurred while the scheduler was suspended then
				they should be processed now.  This ensures the tick count does not
				slip, and that any delayed tasks are resumed at the correct time. */
				if( uxMissedTicks > ( unsigned portBASE_TYPE ) 0U )
				{
					while( uxMissedTicks > ( unsigned portBASE_TYPE ) 0U )
   82e70:	6823      	ldr	r3, [r4, #0]
   82e72:	2b00      	cmp	r3, #0
   82e74:	d1f8      	bne.n	82e68 <xTaskResumeAll+0x8c>
   82e76:	e005      	b.n	82e84 <xTaskResumeAll+0xa8>
						xYieldRequired = pdTRUE;
					}
					#endif
				}

				if( ( xYieldRequired == pdTRUE ) || ( xMissedYield == pdTRUE ) )
   82e78:	2d01      	cmp	r5, #1
   82e7a:	d003      	beq.n	82e84 <xTaskResumeAll+0xa8>
   82e7c:	4b15      	ldr	r3, [pc, #84]	; (82ed4 <xTaskResumeAll+0xf8>)
   82e7e:	681b      	ldr	r3, [r3, #0]
   82e80:	2b01      	cmp	r3, #1
   82e82:	d10a      	bne.n	82e9a <xTaskResumeAll+0xbe>
				{
					xAlreadyYielded = pdTRUE;
					xMissedYield = pdFALSE;
   82e84:	2200      	movs	r2, #0
   82e86:	4b13      	ldr	r3, [pc, #76]	; (82ed4 <xTaskResumeAll+0xf8>)
   82e88:	601a      	str	r2, [r3, #0]
					portYIELD_WITHIN_API();
   82e8a:	4b13      	ldr	r3, [pc, #76]	; (82ed8 <xTaskResumeAll+0xfc>)
   82e8c:	4798      	blx	r3
					#endif
				}

				if( ( xYieldRequired == pdTRUE ) || ( xMissedYield == pdTRUE ) )
				{
					xAlreadyYielded = pdTRUE;
   82e8e:	2401      	movs	r4, #1
   82e90:	e004      	b.n	82e9c <xTaskResumeAll+0xc0>
/*----------------------------------------------------------*/

signed portBASE_TYPE xTaskResumeAll( void )
{
register tskTCB *pxTCB;
signed portBASE_TYPE xAlreadyYielded = pdFALSE;
   82e92:	2400      	movs	r4, #0
   82e94:	e002      	b.n	82e9c <xTaskResumeAll+0xc0>
   82e96:	2400      	movs	r4, #0
   82e98:	e000      	b.n	82e9c <xTaskResumeAll+0xc0>
   82e9a:	2400      	movs	r4, #0
					portYIELD_WITHIN_API();
				}
			}
		}
	}
	taskEXIT_CRITICAL();
   82e9c:	4b0f      	ldr	r3, [pc, #60]	; (82edc <xTaskResumeAll+0x100>)
   82e9e:	4798      	blx	r3

	return xAlreadyYielded;
}
   82ea0:	4620      	mov	r0, r4
   82ea2:	e8bd 83f8 	ldmia.w	sp!, {r3, r4, r5, r6, r7, r8, r9, pc}
   82ea6:	bf00      	nop
   82ea8:	20078bdc 	.word	0x20078bdc
   82eac:	00082149 	.word	0x00082149
   82eb0:	00082159 	.word	0x00082159
   82eb4:	20078c20 	.word	0x20078c20
   82eb8:	000820c1 	.word	0x000820c1
   82ebc:	20078b10 	.word	0x20078b10
   82ec0:	20078b14 	.word	0x20078b14
   82ec4:	00082061 	.word	0x00082061
   82ec8:	20078be0 	.word	0x20078be0
   82ecc:	20078ac4 	.word	0x20078ac4
   82ed0:	00082cb1 	.word	0x00082cb1
   82ed4:	20078c1c 	.word	0x20078c1c
   82ed8:	00082139 	.word	0x00082139
   82edc:	00082179 	.word	0x00082179
   82ee0:	20078be4 	.word	0x20078be4

00082ee4 <vTaskDelayUntil>:
 *----------------------------------------------------------*/

#if ( INCLUDE_vTaskDelayUntil == 1 )

	void vTaskDelayUntil( portTickType * const pxPreviousWakeTime, portTickType xTimeIncrement )
	{
   82ee4:	b538      	push	{r3, r4, r5, lr}
   82ee6:	460c      	mov	r4, r1
	portTickType xTimeToWake;
	portBASE_TYPE xAlreadyYielded, xShouldDelay = pdFALSE;

		configASSERT( pxPreviousWakeTime );
   82ee8:	4605      	mov	r5, r0
   82eea:	b918      	cbnz	r0, 82ef4 <vTaskDelayUntil+0x10>
   82eec:	4b1b      	ldr	r3, [pc, #108]	; (82f5c <vTaskDelayUntil+0x78>)
   82eee:	4798      	blx	r3
   82ef0:	bf00      	nop
   82ef2:	e7fd      	b.n	82ef0 <vTaskDelayUntil+0xc>
		configASSERT( ( xTimeIncrement > 0U ) );
   82ef4:	b919      	cbnz	r1, 82efe <vTaskDelayUntil+0x1a>
   82ef6:	4b19      	ldr	r3, [pc, #100]	; (82f5c <vTaskDelayUntil+0x78>)
   82ef8:	4798      	blx	r3
   82efa:	bf00      	nop
   82efc:	e7fd      	b.n	82efa <vTaskDelayUntil+0x16>

		vTaskSuspendAll();
   82efe:	4b18      	ldr	r3, [pc, #96]	; (82f60 <vTaskDelayUntil+0x7c>)
   82f00:	4798      	blx	r3
		{
			/* Generate the tick time at which the task wants to wake. */
			xTimeToWake = *pxPreviousWakeTime + xTimeIncrement;
   82f02:	882b      	ldrh	r3, [r5, #0]
   82f04:	441c      	add	r4, r3
   82f06:	b2a4      	uxth	r4, r4

			if( xTickCount < *pxPreviousWakeTime )
   82f08:	4a16      	ldr	r2, [pc, #88]	; (82f64 <vTaskDelayUntil+0x80>)
   82f0a:	8812      	ldrh	r2, [r2, #0]
   82f0c:	b292      	uxth	r2, r2
   82f0e:	4293      	cmp	r3, r2
   82f10:	d908      	bls.n	82f24 <vTaskDelayUntil+0x40>
				/* The tick count has overflowed since this function was
				lasted called.  In this case the only time we should ever
				actually delay is if the wake time has also	overflowed,
				and the wake time is greater than the tick time.  When this
				is the case it is as if neither time had overflowed. */
				if( ( xTimeToWake < *pxPreviousWakeTime ) && ( xTimeToWake > xTickCount ) )
   82f12:	42a3      	cmp	r3, r4
   82f14:	d91e      	bls.n	82f54 <vTaskDelayUntil+0x70>
   82f16:	4b13      	ldr	r3, [pc, #76]	; (82f64 <vTaskDelayUntil+0x80>)
   82f18:	881b      	ldrh	r3, [r3, #0]
   82f1a:	b29b      	uxth	r3, r3
					xShouldDelay = pdTRUE;
				}
			}

			/* Update the wake time ready for the next call. */
			*pxPreviousWakeTime = xTimeToWake;
   82f1c:	802c      	strh	r4, [r5, #0]

			if( xShouldDelay != pdFALSE )
   82f1e:	429c      	cmp	r4, r3
   82f20:	d910      	bls.n	82f44 <vTaskDelayUntil+0x60>
   82f22:	e007      	b.n	82f34 <vTaskDelayUntil+0x50>
			else
			{
				/* The tick time has not overflowed.  In this case we will
				delay if either the wake time has overflowed, and/or the
				tick time is less than the wake time. */
				if( ( xTimeToWake < *pxPreviousWakeTime ) || ( xTimeToWake > xTickCount ) )
   82f24:	42a3      	cmp	r3, r4
   82f26:	d813      	bhi.n	82f50 <vTaskDelayUntil+0x6c>
   82f28:	4b0e      	ldr	r3, [pc, #56]	; (82f64 <vTaskDelayUntil+0x80>)
   82f2a:	881b      	ldrh	r3, [r3, #0]
   82f2c:	b29b      	uxth	r3, r3
   82f2e:	429c      	cmp	r4, r3
   82f30:	d80e      	bhi.n	82f50 <vTaskDelayUntil+0x6c>
   82f32:	e00f      	b.n	82f54 <vTaskDelayUntil+0x70>
				traceTASK_DELAY_UNTIL();

				/* We must remove ourselves from the ready list before adding
				ourselves to the blocked list as the same list item is used for
				both lists. */
				if( uxListRemove( ( xListItem * ) &( pxCurrentTCB->xGenericListItem ) ) == 0 )
   82f34:	4b0c      	ldr	r3, [pc, #48]	; (82f68 <vTaskDelayUntil+0x84>)
   82f36:	6818      	ldr	r0, [r3, #0]
   82f38:	3004      	adds	r0, #4
   82f3a:	4b0c      	ldr	r3, [pc, #48]	; (82f6c <vTaskDelayUntil+0x88>)
   82f3c:	4798      	blx	r3
					no need to check, and the port reset macro can be called
					directly. */
					portRESET_READY_PRIORITY( pxCurrentTCB->uxPriority, uxTopReadyPriority );
				}

				prvAddCurrentTaskToDelayedList( xTimeToWake );
   82f3e:	4620      	mov	r0, r4
   82f40:	4b0b      	ldr	r3, [pc, #44]	; (82f70 <vTaskDelayUntil+0x8c>)
   82f42:	4798      	blx	r3
			}
		}
		xAlreadyYielded = xTaskResumeAll();
   82f44:	4b0b      	ldr	r3, [pc, #44]	; (82f74 <vTaskDelayUntil+0x90>)
   82f46:	4798      	blx	r3

		/* Force a reschedule if xTaskResumeAll has not already done so, we may
		have put ourselves to sleep. */
		if( xAlreadyYielded == pdFALSE )
   82f48:	b930      	cbnz	r0, 82f58 <vTaskDelayUntil+0x74>
		{
			portYIELD_WITHIN_API();
   82f4a:	4b0b      	ldr	r3, [pc, #44]	; (82f78 <vTaskDelayUntil+0x94>)
   82f4c:	4798      	blx	r3
   82f4e:	bd38      	pop	{r3, r4, r5, pc}
					xShouldDelay = pdTRUE;
				}
			}

			/* Update the wake time ready for the next call. */
			*pxPreviousWakeTime = xTimeToWake;
   82f50:	802c      	strh	r4, [r5, #0]
   82f52:	e7ef      	b.n	82f34 <vTaskDelayUntil+0x50>
   82f54:	802c      	strh	r4, [r5, #0]
   82f56:	e7f5      	b.n	82f44 <vTaskDelayUntil+0x60>
   82f58:	bd38      	pop	{r3, r4, r5, pc}
   82f5a:	bf00      	nop
   82f5c:	00082149 	.word	0x00082149
   82f60:	00082c81 	.word	0x00082c81
   82f64:	20078bfc 	.word	0x20078bfc
   82f68:	20078be0 	.word	0x20078be0
   82f6c:	000820c1 	.word	0x000820c1
   82f70:	000828ed 	.word	0x000828ed
   82f74:	00082ddd 	.word	0x00082ddd
   82f78:	00082139 	.word	0x00082139

00082f7c <prvIdleTask>:
 *
 * void prvIdleTask( void *pvParameters );
 *
 */
static portTASK_FUNCTION( prvIdleTask, pvParameters )
{
   82f7c:	b580      	push	{r7, lr}
	{
		portBASE_TYPE xListIsEmpty;

		/* ucTasksDeleted is used to prevent vTaskSuspendAll() being called
		too often in the idle task. */
		while( uxTasksDeleted > ( unsigned portBASE_TYPE ) 0U )
   82f7e:	4d15      	ldr	r5, [pc, #84]	; (82fd4 <prvIdleTask+0x58>)

			A critical region is not required here as we are just reading from
			the list, and an occasional incorrect value will not matter.  If
			the ready list at the idle priority contains more than one task
			then a task other than the idle task is ready to execute. */
			if( listCURRENT_LIST_LENGTH( &( pxReadyTasksLists[ tskIDLE_PRIORITY ] ) ) > ( unsigned portBASE_TYPE ) 1 )
   82f80:	4e15      	ldr	r6, [pc, #84]	; (82fd8 <prvIdleTask+0x5c>)
			{
				taskYIELD();
   82f82:	f8df 8078 	ldr.w	r8, [pc, #120]	; 82ffc <prvIdleTask+0x80>
   82f86:	e01c      	b.n	82fc2 <prvIdleTask+0x46>

		/* ucTasksDeleted is used to prevent vTaskSuspendAll() being called
		too often in the idle task. */
		while( uxTasksDeleted > ( unsigned portBASE_TYPE ) 0U )
		{
			vTaskSuspendAll();
   82f88:	4b14      	ldr	r3, [pc, #80]	; (82fdc <prvIdleTask+0x60>)
   82f8a:	4798      	blx	r3
				xListIsEmpty = listLIST_IS_EMPTY( &xTasksWaitingTermination );
   82f8c:	4b14      	ldr	r3, [pc, #80]	; (82fe0 <prvIdleTask+0x64>)
   82f8e:	681c      	ldr	r4, [r3, #0]
			xTaskResumeAll();
   82f90:	4b14      	ldr	r3, [pc, #80]	; (82fe4 <prvIdleTask+0x68>)
   82f92:	4798      	blx	r3

			if( xListIsEmpty == pdFALSE )
   82f94:	b1ac      	cbz	r4, 82fc2 <prvIdleTask+0x46>
			{
				tskTCB *pxTCB;

				taskENTER_CRITICAL();
   82f96:	4b14      	ldr	r3, [pc, #80]	; (82fe8 <prvIdleTask+0x6c>)
   82f98:	4798      	blx	r3
				{
					pxTCB = ( tskTCB * ) listGET_OWNER_OF_HEAD_ENTRY( ( ( xList * ) &xTasksWaitingTermination ) );
   82f9a:	4b11      	ldr	r3, [pc, #68]	; (82fe0 <prvIdleTask+0x64>)
   82f9c:	68db      	ldr	r3, [r3, #12]
   82f9e:	68dc      	ldr	r4, [r3, #12]
					uxListRemove( &( pxTCB->xGenericListItem ) );
   82fa0:	1d20      	adds	r0, r4, #4
   82fa2:	4b12      	ldr	r3, [pc, #72]	; (82fec <prvIdleTask+0x70>)
   82fa4:	4798      	blx	r3
					--uxCurrentNumberOfTasks;
   82fa6:	4b12      	ldr	r3, [pc, #72]	; (82ff0 <prvIdleTask+0x74>)
   82fa8:	681a      	ldr	r2, [r3, #0]
   82faa:	3a01      	subs	r2, #1
   82fac:	601a      	str	r2, [r3, #0]
					--uxTasksDeleted;
   82fae:	682b      	ldr	r3, [r5, #0]
   82fb0:	3b01      	subs	r3, #1
   82fb2:	602b      	str	r3, [r5, #0]
				}
				taskEXIT_CRITICAL();
   82fb4:	4b0f      	ldr	r3, [pc, #60]	; (82ff4 <prvIdleTask+0x78>)
   82fb6:	4798      	blx	r3
		want to allocate and clean RAM statically. */
		portCLEAN_UP_TCB( pxTCB );

		/* Free up the memory allocated by the scheduler for the task.  It is up to
		the task to free any memory allocated at the application level. */
		vPortFreeAligned( pxTCB->pxStack );
   82fb8:	6b20      	ldr	r0, [r4, #48]	; 0x30
   82fba:	4f0f      	ldr	r7, [pc, #60]	; (82ff8 <prvIdleTask+0x7c>)
   82fbc:	47b8      	blx	r7
		vPortFree( pxTCB );
   82fbe:	4620      	mov	r0, r4
   82fc0:	47b8      	blx	r7
	{
		portBASE_TYPE xListIsEmpty;

		/* ucTasksDeleted is used to prevent vTaskSuspendAll() being called
		too often in the idle task. */
		while( uxTasksDeleted > ( unsigned portBASE_TYPE ) 0U )
   82fc2:	682b      	ldr	r3, [r5, #0]
   82fc4:	2b00      	cmp	r3, #0
   82fc6:	d1df      	bne.n	82f88 <prvIdleTask+0xc>

			A critical region is not required here as we are just reading from
			the list, and an occasional incorrect value will not matter.  If
			the ready list at the idle priority contains more than one task
			then a task other than the idle task is ready to execute. */
			if( listCURRENT_LIST_LENGTH( &( pxReadyTasksLists[ tskIDLE_PRIORITY ] ) ) > ( unsigned portBASE_TYPE ) 1 )
   82fc8:	6833      	ldr	r3, [r6, #0]
   82fca:	2b01      	cmp	r3, #1
   82fcc:	d9f9      	bls.n	82fc2 <prvIdleTask+0x46>
			{
				taskYIELD();
   82fce:	47c0      	blx	r8
   82fd0:	e7f7      	b.n	82fc2 <prvIdleTask+0x46>
   82fd2:	bf00      	nop
   82fd4:	20078ae4 	.word	0x20078ae4
   82fd8:	20078b14 	.word	0x20078b14
   82fdc:	00082c81 	.word	0x00082c81
   82fe0:	20078ae8 	.word	0x20078ae8
   82fe4:	00082ddd 	.word	0x00082ddd
   82fe8:	00082159 	.word	0x00082159
   82fec:	000820c1 	.word	0x000820c1
   82ff0:	20078c20 	.word	0x20078c20
   82ff4:	00082179 	.word	0x00082179
   82ff8:	00082369 	.word	0x00082369
   82ffc:	00082139 	.word	0x00082139

00083000 <vTaskSwitchContext>:

#endif
/*-----------------------------------------------------------*/

void vTaskSwitchContext( void )
{
   83000:	b508      	push	{r3, lr}
	if( uxSchedulerSuspended != ( unsigned portBASE_TYPE ) pdFALSE )
   83002:	4b1d      	ldr	r3, [pc, #116]	; (83078 <vTaskSwitchContext+0x78>)
   83004:	681b      	ldr	r3, [r3, #0]
   83006:	b95b      	cbnz	r3, 83020 <vTaskSwitchContext+0x20>
		#endif

		taskFIRST_CHECK_FOR_STACK_OVERFLOW();
		taskSECOND_CHECK_FOR_STACK_OVERFLOW();

		taskSELECT_HIGHEST_PRIORITY_TASK();
   83008:	4b1c      	ldr	r3, [pc, #112]	; (8307c <vTaskSwitchContext+0x7c>)
   8300a:	681b      	ldr	r3, [r3, #0]
   8300c:	eb03 0383 	add.w	r3, r3, r3, lsl #2
   83010:	009b      	lsls	r3, r3, #2
   83012:	4a1b      	ldr	r2, [pc, #108]	; (83080 <vTaskSwitchContext+0x80>)
   83014:	58d3      	ldr	r3, [r2, r3]
   83016:	b9cb      	cbnz	r3, 8304c <vTaskSwitchContext+0x4c>
   83018:	4b18      	ldr	r3, [pc, #96]	; (8307c <vTaskSwitchContext+0x7c>)
   8301a:	681b      	ldr	r3, [r3, #0]
   8301c:	b953      	cbnz	r3, 83034 <vTaskSwitchContext+0x34>
   8301e:	e005      	b.n	8302c <vTaskSwitchContext+0x2c>
{
	if( uxSchedulerSuspended != ( unsigned portBASE_TYPE ) pdFALSE )
	{
		/* The scheduler is currently suspended - do not allow a context
		switch. */
		xMissedYield = pdTRUE;
   83020:	2201      	movs	r2, #1
   83022:	4b18      	ldr	r3, [pc, #96]	; (83084 <vTaskSwitchContext+0x84>)
   83024:	601a      	str	r2, [r3, #0]
   83026:	bd08      	pop	{r3, pc}
		#endif

		taskFIRST_CHECK_FOR_STACK_OVERFLOW();
		taskSECOND_CHECK_FOR_STACK_OVERFLOW();

		taskSELECT_HIGHEST_PRIORITY_TASK();
   83028:	681a      	ldr	r2, [r3, #0]
   8302a:	b92a      	cbnz	r2, 83038 <vTaskSwitchContext+0x38>
   8302c:	4b16      	ldr	r3, [pc, #88]	; (83088 <vTaskSwitchContext+0x88>)
   8302e:	4798      	blx	r3
   83030:	bf00      	nop
   83032:	e7fd      	b.n	83030 <vTaskSwitchContext+0x30>
   83034:	4b11      	ldr	r3, [pc, #68]	; (8307c <vTaskSwitchContext+0x7c>)
   83036:	4912      	ldr	r1, [pc, #72]	; (83080 <vTaskSwitchContext+0x80>)
   83038:	681a      	ldr	r2, [r3, #0]
   8303a:	3a01      	subs	r2, #1
   8303c:	601a      	str	r2, [r3, #0]
   8303e:	681a      	ldr	r2, [r3, #0]
   83040:	eb02 0282 	add.w	r2, r2, r2, lsl #2
   83044:	f851 2022 	ldr.w	r2, [r1, r2, lsl #2]
   83048:	2a00      	cmp	r2, #0
   8304a:	d0ed      	beq.n	83028 <vTaskSwitchContext+0x28>
   8304c:	4b0b      	ldr	r3, [pc, #44]	; (8307c <vTaskSwitchContext+0x7c>)
   8304e:	681b      	ldr	r3, [r3, #0]
   83050:	eb03 0383 	add.w	r3, r3, r3, lsl #2
   83054:	4a0a      	ldr	r2, [pc, #40]	; (83080 <vTaskSwitchContext+0x80>)
   83056:	eb02 0383 	add.w	r3, r2, r3, lsl #2
   8305a:	685a      	ldr	r2, [r3, #4]
   8305c:	6852      	ldr	r2, [r2, #4]
   8305e:	605a      	str	r2, [r3, #4]
   83060:	f103 0108 	add.w	r1, r3, #8
   83064:	428a      	cmp	r2, r1
   83066:	bf04      	itt	eq
   83068:	6852      	ldreq	r2, [r2, #4]
   8306a:	605a      	streq	r2, [r3, #4]
   8306c:	685b      	ldr	r3, [r3, #4]
   8306e:	68da      	ldr	r2, [r3, #12]
   83070:	4b06      	ldr	r3, [pc, #24]	; (8308c <vTaskSwitchContext+0x8c>)
   83072:	601a      	str	r2, [r3, #0]
   83074:	bd08      	pop	{r3, pc}
   83076:	bf00      	nop
   83078:	20078bdc 	.word	0x20078bdc
   8307c:	20078b10 	.word	0x20078b10
   83080:	20078b14 	.word	0x20078b14
   83084:	20078c1c 	.word	0x20078c1c
   83088:	00082149 	.word	0x00082149
   8308c:	20078be0 	.word	0x20078be0

00083090 <vTaskSuspend>:
/*-----------------------------------------------------------*/

#if ( INCLUDE_vTaskSuspend == 1 )

	void vTaskSuspend( xTaskHandle pxTaskToSuspend )
	{
   83090:	b570      	push	{r4, r5, r6, lr}
   83092:	4604      	mov	r4, r0
	tskTCB *pxTCB;

		taskENTER_CRITICAL();
   83094:	4b18      	ldr	r3, [pc, #96]	; (830f8 <vTaskSuspend+0x68>)
   83096:	4798      	blx	r3
		{
			/* Ensure a yield is performed if the current task is being
			suspended. */
			if( pxTaskToSuspend == pxCurrentTCB )
   83098:	4b18      	ldr	r3, [pc, #96]	; (830fc <vTaskSuspend+0x6c>)
   8309a:	681b      	ldr	r3, [r3, #0]
   8309c:	429c      	cmp	r4, r3
   8309e:	d003      	beq.n	830a8 <vTaskSuspend+0x18>
   830a0:	4626      	mov	r6, r4
			{
				pxTaskToSuspend = NULL;
			}

			/* If null is passed in here then we are suspending ourselves. */
			pxTCB = prvGetTCBFromHandle( pxTaskToSuspend );
   830a2:	b92c      	cbnz	r4, 830b0 <vTaskSuspend+0x20>
   830a4:	4626      	mov	r6, r4
   830a6:	e000      	b.n	830aa <vTaskSuspend+0x1a>
		{
			/* Ensure a yield is performed if the current task is being
			suspended. */
			if( pxTaskToSuspend == pxCurrentTCB )
			{
				pxTaskToSuspend = NULL;
   830a8:	2600      	movs	r6, #0
			}

			/* If null is passed in here then we are suspending ourselves. */
			pxTCB = prvGetTCBFromHandle( pxTaskToSuspend );
   830aa:	4b14      	ldr	r3, [pc, #80]	; (830fc <vTaskSuspend+0x6c>)
   830ac:	681c      	ldr	r4, [r3, #0]
   830ae:	e7ff      	b.n	830b0 <vTaskSuspend+0x20>

			traceTASK_SUSPEND( pxTCB );

			/* Remove task from the ready/delayed list and place in the	suspended list. */
			if( uxListRemove( ( xListItem * ) &( pxTCB->xGenericListItem ) ) == 0 )
   830b0:	1d25      	adds	r5, r4, #4
   830b2:	4628      	mov	r0, r5
   830b4:	4b12      	ldr	r3, [pc, #72]	; (83100 <vTaskSuspend+0x70>)
   830b6:	4798      	blx	r3
			{
				taskRESET_READY_PRIORITY( pxTCB->uxPriority );
			}

			/* Is the task waiting on an event also? */
			if( pxTCB->xEventListItem.pvContainer != NULL )
   830b8:	6aa3      	ldr	r3, [r4, #40]	; 0x28
   830ba:	b11b      	cbz	r3, 830c4 <vTaskSuspend+0x34>
			{
				uxListRemove( &( pxTCB->xEventListItem ) );
   830bc:	f104 0018 	add.w	r0, r4, #24
   830c0:	4b0f      	ldr	r3, [pc, #60]	; (83100 <vTaskSuspend+0x70>)
   830c2:	4798      	blx	r3
			}

			vListInsertEnd( ( xList * ) &xSuspendedTaskList, &( pxTCB->xGenericListItem ) );
   830c4:	480f      	ldr	r0, [pc, #60]	; (83104 <vTaskSuspend+0x74>)
   830c6:	4629      	mov	r1, r5
   830c8:	4b0f      	ldr	r3, [pc, #60]	; (83108 <vTaskSuspend+0x78>)
   830ca:	4798      	blx	r3
		}
		taskEXIT_CRITICAL();
   830cc:	4b0f      	ldr	r3, [pc, #60]	; (8310c <vTaskSuspend+0x7c>)
   830ce:	4798      	blx	r3

		if( ( void * ) pxTaskToSuspend == NULL )
   830d0:	b98e      	cbnz	r6, 830f6 <vTaskSuspend+0x66>
		{
			if( xSchedulerRunning != pdFALSE )
   830d2:	4b0f      	ldr	r3, [pc, #60]	; (83110 <vTaskSuspend+0x80>)
   830d4:	681b      	ldr	r3, [r3, #0]
   830d6:	b113      	cbz	r3, 830de <vTaskSuspend+0x4e>
			{
				/* We have just suspended the current task. */
				portYIELD_WITHIN_API();
   830d8:	4b0e      	ldr	r3, [pc, #56]	; (83114 <vTaskSuspend+0x84>)
   830da:	4798      	blx	r3
   830dc:	bd70      	pop	{r4, r5, r6, pc}
			else
			{
				/* The scheduler is not running, but the task that was pointed
				to by pxCurrentTCB has just been suspended and pxCurrentTCB
				must be adjusted to point to a different task. */
				if( listCURRENT_LIST_LENGTH( &xSuspendedTaskList ) == uxCurrentNumberOfTasks )
   830de:	4b09      	ldr	r3, [pc, #36]	; (83104 <vTaskSuspend+0x74>)
   830e0:	681a      	ldr	r2, [r3, #0]
   830e2:	4b0d      	ldr	r3, [pc, #52]	; (83118 <vTaskSuspend+0x88>)
   830e4:	681b      	ldr	r3, [r3, #0]
   830e6:	429a      	cmp	r2, r3
   830e8:	d103      	bne.n	830f2 <vTaskSuspend+0x62>
				{
					/* No other tasks are ready, so set pxCurrentTCB back to
					NULL so when the next task is created pxCurrentTCB will
					be set to point to it no matter what its relative priority
					is. */
					pxCurrentTCB = NULL;
   830ea:	2200      	movs	r2, #0
   830ec:	4b03      	ldr	r3, [pc, #12]	; (830fc <vTaskSuspend+0x6c>)
   830ee:	601a      	str	r2, [r3, #0]
   830f0:	bd70      	pop	{r4, r5, r6, pc}
				}
				else
				{
					vTaskSwitchContext();
   830f2:	4b0a      	ldr	r3, [pc, #40]	; (8311c <vTaskSuspend+0x8c>)
   830f4:	4798      	blx	r3
   830f6:	bd70      	pop	{r4, r5, r6, pc}
   830f8:	00082159 	.word	0x00082159
   830fc:	20078be0 	.word	0x20078be0
   83100:	000820c1 	.word	0x000820c1
   83104:	20078ac8 	.word	0x20078ac8
   83108:	00082061 	.word	0x00082061
   8310c:	00082179 	.word	0x00082179
   83110:	20078ae0 	.word	0x20078ae0
   83114:	00082139 	.word	0x00082139
   83118:	20078c20 	.word	0x20078c20
   8311c:	00083001 	.word	0x00083001

00083120 <vTaskPlaceOnEventList>:
	}
}
/*-----------------------------------------------------------*/

void vTaskPlaceOnEventList( const xList * const pxEventList, portTickType xTicksToWait )
{
   83120:	b538      	push	{r3, r4, r5, lr}
   83122:	460c      	mov	r4, r1
portTickType xTimeToWake;

	configASSERT( pxEventList );
   83124:	b918      	cbnz	r0, 8312e <vTaskPlaceOnEventList+0xe>
   83126:	4b0f      	ldr	r3, [pc, #60]	; (83164 <vTaskPlaceOnEventList+0x44>)
   83128:	4798      	blx	r3
   8312a:	bf00      	nop
   8312c:	e7fd      	b.n	8312a <vTaskPlaceOnEventList+0xa>
	SCHEDULER SUSPENDED. */

	/* Place the event list item of the TCB in the appropriate event list.
	This is placed in the list in priority order so the highest priority task
	is the first to be woken by the event. */
	vListInsert( ( xList * ) pxEventList, ( xListItem * ) &( pxCurrentTCB->xEventListItem ) );
   8312e:	4d0e      	ldr	r5, [pc, #56]	; (83168 <vTaskPlaceOnEventList+0x48>)
   83130:	6829      	ldr	r1, [r5, #0]
   83132:	3118      	adds	r1, #24
   83134:	4b0d      	ldr	r3, [pc, #52]	; (8316c <vTaskPlaceOnEventList+0x4c>)
   83136:	4798      	blx	r3

	/* We must remove ourselves from the ready list before adding ourselves
	to the blocked list as the same list item is used for both lists.  We have
	exclusive access to the ready lists as the scheduler is locked. */
	if( uxListRemove( ( xListItem * ) &( pxCurrentTCB->xGenericListItem ) ) == 0 )
   83138:	6828      	ldr	r0, [r5, #0]
   8313a:	3004      	adds	r0, #4
   8313c:	4b0c      	ldr	r3, [pc, #48]	; (83170 <vTaskPlaceOnEventList+0x50>)
   8313e:	4798      	blx	r3
		portRESET_READY_PRIORITY( pxCurrentTCB->uxPriority, uxTopReadyPriority );
	}

	#if ( INCLUDE_vTaskSuspend == 1 )
	{
		if( xTicksToWait == portMAX_DELAY )
   83140:	f64f 73ff 	movw	r3, #65535	; 0xffff
   83144:	429c      	cmp	r4, r3
   83146:	d105      	bne.n	83154 <vTaskPlaceOnEventList+0x34>
		{
			/* Add ourselves to the suspended task list instead of a delayed task
			list to ensure we are not woken by a timing event.  We will block
			indefinitely. */
			vListInsertEnd( ( xList * ) &xSuspendedTaskList, ( xListItem * ) &( pxCurrentTCB->xGenericListItem ) );
   83148:	6829      	ldr	r1, [r5, #0]
   8314a:	480a      	ldr	r0, [pc, #40]	; (83174 <vTaskPlaceOnEventList+0x54>)
   8314c:	3104      	adds	r1, #4
   8314e:	4b0a      	ldr	r3, [pc, #40]	; (83178 <vTaskPlaceOnEventList+0x58>)
   83150:	4798      	blx	r3
   83152:	bd38      	pop	{r3, r4, r5, pc}
		}
		else
		{
			/* Calculate the time at which the task should be woken if the event does
			not occur.  This may overflow but this doesn't matter. */
			xTimeToWake = xTickCount + xTicksToWait;
   83154:	4b09      	ldr	r3, [pc, #36]	; (8317c <vTaskPlaceOnEventList+0x5c>)
   83156:	8818      	ldrh	r0, [r3, #0]
   83158:	4420      	add	r0, r4
			prvAddCurrentTaskToDelayedList( xTimeToWake );
   8315a:	b280      	uxth	r0, r0
   8315c:	4b08      	ldr	r3, [pc, #32]	; (83180 <vTaskPlaceOnEventList+0x60>)
   8315e:	4798      	blx	r3
   83160:	bd38      	pop	{r3, r4, r5, pc}
   83162:	bf00      	nop
   83164:	00082149 	.word	0x00082149
   83168:	20078be0 	.word	0x20078be0
   8316c:	0008207d 	.word	0x0008207d
   83170:	000820c1 	.word	0x000820c1
   83174:	20078ac8 	.word	0x20078ac8
   83178:	00082061 	.word	0x00082061
   8317c:	20078bfc 	.word	0x20078bfc
   83180:	000828ed 	.word	0x000828ed

00083184 <vTaskPlaceOnEventListRestricted>:
/*-----------------------------------------------------------*/

#if configUSE_TIMERS == 1

	void vTaskPlaceOnEventListRestricted( const xList * const pxEventList, portTickType xTicksToWait )
	{
   83184:	b538      	push	{r3, r4, r5, lr}
   83186:	460d      	mov	r5, r1
	portTickType xTimeToWake;

		configASSERT( pxEventList );
   83188:	b918      	cbnz	r0, 83192 <vTaskPlaceOnEventListRestricted+0xe>
   8318a:	4b0a      	ldr	r3, [pc, #40]	; (831b4 <vTaskPlaceOnEventListRestricted+0x30>)
   8318c:	4798      	blx	r3
   8318e:	bf00      	nop
   83190:	e7fd      	b.n	8318e <vTaskPlaceOnEventListRestricted+0xa>

		/* Place the event list item of the TCB in the appropriate event list.
		In this case it is assume that this is the only task that is going to
		be waiting on this event list, so the faster vListInsertEnd() function
		can be used in place of vListInsert. */
		vListInsertEnd( ( xList * ) pxEventList, ( xListItem * ) &( pxCurrentTCB->xEventListItem ) );
   83192:	4c09      	ldr	r4, [pc, #36]	; (831b8 <vTaskPlaceOnEventListRestricted+0x34>)
   83194:	6821      	ldr	r1, [r4, #0]
   83196:	3118      	adds	r1, #24
   83198:	4b08      	ldr	r3, [pc, #32]	; (831bc <vTaskPlaceOnEventListRestricted+0x38>)
   8319a:	4798      	blx	r3

		/* We must remove this task from the ready list before adding it to the
		blocked list as the same list item is used for both lists.  This
		function is called form a critical section. */
		if( uxListRemove( ( xListItem * ) &( pxCurrentTCB->xGenericListItem ) ) == 0 )
   8319c:	6820      	ldr	r0, [r4, #0]
   8319e:	3004      	adds	r0, #4
   831a0:	4b07      	ldr	r3, [pc, #28]	; (831c0 <vTaskPlaceOnEventListRestricted+0x3c>)
   831a2:	4798      	blx	r3
			portRESET_READY_PRIORITY( pxCurrentTCB->uxPriority, uxTopReadyPriority );
		}

		/* Calculate the time at which the task should be woken if the event does
		not occur.  This may overflow but this doesn't matter. */
		xTimeToWake = xTickCount + xTicksToWait;
   831a4:	4b07      	ldr	r3, [pc, #28]	; (831c4 <vTaskPlaceOnEventListRestricted+0x40>)
   831a6:	8818      	ldrh	r0, [r3, #0]
   831a8:	4428      	add	r0, r5
		
		traceTASK_DELAY_UNTIL();
		prvAddCurrentTaskToDelayedList( xTimeToWake );
   831aa:	b280      	uxth	r0, r0
   831ac:	4b06      	ldr	r3, [pc, #24]	; (831c8 <vTaskPlaceOnEventListRestricted+0x44>)
   831ae:	4798      	blx	r3
   831b0:	bd38      	pop	{r3, r4, r5, pc}
   831b2:	bf00      	nop
   831b4:	00082149 	.word	0x00082149
   831b8:	20078be0 	.word	0x20078be0
   831bc:	00082061 	.word	0x00082061
   831c0:	000820c1 	.word	0x000820c1
   831c4:	20078bfc 	.word	0x20078bfc
   831c8:	000828ed 	.word	0x000828ed

000831cc <xTaskRemoveFromEventList>:

#endif /* configUSE_TIMERS */
/*-----------------------------------------------------------*/

signed portBASE_TYPE xTaskRemoveFromEventList( const xList * const pxEventList )
{
   831cc:	b538      	push	{r3, r4, r5, lr}
	get called - the lock count on the queue will get modified instead.  This
	means we can always expect exclusive access to the event list here.

	This function assumes that a check has already been made to ensure that
	pxEventList is not empty. */
	pxUnblockedTCB = ( tskTCB * ) listGET_OWNER_OF_HEAD_ENTRY( pxEventList );
   831ce:	68c3      	ldr	r3, [r0, #12]
   831d0:	68dc      	ldr	r4, [r3, #12]
	configASSERT( pxUnblockedTCB );
   831d2:	b91c      	cbnz	r4, 831dc <xTaskRemoveFromEventList+0x10>
   831d4:	4b16      	ldr	r3, [pc, #88]	; (83230 <xTaskRemoveFromEventList+0x64>)
   831d6:	4798      	blx	r3
   831d8:	bf00      	nop
   831da:	e7fd      	b.n	831d8 <xTaskRemoveFromEventList+0xc>
	uxListRemove( &( pxUnblockedTCB->xEventListItem ) );
   831dc:	f104 0518 	add.w	r5, r4, #24
   831e0:	4628      	mov	r0, r5
   831e2:	4b14      	ldr	r3, [pc, #80]	; (83234 <xTaskRemoveFromEventList+0x68>)
   831e4:	4798      	blx	r3

	if( uxSchedulerSuspended == ( unsigned portBASE_TYPE ) pdFALSE )
   831e6:	4b14      	ldr	r3, [pc, #80]	; (83238 <xTaskRemoveFromEventList+0x6c>)
   831e8:	681b      	ldr	r3, [r3, #0]
   831ea:	b99b      	cbnz	r3, 83214 <xTaskRemoveFromEventList+0x48>
	{
		uxListRemove( &( pxUnblockedTCB->xGenericListItem ) );
   831ec:	1d25      	adds	r5, r4, #4
   831ee:	4628      	mov	r0, r5
   831f0:	4b10      	ldr	r3, [pc, #64]	; (83234 <xTaskRemoveFromEventList+0x68>)
   831f2:	4798      	blx	r3
		prvAddTaskToReadyQueue( pxUnblockedTCB );
   831f4:	6ae3      	ldr	r3, [r4, #44]	; 0x2c
   831f6:	4a11      	ldr	r2, [pc, #68]	; (8323c <xTaskRemoveFromEventList+0x70>)
   831f8:	6812      	ldr	r2, [r2, #0]
   831fa:	4293      	cmp	r3, r2
   831fc:	bf84      	itt	hi
   831fe:	4a0f      	ldrhi	r2, [pc, #60]	; (8323c <xTaskRemoveFromEventList+0x70>)
   83200:	6013      	strhi	r3, [r2, #0]
   83202:	eb03 0383 	add.w	r3, r3, r3, lsl #2
   83206:	480e      	ldr	r0, [pc, #56]	; (83240 <xTaskRemoveFromEventList+0x74>)
   83208:	eb00 0083 	add.w	r0, r0, r3, lsl #2
   8320c:	4629      	mov	r1, r5
   8320e:	4b0d      	ldr	r3, [pc, #52]	; (83244 <xTaskRemoveFromEventList+0x78>)
   83210:	4798      	blx	r3
   83212:	e003      	b.n	8321c <xTaskRemoveFromEventList+0x50>
	}
	else
	{
		/* We cannot access the delayed or ready lists, so will hold this
		task pending until the scheduler is resumed. */
		vListInsertEnd( ( xList * ) &( xPendingReadyList ), &( pxUnblockedTCB->xEventListItem ) );
   83214:	480c      	ldr	r0, [pc, #48]	; (83248 <xTaskRemoveFromEventList+0x7c>)
   83216:	4629      	mov	r1, r5
   83218:	4b0a      	ldr	r3, [pc, #40]	; (83244 <xTaskRemoveFromEventList+0x78>)
   8321a:	4798      	blx	r3
	}

	if( pxUnblockedTCB->uxPriority >= pxCurrentTCB->uxPriority )
   8321c:	4b0b      	ldr	r3, [pc, #44]	; (8324c <xTaskRemoveFromEventList+0x80>)
   8321e:	681b      	ldr	r3, [r3, #0]
   83220:	6ae0      	ldr	r0, [r4, #44]	; 0x2c
   83222:	6adb      	ldr	r3, [r3, #44]	; 0x2c
	{
		xReturn = pdFALSE;
	}

	return xReturn;
}
   83224:	4298      	cmp	r0, r3
   83226:	bf34      	ite	cc
   83228:	2000      	movcc	r0, #0
   8322a:	2001      	movcs	r0, #1
   8322c:	bd38      	pop	{r3, r4, r5, pc}
   8322e:	bf00      	nop
   83230:	00082149 	.word	0x00082149
   83234:	000820c1 	.word	0x000820c1
   83238:	20078bdc 	.word	0x20078bdc
   8323c:	20078b10 	.word	0x20078b10
   83240:	20078b14 	.word	0x20078b14
   83244:	00082061 	.word	0x00082061
   83248:	20078be4 	.word	0x20078be4
   8324c:	20078be0 	.word	0x20078be0

00083250 <vTaskSetTimeOutState>:
/*-----------------------------------------------------------*/

void vTaskSetTimeOutState( xTimeOutType * const pxTimeOut )
{
   83250:	b508      	push	{r3, lr}
	configASSERT( pxTimeOut );
   83252:	b918      	cbnz	r0, 8325c <vTaskSetTimeOutState+0xc>
   83254:	4b05      	ldr	r3, [pc, #20]	; (8326c <vTaskSetTimeOutState+0x1c>)
   83256:	4798      	blx	r3
   83258:	bf00      	nop
   8325a:	e7fd      	b.n	83258 <vTaskSetTimeOutState+0x8>
	pxTimeOut->xOverflowCount = xNumOfOverflows;
   8325c:	4a04      	ldr	r2, [pc, #16]	; (83270 <vTaskSetTimeOutState+0x20>)
   8325e:	6812      	ldr	r2, [r2, #0]
   83260:	6002      	str	r2, [r0, #0]
	pxTimeOut->xTimeOnEntering = xTickCount;
   83262:	4a04      	ldr	r2, [pc, #16]	; (83274 <vTaskSetTimeOutState+0x24>)
   83264:	8812      	ldrh	r2, [r2, #0]
   83266:	8082      	strh	r2, [r0, #4]
   83268:	bd08      	pop	{r3, pc}
   8326a:	bf00      	nop
   8326c:	00082149 	.word	0x00082149
   83270:	20078bf8 	.word	0x20078bf8
   83274:	20078bfc 	.word	0x20078bfc

00083278 <xTaskCheckForTimeOut>:
}
/*-----------------------------------------------------------*/

portBASE_TYPE xTaskCheckForTimeOut( xTimeOutType * const pxTimeOut, portTickType * const pxTicksToWait )
{
   83278:	b538      	push	{r3, r4, r5, lr}
   8327a:	460d      	mov	r5, r1
portBASE_TYPE xReturn;

	configASSERT( pxTimeOut );
   8327c:	4604      	mov	r4, r0
   8327e:	b918      	cbnz	r0, 83288 <xTaskCheckForTimeOut+0x10>
   83280:	4b1a      	ldr	r3, [pc, #104]	; (832ec <xTaskCheckForTimeOut+0x74>)
   83282:	4798      	blx	r3
   83284:	bf00      	nop
   83286:	e7fd      	b.n	83284 <xTaskCheckForTimeOut+0xc>
	configASSERT( pxTicksToWait );
   83288:	b919      	cbnz	r1, 83292 <xTaskCheckForTimeOut+0x1a>
   8328a:	4b18      	ldr	r3, [pc, #96]	; (832ec <xTaskCheckForTimeOut+0x74>)
   8328c:	4798      	blx	r3
   8328e:	bf00      	nop
   83290:	e7fd      	b.n	8328e <xTaskCheckForTimeOut+0x16>

	taskENTER_CRITICAL();
   83292:	4b17      	ldr	r3, [pc, #92]	; (832f0 <xTaskCheckForTimeOut+0x78>)
   83294:	4798      	blx	r3
	{
		#if ( INCLUDE_vTaskSuspend == 1 )
			/* If INCLUDE_vTaskSuspend is set to 1 and the block time specified is
			the maximum block time then the task should block indefinitely, and
			therefore never time out. */
			if( *pxTicksToWait == portMAX_DELAY )
   83296:	882b      	ldrh	r3, [r5, #0]
   83298:	f64f 72ff 	movw	r2, #65535	; 0xffff
   8329c:	4293      	cmp	r3, r2
   8329e:	d01c      	beq.n	832da <xTaskCheckForTimeOut+0x62>
				xReturn = pdFALSE;
			}
			else /* We are not blocking indefinitely, perform the checks below. */
		#endif

		if( ( xNumOfOverflows != pxTimeOut->xOverflowCount ) && ( ( portTickType ) xTickCount >= ( portTickType ) pxTimeOut->xTimeOnEntering ) )
   832a0:	4a14      	ldr	r2, [pc, #80]	; (832f4 <xTaskCheckForTimeOut+0x7c>)
   832a2:	6811      	ldr	r1, [r2, #0]
   832a4:	6822      	ldr	r2, [r4, #0]
   832a6:	428a      	cmp	r2, r1
   832a8:	d005      	beq.n	832b6 <xTaskCheckForTimeOut+0x3e>
   832aa:	4a13      	ldr	r2, [pc, #76]	; (832f8 <xTaskCheckForTimeOut+0x80>)
   832ac:	8812      	ldrh	r2, [r2, #0]
   832ae:	b292      	uxth	r2, r2
   832b0:	88a1      	ldrh	r1, [r4, #4]
   832b2:	4291      	cmp	r1, r2
   832b4:	d913      	bls.n	832de <xTaskCheckForTimeOut+0x66>
			was called, but has also overflowed since vTaskSetTimeOut() was called.
			It must have wrapped all the way around and gone past us again. This
			passed since vTaskSetTimeout() was called. */
			xReturn = pdTRUE;
		}
		else if( ( ( portTickType ) ( ( portTickType ) xTickCount - ( portTickType ) pxTimeOut->xTimeOnEntering ) ) < ( portTickType ) *pxTicksToWait )
   832b6:	4a10      	ldr	r2, [pc, #64]	; (832f8 <xTaskCheckForTimeOut+0x80>)
   832b8:	8811      	ldrh	r1, [r2, #0]
   832ba:	88a2      	ldrh	r2, [r4, #4]
   832bc:	1a89      	subs	r1, r1, r2
   832be:	b289      	uxth	r1, r1
   832c0:	428b      	cmp	r3, r1
   832c2:	d90e      	bls.n	832e2 <xTaskCheckForTimeOut+0x6a>
		{
			/* Not a genuine timeout. Adjust parameters for time remaining. */
			*pxTicksToWait -= ( ( portTickType ) xTickCount - ( portTickType ) pxTimeOut->xTimeOnEntering );
   832c4:	490c      	ldr	r1, [pc, #48]	; (832f8 <xTaskCheckForTimeOut+0x80>)
   832c6:	8809      	ldrh	r1, [r1, #0]
   832c8:	b289      	uxth	r1, r1
   832ca:	1a52      	subs	r2, r2, r1
   832cc:	4413      	add	r3, r2
   832ce:	802b      	strh	r3, [r5, #0]
			vTaskSetTimeOutState( pxTimeOut );
   832d0:	4620      	mov	r0, r4
   832d2:	4b0a      	ldr	r3, [pc, #40]	; (832fc <xTaskCheckForTimeOut+0x84>)
   832d4:	4798      	blx	r3
			xReturn = pdFALSE;
   832d6:	2400      	movs	r4, #0
   832d8:	e004      	b.n	832e4 <xTaskCheckForTimeOut+0x6c>
			/* If INCLUDE_vTaskSuspend is set to 1 and the block time specified is
			the maximum block time then the task should block indefinitely, and
			therefore never time out. */
			if( *pxTicksToWait == portMAX_DELAY )
			{
				xReturn = pdFALSE;
   832da:	2400      	movs	r4, #0
   832dc:	e002      	b.n	832e4 <xTaskCheckForTimeOut+0x6c>
		{
			/* The tick count is greater than the time at which vTaskSetTimeout()
			was called, but has also overflowed since vTaskSetTimeOut() was called.
			It must have wrapped all the way around and gone past us again. This
			passed since vTaskSetTimeout() was called. */
			xReturn = pdTRUE;
   832de:	2401      	movs	r4, #1
   832e0:	e000      	b.n	832e4 <xTaskCheckForTimeOut+0x6c>
			vTaskSetTimeOutState( pxTimeOut );
			xReturn = pdFALSE;
		}
		else
		{
			xReturn = pdTRUE;
   832e2:	2401      	movs	r4, #1
		}
	}
	taskEXIT_CRITICAL();
   832e4:	4b06      	ldr	r3, [pc, #24]	; (83300 <xTaskCheckForTimeOut+0x88>)
   832e6:	4798      	blx	r3

	return xReturn;
}
   832e8:	4620      	mov	r0, r4
   832ea:	bd38      	pop	{r3, r4, r5, pc}
   832ec:	00082149 	.word	0x00082149
   832f0:	00082159 	.word	0x00082159
   832f4:	20078bf8 	.word	0x20078bf8
   832f8:	20078bfc 	.word	0x20078bfc
   832fc:	00083251 	.word	0x00083251
   83300:	00082179 	.word	0x00082179

00083304 <vTaskMissedYield>:
/*-----------------------------------------------------------*/

void vTaskMissedYield( void )
{
	xMissedYield = pdTRUE;
   83304:	2201      	movs	r2, #1
   83306:	4b01      	ldr	r3, [pc, #4]	; (8330c <vTaskMissedYield+0x8>)
   83308:	601a      	str	r2, [r3, #0]
   8330a:	4770      	bx	lr
   8330c:	20078c1c 	.word	0x20078c1c

00083310 <xTaskGetCurrentTaskHandle>:
	xTaskHandle xReturn;

		/* A critical section is not required as this is not called from
		an interrupt and the current TCB will always be the same for any
		individual execution thread. */
		xReturn = pxCurrentTCB;
   83310:	4b01      	ldr	r3, [pc, #4]	; (83318 <xTaskGetCurrentTaskHandle+0x8>)
   83312:	6818      	ldr	r0, [r3, #0]

		return xReturn;
	}
   83314:	4770      	bx	lr
   83316:	bf00      	nop
   83318:	20078be0 	.word	0x20078be0

0008331c <xTaskGetSchedulerState>:

	portBASE_TYPE xTaskGetSchedulerState( void )
	{
	portBASE_TYPE xReturn;

		if( xSchedulerRunning == pdFALSE )
   8331c:	4b05      	ldr	r3, [pc, #20]	; (83334 <xTaskGetSchedulerState+0x18>)
   8331e:	681b      	ldr	r3, [r3, #0]
   83320:	b133      	cbz	r3, 83330 <xTaskGetSchedulerState+0x14>
		{
			xReturn = taskSCHEDULER_NOT_STARTED;
		}
		else
		{
			if( uxSchedulerSuspended == ( unsigned portBASE_TYPE ) pdFALSE )
   83322:	4b05      	ldr	r3, [pc, #20]	; (83338 <xTaskGetSchedulerState+0x1c>)
   83324:	681b      	ldr	r3, [r3, #0]
			{
				xReturn = taskSCHEDULER_RUNNING;
   83326:	2b00      	cmp	r3, #0
   83328:	bf14      	ite	ne
   8332a:	2002      	movne	r0, #2
   8332c:	2001      	moveq	r0, #1
   8332e:	4770      	bx	lr
	{
	portBASE_TYPE xReturn;

		if( xSchedulerRunning == pdFALSE )
		{
			xReturn = taskSCHEDULER_NOT_STARTED;
   83330:	2000      	movs	r0, #0
				xReturn = taskSCHEDULER_SUSPENDED;
			}
		}

		return xReturn;
	}
   83332:	4770      	bx	lr
   83334:	20078ae0 	.word	0x20078ae0
   83338:	20078bdc 	.word	0x20078bdc

0008333c <vTaskPriorityInherit>:
/*-----------------------------------------------------------*/

#if ( configUSE_MUTEXES == 1 )

	void vTaskPriorityInherit( xTaskHandle * const pxMutexHolder )
	{
   8333c:	b538      	push	{r3, r4, r5, lr}
	tskTCB * const pxTCB = ( tskTCB * ) pxMutexHolder;

		/* If the mutex was given back by an interrupt while the queue was
		locked then the mutex holder might now be NULL. */
		if( pxMutexHolder != NULL )
   8333e:	4604      	mov	r4, r0
   83340:	2800      	cmp	r0, #0
   83342:	d02e      	beq.n	833a2 <vTaskPriorityInherit+0x66>
		{
			if( pxTCB->uxPriority < pxCurrentTCB->uxPriority )
   83344:	6ac3      	ldr	r3, [r0, #44]	; 0x2c
   83346:	4a17      	ldr	r2, [pc, #92]	; (833a4 <vTaskPriorityInherit+0x68>)
   83348:	6812      	ldr	r2, [r2, #0]
   8334a:	6ad2      	ldr	r2, [r2, #44]	; 0x2c
   8334c:	4293      	cmp	r3, r2
   8334e:	d228      	bcs.n	833a2 <vTaskPriorityInherit+0x66>
			{
				/* Adjust the mutex holder state to account for its new priority. */
				listSET_LIST_ITEM_VALUE( &( pxTCB->xEventListItem ), configMAX_PRIORITIES - ( portTickType ) pxCurrentTCB->uxPriority );
   83350:	4a14      	ldr	r2, [pc, #80]	; (833a4 <vTaskPriorityInherit+0x68>)
   83352:	6812      	ldr	r2, [r2, #0]
   83354:	6ad2      	ldr	r2, [r2, #44]	; 0x2c
   83356:	f1c2 020a 	rsb	r2, r2, #10
   8335a:	8302      	strh	r2, [r0, #24]

				/* If the task being modified is in the ready state it will need to
				be moved into a new list. */
				if( listIS_CONTAINED_WITHIN( &( pxReadyTasksLists[ pxTCB->uxPriority ] ), &( pxTCB->xGenericListItem ) ) != pdFALSE )
   8335c:	eb03 0383 	add.w	r3, r3, r3, lsl #2
   83360:	4a11      	ldr	r2, [pc, #68]	; (833a8 <vTaskPriorityInherit+0x6c>)
   83362:	eb02 0383 	add.w	r3, r2, r3, lsl #2
   83366:	6942      	ldr	r2, [r0, #20]
   83368:	429a      	cmp	r2, r3
   8336a:	d116      	bne.n	8339a <vTaskPriorityInherit+0x5e>
				{
					if( uxListRemove( ( xListItem * ) &( pxTCB->xGenericListItem ) ) == 0 )
   8336c:	1d05      	adds	r5, r0, #4
   8336e:	4628      	mov	r0, r5
   83370:	4b0e      	ldr	r3, [pc, #56]	; (833ac <vTaskPriorityInherit+0x70>)
   83372:	4798      	blx	r3
					{
						taskRESET_READY_PRIORITY( pxTCB->uxPriority );
					}

					/* Inherit the priority before being moved into the new list. */
					pxTCB->uxPriority = pxCurrentTCB->uxPriority;
   83374:	4b0b      	ldr	r3, [pc, #44]	; (833a4 <vTaskPriorityInherit+0x68>)
   83376:	681b      	ldr	r3, [r3, #0]
   83378:	6adb      	ldr	r3, [r3, #44]	; 0x2c
   8337a:	62e3      	str	r3, [r4, #44]	; 0x2c
					prvAddTaskToReadyQueue( pxTCB );
   8337c:	4a0c      	ldr	r2, [pc, #48]	; (833b0 <vTaskPriorityInherit+0x74>)
   8337e:	6812      	ldr	r2, [r2, #0]
   83380:	4293      	cmp	r3, r2
   83382:	bf84      	itt	hi
   83384:	4a0a      	ldrhi	r2, [pc, #40]	; (833b0 <vTaskPriorityInherit+0x74>)
   83386:	6013      	strhi	r3, [r2, #0]
   83388:	eb03 0383 	add.w	r3, r3, r3, lsl #2
   8338c:	4806      	ldr	r0, [pc, #24]	; (833a8 <vTaskPriorityInherit+0x6c>)
   8338e:	eb00 0083 	add.w	r0, r0, r3, lsl #2
   83392:	4629      	mov	r1, r5
   83394:	4b07      	ldr	r3, [pc, #28]	; (833b4 <vTaskPriorityInherit+0x78>)
   83396:	4798      	blx	r3
   83398:	bd38      	pop	{r3, r4, r5, pc}
				}
				else
				{
					/* Just inherit the priority. */
					pxTCB->uxPriority = pxCurrentTCB->uxPriority;
   8339a:	4b02      	ldr	r3, [pc, #8]	; (833a4 <vTaskPriorityInherit+0x68>)
   8339c:	681b      	ldr	r3, [r3, #0]
   8339e:	6adb      	ldr	r3, [r3, #44]	; 0x2c
   833a0:	62c3      	str	r3, [r0, #44]	; 0x2c
   833a2:	bd38      	pop	{r3, r4, r5, pc}
   833a4:	20078be0 	.word	0x20078be0
   833a8:	20078b14 	.word	0x20078b14
   833ac:	000820c1 	.word	0x000820c1
   833b0:	20078b10 	.word	0x20078b10
   833b4:	00082061 	.word	0x00082061

000833b8 <vTaskPriorityDisinherit>:
/*-----------------------------------------------------------*/

#if ( configUSE_MUTEXES == 1 )

	void vTaskPriorityDisinherit( xTaskHandle * const pxMutexHolder )
	{
   833b8:	b538      	push	{r3, r4, r5, lr}
	tskTCB * const pxTCB = ( tskTCB * ) pxMutexHolder;

		if( pxMutexHolder != NULL )
   833ba:	4604      	mov	r4, r0
   833bc:	b1d0      	cbz	r0, 833f4 <vTaskPriorityDisinherit+0x3c>
		{
			if( pxTCB->uxPriority != pxTCB->uxBasePriority )
   833be:	6ac2      	ldr	r2, [r0, #44]	; 0x2c
   833c0:	6cc3      	ldr	r3, [r0, #76]	; 0x4c
   833c2:	429a      	cmp	r2, r3
   833c4:	d016      	beq.n	833f4 <vTaskPriorityDisinherit+0x3c>
			{
				/* We must be the running task to be able to give the mutex back.
				Remove ourselves from the ready list we currently appear in. */
				if( uxListRemove( ( xListItem * ) &( pxTCB->xGenericListItem ) ) == 0 )
   833c6:	1d05      	adds	r5, r0, #4
   833c8:	4628      	mov	r0, r5
   833ca:	4b0b      	ldr	r3, [pc, #44]	; (833f8 <vTaskPriorityDisinherit+0x40>)
   833cc:	4798      	blx	r3
				}

				/* Disinherit the priority before adding the task into the new
				ready list. */
				traceTASK_PRIORITY_DISINHERIT( pxTCB, pxTCB->uxBasePriority );
				pxTCB->uxPriority = pxTCB->uxBasePriority;
   833ce:	6ce3      	ldr	r3, [r4, #76]	; 0x4c
   833d0:	62e3      	str	r3, [r4, #44]	; 0x2c
				listSET_LIST_ITEM_VALUE( &( pxTCB->xEventListItem ), configMAX_PRIORITIES - ( portTickType ) pxTCB->uxPriority );
   833d2:	f1c3 020a 	rsb	r2, r3, #10
   833d6:	8322      	strh	r2, [r4, #24]
				prvAddTaskToReadyQueue( pxTCB );
   833d8:	4a08      	ldr	r2, [pc, #32]	; (833fc <vTaskPriorityDisinherit+0x44>)
   833da:	6812      	ldr	r2, [r2, #0]
   833dc:	4293      	cmp	r3, r2
   833de:	bf84      	itt	hi
   833e0:	4a06      	ldrhi	r2, [pc, #24]	; (833fc <vTaskPriorityDisinherit+0x44>)
   833e2:	6013      	strhi	r3, [r2, #0]
   833e4:	eb03 0383 	add.w	r3, r3, r3, lsl #2
   833e8:	4805      	ldr	r0, [pc, #20]	; (83400 <vTaskPriorityDisinherit+0x48>)
   833ea:	eb00 0083 	add.w	r0, r0, r3, lsl #2
   833ee:	4629      	mov	r1, r5
   833f0:	4b04      	ldr	r3, [pc, #16]	; (83404 <vTaskPriorityDisinherit+0x4c>)
   833f2:	4798      	blx	r3
   833f4:	bd38      	pop	{r3, r4, r5, pc}
   833f6:	bf00      	nop
   833f8:	000820c1 	.word	0x000820c1
   833fc:	20078b10 	.word	0x20078b10
   83400:	20078b14 	.word	0x20078b14
   83404:	00082061 	.word	0x00082061

00083408 <prvInsertTimerInActiveList>:
	return xTimeNow;
}
/*-----------------------------------------------------------*/

static portBASE_TYPE prvInsertTimerInActiveList( xTIMER *pxTimer, portTickType xNextExpiryTime, portTickType xTimeNow, portTickType xCommandTime )
{
   83408:	b510      	push	{r4, lr}
   8340a:	4604      	mov	r4, r0
portBASE_TYPE xProcessTimerNow = pdFALSE;

	listSET_LIST_ITEM_VALUE( &( pxTimer->xTimerListItem ), xNextExpiryTime );
   8340c:	8081      	strh	r1, [r0, #4]
	listSET_LIST_ITEM_OWNER( &( pxTimer->xTimerListItem ), pxTimer );
   8340e:	6120      	str	r0, [r4, #16]

	if( xNextExpiryTime <= xTimeNow )
   83410:	4291      	cmp	r1, r2
   83412:	d80b      	bhi.n	8342c <prvInsertTimerInActiveList+0x24>
	{
		/* Has the expiry time elapsed between the command to start/reset a
		timer was issued, and the time the command was processed? */
		if( ( ( portTickType ) ( xTimeNow - xCommandTime ) ) >= pxTimer->xTimerPeriodInTicks )
   83414:	1ad3      	subs	r3, r2, r3
   83416:	8b01      	ldrh	r1, [r0, #24]
   83418:	b29b      	uxth	r3, r3
   8341a:	4299      	cmp	r1, r3
   8341c:	d911      	bls.n	83442 <prvInsertTimerInActiveList+0x3a>
			processed actually exceeds the timers period.  */
			xProcessTimerNow = pdTRUE;
		}
		else
		{
			vListInsert( pxOverflowTimerList, &( pxTimer->xTimerListItem ) );
   8341e:	4b0b      	ldr	r3, [pc, #44]	; (8344c <prvInsertTimerInActiveList+0x44>)
   83420:	6818      	ldr	r0, [r3, #0]
   83422:	1d21      	adds	r1, r4, #4
   83424:	4b0a      	ldr	r3, [pc, #40]	; (83450 <prvInsertTimerInActiveList+0x48>)
   83426:	4798      	blx	r3
}
/*-----------------------------------------------------------*/

static portBASE_TYPE prvInsertTimerInActiveList( xTIMER *pxTimer, portTickType xNextExpiryTime, portTickType xTimeNow, portTickType xCommandTime )
{
portBASE_TYPE xProcessTimerNow = pdFALSE;
   83428:	2000      	movs	r0, #0
   8342a:	bd10      	pop	{r4, pc}
			vListInsert( pxOverflowTimerList, &( pxTimer->xTimerListItem ) );
		}
	}
	else
	{
		if( ( xTimeNow < xCommandTime ) && ( xNextExpiryTime >= xCommandTime ) )
   8342c:	429a      	cmp	r2, r3
   8342e:	d201      	bcs.n	83434 <prvInsertTimerInActiveList+0x2c>
   83430:	4299      	cmp	r1, r3
   83432:	d208      	bcs.n	83446 <prvInsertTimerInActiveList+0x3e>
			its expiry time and should be processed immediately. */
			xProcessTimerNow = pdTRUE;
		}
		else
		{
			vListInsert( pxCurrentTimerList, &( pxTimer->xTimerListItem ) );
   83434:	4b07      	ldr	r3, [pc, #28]	; (83454 <prvInsertTimerInActiveList+0x4c>)
   83436:	6818      	ldr	r0, [r3, #0]
   83438:	1d21      	adds	r1, r4, #4
   8343a:	4b05      	ldr	r3, [pc, #20]	; (83450 <prvInsertTimerInActiveList+0x48>)
   8343c:	4798      	blx	r3
}
/*-----------------------------------------------------------*/

static portBASE_TYPE prvInsertTimerInActiveList( xTIMER *pxTimer, portTickType xNextExpiryTime, portTickType xTimeNow, portTickType xCommandTime )
{
portBASE_TYPE xProcessTimerNow = pdFALSE;
   8343e:	2000      	movs	r0, #0
   83440:	bd10      	pop	{r4, pc}
		timer was issued, and the time the command was processed? */
		if( ( ( portTickType ) ( xTimeNow - xCommandTime ) ) >= pxTimer->xTimerPeriodInTicks )
		{
			/* The time between a command being issued and the command being
			processed actually exceeds the timers period.  */
			xProcessTimerNow = pdTRUE;
   83442:	2001      	movs	r0, #1
   83444:	bd10      	pop	{r4, pc}
		if( ( xTimeNow < xCommandTime ) && ( xNextExpiryTime >= xCommandTime ) )
		{
			/* If, since the command was issued, the tick count has overflowed
			but the expiry time has not, then the timer must have already passed
			its expiry time and should be processed immediately. */
			xProcessTimerNow = pdTRUE;
   83446:	2001      	movs	r0, #1
			vListInsert( pxCurrentTimerList, &( pxTimer->xTimerListItem ) );
		}
	}

	return xProcessTimerNow;
}
   83448:	bd10      	pop	{r4, pc}
   8344a:	bf00      	nop
   8344c:	20078c5c 	.word	0x20078c5c
   83450:	0008207d 	.word	0x0008207d
   83454:	20078c28 	.word	0x20078c28

00083458 <prvCheckForValidListAndQueue>:
	pxOverflowTimerList = pxTemp;
}
/*-----------------------------------------------------------*/

static void prvCheckForValidListAndQueue( void )
{
   83458:	b570      	push	{r4, r5, r6, lr}
	/* Check that the list from which active timers are referenced, and the
	queue used to communicate with the timer service, have been
	initialised. */
	taskENTER_CRITICAL();
   8345a:	4b0d      	ldr	r3, [pc, #52]	; (83490 <prvCheckForValidListAndQueue+0x38>)
   8345c:	4798      	blx	r3
	{
		if( xTimerQueue == NULL )
   8345e:	4b0d      	ldr	r3, [pc, #52]	; (83494 <prvCheckForValidListAndQueue+0x3c>)
   83460:	681b      	ldr	r3, [r3, #0]
   83462:	b98b      	cbnz	r3, 83488 <prvCheckForValidListAndQueue+0x30>
		{
			vListInitialise( &xActiveTimerList1 );
   83464:	4d0c      	ldr	r5, [pc, #48]	; (83498 <prvCheckForValidListAndQueue+0x40>)
   83466:	4628      	mov	r0, r5
   83468:	4e0c      	ldr	r6, [pc, #48]	; (8349c <prvCheckForValidListAndQueue+0x44>)
   8346a:	47b0      	blx	r6
			vListInitialise( &xActiveTimerList2 );
   8346c:	4c0c      	ldr	r4, [pc, #48]	; (834a0 <prvCheckForValidListAndQueue+0x48>)
   8346e:	4620      	mov	r0, r4
   83470:	47b0      	blx	r6
			pxCurrentTimerList = &xActiveTimerList1;
   83472:	4b0c      	ldr	r3, [pc, #48]	; (834a4 <prvCheckForValidListAndQueue+0x4c>)
   83474:	601d      	str	r5, [r3, #0]
			pxOverflowTimerList = &xActiveTimerList2;
   83476:	4b0c      	ldr	r3, [pc, #48]	; (834a8 <prvCheckForValidListAndQueue+0x50>)
   83478:	601c      	str	r4, [r3, #0]
			xTimerQueue = xQueueCreate( ( unsigned portBASE_TYPE ) configTIMER_QUEUE_LENGTH, sizeof( xTIMER_MESSAGE ) );
   8347a:	2005      	movs	r0, #5
   8347c:	210c      	movs	r1, #12
   8347e:	2200      	movs	r2, #0
   83480:	4b0a      	ldr	r3, [pc, #40]	; (834ac <prvCheckForValidListAndQueue+0x54>)
   83482:	4798      	blx	r3
   83484:	4b03      	ldr	r3, [pc, #12]	; (83494 <prvCheckForValidListAndQueue+0x3c>)
   83486:	6018      	str	r0, [r3, #0]
		}
	}
	taskEXIT_CRITICAL();
   83488:	4b09      	ldr	r3, [pc, #36]	; (834b0 <prvCheckForValidListAndQueue+0x58>)
   8348a:	4798      	blx	r3
   8348c:	bd70      	pop	{r4, r5, r6, pc}
   8348e:	bf00      	nop
   83490:	00082159 	.word	0x00082159
   83494:	20078c58 	.word	0x20078c58
   83498:	20078c2c 	.word	0x20078c2c
   8349c:	00082041 	.word	0x00082041
   834a0:	20078c40 	.word	0x20078c40
   834a4:	20078c28 	.word	0x20078c28
   834a8:	20078c5c 	.word	0x20078c5c
   834ac:	00082531 	.word	0x00082531
   834b0:	00082179 	.word	0x00082179

000834b4 <xTimerCreateTimerTask>:
static void prvProcessTimerOrBlockTask( portTickType xNextExpireTime, portBASE_TYPE xListWasEmpty ) PRIVILEGED_FUNCTION;

/*-----------------------------------------------------------*/

portBASE_TYPE xTimerCreateTimerTask( void )
{
   834b4:	b510      	push	{r4, lr}
   834b6:	b084      	sub	sp, #16

	/* This function is called when the scheduler is started if
	configUSE_TIMERS is set to 1.  Check that the infrastructure used by the
	timer service task has been created/initialised.  If timers have already
	been created then the initialisation will already have been performed. */
	prvCheckForValidListAndQueue();
   834b8:	4b0b      	ldr	r3, [pc, #44]	; (834e8 <xTimerCreateTimerTask+0x34>)
   834ba:	4798      	blx	r3

	if( xTimerQueue != NULL )
   834bc:	4b0b      	ldr	r3, [pc, #44]	; (834ec <xTimerCreateTimerTask+0x38>)
   834be:	681b      	ldr	r3, [r3, #0]
   834c0:	b163      	cbz	r3, 834dc <xTimerCreateTimerTask+0x28>
			xReturn = xTaskCreate( prvTimerTask, ( const signed char * ) "Tmr Svc", ( unsigned short ) configTIMER_TASK_STACK_DEPTH, NULL, ( ( unsigned portBASE_TYPE ) configTIMER_TASK_PRIORITY ) | portPRIVILEGE_BIT, &xTimerTaskHandle );
		}
		#else
		{
			/* Create the timer task without storing its handle. */
			xReturn = xTaskCreate( prvTimerTask, ( const signed char * ) "Tmr Svc", ( unsigned short ) configTIMER_TASK_STACK_DEPTH, NULL, ( ( unsigned portBASE_TYPE ) configTIMER_TASK_PRIORITY ) | portPRIVILEGE_BIT, NULL);
   834c2:	2309      	movs	r3, #9
   834c4:	9300      	str	r3, [sp, #0]
   834c6:	2300      	movs	r3, #0
   834c8:	9301      	str	r3, [sp, #4]
   834ca:	9302      	str	r3, [sp, #8]
   834cc:	9303      	str	r3, [sp, #12]
   834ce:	4808      	ldr	r0, [pc, #32]	; (834f0 <xTimerCreateTimerTask+0x3c>)
   834d0:	4908      	ldr	r1, [pc, #32]	; (834f4 <xTimerCreateTimerTask+0x40>)
   834d2:	f44f 7200 	mov.w	r2, #512	; 0x200
   834d6:	4c08      	ldr	r4, [pc, #32]	; (834f8 <xTimerCreateTimerTask+0x44>)
   834d8:	47a0      	blx	r4
		}
		#endif
	}

	configASSERT( xReturn );
   834da:	b918      	cbnz	r0, 834e4 <xTimerCreateTimerTask+0x30>
   834dc:	4b07      	ldr	r3, [pc, #28]	; (834fc <xTimerCreateTimerTask+0x48>)
   834de:	4798      	blx	r3
   834e0:	bf00      	nop
   834e2:	e7fd      	b.n	834e0 <xTimerCreateTimerTask+0x2c>
	return xReturn;
}
   834e4:	b004      	add	sp, #16
   834e6:	bd10      	pop	{r4, pc}
   834e8:	00083459 	.word	0x00083459
   834ec:	20078c58 	.word	0x20078c58
   834f0:	00083615 	.word	0x00083615
   834f4:	00088384 	.word	0x00088384
   834f8:	00082949 	.word	0x00082949
   834fc:	00082149 	.word	0x00082149

00083500 <xTimerGenericCommand>:
	return ( xTimerHandle ) pxNewTimer;
}
/*-----------------------------------------------------------*/

portBASE_TYPE xTimerGenericCommand( xTimerHandle xTimer, portBASE_TYPE xCommandID, portTickType xOptionalValue, signed portBASE_TYPE *pxHigherPriorityTaskWoken, portTickType xBlockTime )
{
   83500:	b510      	push	{r4, lr}
   83502:	b084      	sub	sp, #16
portBASE_TYPE xReturn = pdFAIL;
xTIMER_MESSAGE xMessage;

	/* Send a message to the timer service task to perform a particular action
	on a particular timer definition. */
	if( xTimerQueue != NULL )
   83504:	4c10      	ldr	r4, [pc, #64]	; (83548 <xTimerGenericCommand+0x48>)
   83506:	6824      	ldr	r4, [r4, #0]
   83508:	b1d4      	cbz	r4, 83540 <xTimerGenericCommand+0x40>
	{
		/* Send a command to the timer service task to start the xTimer timer. */
		xMessage.xMessageID = xCommandID;
   8350a:	9101      	str	r1, [sp, #4]
		xMessage.xMessageValue = xOptionalValue;
   8350c:	f8ad 2008 	strh.w	r2, [sp, #8]
		xMessage.pxTimer = ( xTIMER * ) xTimer;
   83510:	9003      	str	r0, [sp, #12]

		if( pxHigherPriorityTaskWoken == NULL )
   83512:	b973      	cbnz	r3, 83532 <xTimerGenericCommand+0x32>
		{
			if( xTaskGetSchedulerState() == taskSCHEDULER_RUNNING )
   83514:	4b0d      	ldr	r3, [pc, #52]	; (8354c <xTimerGenericCommand+0x4c>)
   83516:	4798      	blx	r3
   83518:	2801      	cmp	r0, #1
			{
				xReturn = xQueueSendToBack( xTimerQueue, &xMessage, xBlockTime );
   8351a:	4b0b      	ldr	r3, [pc, #44]	; (83548 <xTimerGenericCommand+0x48>)
   8351c:	6818      	ldr	r0, [r3, #0]
   8351e:	a901      	add	r1, sp, #4
   83520:	bf07      	ittee	eq
   83522:	f8bd 2018 	ldrheq.w	r2, [sp, #24]
   83526:	2300      	moveq	r3, #0
			}
			else
			{
				xReturn = xQueueSendToBack( xTimerQueue, &xMessage, tmrNO_DELAY );
   83528:	2200      	movne	r2, #0
   8352a:	4613      	movne	r3, r2
   8352c:	4c08      	ldr	r4, [pc, #32]	; (83550 <xTimerGenericCommand+0x50>)
   8352e:	47a0      	blx	r4
   83530:	e007      	b.n	83542 <xTimerGenericCommand+0x42>
			}
		}
		else
		{
			xReturn = xQueueSendToBackFromISR( xTimerQueue, &xMessage, pxHigherPriorityTaskWoken );
   83532:	4620      	mov	r0, r4
   83534:	a901      	add	r1, sp, #4
   83536:	461a      	mov	r2, r3
   83538:	2300      	movs	r3, #0
   8353a:	4c06      	ldr	r4, [pc, #24]	; (83554 <xTimerGenericCommand+0x54>)
   8353c:	47a0      	blx	r4
   8353e:	e000      	b.n	83542 <xTimerGenericCommand+0x42>
}
/*-----------------------------------------------------------*/

portBASE_TYPE xTimerGenericCommand( xTimerHandle xTimer, portBASE_TYPE xCommandID, portTickType xOptionalValue, signed portBASE_TYPE *pxHigherPriorityTaskWoken, portTickType xBlockTime )
{
portBASE_TYPE xReturn = pdFAIL;
   83540:	2000      	movs	r0, #0

		traceTIMER_COMMAND_SEND( xTimer, xCommandID, xOptionalValue, xReturn );
	}

	return xReturn;
}
   83542:	b004      	add	sp, #16
   83544:	bd10      	pop	{r4, pc}
   83546:	bf00      	nop
   83548:	20078c58 	.word	0x20078c58
   8354c:	0008331d 	.word	0x0008331d
   83550:	00082589 	.word	0x00082589
   83554:	000826ad 	.word	0x000826ad

00083558 <prvSampleTimeNow>:
	return xNextExpireTime;
}
/*-----------------------------------------------------------*/

static portTickType prvSampleTimeNow( portBASE_TYPE *pxTimerListsWereSwitched )
{
   83558:	e92d 47f0 	stmdb	sp!, {r4, r5, r6, r7, r8, r9, sl, lr}
   8355c:	b082      	sub	sp, #8
   8355e:	4681      	mov	r9, r0
portTickType xTimeNow;
PRIVILEGED_DATA static portTickType xLastTime = ( portTickType ) 0U;

	xTimeNow = xTaskGetTickCount();
   83560:	4b24      	ldr	r3, [pc, #144]	; (835f4 <prvSampleTimeNow+0x9c>)
   83562:	4798      	blx	r3
   83564:	4680      	mov	r8, r0

	if( xTimeNow < xLastTime )
   83566:	4b24      	ldr	r3, [pc, #144]	; (835f8 <prvSampleTimeNow+0xa0>)
   83568:	881b      	ldrh	r3, [r3, #0]
   8356a:	4283      	cmp	r3, r0
   8356c:	d937      	bls.n	835de <prvSampleTimeNow+0x86>

	/* The tick count has overflowed.  The timer lists must be switched.
	If there are any timers still referenced from the current timer list
	then they must have expired and should be processed before the lists
	are switched. */
	while( listLIST_IS_EMPTY( pxCurrentTimerList ) == pdFALSE )
   8356e:	4e23      	ldr	r6, [pc, #140]	; (835fc <prvSampleTimeNow+0xa4>)
	{
		xNextExpireTime = listGET_ITEM_VALUE_OF_HEAD_ENTRY( pxCurrentTimerList );

		/* Remove the timer from the list. */
		pxTimer = ( xTIMER * ) listGET_OWNER_OF_HEAD_ENTRY( pxCurrentTimerList );
		uxListRemove( &( pxTimer->xTimerListItem ) );
   83570:	4f23      	ldr	r7, [pc, #140]	; (83600 <prvSampleTimeNow+0xa8>)
   83572:	e027      	b.n	835c4 <prvSampleTimeNow+0x6c>
	If there are any timers still referenced from the current timer list
	then they must have expired and should be processed before the lists
	are switched. */
	while( listLIST_IS_EMPTY( pxCurrentTimerList ) == pdFALSE )
	{
		xNextExpireTime = listGET_ITEM_VALUE_OF_HEAD_ENTRY( pxCurrentTimerList );
   83574:	68da      	ldr	r2, [r3, #12]
   83576:	f8b2 a000 	ldrh.w	sl, [r2]
   8357a:	fa1f fa8a 	uxth.w	sl, sl

		/* Remove the timer from the list. */
		pxTimer = ( xTIMER * ) listGET_OWNER_OF_HEAD_ENTRY( pxCurrentTimerList );
   8357e:	68db      	ldr	r3, [r3, #12]
   83580:	68dc      	ldr	r4, [r3, #12]
		uxListRemove( &( pxTimer->xTimerListItem ) );
   83582:	1d25      	adds	r5, r4, #4
   83584:	4628      	mov	r0, r5
   83586:	47b8      	blx	r7

		/* Execute its callback, then send a command to restart the timer if
		it is an auto-reload timer.  It cannot be restarted here as the lists
		have not yet been switched. */
		pxTimer->pxCallbackFunction( ( xTimerHandle ) pxTimer );
   83588:	6a63      	ldr	r3, [r4, #36]	; 0x24
   8358a:	4620      	mov	r0, r4
   8358c:	4798      	blx	r3

		if( pxTimer->uxAutoReload == ( unsigned portBASE_TYPE ) pdTRUE )
   8358e:	69e3      	ldr	r3, [r4, #28]
   83590:	2b01      	cmp	r3, #1
   83592:	d117      	bne.n	835c4 <prvSampleTimeNow+0x6c>
			the timer going into the same timer list then it has already expired
			and the timer should be re-inserted into the current list so it is
			processed again within this loop.  Otherwise a command should be sent
			to restart the timer to ensure it is only inserted into a list after
			the lists have been swapped. */
			xReloadTime = ( xNextExpireTime + pxTimer->xTimerPeriodInTicks );
   83594:	8b23      	ldrh	r3, [r4, #24]
   83596:	4453      	add	r3, sl
   83598:	b29b      	uxth	r3, r3
			if( xReloadTime > xNextExpireTime )
   8359a:	4553      	cmp	r3, sl
   8359c:	d906      	bls.n	835ac <prvSampleTimeNow+0x54>
			{
				listSET_LIST_ITEM_VALUE( &( pxTimer->xTimerListItem ), xReloadTime );
   8359e:	80a3      	strh	r3, [r4, #4]
				listSET_LIST_ITEM_OWNER( &( pxTimer->xTimerListItem ), pxTimer );
   835a0:	6124      	str	r4, [r4, #16]
				vListInsert( pxCurrentTimerList, &( pxTimer->xTimerListItem ) );
   835a2:	6830      	ldr	r0, [r6, #0]
   835a4:	4629      	mov	r1, r5
   835a6:	4b17      	ldr	r3, [pc, #92]	; (83604 <prvSampleTimeNow+0xac>)
   835a8:	4798      	blx	r3
   835aa:	e00b      	b.n	835c4 <prvSampleTimeNow+0x6c>
			}
			else
			{
				xResult = xTimerGenericCommand( pxTimer, tmrCOMMAND_START, xNextExpireTime, NULL, tmrNO_DELAY );
   835ac:	2300      	movs	r3, #0
   835ae:	9300      	str	r3, [sp, #0]
   835b0:	4620      	mov	r0, r4
   835b2:	4619      	mov	r1, r3
   835b4:	4652      	mov	r2, sl
   835b6:	4c14      	ldr	r4, [pc, #80]	; (83608 <prvSampleTimeNow+0xb0>)
   835b8:	47a0      	blx	r4
				configASSERT( xResult );
   835ba:	b918      	cbnz	r0, 835c4 <prvSampleTimeNow+0x6c>
   835bc:	4b13      	ldr	r3, [pc, #76]	; (8360c <prvSampleTimeNow+0xb4>)
   835be:	4798      	blx	r3
   835c0:	bf00      	nop
   835c2:	e7fd      	b.n	835c0 <prvSampleTimeNow+0x68>

	/* The tick count has overflowed.  The timer lists must be switched.
	If there are any timers still referenced from the current timer list
	then they must have expired and should be processed before the lists
	are switched. */
	while( listLIST_IS_EMPTY( pxCurrentTimerList ) == pdFALSE )
   835c4:	6833      	ldr	r3, [r6, #0]
   835c6:	681a      	ldr	r2, [r3, #0]
   835c8:	2a00      	cmp	r2, #0
   835ca:	d1d3      	bne.n	83574 <prvSampleTimeNow+0x1c>
			}
		}
	}

	pxTemp = pxCurrentTimerList;
	pxCurrentTimerList = pxOverflowTimerList;
   835cc:	4a10      	ldr	r2, [pc, #64]	; (83610 <prvSampleTimeNow+0xb8>)
   835ce:	6811      	ldr	r1, [r2, #0]
   835d0:	480a      	ldr	r0, [pc, #40]	; (835fc <prvSampleTimeNow+0xa4>)
   835d2:	6001      	str	r1, [r0, #0]
	pxOverflowTimerList = pxTemp;
   835d4:	6013      	str	r3, [r2, #0]
	xTimeNow = xTaskGetTickCount();

	if( xTimeNow < xLastTime )
	{
		prvSwitchTimerLists( xLastTime );
		*pxTimerListsWereSwitched = pdTRUE;
   835d6:	2301      	movs	r3, #1
   835d8:	f8c9 3000 	str.w	r3, [r9]
   835dc:	e002      	b.n	835e4 <prvSampleTimeNow+0x8c>
	}
	else
	{
		*pxTimerListsWereSwitched = pdFALSE;
   835de:	2300      	movs	r3, #0
   835e0:	f8c9 3000 	str.w	r3, [r9]
	}

	xLastTime = xTimeNow;
   835e4:	4b04      	ldr	r3, [pc, #16]	; (835f8 <prvSampleTimeNow+0xa0>)
   835e6:	f8a3 8000 	strh.w	r8, [r3]

	return xTimeNow;
}
   835ea:	4640      	mov	r0, r8
   835ec:	b002      	add	sp, #8
   835ee:	e8bd 87f0 	ldmia.w	sp!, {r4, r5, r6, r7, r8, r9, sl, pc}
   835f2:	bf00      	nop
   835f4:	00082c91 	.word	0x00082c91
   835f8:	20078c54 	.word	0x20078c54
   835fc:	20078c28 	.word	0x20078c28
   83600:	000820c1 	.word	0x000820c1
   83604:	0008207d 	.word	0x0008207d
   83608:	00083501 	.word	0x00083501
   8360c:	00082149 	.word	0x00082149
   83610:	20078c5c 	.word	0x20078c5c

00083614 <prvTimerTask>:
	pxTimer->pxCallbackFunction( ( xTimerHandle ) pxTimer );
}
/*-----------------------------------------------------------*/

static void prvTimerTask( void *pvParameters )
{
   83614:	e92d 43f0 	stmdb	sp!, {r4, r5, r6, r7, r8, r9, lr}
   83618:	b087      	sub	sp, #28
				time has not been reached yet.  This task should therefore
				block to wait for the next expire time or a command to be
				received - whichever comes first.  The following line cannot
				be reached unless xNextExpireTime > xTimeNow, except in the
				case when the current timer list is empty. */
				vQueueWaitForMessageRestricted( xTimerQueue, ( xNextExpireTime - xTimeNow ) );
   8361a:	4d51      	ldr	r5, [pc, #324]	; (83760 <prvTimerTask+0x14c>)
portBASE_TYPE xResult;

	/* Remove the timer from the list of active timers.  A check has already
	been performed to ensure the list is not empty. */
	pxTimer = ( xTIMER * ) listGET_OWNER_OF_HEAD_ENTRY( pxCurrentTimerList );
	uxListRemove( &( pxTimer->xTimerListItem ) );
   8361c:	f8df 8170 	ldr.w	r8, [pc, #368]	; 83790 <prvTimerTask+0x17c>
	the timer with the nearest expiry time will expire.  If there are no
	active timers then just set the next expire time to 0.  That will cause
	this task to unblock when the tick count overflows, at which point the
	timer lists will be switched and the next expiry time can be
	re-assessed.  */
	*pxListWasEmpty = listLIST_IS_EMPTY( pxCurrentTimerList );
   83620:	4b50      	ldr	r3, [pc, #320]	; (83764 <prvTimerTask+0x150>)
   83622:	681b      	ldr	r3, [r3, #0]
   83624:	681a      	ldr	r2, [r3, #0]
	if( *pxListWasEmpty == pdFALSE )
   83626:	2a00      	cmp	r2, #0
   83628:	f000 8090 	beq.w	8374c <prvTimerTask+0x138>
	{
		xNextExpireTime = listGET_ITEM_VALUE_OF_HEAD_ENTRY( pxCurrentTimerList );
   8362c:	68db      	ldr	r3, [r3, #12]
   8362e:	881e      	ldrh	r6, [r3, #0]
   83630:	b2b6      	uxth	r6, r6
static void prvProcessTimerOrBlockTask( portTickType xNextExpireTime, portBASE_TYPE xListWasEmpty )
{
portTickType xTimeNow;
portBASE_TYPE xTimerListsWereSwitched;

	vTaskSuspendAll();
   83632:	4b4d      	ldr	r3, [pc, #308]	; (83768 <prvTimerTask+0x154>)
   83634:	4798      	blx	r3
		/* Obtain the time now to make an assessment as to whether the timer
		has expired or not.  If obtaining the time causes the lists to switch
		then don't process this timer as any timers that remained in the list
		when the lists were switched will have been processed within the
		prvSampelTimeNow() function. */
		xTimeNow = prvSampleTimeNow( &xTimerListsWereSwitched );
   83636:	a803      	add	r0, sp, #12
   83638:	4b4c      	ldr	r3, [pc, #304]	; (8376c <prvTimerTask+0x158>)
   8363a:	4798      	blx	r3
   8363c:	4607      	mov	r7, r0
		if( xTimerListsWereSwitched == pdFALSE )
   8363e:	9b03      	ldr	r3, [sp, #12]
   83640:	2b00      	cmp	r3, #0
   83642:	d132      	bne.n	836aa <prvTimerTask+0x96>
		{
			/* The tick count has not overflowed, has the timer expired? */
			if( ( xListWasEmpty == pdFALSE ) && ( xNextExpireTime <= xTimeNow ) )
   83644:	4286      	cmp	r6, r0
   83646:	d825      	bhi.n	83694 <prvTimerTask+0x80>
			{
				xTaskResumeAll();
   83648:	4b49      	ldr	r3, [pc, #292]	; (83770 <prvTimerTask+0x15c>)
   8364a:	4798      	blx	r3
xTIMER *pxTimer;
portBASE_TYPE xResult;

	/* Remove the timer from the list of active timers.  A check has already
	been performed to ensure the list is not empty. */
	pxTimer = ( xTIMER * ) listGET_OWNER_OF_HEAD_ENTRY( pxCurrentTimerList );
   8364c:	4b45      	ldr	r3, [pc, #276]	; (83764 <prvTimerTask+0x150>)
   8364e:	681b      	ldr	r3, [r3, #0]
   83650:	68db      	ldr	r3, [r3, #12]
   83652:	68dc      	ldr	r4, [r3, #12]
	uxListRemove( &( pxTimer->xTimerListItem ) );
   83654:	1d20      	adds	r0, r4, #4
   83656:	47c0      	blx	r8
	traceTIMER_EXPIRED( pxTimer );

	/* If the timer is an auto reload timer then calculate the next
	expiry time and re-insert the timer in the list of active timers. */
	if( pxTimer->uxAutoReload == ( unsigned portBASE_TYPE ) pdTRUE )
   83658:	69e3      	ldr	r3, [r4, #28]
   8365a:	2b01      	cmp	r3, #1
   8365c:	d115      	bne.n	8368a <prvTimerTask+0x76>
		a time relative to anything other than the current time.  It
		will therefore be inserted into the correct list relative to
		the time this task thinks it is now, even if a command to
		switch lists due to a tick count overflow is already waiting in
		the timer queue. */
		if( prvInsertTimerInActiveList( pxTimer, ( xNextExpireTime + pxTimer->xTimerPeriodInTicks ), xTimeNow, xNextExpireTime ) == pdTRUE )
   8365e:	8b21      	ldrh	r1, [r4, #24]
   83660:	4431      	add	r1, r6
   83662:	4620      	mov	r0, r4
   83664:	b289      	uxth	r1, r1
   83666:	463a      	mov	r2, r7
   83668:	4633      	mov	r3, r6
   8366a:	4f42      	ldr	r7, [pc, #264]	; (83774 <prvTimerTask+0x160>)
   8366c:	47b8      	blx	r7
   8366e:	2801      	cmp	r0, #1
   83670:	d10b      	bne.n	8368a <prvTimerTask+0x76>
		{
			/* The timer expired before it was added to the active timer
			list.  Reload it now.  */
			xResult = xTimerGenericCommand( pxTimer, tmrCOMMAND_START, xNextExpireTime, NULL, tmrNO_DELAY );
   83672:	2300      	movs	r3, #0
   83674:	9300      	str	r3, [sp, #0]
   83676:	4620      	mov	r0, r4
   83678:	4619      	mov	r1, r3
   8367a:	4632      	mov	r2, r6
   8367c:	4e3e      	ldr	r6, [pc, #248]	; (83778 <prvTimerTask+0x164>)
   8367e:	47b0      	blx	r6
			configASSERT( xResult );
   83680:	b918      	cbnz	r0, 8368a <prvTimerTask+0x76>
   83682:	4b3e      	ldr	r3, [pc, #248]	; (8377c <prvTimerTask+0x168>)
   83684:	4798      	blx	r3
   83686:	bf00      	nop
   83688:	e7fd      	b.n	83686 <prvTimerTask+0x72>
			( void ) xResult;
		}
	}

	/* Call the timer callback. */
	pxTimer->pxCallbackFunction( ( xTimerHandle ) pxTimer );
   8368a:	6a63      	ldr	r3, [r4, #36]	; 0x24
   8368c:	4620      	mov	r0, r4
   8368e:	4798      	blx	r3
   83690:	e00d      	b.n	836ae <prvTimerTask+0x9a>
		xNextExpireTime = listGET_ITEM_VALUE_OF_HEAD_ENTRY( pxCurrentTimerList );
	}
	else
	{
		/* Ensure the task unblocks when the tick count rolls over. */
		xNextExpireTime = ( portTickType ) 0U;
   83692:	2600      	movs	r6, #0
				time has not been reached yet.  This task should therefore
				block to wait for the next expire time or a command to be
				received - whichever comes first.  The following line cannot
				be reached unless xNextExpireTime > xTimeNow, except in the
				case when the current timer list is empty. */
				vQueueWaitForMessageRestricted( xTimerQueue, ( xNextExpireTime - xTimeNow ) );
   83694:	1bf1      	subs	r1, r6, r7
   83696:	6828      	ldr	r0, [r5, #0]
   83698:	b289      	uxth	r1, r1
   8369a:	4b39      	ldr	r3, [pc, #228]	; (83780 <prvTimerTask+0x16c>)
   8369c:	4798      	blx	r3

				if( xTaskResumeAll() == pdFALSE )
   8369e:	4b34      	ldr	r3, [pc, #208]	; (83770 <prvTimerTask+0x15c>)
   836a0:	4798      	blx	r3
   836a2:	b920      	cbnz	r0, 836ae <prvTimerTask+0x9a>
				{
					/* Yield to wait for either a command to arrive, or the block time
					to expire.  If a command arrived between the critical section being
					exited and this yield then the yield will not cause the task
					to block. */
					portYIELD_WITHIN_API();
   836a4:	4b37      	ldr	r3, [pc, #220]	; (83784 <prvTimerTask+0x170>)
   836a6:	4798      	blx	r3
   836a8:	e001      	b.n	836ae <prvTimerTask+0x9a>
				}
			}
		}
		else
		{
			xTaskResumeAll();
   836aa:	4b31      	ldr	r3, [pc, #196]	; (83770 <prvTimerTask+0x15c>)
   836ac:	4798      	blx	r3
portBASE_TYPE xTimerListsWereSwitched, xResult;
portTickType xTimeNow;

	/* In this case the xTimerListsWereSwitched parameter is not used, but it
	must be present in the function call. */
	xTimeNow = prvSampleTimeNow( &xTimerListsWereSwitched );
   836ae:	a802      	add	r0, sp, #8
   836b0:	4b2e      	ldr	r3, [pc, #184]	; (8376c <prvTimerTask+0x158>)
   836b2:	4798      	blx	r3
   836b4:	4607      	mov	r7, r0

	while( xQueueReceive( xTimerQueue, &xMessage, tmrNO_DELAY ) != pdFAIL )
   836b6:	4e34      	ldr	r6, [pc, #208]	; (83788 <prvTimerTask+0x174>)
				break;

			case tmrCOMMAND_CHANGE_PERIOD :
				pxTimer->xTimerPeriodInTicks = xMessage.xMessageValue;
				configASSERT( ( pxTimer->xTimerPeriodInTicks > 0 ) );
				prvInsertTimerInActiveList( pxTimer, ( xTimeNow + pxTimer->xTimerPeriodInTicks ), xTimeNow, xTimeNow );
   836b8:	f8df 90b8 	ldr.w	r9, [pc, #184]	; 83774 <prvTimerTask+0x160>
   836bc:	e03e      	b.n	8373c <prvTimerTask+0x128>
	must be present in the function call. */
	xTimeNow = prvSampleTimeNow( &xTimerListsWereSwitched );

	while( xQueueReceive( xTimerQueue, &xMessage, tmrNO_DELAY ) != pdFAIL )
	{
		pxTimer = xMessage.pxTimer;
   836be:	9c05      	ldr	r4, [sp, #20]

		/* Is the timer already in a list of active timers?  When the command
		is trmCOMMAND_PROCESS_TIMER_OVERFLOW, the timer will be NULL as the
		command is to the task rather than to an individual timer. */
		if( pxTimer != NULL )
   836c0:	b11c      	cbz	r4, 836ca <prvTimerTask+0xb6>
		{
			if( listIS_CONTAINED_WITHIN( NULL, &( pxTimer->xTimerListItem ) ) == pdFALSE )
   836c2:	6961      	ldr	r1, [r4, #20]
   836c4:	b109      	cbz	r1, 836ca <prvTimerTask+0xb6>
			{
				/* The timer is in a list, remove it. */
				uxListRemove( &( pxTimer->xTimerListItem ) );
   836c6:	1d20      	adds	r0, r4, #4
   836c8:	47c0      	blx	r8
			}
		}

		traceTIMER_COMMAND_RECEIVED( pxTimer, xMessage.xMessageID, xMessage.xMessageValue );

		switch( xMessage.xMessageID )
   836ca:	9903      	ldr	r1, [sp, #12]
   836cc:	2902      	cmp	r1, #2
   836ce:	d023      	beq.n	83718 <prvTimerTask+0x104>
   836d0:	2903      	cmp	r1, #3
   836d2:	d030      	beq.n	83736 <prvTimerTask+0x122>
   836d4:	2900      	cmp	r1, #0
   836d6:	d131      	bne.n	8373c <prvTimerTask+0x128>
		{
			case tmrCOMMAND_START :
				/* Start or restart a timer. */
				if( prvInsertTimerInActiveList( pxTimer,  xMessage.xMessageValue + pxTimer->xTimerPeriodInTicks, xTimeNow, xMessage.xMessageValue ) == pdTRUE )
   836d8:	f8bd 3010 	ldrh.w	r3, [sp, #16]
   836dc:	8b21      	ldrh	r1, [r4, #24]
   836de:	4419      	add	r1, r3
   836e0:	4620      	mov	r0, r4
   836e2:	b289      	uxth	r1, r1
   836e4:	463a      	mov	r2, r7
   836e6:	47c8      	blx	r9
   836e8:	2801      	cmp	r0, #1
   836ea:	d127      	bne.n	8373c <prvTimerTask+0x128>
				{
					/* The timer expired before it was added to the active timer
					list.  Process it now. */
					pxTimer->pxCallbackFunction( ( xTimerHandle ) pxTimer );
   836ec:	6a63      	ldr	r3, [r4, #36]	; 0x24
   836ee:	4620      	mov	r0, r4
   836f0:	4798      	blx	r3

					if( pxTimer->uxAutoReload == ( unsigned portBASE_TYPE ) pdTRUE )
   836f2:	69e3      	ldr	r3, [r4, #28]
   836f4:	2b01      	cmp	r3, #1
   836f6:	d121      	bne.n	8373c <prvTimerTask+0x128>
					{
						xResult = xTimerGenericCommand( pxTimer, tmrCOMMAND_START, xMessage.xMessageValue + pxTimer->xTimerPeriodInTicks, NULL, tmrNO_DELAY );
   836f8:	8b22      	ldrh	r2, [r4, #24]
   836fa:	f8bd 3010 	ldrh.w	r3, [sp, #16]
   836fe:	441a      	add	r2, r3
   83700:	2300      	movs	r3, #0
   83702:	9300      	str	r3, [sp, #0]
   83704:	4620      	mov	r0, r4
   83706:	4619      	mov	r1, r3
   83708:	b292      	uxth	r2, r2
   8370a:	4c1b      	ldr	r4, [pc, #108]	; (83778 <prvTimerTask+0x164>)
   8370c:	47a0      	blx	r4
						configASSERT( xResult );
   8370e:	b9a8      	cbnz	r0, 8373c <prvTimerTask+0x128>
   83710:	4b1a      	ldr	r3, [pc, #104]	; (8377c <prvTimerTask+0x168>)
   83712:	4798      	blx	r3
   83714:	bf00      	nop
   83716:	e7fd      	b.n	83714 <prvTimerTask+0x100>
				/* The timer has already been removed from the active list.
				There is nothing to do here. */
				break;

			case tmrCOMMAND_CHANGE_PERIOD :
				pxTimer->xTimerPeriodInTicks = xMessage.xMessageValue;
   83718:	f8bd 3010 	ldrh.w	r3, [sp, #16]
   8371c:	8323      	strh	r3, [r4, #24]
				configASSERT( ( pxTimer->xTimerPeriodInTicks > 0 ) );
   8371e:	b91b      	cbnz	r3, 83728 <prvTimerTask+0x114>
   83720:	4b16      	ldr	r3, [pc, #88]	; (8377c <prvTimerTask+0x168>)
   83722:	4798      	blx	r3
   83724:	bf00      	nop
   83726:	e7fd      	b.n	83724 <prvTimerTask+0x110>
				prvInsertTimerInActiveList( pxTimer, ( xTimeNow + pxTimer->xTimerPeriodInTicks ), xTimeNow, xTimeNow );
   83728:	18f9      	adds	r1, r7, r3
   8372a:	4620      	mov	r0, r4
   8372c:	b289      	uxth	r1, r1
   8372e:	463a      	mov	r2, r7
   83730:	463b      	mov	r3, r7
   83732:	47c8      	blx	r9
   83734:	e002      	b.n	8373c <prvTimerTask+0x128>
				break;

			case tmrCOMMAND_DELETE :
				/* The timer has already been removed from the active list,
				just free up the memory. */
				vPortFree( pxTimer );
   83736:	4620      	mov	r0, r4
   83738:	4b14      	ldr	r3, [pc, #80]	; (8378c <prvTimerTask+0x178>)
   8373a:	4798      	blx	r3

	/* In this case the xTimerListsWereSwitched parameter is not used, but it
	must be present in the function call. */
	xTimeNow = prvSampleTimeNow( &xTimerListsWereSwitched );

	while( xQueueReceive( xTimerQueue, &xMessage, tmrNO_DELAY ) != pdFAIL )
   8373c:	6828      	ldr	r0, [r5, #0]
   8373e:	a903      	add	r1, sp, #12
   83740:	2200      	movs	r2, #0
   83742:	4613      	mov	r3, r2
   83744:	47b0      	blx	r6
   83746:	2800      	cmp	r0, #0
   83748:	d1b9      	bne.n	836be <prvTimerTask+0xaa>
   8374a:	e769      	b.n	83620 <prvTimerTask+0xc>
static void prvProcessTimerOrBlockTask( portTickType xNextExpireTime, portBASE_TYPE xListWasEmpty )
{
portTickType xTimeNow;
portBASE_TYPE xTimerListsWereSwitched;

	vTaskSuspendAll();
   8374c:	4b06      	ldr	r3, [pc, #24]	; (83768 <prvTimerTask+0x154>)
   8374e:	4798      	blx	r3
		/* Obtain the time now to make an assessment as to whether the timer
		has expired or not.  If obtaining the time causes the lists to switch
		then don't process this timer as any timers that remained in the list
		when the lists were switched will have been processed within the
		prvSampelTimeNow() function. */
		xTimeNow = prvSampleTimeNow( &xTimerListsWereSwitched );
   83750:	a803      	add	r0, sp, #12
   83752:	4b06      	ldr	r3, [pc, #24]	; (8376c <prvTimerTask+0x158>)
   83754:	4798      	blx	r3
   83756:	4607      	mov	r7, r0
		if( xTimerListsWereSwitched == pdFALSE )
   83758:	9b03      	ldr	r3, [sp, #12]
   8375a:	2b00      	cmp	r3, #0
   8375c:	d099      	beq.n	83692 <prvTimerTask+0x7e>
   8375e:	e7a4      	b.n	836aa <prvTimerTask+0x96>
   83760:	20078c58 	.word	0x20078c58
   83764:	20078c28 	.word	0x20078c28
   83768:	00082c81 	.word	0x00082c81
   8376c:	00083559 	.word	0x00083559
   83770:	00082ddd 	.word	0x00082ddd
   83774:	00083409 	.word	0x00083409
   83778:	00083501 	.word	0x00083501
   8377c:	00082149 	.word	0x00082149
   83780:	000828a1 	.word	0x000828a1
   83784:	00082139 	.word	0x00082139
   83788:	0008273d 	.word	0x0008273d
   8378c:	00082369 	.word	0x00082369
   83790:	000820c1 	.word	0x000820c1

00083794 <sysclk_init>:
	pmc_disable_udpck();
}
#endif // CONFIG_USBCLK_SOURCE

void sysclk_init(void)
{
   83794:	b510      	push	{r4, lr}
	struct pll_config pllcfg;

	/* Set flash wait state to max in case the below clock switching. */
	system_init_flash(CHIP_FREQ_CPU_MAX);
   83796:	480e      	ldr	r0, [pc, #56]	; (837d0 <sysclk_init+0x3c>)
   83798:	4b0e      	ldr	r3, [pc, #56]	; (837d4 <sysclk_init+0x40>)
   8379a:	4798      	blx	r3
		pmc_switch_mainck_to_fastrc(CKGR_MOR_MOSCRCF_12_MHz);
		break;


	case OSC_MAINCK_XTAL:
		pmc_switch_mainck_to_xtal(PMC_OSC_XTAL,
   8379c:	2000      	movs	r0, #0
   8379e:	213e      	movs	r1, #62	; 0x3e
   837a0:	4b0d      	ldr	r3, [pc, #52]	; (837d8 <sysclk_init+0x44>)
   837a2:	4798      	blx	r3
	case OSC_MAINCK_4M_RC:
	case OSC_MAINCK_8M_RC:
	case OSC_MAINCK_12M_RC:
	case OSC_MAINCK_XTAL:
	case OSC_MAINCK_BYPASS:
		return pmc_osc_is_ready_mainck();
   837a4:	4c0d      	ldr	r4, [pc, #52]	; (837dc <sysclk_init+0x48>)
   837a6:	47a0      	blx	r4
 *
 * \param id A number identifying the oscillator to wait for.
 */
static inline void osc_wait_ready(uint8_t id)
{
	while (!osc_is_ready(id)) {
   837a8:	2800      	cmp	r0, #0
   837aa:	d0fc      	beq.n	837a6 <sysclk_init+0x12>
static inline void pll_enable(const struct pll_config *p_cfg, uint32_t ul_pll_id)
{
	Assert(ul_pll_id < NR_PLLS);

	if (ul_pll_id == PLLA_ID) {
		pmc_disable_pllack(); // Always stop PLL first!
   837ac:	4b0c      	ldr	r3, [pc, #48]	; (837e0 <sysclk_init+0x4c>)
   837ae:	4798      	blx	r3
		PMC->CKGR_PLLAR = CKGR_PLLAR_ONE | p_cfg->ctrl;
   837b0:	4a0c      	ldr	r2, [pc, #48]	; (837e4 <sysclk_init+0x50>)
   837b2:	4b0d      	ldr	r3, [pc, #52]	; (837e8 <sysclk_init+0x54>)
   837b4:	629a      	str	r2, [r3, #40]	; 0x28
static inline uint32_t pll_is_locked(uint32_t ul_pll_id)
{
	Assert(ul_pll_id < NR_PLLS);

	if (ul_pll_id == PLLA_ID) {
		return pmc_is_locked_pllack();
   837b6:	4c0d      	ldr	r4, [pc, #52]	; (837ec <sysclk_init+0x58>)
   837b8:	47a0      	blx	r4
 */
static inline int pll_wait_for_lock(unsigned int pll_id)
{
	Assert(pll_id < NR_PLLS);

	while (!pll_is_locked(pll_id)) {
   837ba:	2800      	cmp	r0, #0
   837bc:	d0fc      	beq.n	837b8 <sysclk_init+0x24>
	else if (CONFIG_SYSCLK_SOURCE == SYSCLK_SRC_PLLACK) {
		pll_enable_source(CONFIG_PLL0_SOURCE);
		pll_config_defaults(&pllcfg, 0);
		pll_enable(&pllcfg, 0);
		pll_wait_for_lock(0);
		pmc_switch_mck_to_pllack(CONFIG_SYSCLK_PRES);
   837be:	2010      	movs	r0, #16
   837c0:	4b0b      	ldr	r3, [pc, #44]	; (837f0 <sysclk_init+0x5c>)
   837c2:	4798      	blx	r3
		pll_wait_for_lock(1);
		pmc_switch_mck_to_upllck(CONFIG_SYSCLK_PRES);
	}

	/* Update the SystemFrequency variable */
	SystemCoreClockUpdate();
   837c4:	4b0b      	ldr	r3, [pc, #44]	; (837f4 <sysclk_init+0x60>)
   837c6:	4798      	blx	r3

	/* Set a flash wait state depending on the new cpu frequency */
	system_init_flash(sysclk_get_cpu_hz());
   837c8:	4801      	ldr	r0, [pc, #4]	; (837d0 <sysclk_init+0x3c>)
   837ca:	4b02      	ldr	r3, [pc, #8]	; (837d4 <sysclk_init+0x40>)
   837cc:	4798      	blx	r3
   837ce:	bd10      	pop	{r4, pc}
   837d0:	0501bd00 	.word	0x0501bd00
   837d4:	200700b1 	.word	0x200700b1
   837d8:	00083c39 	.word	0x00083c39
   837dc:	00083c8d 	.word	0x00083c8d
   837e0:	00083c9d 	.word	0x00083c9d
   837e4:	200d3f01 	.word	0x200d3f01
   837e8:	400e0600 	.word	0x400e0600
   837ec:	00083cad 	.word	0x00083cad
   837f0:	00083bd5 	.word	0x00083bd5
   837f4:	00083dc9 	.word	0x00083dc9

000837f8 <board_init>:
#include "conf_board.h"
#include "gpio.h"
#include "ioport.h"

void board_init(void)
{
   837f8:	b510      	push	{r4, lr}
#ifndef CONF_BOARD_KEEP_WATCHDOG_AT_INIT
	/* Disable the watchdog */
	WDT->WDT_MR = WDT_MR_WDDIS;
   837fa:	f44f 4200 	mov.w	r2, #32768	; 0x8000
   837fe:	4b1b      	ldr	r3, [pc, #108]	; (8386c <board_init+0x74>)
   83800:	605a      	str	r2, [r3, #4]
   83802:	200b      	movs	r0, #11
   83804:	4c1a      	ldr	r4, [pc, #104]	; (83870 <board_init+0x78>)
   83806:	47a0      	blx	r4
   83808:	200c      	movs	r0, #12
   8380a:	47a0      	blx	r4
   8380c:	200d      	movs	r0, #13
   8380e:	47a0      	blx	r4
   83810:	200e      	movs	r0, #14
   83812:	47a0      	blx	r4
	 * In new designs IOPORT is used instead.
	 * Here IOPORT must be initialized for others to use before setting up IO.
	 */
	ioport_init();
	/* Configure LED pins */
	gpio_configure_pin(LED0_GPIO, LED0_FLAGS);
   83814:	203b      	movs	r0, #59	; 0x3b
   83816:	f04f 5160 	mov.w	r1, #939524096	; 0x38000000
   8381a:	4c16      	ldr	r4, [pc, #88]	; (83874 <board_init+0x7c>)
   8381c:	47a0      	blx	r4
	gpio_configure_pin(LED1_GPIO, LED1_FLAGS);
   8381e:	2055      	movs	r0, #85	; 0x55
   83820:	f04f 5160 	mov.w	r1, #939524096	; 0x38000000
   83824:	47a0      	blx	r4
	gpio_configure_pin(LED2_GPIO, LED2_FLAGS);
   83826:	2056      	movs	r0, #86	; 0x56
   83828:	f04f 5160 	mov.w	r1, #939524096	; 0x38000000
   8382c:	47a0      	blx	r4

	/* Configure Push Button pins */
	gpio_configure_pin(GPIO_PUSH_BUTTON_1, GPIO_PUSH_BUTTON_1_FLAGS);
   8382e:	2068      	movs	r0, #104	; 0x68
   83830:	4911      	ldr	r1, [pc, #68]	; (83878 <board_init+0x80>)
   83832:	47a0      	blx	r4
	gpio_configure_pin(GPIO_PUSH_BUTTON_2, GPIO_PUSH_BUTTON_2_FLAGS);
   83834:	205c      	movs	r0, #92	; 0x5c
   83836:	4911      	ldr	r1, [pc, #68]	; (8387c <board_init+0x84>)
   83838:	47a0      	blx	r4

#ifdef CONF_BOARD_UART_CONSOLE
	/* Configure UART pins */
	gpio_configure_group(PINS_UART_PIO, PINS_UART, PINS_UART_FLAGS);
   8383a:	4811      	ldr	r0, [pc, #68]	; (83880 <board_init+0x88>)
   8383c:	f44f 7140 	mov.w	r1, #768	; 0x300
   83840:	f04f 6200 	mov.w	r2, #134217728	; 0x8000000
   83844:	4b0f      	ldr	r3, [pc, #60]	; (83884 <board_init+0x8c>)
   83846:	4798      	blx	r3
		gpio_configure_pin(SPI1_NPCS3_GPIO, SPI1_NPCS3_FLAGS);
#   endif
#endif

#ifdef CONF_BOARD_TWI0
	gpio_configure_pin(TWI0_DATA_GPIO, TWI0_DATA_FLAGS);
   83848:	2011      	movs	r0, #17
   8384a:	f04f 6100 	mov.w	r1, #134217728	; 0x8000000
   8384e:	47a0      	blx	r4
	gpio_configure_pin(TWI0_CLK_GPIO, TWI0_CLK_FLAGS);
   83850:	2012      	movs	r0, #18
   83852:	f04f 6100 	mov.w	r1, #134217728	; 0x8000000
   83856:	47a0      	blx	r4
	gpio_configure_pin(PIN_USART0_TXD_IDX, PIN_USART0_TXD_FLAGS);
#endif

#ifdef CONF_BOARD_USB_PORT
	/* Configure USB_ID (UOTGID) pin */
	gpio_configure_pin(USB_ID_GPIO, USB_ID_FLAGS);
   83858:	202b      	movs	r0, #43	; 0x2b
   8385a:	f04f 6100 	mov.w	r1, #134217728	; 0x8000000
   8385e:	47a0      	blx	r4
	/* Configure USB_VBOF (UOTGVBOF) pin */
	gpio_configure_pin(USB_VBOF_GPIO, USB_VBOF_FLAGS);
   83860:	202a      	movs	r0, #42	; 0x2a
   83862:	f04f 6100 	mov.w	r1, #134217728	; 0x8000000
   83866:	47a0      	blx	r4
   83868:	bd10      	pop	{r4, pc}
   8386a:	bf00      	nop
   8386c:	400e1a50 	.word	0x400e1a50
   83870:	00083cbd 	.word	0x00083cbd
   83874:	0008397d 	.word	0x0008397d
   83878:	28000079 	.word	0x28000079
   8387c:	28000001 	.word	0x28000001
   83880:	400e0e00 	.word	0x400e0e00
   83884:	00083a51 	.word	0x00083a51

00083888 <pio_get>:
uint32_t pio_get(Pio *p_pio, const pio_type_t ul_type,
		const uint32_t ul_mask)
{
	uint32_t ul_reg;

	if ((ul_type == PIO_OUTPUT_0) || (ul_type == PIO_OUTPUT_1)) {
   83888:	f021 6100 	bic.w	r1, r1, #134217728	; 0x8000000
   8388c:	f1b1 5f40 	cmp.w	r1, #805306368	; 0x30000000
		ul_reg = p_pio->PIO_ODSR;
   83890:	bf0c      	ite	eq
   83892:	6b83      	ldreq	r3, [r0, #56]	; 0x38
	} else {
		ul_reg = p_pio->PIO_PDSR;
   83894:	6bc3      	ldrne	r3, [r0, #60]	; 0x3c
	}

	if ((ul_reg & ul_mask) == 0) {
   83896:	4213      	tst	r3, r2
		return 0;
	} else {
		return 1;
	}
}
   83898:	bf0c      	ite	eq
   8389a:	2000      	moveq	r0, #0
   8389c:	2001      	movne	r0, #1
   8389e:	4770      	bx	lr

000838a0 <pio_set_peripheral>:
		const uint32_t ul_mask)
{
	uint32_t ul_sr;

	/* Disable interrupts on the pin(s) */
	p_pio->PIO_IDR = ul_mask;
   838a0:	6442      	str	r2, [r0, #68]	; 0x44
	case PIO_OUTPUT_1:
	case PIO_NOT_A_PIN:
		return;
	}
#elif (SAM3XA|| SAM3U)
	switch (ul_type) {
   838a2:	f1b1 5f80 	cmp.w	r1, #268435456	; 0x10000000
   838a6:	d016      	beq.n	838d6 <pio_set_peripheral+0x36>
   838a8:	d804      	bhi.n	838b4 <pio_set_peripheral+0x14>
   838aa:	b1c1      	cbz	r1, 838de <pio_set_peripheral+0x3e>
   838ac:	f1b1 6f00 	cmp.w	r1, #134217728	; 0x8000000
   838b0:	d00a      	beq.n	838c8 <pio_set_peripheral+0x28>
   838b2:	e013      	b.n	838dc <pio_set_peripheral+0x3c>
   838b4:	f1b1 5f40 	cmp.w	r1, #805306368	; 0x30000000
   838b8:	d011      	beq.n	838de <pio_set_peripheral+0x3e>
   838ba:	f1b1 5f60 	cmp.w	r1, #939524096	; 0x38000000
   838be:	d00e      	beq.n	838de <pio_set_peripheral+0x3e>
   838c0:	f1b1 5f20 	cmp.w	r1, #671088640	; 0x28000000
   838c4:	d10a      	bne.n	838dc <pio_set_peripheral+0x3c>
   838c6:	4770      	bx	lr
	case PIO_PERIPH_A:
		ul_sr = p_pio->PIO_ABSR;
   838c8:	6f03      	ldr	r3, [r0, #112]	; 0x70
		p_pio->PIO_ABSR &= (~ul_mask & ul_sr);
   838ca:	6f01      	ldr	r1, [r0, #112]	; 0x70
   838cc:	400b      	ands	r3, r1
   838ce:	ea23 0302 	bic.w	r3, r3, r2
   838d2:	6703      	str	r3, [r0, #112]	; 0x70
		break;
   838d4:	e002      	b.n	838dc <pio_set_peripheral+0x3c>

	case PIO_PERIPH_B:
		ul_sr = p_pio->PIO_ABSR;
   838d6:	6f03      	ldr	r3, [r0, #112]	; 0x70
		p_pio->PIO_ABSR = (ul_mask | ul_sr);
   838d8:	4313      	orrs	r3, r2
   838da:	6703      	str	r3, [r0, #112]	; 0x70
#else
#error "Unsupported device"
#endif

	/* Remove the pins from under the control of PIO */
	p_pio->PIO_PDR = ul_mask;
   838dc:	6042      	str	r2, [r0, #4]
   838de:	4770      	bx	lr

000838e0 <pio_set_input>:
 * \param p_pio Pointer to a PIO instance.
 * \param ul_mask Interrupt sources bit map.
 */
void pio_disable_interrupt(Pio *p_pio, const uint32_t ul_mask)
{
	p_pio->PIO_IDR = ul_mask;
   838e0:	6441      	str	r1, [r0, #68]	; 0x44
 */
void pio_pull_up(Pio *p_pio, const uint32_t ul_mask,
		const uint32_t ul_pull_up_enable)
{
	/* Enable the pull-up(s) if necessary */
	if (ul_pull_up_enable) {
   838e2:	f012 0f01 	tst.w	r2, #1
		p_pio->PIO_PUER = ul_mask;
   838e6:	bf14      	ite	ne
   838e8:	6641      	strne	r1, [r0, #100]	; 0x64
	} else {
		p_pio->PIO_PUDR = ul_mask;
   838ea:	6601      	streq	r1, [r0, #96]	; 0x60
{
	pio_disable_interrupt(p_pio, ul_mask);
	pio_pull_up(p_pio, ul_mask, ul_attribute & PIO_PULLUP);

	/* Enable Input Filter if necessary */
	if (ul_attribute & (PIO_DEGLITCH | PIO_DEBOUNCE)) {
   838ec:	f012 0f0a 	tst.w	r2, #10
		p_pio->PIO_IFER = ul_mask;
   838f0:	bf14      	ite	ne
   838f2:	6201      	strne	r1, [r0, #32]
	} else {
		p_pio->PIO_IFDR = ul_mask;
   838f4:	6241      	streq	r1, [r0, #36]	; 0x24
			p_pio->PIO_IFSCER = ul_mask;
		}
	}
#elif (SAM3XA|| SAM3U)
	/* Enable de-glitch or de-bounce if necessary */
	if (ul_attribute & PIO_DEGLITCH) {
   838f6:	f012 0f02 	tst.w	r2, #2
   838fa:	d002      	beq.n	83902 <pio_set_input+0x22>
		p_pio->PIO_SCIFSR = ul_mask;
   838fc:	f8c0 1080 	str.w	r1, [r0, #128]	; 0x80
   83900:	e004      	b.n	8390c <pio_set_input+0x2c>
	} else {
		if (ul_attribute & PIO_DEBOUNCE) {
   83902:	f012 0f08 	tst.w	r2, #8
			p_pio->PIO_DIFSR = ul_mask;
   83906:	bf18      	it	ne
   83908:	f8c0 1084 	strne.w	r1, [r0, #132]	; 0x84
#else
#error "Unsupported device"
#endif

	/* Configure pin as input */
	p_pio->PIO_ODR = ul_mask;
   8390c:	6141      	str	r1, [r0, #20]
	p_pio->PIO_PER = ul_mask;
   8390e:	6001      	str	r1, [r0, #0]
   83910:	4770      	bx	lr
   83912:	bf00      	nop

00083914 <pio_set_output>:
 */
void pio_set_output(Pio *p_pio, const uint32_t ul_mask,
		const uint32_t ul_default_level,
		const uint32_t ul_multidrive_enable,
		const uint32_t ul_pull_up_enable)
{
   83914:	b410      	push	{r4}
 * \param p_pio Pointer to a PIO instance.
 * \param ul_mask Interrupt sources bit map.
 */
void pio_disable_interrupt(Pio *p_pio, const uint32_t ul_mask)
{
	p_pio->PIO_IDR = ul_mask;
   83916:	6441      	str	r1, [r0, #68]	; 0x44
 */
void pio_pull_up(Pio *p_pio, const uint32_t ul_mask,
		const uint32_t ul_pull_up_enable)
{
	/* Enable the pull-up(s) if necessary */
	if (ul_pull_up_enable) {
   83918:	9c01      	ldr	r4, [sp, #4]
   8391a:	b10c      	cbz	r4, 83920 <pio_set_output+0xc>
		p_pio->PIO_PUER = ul_mask;
   8391c:	6641      	str	r1, [r0, #100]	; 0x64
   8391e:	e000      	b.n	83922 <pio_set_output+0xe>
	} else {
		p_pio->PIO_PUDR = ul_mask;
   83920:	6601      	str	r1, [r0, #96]	; 0x60
{
	pio_disable_interrupt(p_pio, ul_mask);
	pio_pull_up(p_pio, ul_mask, ul_pull_up_enable);

	/* Enable multi-drive if necessary */
	if (ul_multidrive_enable) {
   83922:	b10b      	cbz	r3, 83928 <pio_set_output+0x14>
		p_pio->PIO_MDER = ul_mask;
   83924:	6501      	str	r1, [r0, #80]	; 0x50
   83926:	e000      	b.n	8392a <pio_set_output+0x16>
	} else {
		p_pio->PIO_MDDR = ul_mask;
   83928:	6541      	str	r1, [r0, #84]	; 0x54
	}

	/* Set default value */
	if (ul_default_level) {
   8392a:	b10a      	cbz	r2, 83930 <pio_set_output+0x1c>
		p_pio->PIO_SODR = ul_mask;
   8392c:	6301      	str	r1, [r0, #48]	; 0x30
   8392e:	e000      	b.n	83932 <pio_set_output+0x1e>
	} else {
		p_pio->PIO_CODR = ul_mask;
   83930:	6341      	str	r1, [r0, #52]	; 0x34
	}

	/* Configure pin(s) as output(s) */
	p_pio->PIO_OER = ul_mask;
   83932:	6101      	str	r1, [r0, #16]
	p_pio->PIO_PER = ul_mask;
   83934:	6001      	str	r1, [r0, #0]
}
   83936:	f85d 4b04 	ldr.w	r4, [sp], #4
   8393a:	4770      	bx	lr

0008393c <pio_configure_interrupt>:
 */
void pio_configure_interrupt(Pio *p_pio, const uint32_t ul_mask,
		const uint32_t ul_attr)
{
	/* Configure additional interrupt mode registers. */
	if (ul_attr & PIO_IT_AIME) {
   8393c:	f012 0f10 	tst.w	r2, #16
   83940:	d010      	beq.n	83964 <pio_configure_interrupt+0x28>
		/* Enable additional interrupt mode. */
		p_pio->PIO_AIMER = ul_mask;
   83942:	f8c0 10b0 	str.w	r1, [r0, #176]	; 0xb0

		/* If bit field of the selected pin is 1, set as
		   Rising Edge/High level detection event. */
		if (ul_attr & PIO_IT_RE_OR_HL) {
   83946:	f012 0f20 	tst.w	r2, #32
			/* Rising Edge or High Level */
			p_pio->PIO_REHLSR = ul_mask;
   8394a:	bf14      	ite	ne
   8394c:	f8c0 10d4 	strne.w	r1, [r0, #212]	; 0xd4
		} else {
			/* Falling Edge or Low Level */
			p_pio->PIO_FELLSR = ul_mask;
   83950:	f8c0 10d0 	streq.w	r1, [r0, #208]	; 0xd0
		}

		/* If bit field of the selected pin is 1, set as
		   edge detection source. */
		if (ul_attr & PIO_IT_EDGE) {
   83954:	f012 0f40 	tst.w	r2, #64	; 0x40
			/* Edge select */
			p_pio->PIO_ESR = ul_mask;
   83958:	bf14      	ite	ne
   8395a:	f8c0 10c0 	strne.w	r1, [r0, #192]	; 0xc0
		} else {
			/* Level select */
			p_pio->PIO_LSR = ul_mask;
   8395e:	f8c0 10c4 	streq.w	r1, [r0, #196]	; 0xc4
   83962:	4770      	bx	lr
		}
	} else {
		/* Disable additional interrupt mode. */
		p_pio->PIO_AIMDR = ul_mask;
   83964:	f8c0 10b4 	str.w	r1, [r0, #180]	; 0xb4
   83968:	4770      	bx	lr
   8396a:	bf00      	nop

0008396c <pio_enable_interrupt>:
 * \param p_pio Pointer to a PIO instance.
 * \param ul_mask Interrupt sources bit map.
 */
void pio_enable_interrupt(Pio *p_pio, const uint32_t ul_mask)
{
	p_pio->PIO_ISR;
   8396c:	6cc3      	ldr	r3, [r0, #76]	; 0x4c
	p_pio->PIO_IER = ul_mask;
   8396e:	6401      	str	r1, [r0, #64]	; 0x40
   83970:	4770      	bx	lr
   83972:	bf00      	nop

00083974 <pio_get_interrupt_status>:
 *
 * \return The interrupt status mask value.
 */
uint32_t pio_get_interrupt_status(const Pio *p_pio)
{
	return p_pio->PIO_ISR;
   83974:	6cc0      	ldr	r0, [r0, #76]	; 0x4c
}
   83976:	4770      	bx	lr

00083978 <pio_get_interrupt_mask>:
 *
 * \return The interrupt mask value.
 */
uint32_t pio_get_interrupt_mask(const Pio *p_pio)
{
	return p_pio->PIO_IMR;
   83978:	6c80      	ldr	r0, [r0, #72]	; 0x48
}
   8397a:	4770      	bx	lr

0008397c <pio_configure_pin>:
 * \param ul_flags Pins attributes.
 *
 * \return Whether the pin(s) have been configured properly.
 */
uint32_t pio_configure_pin(uint32_t ul_pin, const uint32_t ul_flags)
{
   8397c:	b570      	push	{r4, r5, r6, lr}
   8397e:	b082      	sub	sp, #8
   83980:	460d      	mov	r5, r1
		p_pio = PIOC;
	} else {
		p_pio = (Pio *)((uint32_t)PIOA + (PIO_DELTA * (ul_pin >> 5)));
	}
#else
	p_pio = (Pio *)((uint32_t)PIOA + (PIO_DELTA * (ul_pin >> 5)));
   83982:	0944      	lsrs	r4, r0, #5
   83984:	f504 1400 	add.w	r4, r4, #2097152	; 0x200000
   83988:	f204 7407 	addw	r4, r4, #1799	; 0x707
   8398c:	0266      	lsls	r6, r4, #9
uint32_t pio_configure_pin(uint32_t ul_pin, const uint32_t ul_flags)
{
	Pio *p_pio = pio_get_pin_group(ul_pin);

	/* Configure pins */
	switch (ul_flags & PIO_TYPE_Msk) {
   8398e:	f001 44f0 	and.w	r4, r1, #2013265920	; 0x78000000
   83992:	f1b4 5f20 	cmp.w	r4, #671088640	; 0x28000000
   83996:	d030      	beq.n	839fa <pio_configure_pin+0x7e>
   83998:	d806      	bhi.n	839a8 <pio_configure_pin+0x2c>
   8399a:	f1b4 6f00 	cmp.w	r4, #134217728	; 0x8000000
   8399e:	d00a      	beq.n	839b6 <pio_configure_pin+0x3a>
   839a0:	f1b4 5f80 	cmp.w	r4, #268435456	; 0x10000000
   839a4:	d018      	beq.n	839d8 <pio_configure_pin+0x5c>
   839a6:	e049      	b.n	83a3c <pio_configure_pin+0xc0>
   839a8:	f1b4 5f40 	cmp.w	r4, #805306368	; 0x30000000
   839ac:	d030      	beq.n	83a10 <pio_configure_pin+0x94>
   839ae:	f1b4 5f60 	cmp.w	r4, #939524096	; 0x38000000
   839b2:	d02d      	beq.n	83a10 <pio_configure_pin+0x94>
   839b4:	e042      	b.n	83a3c <pio_configure_pin+0xc0>
	case PIO_TYPE_PIO_PERIPH_A:
		pio_set_peripheral(p_pio, PIO_PERIPH_A, (1 << (ul_pin & 0x1F)));
   839b6:	f000 001f 	and.w	r0, r0, #31
   839ba:	2401      	movs	r4, #1
   839bc:	4084      	lsls	r4, r0
   839be:	4630      	mov	r0, r6
   839c0:	f04f 6100 	mov.w	r1, #134217728	; 0x8000000
   839c4:	4622      	mov	r2, r4
   839c6:	4b1f      	ldr	r3, [pc, #124]	; (83a44 <pio_configure_pin+0xc8>)
   839c8:	4798      	blx	r3
 */
void pio_pull_up(Pio *p_pio, const uint32_t ul_mask,
		const uint32_t ul_pull_up_enable)
{
	/* Enable the pull-up(s) if necessary */
	if (ul_pull_up_enable) {
   839ca:	f015 0f01 	tst.w	r5, #1
		p_pio->PIO_PUER = ul_mask;
   839ce:	bf14      	ite	ne
   839d0:	6674      	strne	r4, [r6, #100]	; 0x64
	} else {
		p_pio->PIO_PUDR = ul_mask;
   839d2:	6634      	streq	r4, [r6, #96]	; 0x60

	default:
		return 0;
	}

	return 1;
   839d4:	2001      	movs	r0, #1
   839d6:	e032      	b.n	83a3e <pio_configure_pin+0xc2>
		pio_set_peripheral(p_pio, PIO_PERIPH_A, (1 << (ul_pin & 0x1F)));
		pio_pull_up(p_pio, (1 << (ul_pin & 0x1F)),
				(ul_flags & PIO_PULLUP));
		break;
	case PIO_TYPE_PIO_PERIPH_B:
		pio_set_peripheral(p_pio, PIO_PERIPH_B, (1 << (ul_pin & 0x1F)));
   839d8:	f000 001f 	and.w	r0, r0, #31
   839dc:	2401      	movs	r4, #1
   839de:	4084      	lsls	r4, r0
   839e0:	4630      	mov	r0, r6
   839e2:	f04f 5180 	mov.w	r1, #268435456	; 0x10000000
   839e6:	4622      	mov	r2, r4
   839e8:	4b16      	ldr	r3, [pc, #88]	; (83a44 <pio_configure_pin+0xc8>)
   839ea:	4798      	blx	r3
 */
void pio_pull_up(Pio *p_pio, const uint32_t ul_mask,
		const uint32_t ul_pull_up_enable)
{
	/* Enable the pull-up(s) if necessary */
	if (ul_pull_up_enable) {
   839ec:	f015 0f01 	tst.w	r5, #1
		p_pio->PIO_PUER = ul_mask;
   839f0:	bf14      	ite	ne
   839f2:	6674      	strne	r4, [r6, #100]	; 0x64
	} else {
		p_pio->PIO_PUDR = ul_mask;
   839f4:	6634      	streq	r4, [r6, #96]	; 0x60

	default:
		return 0;
	}

	return 1;
   839f6:	2001      	movs	r0, #1
   839f8:	e021      	b.n	83a3e <pio_configure_pin+0xc2>
				(ul_flags & PIO_PULLUP));
		break;
#endif

	case PIO_TYPE_PIO_INPUT:
		pio_set_input(p_pio, (1 << (ul_pin & 0x1F)), ul_flags);
   839fa:	f000 011f 	and.w	r1, r0, #31
   839fe:	2401      	movs	r4, #1
   83a00:	4630      	mov	r0, r6
   83a02:	fa04 f101 	lsl.w	r1, r4, r1
   83a06:	462a      	mov	r2, r5
   83a08:	4b0f      	ldr	r3, [pc, #60]	; (83a48 <pio_configure_pin+0xcc>)
   83a0a:	4798      	blx	r3

	default:
		return 0;
	}

	return 1;
   83a0c:	4620      	mov	r0, r4
		break;
#endif

	case PIO_TYPE_PIO_INPUT:
		pio_set_input(p_pio, (1 << (ul_pin & 0x1F)), ul_flags);
		break;
   83a0e:	e016      	b.n	83a3e <pio_configure_pin+0xc2>

	case PIO_TYPE_PIO_OUTPUT_0:
	case PIO_TYPE_PIO_OUTPUT_1:
		pio_set_output(p_pio, (1 << (ul_pin & 0x1F)),
   83a10:	f000 011f 	and.w	r1, r0, #31
   83a14:	2401      	movs	r4, #1
				((ul_flags & PIO_TYPE_PIO_OUTPUT_1)
   83a16:	f005 5260 	and.w	r2, r5, #939524096	; 0x38000000
		pio_set_input(p_pio, (1 << (ul_pin & 0x1F)), ul_flags);
		break;

	case PIO_TYPE_PIO_OUTPUT_0:
	case PIO_TYPE_PIO_OUTPUT_1:
		pio_set_output(p_pio, (1 << (ul_pin & 0x1F)),
   83a1a:	ea05 0304 	and.w	r3, r5, r4
   83a1e:	9300      	str	r3, [sp, #0]
   83a20:	4630      	mov	r0, r6
   83a22:	fa04 f101 	lsl.w	r1, r4, r1
   83a26:	f1b2 5f60 	cmp.w	r2, #939524096	; 0x38000000
   83a2a:	bf14      	ite	ne
   83a2c:	2200      	movne	r2, #0
   83a2e:	2201      	moveq	r2, #1
   83a30:	f3c5 0380 	ubfx	r3, r5, #2, #1
   83a34:	4d05      	ldr	r5, [pc, #20]	; (83a4c <pio_configure_pin+0xd0>)
   83a36:	47a8      	blx	r5

	default:
		return 0;
	}

	return 1;
   83a38:	4620      	mov	r0, r4
		pio_set_output(p_pio, (1 << (ul_pin & 0x1F)),
				((ul_flags & PIO_TYPE_PIO_OUTPUT_1)
				== PIO_TYPE_PIO_OUTPUT_1) ? 1 : 0,
				(ul_flags & PIO_OPENDRAIN) ? 1 : 0,
				(ul_flags & PIO_PULLUP) ? 1 : 0);
		break;
   83a3a:	e000      	b.n	83a3e <pio_configure_pin+0xc2>

	default:
		return 0;
   83a3c:	2000      	movs	r0, #0
	}

	return 1;
}
   83a3e:	b002      	add	sp, #8
   83a40:	bd70      	pop	{r4, r5, r6, pc}
   83a42:	bf00      	nop
   83a44:	000838a1 	.word	0x000838a1
   83a48:	000838e1 	.word	0x000838e1
   83a4c:	00083915 	.word	0x00083915

00083a50 <pio_configure_pin_group>:
 *
 * \return Whether the pin(s) have been configured properly.
 */
uint32_t pio_configure_pin_group(Pio *p_pio,
		uint32_t ul_mask, const uint32_t ul_flags)
{
   83a50:	b5f0      	push	{r4, r5, r6, r7, lr}
   83a52:	b083      	sub	sp, #12
   83a54:	4607      	mov	r7, r0
   83a56:	460e      	mov	r6, r1
   83a58:	4615      	mov	r5, r2
	/* Configure pins */
	switch (ul_flags & PIO_TYPE_Msk) {
   83a5a:	f002 44f0 	and.w	r4, r2, #2013265920	; 0x78000000
   83a5e:	f1b4 5f20 	cmp.w	r4, #671088640	; 0x28000000
   83a62:	d026      	beq.n	83ab2 <pio_configure_pin_group+0x62>
   83a64:	d806      	bhi.n	83a74 <pio_configure_pin_group+0x24>
   83a66:	f1b4 6f00 	cmp.w	r4, #134217728	; 0x8000000
   83a6a:	d00a      	beq.n	83a82 <pio_configure_pin_group+0x32>
   83a6c:	f1b4 5f80 	cmp.w	r4, #268435456	; 0x10000000
   83a70:	d013      	beq.n	83a9a <pio_configure_pin_group+0x4a>
   83a72:	e034      	b.n	83ade <pio_configure_pin_group+0x8e>
   83a74:	f1b4 5f40 	cmp.w	r4, #805306368	; 0x30000000
   83a78:	d01f      	beq.n	83aba <pio_configure_pin_group+0x6a>
   83a7a:	f1b4 5f60 	cmp.w	r4, #939524096	; 0x38000000
   83a7e:	d01c      	beq.n	83aba <pio_configure_pin_group+0x6a>
   83a80:	e02d      	b.n	83ade <pio_configure_pin_group+0x8e>
	case PIO_TYPE_PIO_PERIPH_A:
		pio_set_peripheral(p_pio, PIO_PERIPH_A, ul_mask);
   83a82:	f04f 6100 	mov.w	r1, #134217728	; 0x8000000
   83a86:	4632      	mov	r2, r6
   83a88:	4b16      	ldr	r3, [pc, #88]	; (83ae4 <pio_configure_pin_group+0x94>)
   83a8a:	4798      	blx	r3
 */
void pio_pull_up(Pio *p_pio, const uint32_t ul_mask,
		const uint32_t ul_pull_up_enable)
{
	/* Enable the pull-up(s) if necessary */
	if (ul_pull_up_enable) {
   83a8c:	f015 0f01 	tst.w	r5, #1
		p_pio->PIO_PUER = ul_mask;
   83a90:	bf14      	ite	ne
   83a92:	667e      	strne	r6, [r7, #100]	; 0x64
	} else {
		p_pio->PIO_PUDR = ul_mask;
   83a94:	663e      	streq	r6, [r7, #96]	; 0x60

	default:
		return 0;
	}

	return 1;
   83a96:	2001      	movs	r0, #1
   83a98:	e022      	b.n	83ae0 <pio_configure_pin_group+0x90>
	case PIO_TYPE_PIO_PERIPH_A:
		pio_set_peripheral(p_pio, PIO_PERIPH_A, ul_mask);
		pio_pull_up(p_pio, ul_mask, (ul_flags & PIO_PULLUP));
		break;
	case PIO_TYPE_PIO_PERIPH_B:
		pio_set_peripheral(p_pio, PIO_PERIPH_B, ul_mask);
   83a9a:	f04f 5180 	mov.w	r1, #268435456	; 0x10000000
   83a9e:	4632      	mov	r2, r6
   83aa0:	4b10      	ldr	r3, [pc, #64]	; (83ae4 <pio_configure_pin_group+0x94>)
   83aa2:	4798      	blx	r3
 */
void pio_pull_up(Pio *p_pio, const uint32_t ul_mask,
		const uint32_t ul_pull_up_enable)
{
	/* Enable the pull-up(s) if necessary */
	if (ul_pull_up_enable) {
   83aa4:	f015 0f01 	tst.w	r5, #1
		p_pio->PIO_PUER = ul_mask;
   83aa8:	bf14      	ite	ne
   83aaa:	667e      	strne	r6, [r7, #100]	; 0x64
	} else {
		p_pio->PIO_PUDR = ul_mask;
   83aac:	663e      	streq	r6, [r7, #96]	; 0x60

	default:
		return 0;
	}

	return 1;
   83aae:	2001      	movs	r0, #1
   83ab0:	e016      	b.n	83ae0 <pio_configure_pin_group+0x90>
		pio_pull_up(p_pio, ul_mask, (ul_flags & PIO_PULLUP));
		break;
#endif

	case PIO_TYPE_PIO_INPUT:
		pio_set_input(p_pio, ul_mask, ul_flags);
   83ab2:	4b0d      	ldr	r3, [pc, #52]	; (83ae8 <pio_configure_pin_group+0x98>)
   83ab4:	4798      	blx	r3

	default:
		return 0;
	}

	return 1;
   83ab6:	2001      	movs	r0, #1
		break;
#endif

	case PIO_TYPE_PIO_INPUT:
		pio_set_input(p_pio, ul_mask, ul_flags);
		break;
   83ab8:	e012      	b.n	83ae0 <pio_configure_pin_group+0x90>

	case PIO_TYPE_PIO_OUTPUT_0:
	case PIO_TYPE_PIO_OUTPUT_1:
		pio_set_output(p_pio, ul_mask,
				((ul_flags & PIO_TYPE_PIO_OUTPUT_1)
   83aba:	f005 5260 	and.w	r2, r5, #939524096	; 0x38000000
		pio_set_input(p_pio, ul_mask, ul_flags);
		break;

	case PIO_TYPE_PIO_OUTPUT_0:
	case PIO_TYPE_PIO_OUTPUT_1:
		pio_set_output(p_pio, ul_mask,
   83abe:	f005 0301 	and.w	r3, r5, #1
   83ac2:	9300      	str	r3, [sp, #0]
   83ac4:	4638      	mov	r0, r7
   83ac6:	4631      	mov	r1, r6
   83ac8:	f1b2 5f60 	cmp.w	r2, #939524096	; 0x38000000
   83acc:	bf14      	ite	ne
   83ace:	2200      	movne	r2, #0
   83ad0:	2201      	moveq	r2, #1
   83ad2:	f3c5 0380 	ubfx	r3, r5, #2, #1
   83ad6:	4c05      	ldr	r4, [pc, #20]	; (83aec <pio_configure_pin_group+0x9c>)
   83ad8:	47a0      	blx	r4

	default:
		return 0;
	}

	return 1;
   83ada:	2001      	movs	r0, #1
		pio_set_output(p_pio, ul_mask,
				((ul_flags & PIO_TYPE_PIO_OUTPUT_1)
				== PIO_TYPE_PIO_OUTPUT_1) ? 1 : 0,
				(ul_flags & PIO_OPENDRAIN) ? 1 : 0,
				(ul_flags & PIO_PULLUP) ? 1 : 0);
		break;
   83adc:	e000      	b.n	83ae0 <pio_configure_pin_group+0x90>

	default:
		return 0;
   83ade:	2000      	movs	r0, #0
	}

	return 1;
}
   83ae0:	b003      	add	sp, #12
   83ae2:	bdf0      	pop	{r4, r5, r6, r7, pc}
   83ae4:	000838a1 	.word	0x000838a1
   83ae8:	000838e1 	.word	0x000838e1
   83aec:	00083915 	.word	0x00083915

00083af0 <pio_handler_process>:
 *
 * \param p_pio PIO controller base address.
 * \param ul_id PIO controller ID.
 */
void pio_handler_process(Pio *p_pio, uint32_t ul_id)
{
   83af0:	e92d 41f0 	stmdb	sp!, {r4, r5, r6, r7, r8, lr}
   83af4:	4604      	mov	r4, r0
   83af6:	460e      	mov	r6, r1
	uint32_t status;
	uint32_t i;

	/* Read PIO controller status */
	status = pio_get_interrupt_status(p_pio);
   83af8:	4b10      	ldr	r3, [pc, #64]	; (83b3c <pio_handler_process+0x4c>)
   83afa:	4798      	blx	r3
   83afc:	4605      	mov	r5, r0
	status &= pio_get_interrupt_mask(p_pio);
   83afe:	4620      	mov	r0, r4
   83b00:	4b0f      	ldr	r3, [pc, #60]	; (83b40 <pio_handler_process+0x50>)
   83b02:	4798      	blx	r3

	/* Check pending events */
	if (status != 0) {
   83b04:	4005      	ands	r5, r0
   83b06:	d017      	beq.n	83b38 <pio_handler_process+0x48>
   83b08:	4f0e      	ldr	r7, [pc, #56]	; (83b44 <pio_handler_process+0x54>)
   83b0a:	f107 040c 	add.w	r4, r7, #12
   83b0e:	376c      	adds	r7, #108	; 0x6c
		/* Find triggering source */
		i = 0;
		while (status != 0) {
			/* Source is configured on the same controller */
			if (gs_interrupt_sources[i].id == ul_id) {
   83b10:	f854 3c0c 	ldr.w	r3, [r4, #-12]
   83b14:	42b3      	cmp	r3, r6
   83b16:	d10a      	bne.n	83b2e <pio_handler_process+0x3e>
				/* Source has PIOs whose statuses have changed */
				if ((status & gs_interrupt_sources[i].mask) != 0) {
   83b18:	f854 1c08 	ldr.w	r1, [r4, #-8]
   83b1c:	4229      	tst	r1, r5
   83b1e:	d006      	beq.n	83b2e <pio_handler_process+0x3e>
					gs_interrupt_sources[i].handler(gs_interrupt_sources[i].id,
   83b20:	6823      	ldr	r3, [r4, #0]
   83b22:	4630      	mov	r0, r6
   83b24:	4798      	blx	r3
							gs_interrupt_sources[i].mask);
					status &= ~(gs_interrupt_sources[i].mask);
   83b26:	f854 3c08 	ldr.w	r3, [r4, #-8]
   83b2a:	ea25 0503 	bic.w	r5, r5, r3
				}
			}
			i++;
			if (i >= MAX_INTERRUPT_SOURCES) {
   83b2e:	42bc      	cmp	r4, r7
   83b30:	d002      	beq.n	83b38 <pio_handler_process+0x48>
   83b32:	3410      	adds	r4, #16

	/* Check pending events */
	if (status != 0) {
		/* Find triggering source */
		i = 0;
		while (status != 0) {
   83b34:	2d00      	cmp	r5, #0
   83b36:	d1eb      	bne.n	83b10 <pio_handler_process+0x20>
   83b38:	e8bd 81f0 	ldmia.w	sp!, {r4, r5, r6, r7, r8, pc}
   83b3c:	00083975 	.word	0x00083975
   83b40:	00083979 	.word	0x00083979
   83b44:	20078c64 	.word	0x20078c64

00083b48 <pio_handler_set>:
 *
 * \return 0 if successful, 1 if the maximum number of sources has been defined.
 */
uint32_t pio_handler_set(Pio *p_pio, uint32_t ul_id, uint32_t ul_mask,
		uint32_t ul_attr, void (*p_handler) (uint32_t, uint32_t))
{
   83b48:	b5f8      	push	{r3, r4, r5, r6, r7, lr}
	struct s_interrupt_source *pSource;

	if (gs_ul_nb_sources >= MAX_INTERRUPT_SOURCES)
   83b4a:	4c0b      	ldr	r4, [pc, #44]	; (83b78 <pio_handler_set+0x30>)
   83b4c:	6824      	ldr	r4, [r4, #0]
   83b4e:	2c06      	cmp	r4, #6
   83b50:	d810      	bhi.n	83b74 <pio_handler_set+0x2c>
		return 1;

	/* Define new source */
	pSource = &(gs_interrupt_sources[gs_ul_nb_sources]);
   83b52:	4f0a      	ldr	r7, [pc, #40]	; (83b7c <pio_handler_set+0x34>)
   83b54:	0126      	lsls	r6, r4, #4
   83b56:	19bd      	adds	r5, r7, r6
	pSource->id = ul_id;
   83b58:	51b9      	str	r1, [r7, r6]
	pSource->mask = ul_mask;
   83b5a:	606a      	str	r2, [r5, #4]
	pSource->attr = ul_attr;
   83b5c:	60ab      	str	r3, [r5, #8]
	pSource->handler = p_handler;
   83b5e:	9906      	ldr	r1, [sp, #24]
   83b60:	60e9      	str	r1, [r5, #12]
	gs_ul_nb_sources++;
   83b62:	3401      	adds	r4, #1
   83b64:	4904      	ldr	r1, [pc, #16]	; (83b78 <pio_handler_set+0x30>)
   83b66:	600c      	str	r4, [r1, #0]

	/* Configure interrupt mode */
	pio_configure_interrupt(p_pio, ul_mask, ul_attr);
   83b68:	4611      	mov	r1, r2
   83b6a:	461a      	mov	r2, r3
   83b6c:	4b04      	ldr	r3, [pc, #16]	; (83b80 <pio_handler_set+0x38>)
   83b6e:	4798      	blx	r3

	return 0;
   83b70:	2000      	movs	r0, #0
   83b72:	bdf8      	pop	{r3, r4, r5, r6, r7, pc}
		uint32_t ul_attr, void (*p_handler) (uint32_t, uint32_t))
{
	struct s_interrupt_source *pSource;

	if (gs_ul_nb_sources >= MAX_INTERRUPT_SOURCES)
		return 1;
   83b74:	2001      	movs	r0, #1

	/* Configure interrupt mode */
	pio_configure_interrupt(p_pio, ul_mask, ul_attr);

	return 0;
}
   83b76:	bdf8      	pop	{r3, r4, r5, r6, r7, pc}
   83b78:	20078c60 	.word	0x20078c60
   83b7c:	20078c64 	.word	0x20078c64
   83b80:	0008393d 	.word	0x0008393d

00083b84 <PIOA_Handler>:
/**
 * \brief Parallel IO Controller A interrupt handler.
 * Redefined PIOA interrupt handler for NVIC interrupt table.
 */
void PIOA_Handler(void)
{
   83b84:	b508      	push	{r3, lr}
	pio_handler_process(PIOA, ID_PIOA);
   83b86:	4802      	ldr	r0, [pc, #8]	; (83b90 <PIOA_Handler+0xc>)
   83b88:	210b      	movs	r1, #11
   83b8a:	4b02      	ldr	r3, [pc, #8]	; (83b94 <PIOA_Handler+0x10>)
   83b8c:	4798      	blx	r3
   83b8e:	bd08      	pop	{r3, pc}
   83b90:	400e0e00 	.word	0x400e0e00
   83b94:	00083af1 	.word	0x00083af1

00083b98 <PIOB_Handler>:
/**
 * \brief Parallel IO Controller B interrupt handler
 * Redefined PIOB interrupt handler for NVIC interrupt table.
 */
void PIOB_Handler(void)
{
   83b98:	b508      	push	{r3, lr}
    pio_handler_process(PIOB, ID_PIOB);
   83b9a:	4802      	ldr	r0, [pc, #8]	; (83ba4 <PIOB_Handler+0xc>)
   83b9c:	210c      	movs	r1, #12
   83b9e:	4b02      	ldr	r3, [pc, #8]	; (83ba8 <PIOB_Handler+0x10>)
   83ba0:	4798      	blx	r3
   83ba2:	bd08      	pop	{r3, pc}
   83ba4:	400e1000 	.word	0x400e1000
   83ba8:	00083af1 	.word	0x00083af1

00083bac <PIOC_Handler>:
/**
 * \brief Parallel IO Controller C interrupt handler.
 * Redefined PIOC interrupt handler for NVIC interrupt table.
 */
void PIOC_Handler(void)
{
   83bac:	b508      	push	{r3, lr}
	pio_handler_process(PIOC, ID_PIOC);
   83bae:	4802      	ldr	r0, [pc, #8]	; (83bb8 <PIOC_Handler+0xc>)
   83bb0:	210d      	movs	r1, #13
   83bb2:	4b02      	ldr	r3, [pc, #8]	; (83bbc <PIOC_Handler+0x10>)
   83bb4:	4798      	blx	r3
   83bb6:	bd08      	pop	{r3, pc}
   83bb8:	400e1200 	.word	0x400e1200
   83bbc:	00083af1 	.word	0x00083af1

00083bc0 <PIOD_Handler>:
/**
 * \brief Parallel IO Controller D interrupt handler.
 * Redefined PIOD interrupt handler for NVIC interrupt table.
 */
void PIOD_Handler(void)
{
   83bc0:	b508      	push	{r3, lr}
	pio_handler_process(PIOD, ID_PIOD);
   83bc2:	4802      	ldr	r0, [pc, #8]	; (83bcc <PIOD_Handler+0xc>)
   83bc4:	210e      	movs	r1, #14
   83bc6:	4b02      	ldr	r3, [pc, #8]	; (83bd0 <PIOD_Handler+0x10>)
   83bc8:	4798      	blx	r3
   83bca:	bd08      	pop	{r3, pc}
   83bcc:	400e1400 	.word	0x400e1400
   83bd0:	00083af1 	.word	0x00083af1

00083bd4 <pmc_switch_mck_to_pllack>:
 */
uint32_t pmc_switch_mck_to_pllack(uint32_t ul_pres)
{
	uint32_t ul_timeout;

	PMC->PMC_MCKR = (PMC->PMC_MCKR & (~PMC_MCKR_PRES_Msk)) | ul_pres;
   83bd4:	4b17      	ldr	r3, [pc, #92]	; (83c34 <pmc_switch_mck_to_pllack+0x60>)
   83bd6:	6b1a      	ldr	r2, [r3, #48]	; 0x30
   83bd8:	f022 0270 	bic.w	r2, r2, #112	; 0x70
   83bdc:	4310      	orrs	r0, r2
   83bde:	6318      	str	r0, [r3, #48]	; 0x30
	for (ul_timeout = PMC_TIMEOUT; !(PMC->PMC_SR & PMC_SR_MCKRDY);
   83be0:	6e9b      	ldr	r3, [r3, #104]	; 0x68
   83be2:	f013 0f08 	tst.w	r3, #8
   83be6:	d109      	bne.n	83bfc <pmc_switch_mck_to_pllack+0x28>
   83be8:	f44f 6300 	mov.w	r3, #2048	; 0x800
   83bec:	4911      	ldr	r1, [pc, #68]	; (83c34 <pmc_switch_mck_to_pllack+0x60>)
   83bee:	e001      	b.n	83bf4 <pmc_switch_mck_to_pllack+0x20>
			--ul_timeout) {
		if (ul_timeout == 0) {
   83bf0:	3b01      	subs	r3, #1
   83bf2:	d019      	beq.n	83c28 <pmc_switch_mck_to_pllack+0x54>
uint32_t pmc_switch_mck_to_pllack(uint32_t ul_pres)
{
	uint32_t ul_timeout;

	PMC->PMC_MCKR = (PMC->PMC_MCKR & (~PMC_MCKR_PRES_Msk)) | ul_pres;
	for (ul_timeout = PMC_TIMEOUT; !(PMC->PMC_SR & PMC_SR_MCKRDY);
   83bf4:	6e8a      	ldr	r2, [r1, #104]	; 0x68
   83bf6:	f012 0f08 	tst.w	r2, #8
   83bfa:	d0f9      	beq.n	83bf0 <pmc_switch_mck_to_pllack+0x1c>
		if (ul_timeout == 0) {
			return 1;
		}
	}

	PMC->PMC_MCKR = (PMC->PMC_MCKR & (~PMC_MCKR_CSS_Msk)) |
   83bfc:	4b0d      	ldr	r3, [pc, #52]	; (83c34 <pmc_switch_mck_to_pllack+0x60>)
   83bfe:	6b1a      	ldr	r2, [r3, #48]	; 0x30
   83c00:	f022 0203 	bic.w	r2, r2, #3
   83c04:	f042 0202 	orr.w	r2, r2, #2
   83c08:	631a      	str	r2, [r3, #48]	; 0x30
			PMC_MCKR_CSS_PLLA_CLK;

	for (ul_timeout = PMC_TIMEOUT; !(PMC->PMC_SR & PMC_SR_MCKRDY);
   83c0a:	6e98      	ldr	r0, [r3, #104]	; 0x68
   83c0c:	f010 0008 	ands.w	r0, r0, #8
   83c10:	d10c      	bne.n	83c2c <pmc_switch_mck_to_pllack+0x58>
   83c12:	f44f 6300 	mov.w	r3, #2048	; 0x800
   83c16:	4907      	ldr	r1, [pc, #28]	; (83c34 <pmc_switch_mck_to_pllack+0x60>)
   83c18:	e001      	b.n	83c1e <pmc_switch_mck_to_pllack+0x4a>
			--ul_timeout) {
		if (ul_timeout == 0) {
   83c1a:	3b01      	subs	r3, #1
   83c1c:	d008      	beq.n	83c30 <pmc_switch_mck_to_pllack+0x5c>
	}

	PMC->PMC_MCKR = (PMC->PMC_MCKR & (~PMC_MCKR_CSS_Msk)) |
			PMC_MCKR_CSS_PLLA_CLK;

	for (ul_timeout = PMC_TIMEOUT; !(PMC->PMC_SR & PMC_SR_MCKRDY);
   83c1e:	6e8a      	ldr	r2, [r1, #104]	; 0x68
   83c20:	f012 0f08 	tst.w	r2, #8
   83c24:	d0f9      	beq.n	83c1a <pmc_switch_mck_to_pllack+0x46>
   83c26:	4770      	bx	lr

	PMC->PMC_MCKR = (PMC->PMC_MCKR & (~PMC_MCKR_PRES_Msk)) | ul_pres;
	for (ul_timeout = PMC_TIMEOUT; !(PMC->PMC_SR & PMC_SR_MCKRDY);
			--ul_timeout) {
		if (ul_timeout == 0) {
			return 1;
   83c28:	2001      	movs	r0, #1
   83c2a:	4770      	bx	lr
		if (ul_timeout == 0) {
			return 1;
		}
	}

	return 0;
   83c2c:	2000      	movs	r0, #0
   83c2e:	4770      	bx	lr
			PMC_MCKR_CSS_PLLA_CLK;

	for (ul_timeout = PMC_TIMEOUT; !(PMC->PMC_SR & PMC_SR_MCKRDY);
			--ul_timeout) {
		if (ul_timeout == 0) {
			return 1;
   83c30:	2001      	movs	r0, #1
		}
	}

	return 0;
}
   83c32:	4770      	bx	lr
   83c34:	400e0600 	.word	0x400e0600

00083c38 <pmc_switch_mainck_to_xtal>:
 */
void pmc_switch_mainck_to_xtal(uint32_t ul_bypass,
		uint32_t ul_xtal_startup_time)
{
	/* Enable Main Xtal oscillator */
	if (ul_bypass) {
   83c38:	b138      	cbz	r0, 83c4a <pmc_switch_mainck_to_xtal+0x12>
		PMC->CKGR_MOR = (PMC->CKGR_MOR & ~CKGR_MOR_MOSCXTEN) |
   83c3a:	4911      	ldr	r1, [pc, #68]	; (83c80 <pmc_switch_mainck_to_xtal+0x48>)
   83c3c:	6a0b      	ldr	r3, [r1, #32]
				CKGR_MOR_KEY_PASSWD | CKGR_MOR_MOSCXTBY |
   83c3e:	4a11      	ldr	r2, [pc, #68]	; (83c84 <pmc_switch_mainck_to_xtal+0x4c>)
   83c40:	401a      	ands	r2, r3
   83c42:	4b11      	ldr	r3, [pc, #68]	; (83c88 <pmc_switch_mainck_to_xtal+0x50>)
   83c44:	4313      	orrs	r3, r2
void pmc_switch_mainck_to_xtal(uint32_t ul_bypass,
		uint32_t ul_xtal_startup_time)
{
	/* Enable Main Xtal oscillator */
	if (ul_bypass) {
		PMC->CKGR_MOR = (PMC->CKGR_MOR & ~CKGR_MOR_MOSCXTEN) |
   83c46:	620b      	str	r3, [r1, #32]
   83c48:	4770      	bx	lr
				CKGR_MOR_KEY_PASSWD | CKGR_MOR_MOSCXTBY |
				CKGR_MOR_MOSCSEL;
	} else {
		PMC->CKGR_MOR = (PMC->CKGR_MOR & ~CKGR_MOR_MOSCXTBY) |
   83c4a:	4a0d      	ldr	r2, [pc, #52]	; (83c80 <pmc_switch_mainck_to_xtal+0x48>)
   83c4c:	6a13      	ldr	r3, [r2, #32]
				CKGR_MOR_KEY_PASSWD | CKGR_MOR_MOSCXTEN |
   83c4e:	f423 135c 	bic.w	r3, r3, #3604480	; 0x370000
   83c52:	f023 0303 	bic.w	r3, r3, #3
   83c56:	f443 135c 	orr.w	r3, r3, #3604480	; 0x370000
   83c5a:	f043 0301 	orr.w	r3, r3, #1
				CKGR_MOR_MOSCXTST(ul_xtal_startup_time);
   83c5e:	0209      	lsls	r1, r1, #8
   83c60:	b289      	uxth	r1, r1
		PMC->CKGR_MOR = (PMC->CKGR_MOR & ~CKGR_MOR_MOSCXTEN) |
				CKGR_MOR_KEY_PASSWD | CKGR_MOR_MOSCXTBY |
				CKGR_MOR_MOSCSEL;
	} else {
		PMC->CKGR_MOR = (PMC->CKGR_MOR & ~CKGR_MOR_MOSCXTBY) |
				CKGR_MOR_KEY_PASSWD | CKGR_MOR_MOSCXTEN |
   83c62:	430b      	orrs	r3, r1
	if (ul_bypass) {
		PMC->CKGR_MOR = (PMC->CKGR_MOR & ~CKGR_MOR_MOSCXTEN) |
				CKGR_MOR_KEY_PASSWD | CKGR_MOR_MOSCXTBY |
				CKGR_MOR_MOSCSEL;
	} else {
		PMC->CKGR_MOR = (PMC->CKGR_MOR & ~CKGR_MOR_MOSCXTBY) |
   83c64:	6213      	str	r3, [r2, #32]
				CKGR_MOR_KEY_PASSWD | CKGR_MOR_MOSCXTEN |
				CKGR_MOR_MOSCXTST(ul_xtal_startup_time);
		/* Wait the Xtal to stabilize */
		while (!(PMC->PMC_SR & PMC_SR_MOSCXTS));
   83c66:	6e93      	ldr	r3, [r2, #104]	; 0x68
   83c68:	f013 0f01 	tst.w	r3, #1
   83c6c:	d0fb      	beq.n	83c66 <pmc_switch_mainck_to_xtal+0x2e>

		PMC->CKGR_MOR |= CKGR_MOR_KEY_PASSWD | CKGR_MOR_MOSCSEL;
   83c6e:	4a04      	ldr	r2, [pc, #16]	; (83c80 <pmc_switch_mainck_to_xtal+0x48>)
   83c70:	6a13      	ldr	r3, [r2, #32]
   83c72:	f043 739b 	orr.w	r3, r3, #20316160	; 0x1360000
   83c76:	f443 3380 	orr.w	r3, r3, #65536	; 0x10000
   83c7a:	6213      	str	r3, [r2, #32]
   83c7c:	4770      	bx	lr
   83c7e:	bf00      	nop
   83c80:	400e0600 	.word	0x400e0600
   83c84:	fec8fffc 	.word	0xfec8fffc
   83c88:	01370002 	.word	0x01370002

00083c8c <pmc_osc_is_ready_mainck>:
 * \retval 1 Xtal is ready.
 * \retval 0 Xtal is not ready.
 */
uint32_t pmc_osc_is_ready_mainck(void)
{
	return PMC->PMC_SR & PMC_SR_MOSCSELS;
   83c8c:	4b02      	ldr	r3, [pc, #8]	; (83c98 <pmc_osc_is_ready_mainck+0xc>)
   83c8e:	6e98      	ldr	r0, [r3, #104]	; 0x68
}
   83c90:	f400 3080 	and.w	r0, r0, #65536	; 0x10000
   83c94:	4770      	bx	lr
   83c96:	bf00      	nop
   83c98:	400e0600 	.word	0x400e0600

00083c9c <pmc_disable_pllack>:
void pmc_disable_pllack(void)
{
#if (SAM4C || SAM4CM || SAM4CP || SAMG)
	PMC->CKGR_PLLAR = CKGR_PLLAR_MULA(0);
#else
	PMC->CKGR_PLLAR = CKGR_PLLAR_ONE | CKGR_PLLAR_MULA(0);
   83c9c:	f04f 5200 	mov.w	r2, #536870912	; 0x20000000
   83ca0:	4b01      	ldr	r3, [pc, #4]	; (83ca8 <pmc_disable_pllack+0xc>)
   83ca2:	629a      	str	r2, [r3, #40]	; 0x28
   83ca4:	4770      	bx	lr
   83ca6:	bf00      	nop
   83ca8:	400e0600 	.word	0x400e0600

00083cac <pmc_is_locked_pllack>:
 * \retval 0 Not locked.
 * \retval 1 Locked.
 */
uint32_t pmc_is_locked_pllack(void)
{
	return (PMC->PMC_SR & PMC_SR_LOCKA);
   83cac:	4b02      	ldr	r3, [pc, #8]	; (83cb8 <pmc_is_locked_pllack+0xc>)
   83cae:	6e98      	ldr	r0, [r3, #104]	; 0x68
}
   83cb0:	f000 0002 	and.w	r0, r0, #2
   83cb4:	4770      	bx	lr
   83cb6:	bf00      	nop
   83cb8:	400e0600 	.word	0x400e0600

00083cbc <pmc_enable_periph_clk>:
 * \retval 0 Success.
 * \retval 1 Invalid parameter.
 */
uint32_t pmc_enable_periph_clk(uint32_t ul_id)
{
	if (ul_id > MAX_PERIPH_ID) {
   83cbc:	282c      	cmp	r0, #44	; 0x2c
   83cbe:	d820      	bhi.n	83d02 <pmc_enable_periph_clk+0x46>
		return 1;
	}

	if (ul_id < 32) {
   83cc0:	281f      	cmp	r0, #31
   83cc2:	d80d      	bhi.n	83ce0 <pmc_enable_periph_clk+0x24>
		if ((PMC->PMC_PCSR0 & (1u << ul_id)) != (1u << ul_id)) {
   83cc4:	4b12      	ldr	r3, [pc, #72]	; (83d10 <pmc_enable_periph_clk+0x54>)
   83cc6:	699a      	ldr	r2, [r3, #24]
   83cc8:	2301      	movs	r3, #1
   83cca:	4083      	lsls	r3, r0
   83ccc:	401a      	ands	r2, r3
   83cce:	4293      	cmp	r3, r2
   83cd0:	d019      	beq.n	83d06 <pmc_enable_periph_clk+0x4a>
			PMC->PMC_PCER0 = 1 << ul_id;
   83cd2:	2301      	movs	r3, #1
   83cd4:	fa03 f000 	lsl.w	r0, r3, r0
   83cd8:	4b0d      	ldr	r3, [pc, #52]	; (83d10 <pmc_enable_periph_clk+0x54>)
   83cda:	6118      	str	r0, [r3, #16]
			PMC->PMC_PCER1 = 1 << ul_id;
		}
#endif
	}

	return 0;
   83cdc:	2000      	movs	r0, #0
   83cde:	4770      	bx	lr
			PMC->PMC_PCER0 = 1 << ul_id;
		}
#if (SAM3S || SAM3XA || SAM4S || SAM4E || SAM4C || SAM4CM || SAM4CP || SAMG55)
	} else {
		ul_id -= 32;
		if ((PMC->PMC_PCSR1 & (1u << ul_id)) != (1u << ul_id)) {
   83ce0:	4b0b      	ldr	r3, [pc, #44]	; (83d10 <pmc_enable_periph_clk+0x54>)
   83ce2:	f8d3 2108 	ldr.w	r2, [r3, #264]	; 0x108
		if ((PMC->PMC_PCSR0 & (1u << ul_id)) != (1u << ul_id)) {
			PMC->PMC_PCER0 = 1 << ul_id;
		}
#if (SAM3S || SAM3XA || SAM4S || SAM4E || SAM4C || SAM4CM || SAM4CP || SAMG55)
	} else {
		ul_id -= 32;
   83ce6:	3820      	subs	r0, #32
		if ((PMC->PMC_PCSR1 & (1u << ul_id)) != (1u << ul_id)) {
   83ce8:	2301      	movs	r3, #1
   83cea:	4083      	lsls	r3, r0
   83cec:	401a      	ands	r2, r3
   83cee:	4293      	cmp	r3, r2
   83cf0:	d00b      	beq.n	83d0a <pmc_enable_periph_clk+0x4e>
			PMC->PMC_PCER1 = 1 << ul_id;
   83cf2:	2301      	movs	r3, #1
   83cf4:	fa03 f000 	lsl.w	r0, r3, r0
   83cf8:	4b05      	ldr	r3, [pc, #20]	; (83d10 <pmc_enable_periph_clk+0x54>)
   83cfa:	f8c3 0100 	str.w	r0, [r3, #256]	; 0x100
		}
#endif
	}

	return 0;
   83cfe:	2000      	movs	r0, #0
   83d00:	4770      	bx	lr
 * \retval 1 Invalid parameter.
 */
uint32_t pmc_enable_periph_clk(uint32_t ul_id)
{
	if (ul_id > MAX_PERIPH_ID) {
		return 1;
   83d02:	2001      	movs	r0, #1
   83d04:	4770      	bx	lr
			PMC->PMC_PCER1 = 1 << ul_id;
		}
#endif
	}

	return 0;
   83d06:	2000      	movs	r0, #0
   83d08:	4770      	bx	lr
   83d0a:	2000      	movs	r0, #0
}
   83d0c:	4770      	bx	lr
   83d0e:	bf00      	nop
   83d10:	400e0600 	.word	0x400e0600

00083d14 <Dummy_Handler>:

/**
 * \brief Default interrupt handler for unused IRQs.
 */
void Dummy_Handler(void)
{
   83d14:	e7fe      	b.n	83d14 <Dummy_Handler>
   83d16:	bf00      	nop

00083d18 <Reset_Handler>:
/**
 * \brief This is the code that gets called on processor reset.
 * To initialize the device, and call the main() routine.
 */
void Reset_Handler(void)
{
   83d18:	b510      	push	{r4, lr}

	/* Initialize the relocate segment */
	pSrc = &_etext;
	pDest = &_srelocate;

	if (pSrc != pDest) {
   83d1a:	4b1e      	ldr	r3, [pc, #120]	; (83d94 <Reset_Handler+0x7c>)
   83d1c:	4a1e      	ldr	r2, [pc, #120]	; (83d98 <Reset_Handler+0x80>)
   83d1e:	429a      	cmp	r2, r3
   83d20:	d003      	beq.n	83d2a <Reset_Handler+0x12>
		for (; pDest < &_erelocate;) {
   83d22:	4b1e      	ldr	r3, [pc, #120]	; (83d9c <Reset_Handler+0x84>)
   83d24:	4a1b      	ldr	r2, [pc, #108]	; (83d94 <Reset_Handler+0x7c>)
   83d26:	429a      	cmp	r2, r3
   83d28:	d304      	bcc.n	83d34 <Reset_Handler+0x1c>
			*pDest++ = *pSrc++;
		}
	}

	/* Clear the zero segment */
	for (pDest = &_szero; pDest < &_ezero;) {
   83d2a:	4b1d      	ldr	r3, [pc, #116]	; (83da0 <Reset_Handler+0x88>)
   83d2c:	4a1d      	ldr	r2, [pc, #116]	; (83da4 <Reset_Handler+0x8c>)
   83d2e:	429a      	cmp	r2, r3
   83d30:	d30f      	bcc.n	83d52 <Reset_Handler+0x3a>
   83d32:	e01a      	b.n	83d6a <Reset_Handler+0x52>
   83d34:	4b1c      	ldr	r3, [pc, #112]	; (83da8 <Reset_Handler+0x90>)
   83d36:	4c1d      	ldr	r4, [pc, #116]	; (83dac <Reset_Handler+0x94>)
   83d38:	1ae4      	subs	r4, r4, r3
   83d3a:	f024 0403 	bic.w	r4, r4, #3
   83d3e:	3404      	adds	r4, #4
	/* Initialize the relocate segment */
	pSrc = &_etext;
	pDest = &_srelocate;

	if (pSrc != pDest) {
		for (; pDest < &_erelocate;) {
   83d40:	2300      	movs	r3, #0
			*pDest++ = *pSrc++;
   83d42:	4814      	ldr	r0, [pc, #80]	; (83d94 <Reset_Handler+0x7c>)
   83d44:	4914      	ldr	r1, [pc, #80]	; (83d98 <Reset_Handler+0x80>)
   83d46:	585a      	ldr	r2, [r3, r1]
   83d48:	501a      	str	r2, [r3, r0]
   83d4a:	3304      	adds	r3, #4
	/* Initialize the relocate segment */
	pSrc = &_etext;
	pDest = &_srelocate;

	if (pSrc != pDest) {
		for (; pDest < &_erelocate;) {
   83d4c:	42a3      	cmp	r3, r4
   83d4e:	d1fa      	bne.n	83d46 <Reset_Handler+0x2e>
   83d50:	e7eb      	b.n	83d2a <Reset_Handler+0x12>
   83d52:	4b17      	ldr	r3, [pc, #92]	; (83db0 <Reset_Handler+0x98>)
   83d54:	4917      	ldr	r1, [pc, #92]	; (83db4 <Reset_Handler+0x9c>)
   83d56:	1ac9      	subs	r1, r1, r3
   83d58:	f021 0103 	bic.w	r1, r1, #3
   83d5c:	1d1a      	adds	r2, r3, #4
   83d5e:	4411      	add	r1, r2
		}
	}

	/* Clear the zero segment */
	for (pDest = &_szero; pDest < &_ezero;) {
		*pDest++ = 0;
   83d60:	2200      	movs	r2, #0
   83d62:	f843 2f04 	str.w	r2, [r3, #4]!
			*pDest++ = *pSrc++;
		}
	}

	/* Clear the zero segment */
	for (pDest = &_szero; pDest < &_ezero;) {
   83d66:	428b      	cmp	r3, r1
   83d68:	d1fb      	bne.n	83d62 <Reset_Handler+0x4a>
		*pDest++ = 0;
	}

	/* Set the vector table base address */
	pSrc = (uint32_t *) & _sfixed;
	SCB->VTOR = ((uint32_t) pSrc & SCB_VTOR_TBLOFF_Msk);
   83d6a:	4a13      	ldr	r2, [pc, #76]	; (83db8 <Reset_Handler+0xa0>)
   83d6c:	f022 4360 	bic.w	r3, r2, #3758096384	; 0xe0000000
   83d70:	f023 037f 	bic.w	r3, r3, #127	; 0x7f
   83d74:	4911      	ldr	r1, [pc, #68]	; (83dbc <Reset_Handler+0xa4>)
   83d76:	608b      	str	r3, [r1, #8]

	if (((uint32_t) pSrc >= IRAM0_ADDR) && ((uint32_t) pSrc < NFC_RAM_ADDR)) {
   83d78:	f102 4260 	add.w	r2, r2, #3758096384	; 0xe0000000
   83d7c:	f5b2 1f80 	cmp.w	r2, #1048576	; 0x100000
   83d80:	d203      	bcs.n	83d8a <Reset_Handler+0x72>
		SCB->VTOR |= 1 << SCB_VTOR_TBLBASE_Pos;
   83d82:	688a      	ldr	r2, [r1, #8]
   83d84:	f042 5200 	orr.w	r2, r2, #536870912	; 0x20000000
   83d88:	608a      	str	r2, [r1, #8]
	}

	/* Initialize the C library */
	__libc_init_array();
   83d8a:	4b0d      	ldr	r3, [pc, #52]	; (83dc0 <Reset_Handler+0xa8>)
   83d8c:	4798      	blx	r3

	/* Branch to main function */
	main();
   83d8e:	4b0d      	ldr	r3, [pc, #52]	; (83dc4 <Reset_Handler+0xac>)
   83d90:	4798      	blx	r3
   83d92:	e7fe      	b.n	83d92 <Reset_Handler+0x7a>
   83d94:	20070000 	.word	0x20070000
   83d98:	0008851c 	.word	0x0008851c
   83d9c:	200709ec 	.word	0x200709ec
   83da0:	20078e0c 	.word	0x20078e0c
   83da4:	200709f0 	.word	0x200709f0
   83da8:	20070004 	.word	0x20070004
   83dac:	200709ef 	.word	0x200709ef
   83db0:	200709ec 	.word	0x200709ec
   83db4:	20078e07 	.word	0x20078e07
   83db8:	00080000 	.word	0x00080000
   83dbc:	e000ed00 	.word	0xe000ed00
   83dc0:	00084f89 	.word	0x00084f89
   83dc4:	00083f35 	.word	0x00083f35

00083dc8 <SystemCoreClockUpdate>:
}

void SystemCoreClockUpdate(void)
{
	/* Determine clock frequency according to clock register values */
	switch (PMC->PMC_MCKR & PMC_MCKR_CSS_Msk) {
   83dc8:	4b3e      	ldr	r3, [pc, #248]	; (83ec4 <SystemCoreClockUpdate+0xfc>)
   83dca:	6b1b      	ldr	r3, [r3, #48]	; 0x30
   83dcc:	f003 0303 	and.w	r3, r3, #3
   83dd0:	2b03      	cmp	r3, #3
   83dd2:	d85f      	bhi.n	83e94 <SystemCoreClockUpdate+0xcc>
   83dd4:	e8df f003 	tbb	[pc, r3]
   83dd8:	2b2b0e02 	.word	0x2b2b0e02
	case PMC_MCKR_CSS_SLOW_CLK:	/* Slow clock */
		if (SUPC->SUPC_SR & SUPC_SR_OSCSEL) {
   83ddc:	4b3a      	ldr	r3, [pc, #232]	; (83ec8 <SystemCoreClockUpdate+0x100>)
   83dde:	695b      	ldr	r3, [r3, #20]
   83de0:	f013 0f80 	tst.w	r3, #128	; 0x80
			SystemCoreClock = CHIP_FREQ_XTAL_32K;
   83de4:	bf14      	ite	ne
   83de6:	f44f 4200 	movne.w	r2, #32768	; 0x8000
		} else {
			SystemCoreClock = CHIP_FREQ_SLCK_RC;
   83dea:	f44f 42fa 	moveq.w	r2, #32000	; 0x7d00
   83dee:	4b37      	ldr	r3, [pc, #220]	; (83ecc <SystemCoreClockUpdate+0x104>)
   83df0:	601a      	str	r2, [r3, #0]
   83df2:	e04f      	b.n	83e94 <SystemCoreClockUpdate+0xcc>
		}
		break;
	case PMC_MCKR_CSS_MAIN_CLK:	/* Main clock */
		if (PMC->CKGR_MOR & CKGR_MOR_MOSCSEL) {
   83df4:	4b33      	ldr	r3, [pc, #204]	; (83ec4 <SystemCoreClockUpdate+0xfc>)
   83df6:	6a1b      	ldr	r3, [r3, #32]
   83df8:	f013 7f80 	tst.w	r3, #16777216	; 0x1000000
   83dfc:	d003      	beq.n	83e06 <SystemCoreClockUpdate+0x3e>
			SystemCoreClock = CHIP_FREQ_XTAL_12M;
   83dfe:	4a34      	ldr	r2, [pc, #208]	; (83ed0 <SystemCoreClockUpdate+0x108>)
   83e00:	4b32      	ldr	r3, [pc, #200]	; (83ecc <SystemCoreClockUpdate+0x104>)
   83e02:	601a      	str	r2, [r3, #0]
   83e04:	e046      	b.n	83e94 <SystemCoreClockUpdate+0xcc>
		} else {
			SystemCoreClock = CHIP_FREQ_MAINCK_RC_4MHZ;
   83e06:	4a33      	ldr	r2, [pc, #204]	; (83ed4 <SystemCoreClockUpdate+0x10c>)
   83e08:	4b30      	ldr	r3, [pc, #192]	; (83ecc <SystemCoreClockUpdate+0x104>)
   83e0a:	601a      	str	r2, [r3, #0]

			switch (PMC->CKGR_MOR & CKGR_MOR_MOSCRCF_Msk) {
   83e0c:	4b2d      	ldr	r3, [pc, #180]	; (83ec4 <SystemCoreClockUpdate+0xfc>)
   83e0e:	6a1b      	ldr	r3, [r3, #32]
   83e10:	f003 0370 	and.w	r3, r3, #112	; 0x70
   83e14:	2b10      	cmp	r3, #16
   83e16:	d002      	beq.n	83e1e <SystemCoreClockUpdate+0x56>
   83e18:	2b20      	cmp	r3, #32
   83e1a:	d004      	beq.n	83e26 <SystemCoreClockUpdate+0x5e>
   83e1c:	e03a      	b.n	83e94 <SystemCoreClockUpdate+0xcc>
			case CKGR_MOR_MOSCRCF_4_MHz:
				break;
			case CKGR_MOR_MOSCRCF_8_MHz:
				SystemCoreClock *= 2U;
   83e1e:	4a2e      	ldr	r2, [pc, #184]	; (83ed8 <SystemCoreClockUpdate+0x110>)
   83e20:	4b2a      	ldr	r3, [pc, #168]	; (83ecc <SystemCoreClockUpdate+0x104>)
   83e22:	601a      	str	r2, [r3, #0]
				break;
   83e24:	e036      	b.n	83e94 <SystemCoreClockUpdate+0xcc>
			case CKGR_MOR_MOSCRCF_12_MHz:
				SystemCoreClock *= 3U;
   83e26:	4a2a      	ldr	r2, [pc, #168]	; (83ed0 <SystemCoreClockUpdate+0x108>)
   83e28:	4b28      	ldr	r3, [pc, #160]	; (83ecc <SystemCoreClockUpdate+0x104>)
   83e2a:	601a      	str	r2, [r3, #0]
				break;
   83e2c:	e032      	b.n	83e94 <SystemCoreClockUpdate+0xcc>
			}
		}
		break;
	case PMC_MCKR_CSS_PLLA_CLK:	/* PLLA clock */
	case PMC_MCKR_CSS_UPLL_CLK:	/* UPLL clock */
		if (PMC->CKGR_MOR & CKGR_MOR_MOSCSEL) {
   83e2e:	4b25      	ldr	r3, [pc, #148]	; (83ec4 <SystemCoreClockUpdate+0xfc>)
   83e30:	6a1b      	ldr	r3, [r3, #32]
   83e32:	f013 7f80 	tst.w	r3, #16777216	; 0x1000000
   83e36:	d003      	beq.n	83e40 <SystemCoreClockUpdate+0x78>
			SystemCoreClock = CHIP_FREQ_XTAL_12M;
   83e38:	4a25      	ldr	r2, [pc, #148]	; (83ed0 <SystemCoreClockUpdate+0x108>)
   83e3a:	4b24      	ldr	r3, [pc, #144]	; (83ecc <SystemCoreClockUpdate+0x104>)
   83e3c:	601a      	str	r2, [r3, #0]
   83e3e:	e012      	b.n	83e66 <SystemCoreClockUpdate+0x9e>
		} else {
			SystemCoreClock = CHIP_FREQ_MAINCK_RC_4MHZ;
   83e40:	4a24      	ldr	r2, [pc, #144]	; (83ed4 <SystemCoreClockUpdate+0x10c>)
   83e42:	4b22      	ldr	r3, [pc, #136]	; (83ecc <SystemCoreClockUpdate+0x104>)
   83e44:	601a      	str	r2, [r3, #0]

			switch (PMC->CKGR_MOR & CKGR_MOR_MOSCRCF_Msk) {
   83e46:	4b1f      	ldr	r3, [pc, #124]	; (83ec4 <SystemCoreClockUpdate+0xfc>)
   83e48:	6a1b      	ldr	r3, [r3, #32]
   83e4a:	f003 0370 	and.w	r3, r3, #112	; 0x70
   83e4e:	2b10      	cmp	r3, #16
   83e50:	d002      	beq.n	83e58 <SystemCoreClockUpdate+0x90>
   83e52:	2b20      	cmp	r3, #32
   83e54:	d004      	beq.n	83e60 <SystemCoreClockUpdate+0x98>
   83e56:	e006      	b.n	83e66 <SystemCoreClockUpdate+0x9e>
			case CKGR_MOR_MOSCRCF_4_MHz:
				break;
			case CKGR_MOR_MOSCRCF_8_MHz:
				SystemCoreClock *= 2U;
   83e58:	4a1f      	ldr	r2, [pc, #124]	; (83ed8 <SystemCoreClockUpdate+0x110>)
   83e5a:	4b1c      	ldr	r3, [pc, #112]	; (83ecc <SystemCoreClockUpdate+0x104>)
   83e5c:	601a      	str	r2, [r3, #0]
				break;
   83e5e:	e002      	b.n	83e66 <SystemCoreClockUpdate+0x9e>
			case CKGR_MOR_MOSCRCF_12_MHz:
				SystemCoreClock *= 3U;
   83e60:	4a1b      	ldr	r2, [pc, #108]	; (83ed0 <SystemCoreClockUpdate+0x108>)
   83e62:	4b1a      	ldr	r3, [pc, #104]	; (83ecc <SystemCoreClockUpdate+0x104>)
   83e64:	601a      	str	r2, [r3, #0]
				break;
			default:
				break;
			}
		}
		if ((PMC->PMC_MCKR & PMC_MCKR_CSS_Msk) == PMC_MCKR_CSS_PLLA_CLK) {
   83e66:	4b17      	ldr	r3, [pc, #92]	; (83ec4 <SystemCoreClockUpdate+0xfc>)
   83e68:	6b1b      	ldr	r3, [r3, #48]	; 0x30
   83e6a:	f003 0303 	and.w	r3, r3, #3
   83e6e:	2b02      	cmp	r3, #2
   83e70:	d10d      	bne.n	83e8e <SystemCoreClockUpdate+0xc6>
			SystemCoreClock *= ((((PMC->CKGR_PLLAR) & CKGR_PLLAR_MULA_Msk) >> 
   83e72:	4b14      	ldr	r3, [pc, #80]	; (83ec4 <SystemCoreClockUpdate+0xfc>)
   83e74:	6a98      	ldr	r0, [r3, #40]	; 0x28
				                            CKGR_PLLAR_MULA_Pos) + 1U);
			SystemCoreClock /= ((((PMC->CKGR_PLLAR) & CKGR_PLLAR_DIVA_Msk) >> 
   83e76:	6a99      	ldr	r1, [r3, #40]	; 0x28
   83e78:	4b14      	ldr	r3, [pc, #80]	; (83ecc <SystemCoreClockUpdate+0x104>)
			default:
				break;
			}
		}
		if ((PMC->PMC_MCKR & PMC_MCKR_CSS_Msk) == PMC_MCKR_CSS_PLLA_CLK) {
			SystemCoreClock *= ((((PMC->CKGR_PLLAR) & CKGR_PLLAR_MULA_Msk) >> 
   83e7a:	f3c0 400a 	ubfx	r0, r0, #16, #11
   83e7e:	681a      	ldr	r2, [r3, #0]
   83e80:	fb00 2202 	mla	r2, r0, r2, r2
				                            CKGR_PLLAR_MULA_Pos) + 1U);
			SystemCoreClock /= ((((PMC->CKGR_PLLAR) & CKGR_PLLAR_DIVA_Msk) >> 
   83e84:	b2c9      	uxtb	r1, r1
   83e86:	fbb2 f2f1 	udiv	r2, r2, r1
   83e8a:	601a      	str	r2, [r3, #0]
   83e8c:	e002      	b.n	83e94 <SystemCoreClockUpdate+0xcc>
				                             CKGR_PLLAR_DIVA_Pos));
		} else {
			SystemCoreClock = SYS_UTMIPLL / 2U;
   83e8e:	4a13      	ldr	r2, [pc, #76]	; (83edc <SystemCoreClockUpdate+0x114>)
   83e90:	4b0e      	ldr	r3, [pc, #56]	; (83ecc <SystemCoreClockUpdate+0x104>)
   83e92:	601a      	str	r2, [r3, #0]
		}
		break;
	}

	if ((PMC->PMC_MCKR & PMC_MCKR_PRES_Msk) == PMC_MCKR_PRES_CLK_3) {
   83e94:	4b0b      	ldr	r3, [pc, #44]	; (83ec4 <SystemCoreClockUpdate+0xfc>)
   83e96:	6b1b      	ldr	r3, [r3, #48]	; 0x30
   83e98:	f003 0370 	and.w	r3, r3, #112	; 0x70
   83e9c:	2b70      	cmp	r3, #112	; 0x70
   83e9e:	d107      	bne.n	83eb0 <SystemCoreClockUpdate+0xe8>
		SystemCoreClock /= 3U;
   83ea0:	4b0a      	ldr	r3, [pc, #40]	; (83ecc <SystemCoreClockUpdate+0x104>)
   83ea2:	681a      	ldr	r2, [r3, #0]
   83ea4:	490e      	ldr	r1, [pc, #56]	; (83ee0 <SystemCoreClockUpdate+0x118>)
   83ea6:	fba1 0202 	umull	r0, r2, r1, r2
   83eaa:	0852      	lsrs	r2, r2, #1
   83eac:	601a      	str	r2, [r3, #0]
   83eae:	4770      	bx	lr
	} else {
		SystemCoreClock >>= ((PMC->PMC_MCKR & PMC_MCKR_PRES_Msk) >> 
   83eb0:	4b04      	ldr	r3, [pc, #16]	; (83ec4 <SystemCoreClockUpdate+0xfc>)
   83eb2:	6b19      	ldr	r1, [r3, #48]	; 0x30
   83eb4:	4b05      	ldr	r3, [pc, #20]	; (83ecc <SystemCoreClockUpdate+0x104>)
   83eb6:	f3c1 1102 	ubfx	r1, r1, #4, #3
   83eba:	681a      	ldr	r2, [r3, #0]
   83ebc:	40ca      	lsrs	r2, r1
   83ebe:	601a      	str	r2, [r3, #0]
   83ec0:	4770      	bx	lr
   83ec2:	bf00      	nop
   83ec4:	400e0600 	.word	0x400e0600
   83ec8:	400e1a10 	.word	0x400e1a10
   83ecc:	2007017c 	.word	0x2007017c
   83ed0:	00b71b00 	.word	0x00b71b00
   83ed4:	003d0900 	.word	0x003d0900
   83ed8:	007a1200 	.word	0x007a1200
   83edc:	0e4e1c00 	.word	0x0e4e1c00
   83ee0:	aaaaaaab 	.word	0xaaaaaaab

00083ee4 <_sbrk>:
{
	static unsigned char *heap = NULL;
	unsigned char *prev_heap;
	int ramend = (int)&__ram_end__;

	if (heap == NULL) {
   83ee4:	4b09      	ldr	r3, [pc, #36]	; (83f0c <_sbrk+0x28>)
   83ee6:	681b      	ldr	r3, [r3, #0]
   83ee8:	b913      	cbnz	r3, 83ef0 <_sbrk+0xc>
		heap = (unsigned char *)&_end;
   83eea:	4a09      	ldr	r2, [pc, #36]	; (83f10 <_sbrk+0x2c>)
   83eec:	4b07      	ldr	r3, [pc, #28]	; (83f0c <_sbrk+0x28>)
   83eee:	601a      	str	r2, [r3, #0]
	}
	prev_heap = heap;
   83ef0:	4b06      	ldr	r3, [pc, #24]	; (83f0c <_sbrk+0x28>)
   83ef2:	681b      	ldr	r3, [r3, #0]

	if (((int)prev_heap + incr) > ramend) {
   83ef4:	181a      	adds	r2, r3, r0
   83ef6:	4907      	ldr	r1, [pc, #28]	; (83f14 <_sbrk+0x30>)
   83ef8:	4291      	cmp	r1, r2
   83efa:	db04      	blt.n	83f06 <_sbrk+0x22>
		return (caddr_t) -1;	
	}

	heap += incr;
   83efc:	4610      	mov	r0, r2
   83efe:	4a03      	ldr	r2, [pc, #12]	; (83f0c <_sbrk+0x28>)
   83f00:	6010      	str	r0, [r2, #0]

	return (caddr_t) prev_heap;
   83f02:	4618      	mov	r0, r3
   83f04:	4770      	bx	lr
		heap = (unsigned char *)&_end;
	}
	prev_heap = heap;

	if (((int)prev_heap + incr) > ramend) {
		return (caddr_t) -1;	
   83f06:	f04f 30ff 	mov.w	r0, #4294967295
	}

	heap += incr;

	return (caddr_t) prev_heap;
}
   83f0a:	4770      	bx	lr
   83f0c:	20078cd4 	.word	0x20078cd4
   83f10:	2007ae10 	.word	0x2007ae10
   83f14:	20087ffc 	.word	0x20087ffc

00083f18 <_close>:
}

extern int _close(int file)
{
	return -1;
}
   83f18:	f04f 30ff 	mov.w	r0, #4294967295
   83f1c:	4770      	bx	lr
   83f1e:	bf00      	nop

00083f20 <_fstat>:

extern int _fstat(int file, struct stat *st)
{
	st->st_mode = S_IFCHR;
   83f20:	f44f 5300 	mov.w	r3, #8192	; 0x2000
   83f24:	604b      	str	r3, [r1, #4]

	return 0;
}
   83f26:	2000      	movs	r0, #0
   83f28:	4770      	bx	lr
   83f2a:	bf00      	nop

00083f2c <_isatty>:

extern int _isatty(int file)
{
	return 1;
}
   83f2c:	2001      	movs	r0, #1
   83f2e:	4770      	bx	lr

00083f30 <_lseek>:

extern int _lseek(int file, int ptr, int dir)
{
	return 0;
}
   83f30:	2000      	movs	r0, #0
   83f32:	4770      	bx	lr

00083f34 <main>:
xTaskHandle xTaskCoordinate=NULL;

int16_t pos_buffer[4] = {0};

int main (void)
{
   83f34:	b530      	push	{r4, r5, lr}
   83f36:	b085      	sub	sp, #20
	sysclk_init();
   83f38:	4b2e      	ldr	r3, [pc, #184]	; (83ff4 <main+0xc0>)
   83f3a:	4798      	blx	r3
	board_init();
   83f3c:	4b2e      	ldr	r3, [pc, #184]	; (83ff8 <main+0xc4>)
   83f3e:	4798      	blx	r3
	delay_s(5);
   83f40:	4d2e      	ldr	r5, [pc, #184]	; (83ffc <main+0xc8>)
   83f42:	4628      	mov	r0, r5
   83f44:	4c2e      	ldr	r4, [pc, #184]	; (84000 <main+0xcc>)
   83f46:	47a0      	blx	r4
	configureConsole();
   83f48:	4b2e      	ldr	r3, [pc, #184]	; (84004 <main+0xd0>)
   83f4a:	4798      	blx	r3
	attach_interupt();
   83f4c:	4b2e      	ldr	r3, [pc, #184]	; (84008 <main+0xd4>)
   83f4e:	4798      	blx	r3
	PWM_init();
   83f50:	4b2e      	ldr	r3, [pc, #184]	; (8400c <main+0xd8>)
   83f52:	4798      	blx	r3
	delay_s(5);
   83f54:	4628      	mov	r0, r5
   83f56:	47a0      	blx	r4
	/* Arlo robot initialization */
	arlo_init();
   83f58:	4b2d      	ldr	r3, [pc, #180]	; (84010 <main+0xdc>)
   83f5a:	4798      	blx	r3
	
	coordinatesInit();
   83f5c:	4b2d      	ldr	r3, [pc, #180]	; (84014 <main+0xe0>)
   83f5e:	4798      	blx	r3
		
		delay_ms(800);
	}*/
	
	/* Print info in terminal Window */
	printf("-- %s\n\r", BOARD_NAME);
   83f60:	482d      	ldr	r0, [pc, #180]	; (84018 <main+0xe4>)
   83f62:	492e      	ldr	r1, [pc, #184]	; (8401c <main+0xe8>)
   83f64:	4c2e      	ldr	r4, [pc, #184]	; (84020 <main+0xec>)
   83f66:	47a0      	blx	r4
	printf("-- Compiled: %s %s --\n\r", __DATE__, __TIME__);
   83f68:	482e      	ldr	r0, [pc, #184]	; (84024 <main+0xf0>)
   83f6a:	492f      	ldr	r1, [pc, #188]	; (84028 <main+0xf4>)
   83f6c:	4a2f      	ldr	r2, [pc, #188]	; (8402c <main+0xf8>)
   83f6e:	47a0      	blx	r4
	
	/* Create the task with the third priority the task_Move*/
	if (xTaskCreate(task_move, (const signed char * const) "Move", TASK_MOVE_STACK_SIZE, NULL, TASK_MOVE_STACK_PRIORITY, &xTaskMove) != pdPASS) 
   83f70:	2306      	movs	r3, #6
   83f72:	9300      	str	r3, [sp, #0]
   83f74:	4b2e      	ldr	r3, [pc, #184]	; (84030 <main+0xfc>)
   83f76:	9301      	str	r3, [sp, #4]
   83f78:	2300      	movs	r3, #0
   83f7a:	9302      	str	r3, [sp, #8]
   83f7c:	9303      	str	r3, [sp, #12]
   83f7e:	482d      	ldr	r0, [pc, #180]	; (84034 <main+0x100>)
   83f80:	492d      	ldr	r1, [pc, #180]	; (84038 <main+0x104>)
   83f82:	f44f 7280 	mov.w	r2, #256	; 0x100
   83f86:	4c2d      	ldr	r4, [pc, #180]	; (8403c <main+0x108>)
   83f88:	47a0      	blx	r4
   83f8a:	2801      	cmp	r0, #1
   83f8c:	d002      	beq.n	83f94 <main+0x60>
	{
		printf("Failed to test task_Move task\r\n");
   83f8e:	482c      	ldr	r0, [pc, #176]	; (84040 <main+0x10c>)
   83f90:	4b23      	ldr	r3, [pc, #140]	; (84020 <main+0xec>)
   83f92:	4798      	blx	r3
	}
	
	/* Create the task with the second priority the task_GetCordinates*/
	if (xTaskCreate(task_getCordinates, (const signed char * const) "Get", TASK_GET_STACK_SIZE, NULL, TASK_GET_STACK_PRIORITY, &xTaskCoordinate) != pdPASS) 
   83f94:	2304      	movs	r3, #4
   83f96:	9300      	str	r3, [sp, #0]
   83f98:	4b2a      	ldr	r3, [pc, #168]	; (84044 <main+0x110>)
   83f9a:	9301      	str	r3, [sp, #4]
   83f9c:	2300      	movs	r3, #0
   83f9e:	9302      	str	r3, [sp, #8]
   83fa0:	9303      	str	r3, [sp, #12]
   83fa2:	4829      	ldr	r0, [pc, #164]	; (84048 <main+0x114>)
   83fa4:	4929      	ldr	r1, [pc, #164]	; (8404c <main+0x118>)
   83fa6:	f44f 7280 	mov.w	r2, #256	; 0x100
   83faa:	4c24      	ldr	r4, [pc, #144]	; (8403c <main+0x108>)
   83fac:	47a0      	blx	r4
   83fae:	2801      	cmp	r0, #1
   83fb0:	d002      	beq.n	83fb8 <main+0x84>
	{
		printf("Failed to test GetCordinates task\r\n");
   83fb2:	4827      	ldr	r0, [pc, #156]	; (84050 <main+0x11c>)
   83fb4:	4b1a      	ldr	r3, [pc, #104]	; (84020 <main+0xec>)
   83fb6:	4798      	blx	r3
	}
	
	/* Create the task with the least priority the task task_UnoComm */
	if (xTaskCreate(task_unoComm, (const signed char * const) "UNO", TASK_UNO_STACK_SIZE, NULL, TASK_UNO_STACK_PRIORITY, &xTaskCom) != pdPASS) 
   83fb8:	2303      	movs	r3, #3
   83fba:	9300      	str	r3, [sp, #0]
   83fbc:	4b25      	ldr	r3, [pc, #148]	; (84054 <main+0x120>)
   83fbe:	9301      	str	r3, [sp, #4]
   83fc0:	2300      	movs	r3, #0
   83fc2:	9302      	str	r3, [sp, #8]
   83fc4:	9303      	str	r3, [sp, #12]
   83fc6:	4824      	ldr	r0, [pc, #144]	; (84058 <main+0x124>)
   83fc8:	4924      	ldr	r1, [pc, #144]	; (8405c <main+0x128>)
   83fca:	f44f 7280 	mov.w	r2, #256	; 0x100
   83fce:	4c1b      	ldr	r4, [pc, #108]	; (8403c <main+0x108>)
   83fd0:	47a0      	blx	r4
   83fd2:	2801      	cmp	r0, #1
   83fd4:	d002      	beq.n	83fdc <main+0xa8>
	{
		printf("Failed to test UnoComm task\r\n");
   83fd6:	4822      	ldr	r0, [pc, #136]	; (84060 <main+0x12c>)
   83fd8:	4b11      	ldr	r3, [pc, #68]	; (84020 <main+0xec>)
   83fda:	4798      	blx	r3
	}
	
	vTaskSuspend(xTaskCom);
   83fdc:	4b1d      	ldr	r3, [pc, #116]	; (84054 <main+0x120>)
   83fde:	6818      	ldr	r0, [r3, #0]
   83fe0:	4c20      	ldr	r4, [pc, #128]	; (84064 <main+0x130>)
   83fe2:	47a0      	blx	r4
	vTaskSuspend(xTaskCoordinate);
   83fe4:	4b17      	ldr	r3, [pc, #92]	; (84044 <main+0x110>)
   83fe6:	6818      	ldr	r0, [r3, #0]
   83fe8:	47a0      	blx	r4
	
	/* Start the FreeRTOS scheduler running all tasks indefinitely*/
	vTaskStartScheduler();
   83fea:	4b1f      	ldr	r3, [pc, #124]	; (84068 <main+0x134>)
   83fec:	4798      	blx	r3
}
   83fee:	2000      	movs	r0, #0
   83ff0:	b005      	add	sp, #20
   83ff2:	bd30      	pop	{r4, r5, pc}
   83ff4:	00083795 	.word	0x00083795
   83ff8:	000837f9 	.word	0x000837f9
   83ffc:	01c9c380 	.word	0x01c9c380
   84000:	20070001 	.word	0x20070001
   84004:	00080c3d 	.word	0x00080c3d
   84008:	00081185 	.word	0x00081185
   8400c:	00081079 	.word	0x00081079
   84010:	000802e1 	.word	0x000802e1
   84014:	000818e1 	.word	0x000818e1
   84018:	0008838c 	.word	0x0008838c
   8401c:	00088394 	.word	0x00088394
   84020:	00084fd9 	.word	0x00084fd9
   84024:	000883a4 	.word	0x000883a4
   84028:	000883bc 	.word	0x000883bc
   8402c:	000883c8 	.word	0x000883c8
   84030:	20078ce0 	.word	0x20078ce0
   84034:	00081c91 	.word	0x00081c91
   84038:	000883d4 	.word	0x000883d4
   8403c:	00082949 	.word	0x00082949
   84040:	000883dc 	.word	0x000883dc
   84044:	20078cd8 	.word	0x20078cd8
   84048:	00081521 	.word	0x00081521
   8404c:	000883fc 	.word	0x000883fc
   84050:	00088404 	.word	0x00088404
   84054:	20078cdc 	.word	0x20078cdc
   84058:	0008122d 	.word	0x0008122d
   8405c:	00088428 	.word	0x00088428
   84060:	0008842c 	.word	0x0008842c
   84064:	00083091 	.word	0x00083091
   84068:	00082c15 	.word	0x00082c15
   8406c:	00000000 	.word	0x00000000

00084070 <atan>:
   84070:	e92d 4ff0 	stmdb	sp!, {r4, r5, r6, r7, r8, r9, sl, fp, lr}
   84074:	4bb6      	ldr	r3, [pc, #728]	; (84350 <atan+0x2e0>)
   84076:	f021 4600 	bic.w	r6, r1, #2147483648	; 0x80000000
   8407a:	429e      	cmp	r6, r3
   8407c:	b083      	sub	sp, #12
   8407e:	4604      	mov	r4, r0
   84080:	460d      	mov	r5, r1
   84082:	4689      	mov	r9, r1
   84084:	dd0f      	ble.n	840a6 <atan+0x36>
   84086:	49b3      	ldr	r1, [pc, #716]	; (84354 <atan+0x2e4>)
   84088:	428e      	cmp	r6, r1
   8408a:	f300 80b3 	bgt.w	841f4 <atan+0x184>
   8408e:	f000 80ae 	beq.w	841ee <atan+0x17e>
   84092:	f1b9 0f00 	cmp.w	r9, #0
   84096:	f340 80ef 	ble.w	84278 <atan+0x208>
   8409a:	a191      	add	r1, pc, #580	; (adr r1, 842e0 <atan+0x270>)
   8409c:	e9d1 0100 	ldrd	r0, r1, [r1]
   840a0:	b003      	add	sp, #12
   840a2:	e8bd 8ff0 	ldmia.w	sp!, {r4, r5, r6, r7, r8, r9, sl, fp, pc}
   840a6:	4bac      	ldr	r3, [pc, #688]	; (84358 <atan+0x2e8>)
   840a8:	429e      	cmp	r6, r3
   840aa:	f300 80bd 	bgt.w	84228 <atan+0x1b8>
   840ae:	f1a3 73de 	sub.w	r3, r3, #29097984	; 0x1bc0000
   840b2:	429e      	cmp	r6, r3
   840b4:	f340 80a7 	ble.w	84206 <atan+0x196>
   840b8:	f04f 3cff 	mov.w	ip, #4294967295
   840bc:	4622      	mov	r2, r4
   840be:	462b      	mov	r3, r5
   840c0:	4620      	mov	r0, r4
   840c2:	4629      	mov	r1, r5
   840c4:	f8cd c004 	str.w	ip, [sp, #4]
   840c8:	f000 fc76 	bl	849b8 <__aeabi_dmul>
   840cc:	4602      	mov	r2, r0
   840ce:	460b      	mov	r3, r1
   840d0:	4682      	mov	sl, r0
   840d2:	468b      	mov	fp, r1
   840d4:	f000 fc70 	bl	849b8 <__aeabi_dmul>
   840d8:	a383      	add	r3, pc, #524	; (adr r3, 842e8 <atan+0x278>)
   840da:	e9d3 2300 	ldrd	r2, r3, [r3]
   840de:	4606      	mov	r6, r0
   840e0:	460f      	mov	r7, r1
   840e2:	f000 fc69 	bl	849b8 <__aeabi_dmul>
   840e6:	a382      	add	r3, pc, #520	; (adr r3, 842f0 <atan+0x280>)
   840e8:	e9d3 2300 	ldrd	r2, r3, [r3]
   840ec:	f000 fab2 	bl	84654 <__adddf3>
   840f0:	4632      	mov	r2, r6
   840f2:	463b      	mov	r3, r7
   840f4:	f000 fc60 	bl	849b8 <__aeabi_dmul>
   840f8:	a37f      	add	r3, pc, #508	; (adr r3, 842f8 <atan+0x288>)
   840fa:	e9d3 2300 	ldrd	r2, r3, [r3]
   840fe:	f000 faa9 	bl	84654 <__adddf3>
   84102:	4632      	mov	r2, r6
   84104:	463b      	mov	r3, r7
   84106:	f000 fc57 	bl	849b8 <__aeabi_dmul>
   8410a:	a37d      	add	r3, pc, #500	; (adr r3, 84300 <atan+0x290>)
   8410c:	e9d3 2300 	ldrd	r2, r3, [r3]
   84110:	f000 faa0 	bl	84654 <__adddf3>
   84114:	4632      	mov	r2, r6
   84116:	463b      	mov	r3, r7
   84118:	f000 fc4e 	bl	849b8 <__aeabi_dmul>
   8411c:	a37a      	add	r3, pc, #488	; (adr r3, 84308 <atan+0x298>)
   8411e:	e9d3 2300 	ldrd	r2, r3, [r3]
   84122:	f000 fa97 	bl	84654 <__adddf3>
   84126:	4632      	mov	r2, r6
   84128:	463b      	mov	r3, r7
   8412a:	f000 fc45 	bl	849b8 <__aeabi_dmul>
   8412e:	a378      	add	r3, pc, #480	; (adr r3, 84310 <atan+0x2a0>)
   84130:	e9d3 2300 	ldrd	r2, r3, [r3]
   84134:	f000 fa8e 	bl	84654 <__adddf3>
   84138:	4652      	mov	r2, sl
   8413a:	465b      	mov	r3, fp
   8413c:	f000 fc3c 	bl	849b8 <__aeabi_dmul>
   84140:	a375      	add	r3, pc, #468	; (adr r3, 84318 <atan+0x2a8>)
   84142:	e9d3 2300 	ldrd	r2, r3, [r3]
   84146:	4682      	mov	sl, r0
   84148:	468b      	mov	fp, r1
   8414a:	4630      	mov	r0, r6
   8414c:	4639      	mov	r1, r7
   8414e:	f000 fc33 	bl	849b8 <__aeabi_dmul>
   84152:	a373      	add	r3, pc, #460	; (adr r3, 84320 <atan+0x2b0>)
   84154:	e9d3 2300 	ldrd	r2, r3, [r3]
   84158:	f000 fa7a 	bl	84650 <__aeabi_dsub>
   8415c:	4632      	mov	r2, r6
   8415e:	463b      	mov	r3, r7
   84160:	f000 fc2a 	bl	849b8 <__aeabi_dmul>
   84164:	a370      	add	r3, pc, #448	; (adr r3, 84328 <atan+0x2b8>)
   84166:	e9d3 2300 	ldrd	r2, r3, [r3]
   8416a:	f000 fa71 	bl	84650 <__aeabi_dsub>
   8416e:	4632      	mov	r2, r6
   84170:	463b      	mov	r3, r7
   84172:	f000 fc21 	bl	849b8 <__aeabi_dmul>
   84176:	a36e      	add	r3, pc, #440	; (adr r3, 84330 <atan+0x2c0>)
   84178:	e9d3 2300 	ldrd	r2, r3, [r3]
   8417c:	f000 fa68 	bl	84650 <__aeabi_dsub>
   84180:	4632      	mov	r2, r6
   84182:	463b      	mov	r3, r7
   84184:	f000 fc18 	bl	849b8 <__aeabi_dmul>
   84188:	a36b      	add	r3, pc, #428	; (adr r3, 84338 <atan+0x2c8>)
   8418a:	e9d3 2300 	ldrd	r2, r3, [r3]
   8418e:	f000 fa5f 	bl	84650 <__aeabi_dsub>
   84192:	4632      	mov	r2, r6
   84194:	463b      	mov	r3, r7
   84196:	f000 fc0f 	bl	849b8 <__aeabi_dmul>
   8419a:	f8dd c004 	ldr.w	ip, [sp, #4]
   8419e:	4602      	mov	r2, r0
   841a0:	f1bc 3fff 	cmp.w	ip, #4294967295
   841a4:	460b      	mov	r3, r1
   841a6:	d06b      	beq.n	84280 <atan+0x210>
   841a8:	4650      	mov	r0, sl
   841aa:	4659      	mov	r1, fp
   841ac:	ea4f 06cc 	mov.w	r6, ip, lsl #3
   841b0:	f000 fa50 	bl	84654 <__adddf3>
   841b4:	4622      	mov	r2, r4
   841b6:	462b      	mov	r3, r5
   841b8:	f000 fbfe 	bl	849b8 <__aeabi_dmul>
   841bc:	4f67      	ldr	r7, [pc, #412]	; (8435c <atan+0x2ec>)
   841be:	4b68      	ldr	r3, [pc, #416]	; (84360 <atan+0x2f0>)
   841c0:	4437      	add	r7, r6
   841c2:	441e      	add	r6, r3
   841c4:	e9d6 2300 	ldrd	r2, r3, [r6]
   841c8:	f000 fa42 	bl	84650 <__aeabi_dsub>
   841cc:	4622      	mov	r2, r4
   841ce:	462b      	mov	r3, r5
   841d0:	f000 fa3e 	bl	84650 <__aeabi_dsub>
   841d4:	4602      	mov	r2, r0
   841d6:	460b      	mov	r3, r1
   841d8:	e9d7 0100 	ldrd	r0, r1, [r7]
   841dc:	f000 fa38 	bl	84650 <__aeabi_dsub>
   841e0:	f1b9 0f00 	cmp.w	r9, #0
   841e4:	da0c      	bge.n	84200 <atan+0x190>
   841e6:	f101 4500 	add.w	r5, r1, #2147483648	; 0x80000000
   841ea:	4629      	mov	r1, r5
   841ec:	e008      	b.n	84200 <atan+0x190>
   841ee:	2800      	cmp	r0, #0
   841f0:	f43f af4f 	beq.w	84092 <atan+0x22>
   841f4:	4620      	mov	r0, r4
   841f6:	4629      	mov	r1, r5
   841f8:	4622      	mov	r2, r4
   841fa:	462b      	mov	r3, r5
   841fc:	f000 fa2a 	bl	84654 <__adddf3>
   84200:	b003      	add	sp, #12
   84202:	e8bd 8ff0 	ldmia.w	sp!, {r4, r5, r6, r7, r8, r9, sl, fp, pc}
   84206:	a34e      	add	r3, pc, #312	; (adr r3, 84340 <atan+0x2d0>)
   84208:	e9d3 2300 	ldrd	r2, r3, [r3]
   8420c:	f000 fa22 	bl	84654 <__adddf3>
   84210:	2200      	movs	r2, #0
   84212:	4b54      	ldr	r3, [pc, #336]	; (84364 <atan+0x2f4>)
   84214:	f000 fe60 	bl	84ed8 <__aeabi_dcmpgt>
   84218:	2800      	cmp	r0, #0
   8421a:	f43f af4d 	beq.w	840b8 <atan+0x48>
   8421e:	4620      	mov	r0, r4
   84220:	4629      	mov	r1, r5
   84222:	b003      	add	sp, #12
   84224:	e8bd 8ff0 	ldmia.w	sp!, {r4, r5, r6, r7, r8, r9, sl, fp, pc}
   84228:	f000 f8ca 	bl	843c0 <fabs>
   8422c:	4b4e      	ldr	r3, [pc, #312]	; (84368 <atan+0x2f8>)
   8422e:	4604      	mov	r4, r0
   84230:	429e      	cmp	r6, r3
   84232:	460d      	mov	r5, r1
   84234:	dc33      	bgt.n	8429e <atan+0x22e>
   84236:	f5a3 2350 	sub.w	r3, r3, #851968	; 0xd0000
   8423a:	429e      	cmp	r6, r3
   8423c:	f300 80a5 	bgt.w	8438a <atan+0x31a>
   84240:	4602      	mov	r2, r0
   84242:	460b      	mov	r3, r1
   84244:	f000 fa06 	bl	84654 <__adddf3>
   84248:	2200      	movs	r2, #0
   8424a:	4b46      	ldr	r3, [pc, #280]	; (84364 <atan+0x2f4>)
   8424c:	f000 fa00 	bl	84650 <__aeabi_dsub>
   84250:	2200      	movs	r2, #0
   84252:	4606      	mov	r6, r0
   84254:	460f      	mov	r7, r1
   84256:	4620      	mov	r0, r4
   84258:	4629      	mov	r1, r5
   8425a:	f04f 4380 	mov.w	r3, #1073741824	; 0x40000000
   8425e:	f000 f9f9 	bl	84654 <__adddf3>
   84262:	4602      	mov	r2, r0
   84264:	460b      	mov	r3, r1
   84266:	4630      	mov	r0, r6
   84268:	4639      	mov	r1, r7
   8426a:	f000 fccf 	bl	84c0c <__aeabi_ddiv>
   8426e:	f04f 0c00 	mov.w	ip, #0
   84272:	4604      	mov	r4, r0
   84274:	460d      	mov	r5, r1
   84276:	e721      	b.n	840bc <atan+0x4c>
   84278:	a133      	add	r1, pc, #204	; (adr r1, 84348 <atan+0x2d8>)
   8427a:	e9d1 0100 	ldrd	r0, r1, [r1]
   8427e:	e7bf      	b.n	84200 <atan+0x190>
   84280:	4650      	mov	r0, sl
   84282:	4659      	mov	r1, fp
   84284:	f000 f9e6 	bl	84654 <__adddf3>
   84288:	4622      	mov	r2, r4
   8428a:	462b      	mov	r3, r5
   8428c:	f000 fb94 	bl	849b8 <__aeabi_dmul>
   84290:	4602      	mov	r2, r0
   84292:	460b      	mov	r3, r1
   84294:	4620      	mov	r0, r4
   84296:	4629      	mov	r1, r5
   84298:	f000 f9da 	bl	84650 <__aeabi_dsub>
   8429c:	e7b0      	b.n	84200 <atan+0x190>
   8429e:	4b33      	ldr	r3, [pc, #204]	; (8436c <atan+0x2fc>)
   842a0:	429e      	cmp	r6, r3
   842a2:	dc67      	bgt.n	84374 <atan+0x304>
   842a4:	2200      	movs	r2, #0
   842a6:	4b32      	ldr	r3, [pc, #200]	; (84370 <atan+0x300>)
   842a8:	f000 f9d2 	bl	84650 <__aeabi_dsub>
   842ac:	2200      	movs	r2, #0
   842ae:	4606      	mov	r6, r0
   842b0:	460f      	mov	r7, r1
   842b2:	4620      	mov	r0, r4
   842b4:	4629      	mov	r1, r5
   842b6:	4b2e      	ldr	r3, [pc, #184]	; (84370 <atan+0x300>)
   842b8:	f000 fb7e 	bl	849b8 <__aeabi_dmul>
   842bc:	2200      	movs	r2, #0
   842be:	4b29      	ldr	r3, [pc, #164]	; (84364 <atan+0x2f4>)
   842c0:	f000 f9c8 	bl	84654 <__adddf3>
   842c4:	4602      	mov	r2, r0
   842c6:	460b      	mov	r3, r1
   842c8:	4630      	mov	r0, r6
   842ca:	4639      	mov	r1, r7
   842cc:	f000 fc9e 	bl	84c0c <__aeabi_ddiv>
   842d0:	f04f 0c02 	mov.w	ip, #2
   842d4:	4604      	mov	r4, r0
   842d6:	460d      	mov	r5, r1
   842d8:	e6f0      	b.n	840bc <atan+0x4c>
   842da:	bf00      	nop
   842dc:	f3af 8000 	nop.w
   842e0:	54442d18 	.word	0x54442d18
   842e4:	3ff921fb 	.word	0x3ff921fb
   842e8:	e322da11 	.word	0xe322da11
   842ec:	3f90ad3a 	.word	0x3f90ad3a
   842f0:	24760deb 	.word	0x24760deb
   842f4:	3fa97b4b 	.word	0x3fa97b4b
   842f8:	a0d03d51 	.word	0xa0d03d51
   842fc:	3fb10d66 	.word	0x3fb10d66
   84300:	c54c206e 	.word	0xc54c206e
   84304:	3fb745cd 	.word	0x3fb745cd
   84308:	920083ff 	.word	0x920083ff
   8430c:	3fc24924 	.word	0x3fc24924
   84310:	5555550d 	.word	0x5555550d
   84314:	3fd55555 	.word	0x3fd55555
   84318:	2c6a6c2f 	.word	0x2c6a6c2f
   8431c:	bfa2b444 	.word	0xbfa2b444
   84320:	52defd9a 	.word	0x52defd9a
   84324:	3fadde2d 	.word	0x3fadde2d
   84328:	af749a6d 	.word	0xaf749a6d
   8432c:	3fb3b0f2 	.word	0x3fb3b0f2
   84330:	fe231671 	.word	0xfe231671
   84334:	3fbc71c6 	.word	0x3fbc71c6
   84338:	9998ebc4 	.word	0x9998ebc4
   8433c:	3fc99999 	.word	0x3fc99999
   84340:	8800759c 	.word	0x8800759c
   84344:	7e37e43c 	.word	0x7e37e43c
   84348:	54442d18 	.word	0x54442d18
   8434c:	bff921fb 	.word	0xbff921fb
   84350:	440fffff 	.word	0x440fffff
   84354:	7ff00000 	.word	0x7ff00000
   84358:	3fdbffff 	.word	0x3fdbffff
   8435c:	00088470 	.word	0x00088470
   84360:	00088450 	.word	0x00088450
   84364:	3ff00000 	.word	0x3ff00000
   84368:	3ff2ffff 	.word	0x3ff2ffff
   8436c:	40037fff 	.word	0x40037fff
   84370:	3ff80000 	.word	0x3ff80000
   84374:	4602      	mov	r2, r0
   84376:	460b      	mov	r3, r1
   84378:	2000      	movs	r0, #0
   8437a:	490f      	ldr	r1, [pc, #60]	; (843b8 <atan+0x348>)
   8437c:	f000 fc46 	bl	84c0c <__aeabi_ddiv>
   84380:	f04f 0c03 	mov.w	ip, #3
   84384:	4604      	mov	r4, r0
   84386:	460d      	mov	r5, r1
   84388:	e698      	b.n	840bc <atan+0x4c>
   8438a:	2200      	movs	r2, #0
   8438c:	4b0b      	ldr	r3, [pc, #44]	; (843bc <atan+0x34c>)
   8438e:	f000 f95f 	bl	84650 <__aeabi_dsub>
   84392:	2200      	movs	r2, #0
   84394:	4606      	mov	r6, r0
   84396:	460f      	mov	r7, r1
   84398:	4620      	mov	r0, r4
   8439a:	4629      	mov	r1, r5
   8439c:	4b07      	ldr	r3, [pc, #28]	; (843bc <atan+0x34c>)
   8439e:	f000 f959 	bl	84654 <__adddf3>
   843a2:	4602      	mov	r2, r0
   843a4:	460b      	mov	r3, r1
   843a6:	4630      	mov	r0, r6
   843a8:	4639      	mov	r1, r7
   843aa:	f000 fc2f 	bl	84c0c <__aeabi_ddiv>
   843ae:	f04f 0c01 	mov.w	ip, #1
   843b2:	4604      	mov	r4, r0
   843b4:	460d      	mov	r5, r1
   843b6:	e681      	b.n	840bc <atan+0x4c>
   843b8:	bff00000 	.word	0xbff00000
   843bc:	3ff00000 	.word	0x3ff00000

000843c0 <fabs>:
   843c0:	f021 4100 	bic.w	r1, r1, #2147483648	; 0x80000000
   843c4:	4770      	bx	lr
   843c6:	bf00      	nop

000843c8 <sqrt>:
   843c8:	e92d 47f0 	stmdb	sp!, {r4, r5, r6, r7, r8, r9, sl, lr}
   843cc:	b08a      	sub	sp, #40	; 0x28
   843ce:	4604      	mov	r4, r0
   843d0:	460d      	mov	r5, r1
   843d2:	f000 f84f 	bl	84474 <__ieee754_sqrt>
   843d6:	f8df a098 	ldr.w	sl, [pc, #152]	; 84470 <sqrt+0xa8>
   843da:	4606      	mov	r6, r0
   843dc:	f99a 3000 	ldrsb.w	r3, [sl]
   843e0:	460f      	mov	r7, r1
   843e2:	3301      	adds	r3, #1
   843e4:	d00f      	beq.n	84406 <sqrt+0x3e>
   843e6:	4620      	mov	r0, r4
   843e8:	4629      	mov	r1, r5
   843ea:	f000 f903 	bl	845f4 <__fpclassifyd>
   843ee:	b150      	cbz	r0, 84406 <sqrt+0x3e>
   843f0:	f04f 0800 	mov.w	r8, #0
   843f4:	f04f 0900 	mov.w	r9, #0
   843f8:	4642      	mov	r2, r8
   843fa:	464b      	mov	r3, r9
   843fc:	4620      	mov	r0, r4
   843fe:	4629      	mov	r1, r5
   84400:	f000 fd4c 	bl	84e9c <__aeabi_dcmplt>
   84404:	b920      	cbnz	r0, 84410 <sqrt+0x48>
   84406:	4630      	mov	r0, r6
   84408:	4639      	mov	r1, r7
   8440a:	b00a      	add	sp, #40	; 0x28
   8440c:	e8bd 87f0 	ldmia.w	sp!, {r4, r5, r6, r7, r8, r9, sl, pc}
   84410:	4916      	ldr	r1, [pc, #88]	; (8446c <sqrt+0xa4>)
   84412:	f89a 6000 	ldrb.w	r6, [sl]
   84416:	2201      	movs	r2, #1
   84418:	2300      	movs	r3, #0
   8441a:	e9cd 4504 	strd	r4, r5, [sp, #16]
   8441e:	e9cd 4502 	strd	r4, r5, [sp, #8]
   84422:	9101      	str	r1, [sp, #4]
   84424:	9200      	str	r2, [sp, #0]
   84426:	9308      	str	r3, [sp, #32]
   84428:	b966      	cbnz	r6, 84444 <sqrt+0x7c>
   8442a:	e9cd 8906 	strd	r8, r9, [sp, #24]
   8442e:	4668      	mov	r0, sp
   84430:	f000 f908 	bl	84644 <matherr>
   84434:	b180      	cbz	r0, 84458 <sqrt+0x90>
   84436:	9b08      	ldr	r3, [sp, #32]
   84438:	b99b      	cbnz	r3, 84462 <sqrt+0x9a>
   8443a:	e9dd 0106 	ldrd	r0, r1, [sp, #24]
   8443e:	b00a      	add	sp, #40	; 0x28
   84440:	e8bd 87f0 	ldmia.w	sp!, {r4, r5, r6, r7, r8, r9, sl, pc}
   84444:	4640      	mov	r0, r8
   84446:	4649      	mov	r1, r9
   84448:	4642      	mov	r2, r8
   8444a:	464b      	mov	r3, r9
   8444c:	f000 fbde 	bl	84c0c <__aeabi_ddiv>
   84450:	2e02      	cmp	r6, #2
   84452:	e9cd 0106 	strd	r0, r1, [sp, #24]
   84456:	d1ea      	bne.n	8442e <sqrt+0x66>
   84458:	f000 fd90 	bl	84f7c <__errno>
   8445c:	2321      	movs	r3, #33	; 0x21
   8445e:	6003      	str	r3, [r0, #0]
   84460:	e7e9      	b.n	84436 <sqrt+0x6e>
   84462:	f000 fd8b 	bl	84f7c <__errno>
   84466:	9b08      	ldr	r3, [sp, #32]
   84468:	6003      	str	r3, [r0, #0]
   8446a:	e7e6      	b.n	8443a <sqrt+0x72>
   8446c:	00088490 	.word	0x00088490
   84470:	20070180 	.word	0x20070180

00084474 <__ieee754_sqrt>:
   84474:	f021 4c00 	bic.w	ip, r1, #2147483648	; 0x80000000
   84478:	e92d 43f8 	stmdb	sp!, {r3, r4, r5, r6, r7, r8, r9, lr}
   8447c:	ea4f 5c1c 	mov.w	ip, ip, lsr #20
   84480:	f8df 816c 	ldr.w	r8, [pc, #364]	; 845f0 <__ieee754_sqrt+0x17c>
   84484:	ea4f 5c0c 	mov.w	ip, ip, lsl #20
   84488:	45c4      	cmp	ip, r8
   8448a:	4606      	mov	r6, r0
   8448c:	460f      	mov	r7, r1
   8448e:	460b      	mov	r3, r1
   84490:	4602      	mov	r2, r0
   84492:	f000 808f 	beq.w	845b4 <__ieee754_sqrt+0x140>
   84496:	2900      	cmp	r1, #0
   84498:	dd6f      	ble.n	8457a <__ieee754_sqrt+0x106>
   8449a:	150f      	asrs	r7, r1, #20
   8449c:	d078      	beq.n	84590 <__ieee754_sqrt+0x11c>
   8449e:	f2a7 37ff 	subw	r7, r7, #1023	; 0x3ff
   844a2:	f3c3 0313 	ubfx	r3, r3, #0, #20
   844a6:	07f9      	lsls	r1, r7, #31
   844a8:	f443 1380 	orr.w	r3, r3, #1048576	; 0x100000
   844ac:	d460      	bmi.n	84570 <__ieee754_sqrt+0xfc>
   844ae:	0fd1      	lsrs	r1, r2, #31
   844b0:	f04f 0c00 	mov.w	ip, #0
   844b4:	eb01 0343 	add.w	r3, r1, r3, lsl #1
   844b8:	107f      	asrs	r7, r7, #1
   844ba:	0052      	lsls	r2, r2, #1
   844bc:	4665      	mov	r5, ip
   844be:	2016      	movs	r0, #22
   844c0:	f44f 1100 	mov.w	r1, #2097152	; 0x200000
   844c4:	186c      	adds	r4, r5, r1
   844c6:	429c      	cmp	r4, r3
   844c8:	ea4f 76d2 	mov.w	r6, r2, lsr #31
   844cc:	ea4f 0242 	mov.w	r2, r2, lsl #1
   844d0:	dc02      	bgt.n	844d8 <__ieee754_sqrt+0x64>
   844d2:	1b1b      	subs	r3, r3, r4
   844d4:	1865      	adds	r5, r4, r1
   844d6:	448c      	add	ip, r1
   844d8:	3801      	subs	r0, #1
   844da:	eb06 0343 	add.w	r3, r6, r3, lsl #1
   844de:	ea4f 0151 	mov.w	r1, r1, lsr #1
   844e2:	d1ef      	bne.n	844c4 <__ieee754_sqrt+0x50>
   844e4:	4680      	mov	r8, r0
   844e6:	2620      	movs	r6, #32
   844e8:	f04f 4100 	mov.w	r1, #2147483648	; 0x80000000
   844ec:	e009      	b.n	84502 <__ieee754_sqrt+0x8e>
   844ee:	d023      	beq.n	84538 <__ieee754_sqrt+0xc4>
   844f0:	0fd4      	lsrs	r4, r2, #31
   844f2:	3e01      	subs	r6, #1
   844f4:	ea4f 0151 	mov.w	r1, r1, lsr #1
   844f8:	eb04 0343 	add.w	r3, r4, r3, lsl #1
   844fc:	ea4f 0242 	mov.w	r2, r2, lsl #1
   84500:	d01e      	beq.n	84540 <__ieee754_sqrt+0xcc>
   84502:	42ab      	cmp	r3, r5
   84504:	eb01 0408 	add.w	r4, r1, r8
   84508:	ddf1      	ble.n	844ee <__ieee754_sqrt+0x7a>
   8450a:	f004 4900 	and.w	r9, r4, #2147483648	; 0x80000000
   8450e:	f1b9 4f00 	cmp.w	r9, #2147483648	; 0x80000000
   84512:	eb04 0801 	add.w	r8, r4, r1
   84516:	d009      	beq.n	8452c <__ieee754_sqrt+0xb8>
   84518:	46a9      	mov	r9, r5
   8451a:	1b5b      	subs	r3, r3, r5
   8451c:	4294      	cmp	r4, r2
   8451e:	bf88      	it	hi
   84520:	f103 33ff 	addhi.w	r3, r3, #4294967295
   84524:	1b12      	subs	r2, r2, r4
   84526:	4408      	add	r0, r1
   84528:	464d      	mov	r5, r9
   8452a:	e7e1      	b.n	844f0 <__ieee754_sqrt+0x7c>
   8452c:	f1b8 0f00 	cmp.w	r8, #0
   84530:	dbf2      	blt.n	84518 <__ieee754_sqrt+0xa4>
   84532:	f105 0901 	add.w	r9, r5, #1
   84536:	e7f0      	b.n	8451a <__ieee754_sqrt+0xa6>
   84538:	4294      	cmp	r4, r2
   8453a:	d9e6      	bls.n	8450a <__ieee754_sqrt+0x96>
   8453c:	461d      	mov	r5, r3
   8453e:	e7d7      	b.n	844f0 <__ieee754_sqrt+0x7c>
   84540:	431a      	orrs	r2, r3
   84542:	d004      	beq.n	8454e <__ieee754_sqrt+0xda>
   84544:	1c43      	adds	r3, r0, #1
   84546:	d041      	beq.n	845cc <__ieee754_sqrt+0x158>
   84548:	f000 0301 	and.w	r3, r0, #1
   8454c:	4418      	add	r0, r3
   8454e:	0846      	lsrs	r6, r0, #1
   84550:	ea4f 036c 	mov.w	r3, ip, asr #1
   84554:	f01c 0f01 	tst.w	ip, #1
   84558:	f103 537f 	add.w	r3, r3, #1069547520	; 0x3fc00000
   8455c:	f503 1300 	add.w	r3, r3, #2097152	; 0x200000
   84560:	bf18      	it	ne
   84562:	f046 4600 	orrne.w	r6, r6, #2147483648	; 0x80000000
   84566:	eb03 5107 	add.w	r1, r3, r7, lsl #20
   8456a:	4630      	mov	r0, r6
   8456c:	e8bd 83f8 	ldmia.w	sp!, {r3, r4, r5, r6, r7, r8, r9, pc}
   84570:	0fd1      	lsrs	r1, r2, #31
   84572:	eb01 0343 	add.w	r3, r1, r3, lsl #1
   84576:	0052      	lsls	r2, r2, #1
   84578:	e799      	b.n	844ae <__ieee754_sqrt+0x3a>
   8457a:	f021 4300 	bic.w	r3, r1, #2147483648	; 0x80000000
   8457e:	4303      	orrs	r3, r0
   84580:	d022      	beq.n	845c8 <__ieee754_sqrt+0x154>
   84582:	bb51      	cbnz	r1, 845da <__ieee754_sqrt+0x166>
   84584:	460f      	mov	r7, r1
   84586:	0ad3      	lsrs	r3, r2, #11
   84588:	3f15      	subs	r7, #21
   8458a:	0552      	lsls	r2, r2, #21
   8458c:	2b00      	cmp	r3, #0
   8458e:	d0fa      	beq.n	84586 <__ieee754_sqrt+0x112>
   84590:	f413 1180 	ands.w	r1, r3, #1048576	; 0x100000
   84594:	d11d      	bne.n	845d2 <__ieee754_sqrt+0x15e>
   84596:	005b      	lsls	r3, r3, #1
   84598:	02d8      	lsls	r0, r3, #11
   8459a:	f101 0101 	add.w	r1, r1, #1
   8459e:	d5fa      	bpl.n	84596 <__ieee754_sqrt+0x122>
   845a0:	f1c1 0001 	rsb	r0, r1, #1
   845a4:	f1c1 0420 	rsb	r4, r1, #32
   845a8:	fa22 f404 	lsr.w	r4, r2, r4
   845ac:	4407      	add	r7, r0
   845ae:	408a      	lsls	r2, r1
   845b0:	4323      	orrs	r3, r4
   845b2:	e774      	b.n	8449e <__ieee754_sqrt+0x2a>
   845b4:	4602      	mov	r2, r0
   845b6:	460b      	mov	r3, r1
   845b8:	f000 f9fe 	bl	849b8 <__aeabi_dmul>
   845bc:	4632      	mov	r2, r6
   845be:	463b      	mov	r3, r7
   845c0:	f000 f848 	bl	84654 <__adddf3>
   845c4:	e8bd 83f8 	ldmia.w	sp!, {r3, r4, r5, r6, r7, r8, r9, pc}
   845c8:	e8bd 83f8 	ldmia.w	sp!, {r3, r4, r5, r6, r7, r8, r9, pc}
   845cc:	f10c 0c01 	add.w	ip, ip, #1
   845d0:	e7be      	b.n	84550 <__ieee754_sqrt+0xdc>
   845d2:	2420      	movs	r4, #32
   845d4:	2001      	movs	r0, #1
   845d6:	2100      	movs	r1, #0
   845d8:	e7e6      	b.n	845a8 <__ieee754_sqrt+0x134>
   845da:	4602      	mov	r2, r0
   845dc:	460b      	mov	r3, r1
   845de:	f000 f837 	bl	84650 <__aeabi_dsub>
   845e2:	4602      	mov	r2, r0
   845e4:	460b      	mov	r3, r1
   845e6:	f000 fb11 	bl	84c0c <__aeabi_ddiv>
   845ea:	e8bd 83f8 	ldmia.w	sp!, {r3, r4, r5, r6, r7, r8, r9, pc}
   845ee:	bf00      	nop
   845f0:	7ff00000 	.word	0x7ff00000

000845f4 <__fpclassifyd>:
   845f4:	f031 4300 	bics.w	r3, r1, #2147483648	; 0x80000000
   845f8:	b410      	push	{r4}
   845fa:	d008      	beq.n	8460e <__fpclassifyd+0x1a>
   845fc:	4a0f      	ldr	r2, [pc, #60]	; (8463c <__fpclassifyd+0x48>)
   845fe:	f5a3 1480 	sub.w	r4, r3, #1048576	; 0x100000
   84602:	4294      	cmp	r4, r2
   84604:	d80a      	bhi.n	8461c <__fpclassifyd+0x28>
   84606:	2004      	movs	r0, #4
   84608:	f85d 4b04 	ldr.w	r4, [sp], #4
   8460c:	4770      	bx	lr
   8460e:	2800      	cmp	r0, #0
   84610:	bf0c      	ite	eq
   84612:	2002      	moveq	r0, #2
   84614:	2003      	movne	r0, #3
   84616:	f85d 4b04 	ldr.w	r4, [sp], #4
   8461a:	4770      	bx	lr
   8461c:	f5b3 1f80 	cmp.w	r3, #1048576	; 0x100000
   84620:	d201      	bcs.n	84626 <__fpclassifyd+0x32>
   84622:	2003      	movs	r0, #3
   84624:	e7f7      	b.n	84616 <__fpclassifyd+0x22>
   84626:	4a06      	ldr	r2, [pc, #24]	; (84640 <__fpclassifyd+0x4c>)
   84628:	4293      	cmp	r3, r2
   8462a:	d001      	beq.n	84630 <__fpclassifyd+0x3c>
   8462c:	2000      	movs	r0, #0
   8462e:	e7f2      	b.n	84616 <__fpclassifyd+0x22>
   84630:	f1d0 0001 	rsbs	r0, r0, #1
   84634:	bf38      	it	cc
   84636:	2000      	movcc	r0, #0
   84638:	e7ed      	b.n	84616 <__fpclassifyd+0x22>
   8463a:	bf00      	nop
   8463c:	7fdfffff 	.word	0x7fdfffff
   84640:	7ff00000 	.word	0x7ff00000

00084644 <matherr>:
   84644:	2000      	movs	r0, #0
   84646:	4770      	bx	lr

00084648 <__aeabi_drsub>:
   84648:	f081 4100 	eor.w	r1, r1, #2147483648	; 0x80000000
   8464c:	e002      	b.n	84654 <__adddf3>
   8464e:	bf00      	nop

00084650 <__aeabi_dsub>:
   84650:	f083 4300 	eor.w	r3, r3, #2147483648	; 0x80000000

00084654 <__adddf3>:
   84654:	b530      	push	{r4, r5, lr}
   84656:	ea4f 0441 	mov.w	r4, r1, lsl #1
   8465a:	ea4f 0543 	mov.w	r5, r3, lsl #1
   8465e:	ea94 0f05 	teq	r4, r5
   84662:	bf08      	it	eq
   84664:	ea90 0f02 	teqeq	r0, r2
   84668:	bf1f      	itttt	ne
   8466a:	ea54 0c00 	orrsne.w	ip, r4, r0
   8466e:	ea55 0c02 	orrsne.w	ip, r5, r2
   84672:	ea7f 5c64 	mvnsne.w	ip, r4, asr #21
   84676:	ea7f 5c65 	mvnsne.w	ip, r5, asr #21
   8467a:	f000 80e2 	beq.w	84842 <__adddf3+0x1ee>
   8467e:	ea4f 5454 	mov.w	r4, r4, lsr #21
   84682:	ebd4 5555 	rsbs	r5, r4, r5, lsr #21
   84686:	bfb8      	it	lt
   84688:	426d      	neglt	r5, r5
   8468a:	dd0c      	ble.n	846a6 <__adddf3+0x52>
   8468c:	442c      	add	r4, r5
   8468e:	ea80 0202 	eor.w	r2, r0, r2
   84692:	ea81 0303 	eor.w	r3, r1, r3
   84696:	ea82 0000 	eor.w	r0, r2, r0
   8469a:	ea83 0101 	eor.w	r1, r3, r1
   8469e:	ea80 0202 	eor.w	r2, r0, r2
   846a2:	ea81 0303 	eor.w	r3, r1, r3
   846a6:	2d36      	cmp	r5, #54	; 0x36
   846a8:	bf88      	it	hi
   846aa:	bd30      	pophi	{r4, r5, pc}
   846ac:	f011 4f00 	tst.w	r1, #2147483648	; 0x80000000
   846b0:	ea4f 3101 	mov.w	r1, r1, lsl #12
   846b4:	f44f 1c80 	mov.w	ip, #1048576	; 0x100000
   846b8:	ea4c 3111 	orr.w	r1, ip, r1, lsr #12
   846bc:	d002      	beq.n	846c4 <__adddf3+0x70>
   846be:	4240      	negs	r0, r0
   846c0:	eb61 0141 	sbc.w	r1, r1, r1, lsl #1
   846c4:	f013 4f00 	tst.w	r3, #2147483648	; 0x80000000
   846c8:	ea4f 3303 	mov.w	r3, r3, lsl #12
   846cc:	ea4c 3313 	orr.w	r3, ip, r3, lsr #12
   846d0:	d002      	beq.n	846d8 <__adddf3+0x84>
   846d2:	4252      	negs	r2, r2
   846d4:	eb63 0343 	sbc.w	r3, r3, r3, lsl #1
   846d8:	ea94 0f05 	teq	r4, r5
   846dc:	f000 80a7 	beq.w	8482e <__adddf3+0x1da>
   846e0:	f1a4 0401 	sub.w	r4, r4, #1
   846e4:	f1d5 0e20 	rsbs	lr, r5, #32
   846e8:	db0d      	blt.n	84706 <__adddf3+0xb2>
   846ea:	fa02 fc0e 	lsl.w	ip, r2, lr
   846ee:	fa22 f205 	lsr.w	r2, r2, r5
   846f2:	1880      	adds	r0, r0, r2
   846f4:	f141 0100 	adc.w	r1, r1, #0
   846f8:	fa03 f20e 	lsl.w	r2, r3, lr
   846fc:	1880      	adds	r0, r0, r2
   846fe:	fa43 f305 	asr.w	r3, r3, r5
   84702:	4159      	adcs	r1, r3
   84704:	e00e      	b.n	84724 <__adddf3+0xd0>
   84706:	f1a5 0520 	sub.w	r5, r5, #32
   8470a:	f10e 0e20 	add.w	lr, lr, #32
   8470e:	2a01      	cmp	r2, #1
   84710:	fa03 fc0e 	lsl.w	ip, r3, lr
   84714:	bf28      	it	cs
   84716:	f04c 0c02 	orrcs.w	ip, ip, #2
   8471a:	fa43 f305 	asr.w	r3, r3, r5
   8471e:	18c0      	adds	r0, r0, r3
   84720:	eb51 71e3 	adcs.w	r1, r1, r3, asr #31
   84724:	f001 4500 	and.w	r5, r1, #2147483648	; 0x80000000
   84728:	d507      	bpl.n	8473a <__adddf3+0xe6>
   8472a:	f04f 0e00 	mov.w	lr, #0
   8472e:	f1dc 0c00 	rsbs	ip, ip, #0
   84732:	eb7e 0000 	sbcs.w	r0, lr, r0
   84736:	eb6e 0101 	sbc.w	r1, lr, r1
   8473a:	f5b1 1f80 	cmp.w	r1, #1048576	; 0x100000
   8473e:	d31b      	bcc.n	84778 <__adddf3+0x124>
   84740:	f5b1 1f00 	cmp.w	r1, #2097152	; 0x200000
   84744:	d30c      	bcc.n	84760 <__adddf3+0x10c>
   84746:	0849      	lsrs	r1, r1, #1
   84748:	ea5f 0030 	movs.w	r0, r0, rrx
   8474c:	ea4f 0c3c 	mov.w	ip, ip, rrx
   84750:	f104 0401 	add.w	r4, r4, #1
   84754:	ea4f 5244 	mov.w	r2, r4, lsl #21
   84758:	f512 0f80 	cmn.w	r2, #4194304	; 0x400000
   8475c:	f080 809a 	bcs.w	84894 <__adddf3+0x240>
   84760:	f1bc 4f00 	cmp.w	ip, #2147483648	; 0x80000000
   84764:	bf08      	it	eq
   84766:	ea5f 0c50 	movseq.w	ip, r0, lsr #1
   8476a:	f150 0000 	adcs.w	r0, r0, #0
   8476e:	eb41 5104 	adc.w	r1, r1, r4, lsl #20
   84772:	ea41 0105 	orr.w	r1, r1, r5
   84776:	bd30      	pop	{r4, r5, pc}
   84778:	ea5f 0c4c 	movs.w	ip, ip, lsl #1
   8477c:	4140      	adcs	r0, r0
   8477e:	eb41 0101 	adc.w	r1, r1, r1
   84782:	f411 1f80 	tst.w	r1, #1048576	; 0x100000
   84786:	f1a4 0401 	sub.w	r4, r4, #1
   8478a:	d1e9      	bne.n	84760 <__adddf3+0x10c>
   8478c:	f091 0f00 	teq	r1, #0
   84790:	bf04      	itt	eq
   84792:	4601      	moveq	r1, r0
   84794:	2000      	moveq	r0, #0
   84796:	fab1 f381 	clz	r3, r1
   8479a:	bf08      	it	eq
   8479c:	3320      	addeq	r3, #32
   8479e:	f1a3 030b 	sub.w	r3, r3, #11
   847a2:	f1b3 0220 	subs.w	r2, r3, #32
   847a6:	da0c      	bge.n	847c2 <__adddf3+0x16e>
   847a8:	320c      	adds	r2, #12
   847aa:	dd08      	ble.n	847be <__adddf3+0x16a>
   847ac:	f102 0c14 	add.w	ip, r2, #20
   847b0:	f1c2 020c 	rsb	r2, r2, #12
   847b4:	fa01 f00c 	lsl.w	r0, r1, ip
   847b8:	fa21 f102 	lsr.w	r1, r1, r2
   847bc:	e00c      	b.n	847d8 <__adddf3+0x184>
   847be:	f102 0214 	add.w	r2, r2, #20
   847c2:	bfd8      	it	le
   847c4:	f1c2 0c20 	rsble	ip, r2, #32
   847c8:	fa01 f102 	lsl.w	r1, r1, r2
   847cc:	fa20 fc0c 	lsr.w	ip, r0, ip
   847d0:	bfdc      	itt	le
   847d2:	ea41 010c 	orrle.w	r1, r1, ip
   847d6:	4090      	lslle	r0, r2
   847d8:	1ae4      	subs	r4, r4, r3
   847da:	bfa2      	ittt	ge
   847dc:	eb01 5104 	addge.w	r1, r1, r4, lsl #20
   847e0:	4329      	orrge	r1, r5
   847e2:	bd30      	popge	{r4, r5, pc}
   847e4:	ea6f 0404 	mvn.w	r4, r4
   847e8:	3c1f      	subs	r4, #31
   847ea:	da1c      	bge.n	84826 <__adddf3+0x1d2>
   847ec:	340c      	adds	r4, #12
   847ee:	dc0e      	bgt.n	8480e <__adddf3+0x1ba>
   847f0:	f104 0414 	add.w	r4, r4, #20
   847f4:	f1c4 0220 	rsb	r2, r4, #32
   847f8:	fa20 f004 	lsr.w	r0, r0, r4
   847fc:	fa01 f302 	lsl.w	r3, r1, r2
   84800:	ea40 0003 	orr.w	r0, r0, r3
   84804:	fa21 f304 	lsr.w	r3, r1, r4
   84808:	ea45 0103 	orr.w	r1, r5, r3
   8480c:	bd30      	pop	{r4, r5, pc}
   8480e:	f1c4 040c 	rsb	r4, r4, #12
   84812:	f1c4 0220 	rsb	r2, r4, #32
   84816:	fa20 f002 	lsr.w	r0, r0, r2
   8481a:	fa01 f304 	lsl.w	r3, r1, r4
   8481e:	ea40 0003 	orr.w	r0, r0, r3
   84822:	4629      	mov	r1, r5
   84824:	bd30      	pop	{r4, r5, pc}
   84826:	fa21 f004 	lsr.w	r0, r1, r4
   8482a:	4629      	mov	r1, r5
   8482c:	bd30      	pop	{r4, r5, pc}
   8482e:	f094 0f00 	teq	r4, #0
   84832:	f483 1380 	eor.w	r3, r3, #1048576	; 0x100000
   84836:	bf06      	itte	eq
   84838:	f481 1180 	eoreq.w	r1, r1, #1048576	; 0x100000
   8483c:	3401      	addeq	r4, #1
   8483e:	3d01      	subne	r5, #1
   84840:	e74e      	b.n	846e0 <__adddf3+0x8c>
   84842:	ea7f 5c64 	mvns.w	ip, r4, asr #21
   84846:	bf18      	it	ne
   84848:	ea7f 5c65 	mvnsne.w	ip, r5, asr #21
   8484c:	d029      	beq.n	848a2 <__adddf3+0x24e>
   8484e:	ea94 0f05 	teq	r4, r5
   84852:	bf08      	it	eq
   84854:	ea90 0f02 	teqeq	r0, r2
   84858:	d005      	beq.n	84866 <__adddf3+0x212>
   8485a:	ea54 0c00 	orrs.w	ip, r4, r0
   8485e:	bf04      	itt	eq
   84860:	4619      	moveq	r1, r3
   84862:	4610      	moveq	r0, r2
   84864:	bd30      	pop	{r4, r5, pc}
   84866:	ea91 0f03 	teq	r1, r3
   8486a:	bf1e      	ittt	ne
   8486c:	2100      	movne	r1, #0
   8486e:	2000      	movne	r0, #0
   84870:	bd30      	popne	{r4, r5, pc}
   84872:	ea5f 5c54 	movs.w	ip, r4, lsr #21
   84876:	d105      	bne.n	84884 <__adddf3+0x230>
   84878:	0040      	lsls	r0, r0, #1
   8487a:	4149      	adcs	r1, r1
   8487c:	bf28      	it	cs
   8487e:	f041 4100 	orrcs.w	r1, r1, #2147483648	; 0x80000000
   84882:	bd30      	pop	{r4, r5, pc}
   84884:	f514 0480 	adds.w	r4, r4, #4194304	; 0x400000
   84888:	bf3c      	itt	cc
   8488a:	f501 1180 	addcc.w	r1, r1, #1048576	; 0x100000
   8488e:	bd30      	popcc	{r4, r5, pc}
   84890:	f001 4500 	and.w	r5, r1, #2147483648	; 0x80000000
   84894:	f045 41fe 	orr.w	r1, r5, #2130706432	; 0x7f000000
   84898:	f441 0170 	orr.w	r1, r1, #15728640	; 0xf00000
   8489c:	f04f 0000 	mov.w	r0, #0
   848a0:	bd30      	pop	{r4, r5, pc}
   848a2:	ea7f 5c64 	mvns.w	ip, r4, asr #21
   848a6:	bf1a      	itte	ne
   848a8:	4619      	movne	r1, r3
   848aa:	4610      	movne	r0, r2
   848ac:	ea7f 5c65 	mvnseq.w	ip, r5, asr #21
   848b0:	bf1c      	itt	ne
   848b2:	460b      	movne	r3, r1
   848b4:	4602      	movne	r2, r0
   848b6:	ea50 3401 	orrs.w	r4, r0, r1, lsl #12
   848ba:	bf06      	itte	eq
   848bc:	ea52 3503 	orrseq.w	r5, r2, r3, lsl #12
   848c0:	ea91 0f03 	teqeq	r1, r3
   848c4:	f441 2100 	orrne.w	r1, r1, #524288	; 0x80000
   848c8:	bd30      	pop	{r4, r5, pc}
   848ca:	bf00      	nop

000848cc <__aeabi_ui2d>:
   848cc:	f090 0f00 	teq	r0, #0
   848d0:	bf04      	itt	eq
   848d2:	2100      	moveq	r1, #0
   848d4:	4770      	bxeq	lr
   848d6:	b530      	push	{r4, r5, lr}
   848d8:	f44f 6480 	mov.w	r4, #1024	; 0x400
   848dc:	f104 0432 	add.w	r4, r4, #50	; 0x32
   848e0:	f04f 0500 	mov.w	r5, #0
   848e4:	f04f 0100 	mov.w	r1, #0
   848e8:	e750      	b.n	8478c <__adddf3+0x138>
   848ea:	bf00      	nop

000848ec <__aeabi_i2d>:
   848ec:	f090 0f00 	teq	r0, #0
   848f0:	bf04      	itt	eq
   848f2:	2100      	moveq	r1, #0
   848f4:	4770      	bxeq	lr
   848f6:	b530      	push	{r4, r5, lr}
   848f8:	f44f 6480 	mov.w	r4, #1024	; 0x400
   848fc:	f104 0432 	add.w	r4, r4, #50	; 0x32
   84900:	f010 4500 	ands.w	r5, r0, #2147483648	; 0x80000000
   84904:	bf48      	it	mi
   84906:	4240      	negmi	r0, r0
   84908:	f04f 0100 	mov.w	r1, #0
   8490c:	e73e      	b.n	8478c <__adddf3+0x138>
   8490e:	bf00      	nop

00084910 <__aeabi_f2d>:
   84910:	0042      	lsls	r2, r0, #1
   84912:	ea4f 01e2 	mov.w	r1, r2, asr #3
   84916:	ea4f 0131 	mov.w	r1, r1, rrx
   8491a:	ea4f 7002 	mov.w	r0, r2, lsl #28
   8491e:	bf1f      	itttt	ne
   84920:	f012 437f 	andsne.w	r3, r2, #4278190080	; 0xff000000
   84924:	f093 4f7f 	teqne	r3, #4278190080	; 0xff000000
   84928:	f081 5160 	eorne.w	r1, r1, #939524096	; 0x38000000
   8492c:	4770      	bxne	lr
   8492e:	f092 0f00 	teq	r2, #0
   84932:	bf14      	ite	ne
   84934:	f093 4f7f 	teqne	r3, #4278190080	; 0xff000000
   84938:	4770      	bxeq	lr
   8493a:	b530      	push	{r4, r5, lr}
   8493c:	f44f 7460 	mov.w	r4, #896	; 0x380
   84940:	f001 4500 	and.w	r5, r1, #2147483648	; 0x80000000
   84944:	f021 4100 	bic.w	r1, r1, #2147483648	; 0x80000000
   84948:	e720      	b.n	8478c <__adddf3+0x138>
   8494a:	bf00      	nop

0008494c <__aeabi_ul2d>:
   8494c:	ea50 0201 	orrs.w	r2, r0, r1
   84950:	bf08      	it	eq
   84952:	4770      	bxeq	lr
   84954:	b530      	push	{r4, r5, lr}
   84956:	f04f 0500 	mov.w	r5, #0
   8495a:	e00a      	b.n	84972 <__aeabi_l2d+0x16>

0008495c <__aeabi_l2d>:
   8495c:	ea50 0201 	orrs.w	r2, r0, r1
   84960:	bf08      	it	eq
   84962:	4770      	bxeq	lr
   84964:	b530      	push	{r4, r5, lr}
   84966:	f011 4500 	ands.w	r5, r1, #2147483648	; 0x80000000
   8496a:	d502      	bpl.n	84972 <__aeabi_l2d+0x16>
   8496c:	4240      	negs	r0, r0
   8496e:	eb61 0141 	sbc.w	r1, r1, r1, lsl #1
   84972:	f44f 6480 	mov.w	r4, #1024	; 0x400
   84976:	f104 0432 	add.w	r4, r4, #50	; 0x32
   8497a:	ea5f 5c91 	movs.w	ip, r1, lsr #22
   8497e:	f43f aedc 	beq.w	8473a <__adddf3+0xe6>
   84982:	f04f 0203 	mov.w	r2, #3
   84986:	ea5f 0cdc 	movs.w	ip, ip, lsr #3
   8498a:	bf18      	it	ne
   8498c:	3203      	addne	r2, #3
   8498e:	ea5f 0cdc 	movs.w	ip, ip, lsr #3
   84992:	bf18      	it	ne
   84994:	3203      	addne	r2, #3
   84996:	eb02 02dc 	add.w	r2, r2, ip, lsr #3
   8499a:	f1c2 0320 	rsb	r3, r2, #32
   8499e:	fa00 fc03 	lsl.w	ip, r0, r3
   849a2:	fa20 f002 	lsr.w	r0, r0, r2
   849a6:	fa01 fe03 	lsl.w	lr, r1, r3
   849aa:	ea40 000e 	orr.w	r0, r0, lr
   849ae:	fa21 f102 	lsr.w	r1, r1, r2
   849b2:	4414      	add	r4, r2
   849b4:	e6c1      	b.n	8473a <__adddf3+0xe6>
   849b6:	bf00      	nop

000849b8 <__aeabi_dmul>:
   849b8:	b570      	push	{r4, r5, r6, lr}
   849ba:	f04f 0cff 	mov.w	ip, #255	; 0xff
   849be:	f44c 6ce0 	orr.w	ip, ip, #1792	; 0x700
   849c2:	ea1c 5411 	ands.w	r4, ip, r1, lsr #20
   849c6:	bf1d      	ittte	ne
   849c8:	ea1c 5513 	andsne.w	r5, ip, r3, lsr #20
   849cc:	ea94 0f0c 	teqne	r4, ip
   849d0:	ea95 0f0c 	teqne	r5, ip
   849d4:	f000 f8de 	bleq	84b94 <__aeabi_dmul+0x1dc>
   849d8:	442c      	add	r4, r5
   849da:	ea81 0603 	eor.w	r6, r1, r3
   849de:	ea21 514c 	bic.w	r1, r1, ip, lsl #21
   849e2:	ea23 534c 	bic.w	r3, r3, ip, lsl #21
   849e6:	ea50 3501 	orrs.w	r5, r0, r1, lsl #12
   849ea:	bf18      	it	ne
   849ec:	ea52 3503 	orrsne.w	r5, r2, r3, lsl #12
   849f0:	f441 1180 	orr.w	r1, r1, #1048576	; 0x100000
   849f4:	f443 1380 	orr.w	r3, r3, #1048576	; 0x100000
   849f8:	d038      	beq.n	84a6c <__aeabi_dmul+0xb4>
   849fa:	fba0 ce02 	umull	ip, lr, r0, r2
   849fe:	f04f 0500 	mov.w	r5, #0
   84a02:	fbe1 e502 	umlal	lr, r5, r1, r2
   84a06:	f006 4200 	and.w	r2, r6, #2147483648	; 0x80000000
   84a0a:	fbe0 e503 	umlal	lr, r5, r0, r3
   84a0e:	f04f 0600 	mov.w	r6, #0
   84a12:	fbe1 5603 	umlal	r5, r6, r1, r3
   84a16:	f09c 0f00 	teq	ip, #0
   84a1a:	bf18      	it	ne
   84a1c:	f04e 0e01 	orrne.w	lr, lr, #1
   84a20:	f1a4 04ff 	sub.w	r4, r4, #255	; 0xff
   84a24:	f5b6 7f00 	cmp.w	r6, #512	; 0x200
   84a28:	f564 7440 	sbc.w	r4, r4, #768	; 0x300
   84a2c:	d204      	bcs.n	84a38 <__aeabi_dmul+0x80>
   84a2e:	ea5f 0e4e 	movs.w	lr, lr, lsl #1
   84a32:	416d      	adcs	r5, r5
   84a34:	eb46 0606 	adc.w	r6, r6, r6
   84a38:	ea42 21c6 	orr.w	r1, r2, r6, lsl #11
   84a3c:	ea41 5155 	orr.w	r1, r1, r5, lsr #21
   84a40:	ea4f 20c5 	mov.w	r0, r5, lsl #11
   84a44:	ea40 505e 	orr.w	r0, r0, lr, lsr #21
   84a48:	ea4f 2ece 	mov.w	lr, lr, lsl #11
   84a4c:	f1b4 0cfd 	subs.w	ip, r4, #253	; 0xfd
   84a50:	bf88      	it	hi
   84a52:	f5bc 6fe0 	cmphi.w	ip, #1792	; 0x700
   84a56:	d81e      	bhi.n	84a96 <__aeabi_dmul+0xde>
   84a58:	f1be 4f00 	cmp.w	lr, #2147483648	; 0x80000000
   84a5c:	bf08      	it	eq
   84a5e:	ea5f 0e50 	movseq.w	lr, r0, lsr #1
   84a62:	f150 0000 	adcs.w	r0, r0, #0
   84a66:	eb41 5104 	adc.w	r1, r1, r4, lsl #20
   84a6a:	bd70      	pop	{r4, r5, r6, pc}
   84a6c:	f006 4600 	and.w	r6, r6, #2147483648	; 0x80000000
   84a70:	ea46 0101 	orr.w	r1, r6, r1
   84a74:	ea40 0002 	orr.w	r0, r0, r2
   84a78:	ea81 0103 	eor.w	r1, r1, r3
   84a7c:	ebb4 045c 	subs.w	r4, r4, ip, lsr #1
   84a80:	bfc2      	ittt	gt
   84a82:	ebd4 050c 	rsbsgt	r5, r4, ip
   84a86:	ea41 5104 	orrgt.w	r1, r1, r4, lsl #20
   84a8a:	bd70      	popgt	{r4, r5, r6, pc}
   84a8c:	f441 1180 	orr.w	r1, r1, #1048576	; 0x100000
   84a90:	f04f 0e00 	mov.w	lr, #0
   84a94:	3c01      	subs	r4, #1
   84a96:	f300 80ab 	bgt.w	84bf0 <__aeabi_dmul+0x238>
   84a9a:	f114 0f36 	cmn.w	r4, #54	; 0x36
   84a9e:	bfde      	ittt	le
   84aa0:	2000      	movle	r0, #0
   84aa2:	f001 4100 	andle.w	r1, r1, #2147483648	; 0x80000000
   84aa6:	bd70      	pople	{r4, r5, r6, pc}
   84aa8:	f1c4 0400 	rsb	r4, r4, #0
   84aac:	3c20      	subs	r4, #32
   84aae:	da35      	bge.n	84b1c <__aeabi_dmul+0x164>
   84ab0:	340c      	adds	r4, #12
   84ab2:	dc1b      	bgt.n	84aec <__aeabi_dmul+0x134>
   84ab4:	f104 0414 	add.w	r4, r4, #20
   84ab8:	f1c4 0520 	rsb	r5, r4, #32
   84abc:	fa00 f305 	lsl.w	r3, r0, r5
   84ac0:	fa20 f004 	lsr.w	r0, r0, r4
   84ac4:	fa01 f205 	lsl.w	r2, r1, r5
   84ac8:	ea40 0002 	orr.w	r0, r0, r2
   84acc:	f001 4200 	and.w	r2, r1, #2147483648	; 0x80000000
   84ad0:	f021 4100 	bic.w	r1, r1, #2147483648	; 0x80000000
   84ad4:	eb10 70d3 	adds.w	r0, r0, r3, lsr #31
   84ad8:	fa21 f604 	lsr.w	r6, r1, r4
   84adc:	eb42 0106 	adc.w	r1, r2, r6
   84ae0:	ea5e 0e43 	orrs.w	lr, lr, r3, lsl #1
   84ae4:	bf08      	it	eq
   84ae6:	ea20 70d3 	biceq.w	r0, r0, r3, lsr #31
   84aea:	bd70      	pop	{r4, r5, r6, pc}
   84aec:	f1c4 040c 	rsb	r4, r4, #12
   84af0:	f1c4 0520 	rsb	r5, r4, #32
   84af4:	fa00 f304 	lsl.w	r3, r0, r4
   84af8:	fa20 f005 	lsr.w	r0, r0, r5
   84afc:	fa01 f204 	lsl.w	r2, r1, r4
   84b00:	ea40 0002 	orr.w	r0, r0, r2
   84b04:	f001 4100 	and.w	r1, r1, #2147483648	; 0x80000000
   84b08:	eb10 70d3 	adds.w	r0, r0, r3, lsr #31
   84b0c:	f141 0100 	adc.w	r1, r1, #0
   84b10:	ea5e 0e43 	orrs.w	lr, lr, r3, lsl #1
   84b14:	bf08      	it	eq
   84b16:	ea20 70d3 	biceq.w	r0, r0, r3, lsr #31
   84b1a:	bd70      	pop	{r4, r5, r6, pc}
   84b1c:	f1c4 0520 	rsb	r5, r4, #32
   84b20:	fa00 f205 	lsl.w	r2, r0, r5
   84b24:	ea4e 0e02 	orr.w	lr, lr, r2
   84b28:	fa20 f304 	lsr.w	r3, r0, r4
   84b2c:	fa01 f205 	lsl.w	r2, r1, r5
   84b30:	ea43 0302 	orr.w	r3, r3, r2
   84b34:	fa21 f004 	lsr.w	r0, r1, r4
   84b38:	f001 4100 	and.w	r1, r1, #2147483648	; 0x80000000
   84b3c:	fa21 f204 	lsr.w	r2, r1, r4
   84b40:	ea20 0002 	bic.w	r0, r0, r2
   84b44:	eb00 70d3 	add.w	r0, r0, r3, lsr #31
   84b48:	ea5e 0e43 	orrs.w	lr, lr, r3, lsl #1
   84b4c:	bf08      	it	eq
   84b4e:	ea20 70d3 	biceq.w	r0, r0, r3, lsr #31
   84b52:	bd70      	pop	{r4, r5, r6, pc}
   84b54:	f094 0f00 	teq	r4, #0
   84b58:	d10f      	bne.n	84b7a <__aeabi_dmul+0x1c2>
   84b5a:	f001 4600 	and.w	r6, r1, #2147483648	; 0x80000000
   84b5e:	0040      	lsls	r0, r0, #1
   84b60:	eb41 0101 	adc.w	r1, r1, r1
   84b64:	f411 1f80 	tst.w	r1, #1048576	; 0x100000
   84b68:	bf08      	it	eq
   84b6a:	3c01      	subeq	r4, #1
   84b6c:	d0f7      	beq.n	84b5e <__aeabi_dmul+0x1a6>
   84b6e:	ea41 0106 	orr.w	r1, r1, r6
   84b72:	f095 0f00 	teq	r5, #0
   84b76:	bf18      	it	ne
   84b78:	4770      	bxne	lr
   84b7a:	f003 4600 	and.w	r6, r3, #2147483648	; 0x80000000
   84b7e:	0052      	lsls	r2, r2, #1
   84b80:	eb43 0303 	adc.w	r3, r3, r3
   84b84:	f413 1f80 	tst.w	r3, #1048576	; 0x100000
   84b88:	bf08      	it	eq
   84b8a:	3d01      	subeq	r5, #1
   84b8c:	d0f7      	beq.n	84b7e <__aeabi_dmul+0x1c6>
   84b8e:	ea43 0306 	orr.w	r3, r3, r6
   84b92:	4770      	bx	lr
   84b94:	ea94 0f0c 	teq	r4, ip
   84b98:	ea0c 5513 	and.w	r5, ip, r3, lsr #20
   84b9c:	bf18      	it	ne
   84b9e:	ea95 0f0c 	teqne	r5, ip
   84ba2:	d00c      	beq.n	84bbe <__aeabi_dmul+0x206>
   84ba4:	ea50 0641 	orrs.w	r6, r0, r1, lsl #1
   84ba8:	bf18      	it	ne
   84baa:	ea52 0643 	orrsne.w	r6, r2, r3, lsl #1
   84bae:	d1d1      	bne.n	84b54 <__aeabi_dmul+0x19c>
   84bb0:	ea81 0103 	eor.w	r1, r1, r3
   84bb4:	f001 4100 	and.w	r1, r1, #2147483648	; 0x80000000
   84bb8:	f04f 0000 	mov.w	r0, #0
   84bbc:	bd70      	pop	{r4, r5, r6, pc}
   84bbe:	ea50 0641 	orrs.w	r6, r0, r1, lsl #1
   84bc2:	bf06      	itte	eq
   84bc4:	4610      	moveq	r0, r2
   84bc6:	4619      	moveq	r1, r3
   84bc8:	ea52 0643 	orrsne.w	r6, r2, r3, lsl #1
   84bcc:	d019      	beq.n	84c02 <__aeabi_dmul+0x24a>
   84bce:	ea94 0f0c 	teq	r4, ip
   84bd2:	d102      	bne.n	84bda <__aeabi_dmul+0x222>
   84bd4:	ea50 3601 	orrs.w	r6, r0, r1, lsl #12
   84bd8:	d113      	bne.n	84c02 <__aeabi_dmul+0x24a>
   84bda:	ea95 0f0c 	teq	r5, ip
   84bde:	d105      	bne.n	84bec <__aeabi_dmul+0x234>
   84be0:	ea52 3603 	orrs.w	r6, r2, r3, lsl #12
   84be4:	bf1c      	itt	ne
   84be6:	4610      	movne	r0, r2
   84be8:	4619      	movne	r1, r3
   84bea:	d10a      	bne.n	84c02 <__aeabi_dmul+0x24a>
   84bec:	ea81 0103 	eor.w	r1, r1, r3
   84bf0:	f001 4100 	and.w	r1, r1, #2147483648	; 0x80000000
   84bf4:	f041 41fe 	orr.w	r1, r1, #2130706432	; 0x7f000000
   84bf8:	f441 0170 	orr.w	r1, r1, #15728640	; 0xf00000
   84bfc:	f04f 0000 	mov.w	r0, #0
   84c00:	bd70      	pop	{r4, r5, r6, pc}
   84c02:	f041 41fe 	orr.w	r1, r1, #2130706432	; 0x7f000000
   84c06:	f441 0178 	orr.w	r1, r1, #16252928	; 0xf80000
   84c0a:	bd70      	pop	{r4, r5, r6, pc}

00084c0c <__aeabi_ddiv>:
   84c0c:	b570      	push	{r4, r5, r6, lr}
   84c0e:	f04f 0cff 	mov.w	ip, #255	; 0xff
   84c12:	f44c 6ce0 	orr.w	ip, ip, #1792	; 0x700
   84c16:	ea1c 5411 	ands.w	r4, ip, r1, lsr #20
   84c1a:	bf1d      	ittte	ne
   84c1c:	ea1c 5513 	andsne.w	r5, ip, r3, lsr #20
   84c20:	ea94 0f0c 	teqne	r4, ip
   84c24:	ea95 0f0c 	teqne	r5, ip
   84c28:	f000 f8a7 	bleq	84d7a <__aeabi_ddiv+0x16e>
   84c2c:	eba4 0405 	sub.w	r4, r4, r5
   84c30:	ea81 0e03 	eor.w	lr, r1, r3
   84c34:	ea52 3503 	orrs.w	r5, r2, r3, lsl #12
   84c38:	ea4f 3101 	mov.w	r1, r1, lsl #12
   84c3c:	f000 8088 	beq.w	84d50 <__aeabi_ddiv+0x144>
   84c40:	ea4f 3303 	mov.w	r3, r3, lsl #12
   84c44:	f04f 5580 	mov.w	r5, #268435456	; 0x10000000
   84c48:	ea45 1313 	orr.w	r3, r5, r3, lsr #4
   84c4c:	ea43 6312 	orr.w	r3, r3, r2, lsr #24
   84c50:	ea4f 2202 	mov.w	r2, r2, lsl #8
   84c54:	ea45 1511 	orr.w	r5, r5, r1, lsr #4
   84c58:	ea45 6510 	orr.w	r5, r5, r0, lsr #24
   84c5c:	ea4f 2600 	mov.w	r6, r0, lsl #8
   84c60:	f00e 4100 	and.w	r1, lr, #2147483648	; 0x80000000
   84c64:	429d      	cmp	r5, r3
   84c66:	bf08      	it	eq
   84c68:	4296      	cmpeq	r6, r2
   84c6a:	f144 04fd 	adc.w	r4, r4, #253	; 0xfd
   84c6e:	f504 7440 	add.w	r4, r4, #768	; 0x300
   84c72:	d202      	bcs.n	84c7a <__aeabi_ddiv+0x6e>
   84c74:	085b      	lsrs	r3, r3, #1
   84c76:	ea4f 0232 	mov.w	r2, r2, rrx
   84c7a:	1ab6      	subs	r6, r6, r2
   84c7c:	eb65 0503 	sbc.w	r5, r5, r3
   84c80:	085b      	lsrs	r3, r3, #1
   84c82:	ea4f 0232 	mov.w	r2, r2, rrx
   84c86:	f44f 1080 	mov.w	r0, #1048576	; 0x100000
   84c8a:	f44f 2c00 	mov.w	ip, #524288	; 0x80000
   84c8e:	ebb6 0e02 	subs.w	lr, r6, r2
   84c92:	eb75 0e03 	sbcs.w	lr, r5, r3
   84c96:	bf22      	ittt	cs
   84c98:	1ab6      	subcs	r6, r6, r2
   84c9a:	4675      	movcs	r5, lr
   84c9c:	ea40 000c 	orrcs.w	r0, r0, ip
   84ca0:	085b      	lsrs	r3, r3, #1
   84ca2:	ea4f 0232 	mov.w	r2, r2, rrx
   84ca6:	ebb6 0e02 	subs.w	lr, r6, r2
   84caa:	eb75 0e03 	sbcs.w	lr, r5, r3
   84cae:	bf22      	ittt	cs
   84cb0:	1ab6      	subcs	r6, r6, r2
   84cb2:	4675      	movcs	r5, lr
   84cb4:	ea40 005c 	orrcs.w	r0, r0, ip, lsr #1
   84cb8:	085b      	lsrs	r3, r3, #1
   84cba:	ea4f 0232 	mov.w	r2, r2, rrx
   84cbe:	ebb6 0e02 	subs.w	lr, r6, r2
   84cc2:	eb75 0e03 	sbcs.w	lr, r5, r3
   84cc6:	bf22      	ittt	cs
   84cc8:	1ab6      	subcs	r6, r6, r2
   84cca:	4675      	movcs	r5, lr
   84ccc:	ea40 009c 	orrcs.w	r0, r0, ip, lsr #2
   84cd0:	085b      	lsrs	r3, r3, #1
   84cd2:	ea4f 0232 	mov.w	r2, r2, rrx
   84cd6:	ebb6 0e02 	subs.w	lr, r6, r2
   84cda:	eb75 0e03 	sbcs.w	lr, r5, r3
   84cde:	bf22      	ittt	cs
   84ce0:	1ab6      	subcs	r6, r6, r2
   84ce2:	4675      	movcs	r5, lr
   84ce4:	ea40 00dc 	orrcs.w	r0, r0, ip, lsr #3
   84ce8:	ea55 0e06 	orrs.w	lr, r5, r6
   84cec:	d018      	beq.n	84d20 <__aeabi_ddiv+0x114>
   84cee:	ea4f 1505 	mov.w	r5, r5, lsl #4
   84cf2:	ea45 7516 	orr.w	r5, r5, r6, lsr #28
   84cf6:	ea4f 1606 	mov.w	r6, r6, lsl #4
   84cfa:	ea4f 03c3 	mov.w	r3, r3, lsl #3
   84cfe:	ea43 7352 	orr.w	r3, r3, r2, lsr #29
   84d02:	ea4f 02c2 	mov.w	r2, r2, lsl #3
   84d06:	ea5f 1c1c 	movs.w	ip, ip, lsr #4
   84d0a:	d1c0      	bne.n	84c8e <__aeabi_ddiv+0x82>
   84d0c:	f411 1f80 	tst.w	r1, #1048576	; 0x100000
   84d10:	d10b      	bne.n	84d2a <__aeabi_ddiv+0x11e>
   84d12:	ea41 0100 	orr.w	r1, r1, r0
   84d16:	f04f 0000 	mov.w	r0, #0
   84d1a:	f04f 4c00 	mov.w	ip, #2147483648	; 0x80000000
   84d1e:	e7b6      	b.n	84c8e <__aeabi_ddiv+0x82>
   84d20:	f411 1f80 	tst.w	r1, #1048576	; 0x100000
   84d24:	bf04      	itt	eq
   84d26:	4301      	orreq	r1, r0
   84d28:	2000      	moveq	r0, #0
   84d2a:	f1b4 0cfd 	subs.w	ip, r4, #253	; 0xfd
   84d2e:	bf88      	it	hi
   84d30:	f5bc 6fe0 	cmphi.w	ip, #1792	; 0x700
   84d34:	f63f aeaf 	bhi.w	84a96 <__aeabi_dmul+0xde>
   84d38:	ebb5 0c03 	subs.w	ip, r5, r3
   84d3c:	bf04      	itt	eq
   84d3e:	ebb6 0c02 	subseq.w	ip, r6, r2
   84d42:	ea5f 0c50 	movseq.w	ip, r0, lsr #1
   84d46:	f150 0000 	adcs.w	r0, r0, #0
   84d4a:	eb41 5104 	adc.w	r1, r1, r4, lsl #20
   84d4e:	bd70      	pop	{r4, r5, r6, pc}
   84d50:	f00e 4e00 	and.w	lr, lr, #2147483648	; 0x80000000
   84d54:	ea4e 3111 	orr.w	r1, lr, r1, lsr #12
   84d58:	eb14 045c 	adds.w	r4, r4, ip, lsr #1
   84d5c:	bfc2      	ittt	gt
   84d5e:	ebd4 050c 	rsbsgt	r5, r4, ip
   84d62:	ea41 5104 	orrgt.w	r1, r1, r4, lsl #20
   84d66:	bd70      	popgt	{r4, r5, r6, pc}
   84d68:	f441 1180 	orr.w	r1, r1, #1048576	; 0x100000
   84d6c:	f04f 0e00 	mov.w	lr, #0
   84d70:	3c01      	subs	r4, #1
   84d72:	e690      	b.n	84a96 <__aeabi_dmul+0xde>
   84d74:	ea45 0e06 	orr.w	lr, r5, r6
   84d78:	e68d      	b.n	84a96 <__aeabi_dmul+0xde>
   84d7a:	ea0c 5513 	and.w	r5, ip, r3, lsr #20
   84d7e:	ea94 0f0c 	teq	r4, ip
   84d82:	bf08      	it	eq
   84d84:	ea95 0f0c 	teqeq	r5, ip
   84d88:	f43f af3b 	beq.w	84c02 <__aeabi_dmul+0x24a>
   84d8c:	ea94 0f0c 	teq	r4, ip
   84d90:	d10a      	bne.n	84da8 <__aeabi_ddiv+0x19c>
   84d92:	ea50 3401 	orrs.w	r4, r0, r1, lsl #12
   84d96:	f47f af34 	bne.w	84c02 <__aeabi_dmul+0x24a>
   84d9a:	ea95 0f0c 	teq	r5, ip
   84d9e:	f47f af25 	bne.w	84bec <__aeabi_dmul+0x234>
   84da2:	4610      	mov	r0, r2
   84da4:	4619      	mov	r1, r3
   84da6:	e72c      	b.n	84c02 <__aeabi_dmul+0x24a>
   84da8:	ea95 0f0c 	teq	r5, ip
   84dac:	d106      	bne.n	84dbc <__aeabi_ddiv+0x1b0>
   84dae:	ea52 3503 	orrs.w	r5, r2, r3, lsl #12
   84db2:	f43f aefd 	beq.w	84bb0 <__aeabi_dmul+0x1f8>
   84db6:	4610      	mov	r0, r2
   84db8:	4619      	mov	r1, r3
   84dba:	e722      	b.n	84c02 <__aeabi_dmul+0x24a>
   84dbc:	ea50 0641 	orrs.w	r6, r0, r1, lsl #1
   84dc0:	bf18      	it	ne
   84dc2:	ea52 0643 	orrsne.w	r6, r2, r3, lsl #1
   84dc6:	f47f aec5 	bne.w	84b54 <__aeabi_dmul+0x19c>
   84dca:	ea50 0441 	orrs.w	r4, r0, r1, lsl #1
   84dce:	f47f af0d 	bne.w	84bec <__aeabi_dmul+0x234>
   84dd2:	ea52 0543 	orrs.w	r5, r2, r3, lsl #1
   84dd6:	f47f aeeb 	bne.w	84bb0 <__aeabi_dmul+0x1f8>
   84dda:	e712      	b.n	84c02 <__aeabi_dmul+0x24a>

00084ddc <__gedf2>:
   84ddc:	f04f 3cff 	mov.w	ip, #4294967295
   84de0:	e006      	b.n	84df0 <__cmpdf2+0x4>
   84de2:	bf00      	nop

00084de4 <__ledf2>:
   84de4:	f04f 0c01 	mov.w	ip, #1
   84de8:	e002      	b.n	84df0 <__cmpdf2+0x4>
   84dea:	bf00      	nop

00084dec <__cmpdf2>:
   84dec:	f04f 0c01 	mov.w	ip, #1
   84df0:	f84d cd04 	str.w	ip, [sp, #-4]!
   84df4:	ea4f 0c41 	mov.w	ip, r1, lsl #1
   84df8:	ea7f 5c6c 	mvns.w	ip, ip, asr #21
   84dfc:	ea4f 0c43 	mov.w	ip, r3, lsl #1
   84e00:	bf18      	it	ne
   84e02:	ea7f 5c6c 	mvnsne.w	ip, ip, asr #21
   84e06:	d01b      	beq.n	84e40 <__cmpdf2+0x54>
   84e08:	b001      	add	sp, #4
   84e0a:	ea50 0c41 	orrs.w	ip, r0, r1, lsl #1
   84e0e:	bf0c      	ite	eq
   84e10:	ea52 0c43 	orrseq.w	ip, r2, r3, lsl #1
   84e14:	ea91 0f03 	teqne	r1, r3
   84e18:	bf02      	ittt	eq
   84e1a:	ea90 0f02 	teqeq	r0, r2
   84e1e:	2000      	moveq	r0, #0
   84e20:	4770      	bxeq	lr
   84e22:	f110 0f00 	cmn.w	r0, #0
   84e26:	ea91 0f03 	teq	r1, r3
   84e2a:	bf58      	it	pl
   84e2c:	4299      	cmppl	r1, r3
   84e2e:	bf08      	it	eq
   84e30:	4290      	cmpeq	r0, r2
   84e32:	bf2c      	ite	cs
   84e34:	17d8      	asrcs	r0, r3, #31
   84e36:	ea6f 70e3 	mvncc.w	r0, r3, asr #31
   84e3a:	f040 0001 	orr.w	r0, r0, #1
   84e3e:	4770      	bx	lr
   84e40:	ea4f 0c41 	mov.w	ip, r1, lsl #1
   84e44:	ea7f 5c6c 	mvns.w	ip, ip, asr #21
   84e48:	d102      	bne.n	84e50 <__cmpdf2+0x64>
   84e4a:	ea50 3c01 	orrs.w	ip, r0, r1, lsl #12
   84e4e:	d107      	bne.n	84e60 <__cmpdf2+0x74>
   84e50:	ea4f 0c43 	mov.w	ip, r3, lsl #1
   84e54:	ea7f 5c6c 	mvns.w	ip, ip, asr #21
   84e58:	d1d6      	bne.n	84e08 <__cmpdf2+0x1c>
   84e5a:	ea52 3c03 	orrs.w	ip, r2, r3, lsl #12
   84e5e:	d0d3      	beq.n	84e08 <__cmpdf2+0x1c>
   84e60:	f85d 0b04 	ldr.w	r0, [sp], #4
   84e64:	4770      	bx	lr
   84e66:	bf00      	nop

00084e68 <__aeabi_cdrcmple>:
   84e68:	4684      	mov	ip, r0
   84e6a:	4610      	mov	r0, r2
   84e6c:	4662      	mov	r2, ip
   84e6e:	468c      	mov	ip, r1
   84e70:	4619      	mov	r1, r3
   84e72:	4663      	mov	r3, ip
   84e74:	e000      	b.n	84e78 <__aeabi_cdcmpeq>
   84e76:	bf00      	nop

00084e78 <__aeabi_cdcmpeq>:
   84e78:	b501      	push	{r0, lr}
   84e7a:	f7ff ffb7 	bl	84dec <__cmpdf2>
   84e7e:	2800      	cmp	r0, #0
   84e80:	bf48      	it	mi
   84e82:	f110 0f00 	cmnmi.w	r0, #0
   84e86:	bd01      	pop	{r0, pc}

00084e88 <__aeabi_dcmpeq>:
   84e88:	f84d ed08 	str.w	lr, [sp, #-8]!
   84e8c:	f7ff fff4 	bl	84e78 <__aeabi_cdcmpeq>
   84e90:	bf0c      	ite	eq
   84e92:	2001      	moveq	r0, #1
   84e94:	2000      	movne	r0, #0
   84e96:	f85d fb08 	ldr.w	pc, [sp], #8
   84e9a:	bf00      	nop

00084e9c <__aeabi_dcmplt>:
   84e9c:	f84d ed08 	str.w	lr, [sp, #-8]!
   84ea0:	f7ff ffea 	bl	84e78 <__aeabi_cdcmpeq>
   84ea4:	bf34      	ite	cc
   84ea6:	2001      	movcc	r0, #1
   84ea8:	2000      	movcs	r0, #0
   84eaa:	f85d fb08 	ldr.w	pc, [sp], #8
   84eae:	bf00      	nop

00084eb0 <__aeabi_dcmple>:
   84eb0:	f84d ed08 	str.w	lr, [sp, #-8]!
   84eb4:	f7ff ffe0 	bl	84e78 <__aeabi_cdcmpeq>
   84eb8:	bf94      	ite	ls
   84eba:	2001      	movls	r0, #1
   84ebc:	2000      	movhi	r0, #0
   84ebe:	f85d fb08 	ldr.w	pc, [sp], #8
   84ec2:	bf00      	nop

00084ec4 <__aeabi_dcmpge>:
   84ec4:	f84d ed08 	str.w	lr, [sp, #-8]!
   84ec8:	f7ff ffce 	bl	84e68 <__aeabi_cdrcmple>
   84ecc:	bf94      	ite	ls
   84ece:	2001      	movls	r0, #1
   84ed0:	2000      	movhi	r0, #0
   84ed2:	f85d fb08 	ldr.w	pc, [sp], #8
   84ed6:	bf00      	nop

00084ed8 <__aeabi_dcmpgt>:
   84ed8:	f84d ed08 	str.w	lr, [sp, #-8]!
   84edc:	f7ff ffc4 	bl	84e68 <__aeabi_cdrcmple>
   84ee0:	bf34      	ite	cc
   84ee2:	2001      	movcc	r0, #1
   84ee4:	2000      	movcs	r0, #0
   84ee6:	f85d fb08 	ldr.w	pc, [sp], #8
   84eea:	bf00      	nop

00084eec <__aeabi_d2iz>:
   84eec:	ea4f 0241 	mov.w	r2, r1, lsl #1
   84ef0:	f512 1200 	adds.w	r2, r2, #2097152	; 0x200000
   84ef4:	d215      	bcs.n	84f22 <__aeabi_d2iz+0x36>
   84ef6:	d511      	bpl.n	84f1c <__aeabi_d2iz+0x30>
   84ef8:	f46f 7378 	mvn.w	r3, #992	; 0x3e0
   84efc:	ebb3 5262 	subs.w	r2, r3, r2, asr #21
   84f00:	d912      	bls.n	84f28 <__aeabi_d2iz+0x3c>
   84f02:	ea4f 23c1 	mov.w	r3, r1, lsl #11
   84f06:	f043 4300 	orr.w	r3, r3, #2147483648	; 0x80000000
   84f0a:	ea43 5350 	orr.w	r3, r3, r0, lsr #21
   84f0e:	f011 4f00 	tst.w	r1, #2147483648	; 0x80000000
   84f12:	fa23 f002 	lsr.w	r0, r3, r2
   84f16:	bf18      	it	ne
   84f18:	4240      	negne	r0, r0
   84f1a:	4770      	bx	lr
   84f1c:	f04f 0000 	mov.w	r0, #0
   84f20:	4770      	bx	lr
   84f22:	ea50 3001 	orrs.w	r0, r0, r1, lsl #12
   84f26:	d105      	bne.n	84f34 <__aeabi_d2iz+0x48>
   84f28:	f011 4000 	ands.w	r0, r1, #2147483648	; 0x80000000
   84f2c:	bf08      	it	eq
   84f2e:	f06f 4000 	mvneq.w	r0, #2147483648	; 0x80000000
   84f32:	4770      	bx	lr
   84f34:	f04f 0000 	mov.w	r0, #0
   84f38:	4770      	bx	lr
   84f3a:	bf00      	nop

00084f3c <__aeabi_d2uiz>:
   84f3c:	004a      	lsls	r2, r1, #1
   84f3e:	d211      	bcs.n	84f64 <__aeabi_d2uiz+0x28>
   84f40:	f512 1200 	adds.w	r2, r2, #2097152	; 0x200000
   84f44:	d211      	bcs.n	84f6a <__aeabi_d2uiz+0x2e>
   84f46:	d50d      	bpl.n	84f64 <__aeabi_d2uiz+0x28>
   84f48:	f46f 7378 	mvn.w	r3, #992	; 0x3e0
   84f4c:	ebb3 5262 	subs.w	r2, r3, r2, asr #21
   84f50:	d40e      	bmi.n	84f70 <__aeabi_d2uiz+0x34>
   84f52:	ea4f 23c1 	mov.w	r3, r1, lsl #11
   84f56:	f043 4300 	orr.w	r3, r3, #2147483648	; 0x80000000
   84f5a:	ea43 5350 	orr.w	r3, r3, r0, lsr #21
   84f5e:	fa23 f002 	lsr.w	r0, r3, r2
   84f62:	4770      	bx	lr
   84f64:	f04f 0000 	mov.w	r0, #0
   84f68:	4770      	bx	lr
   84f6a:	ea50 3001 	orrs.w	r0, r0, r1, lsl #12
   84f6e:	d102      	bne.n	84f76 <__aeabi_d2uiz+0x3a>
   84f70:	f04f 30ff 	mov.w	r0, #4294967295
   84f74:	4770      	bx	lr
   84f76:	f04f 0000 	mov.w	r0, #0
   84f7a:	4770      	bx	lr

00084f7c <__errno>:
   84f7c:	4b01      	ldr	r3, [pc, #4]	; (84f84 <__errno+0x8>)
   84f7e:	6818      	ldr	r0, [r3, #0]
   84f80:	4770      	bx	lr
   84f82:	bf00      	nop
   84f84:	200705b0 	.word	0x200705b0

00084f88 <__libc_init_array>:
   84f88:	b570      	push	{r4, r5, r6, lr}
   84f8a:	4e0f      	ldr	r6, [pc, #60]	; (84fc8 <__libc_init_array+0x40>)
   84f8c:	4d0f      	ldr	r5, [pc, #60]	; (84fcc <__libc_init_array+0x44>)
   84f8e:	1b76      	subs	r6, r6, r5
   84f90:	10b6      	asrs	r6, r6, #2
   84f92:	d007      	beq.n	84fa4 <__libc_init_array+0x1c>
   84f94:	3d04      	subs	r5, #4
   84f96:	2400      	movs	r4, #0
   84f98:	3401      	adds	r4, #1
   84f9a:	f855 3f04 	ldr.w	r3, [r5, #4]!
   84f9e:	4798      	blx	r3
   84fa0:	42a6      	cmp	r6, r4
   84fa2:	d1f9      	bne.n	84f98 <__libc_init_array+0x10>
   84fa4:	4e0a      	ldr	r6, [pc, #40]	; (84fd0 <__libc_init_array+0x48>)
   84fa6:	4d0b      	ldr	r5, [pc, #44]	; (84fd4 <__libc_init_array+0x4c>)
   84fa8:	f003 faa2 	bl	884f0 <_init>
   84fac:	1b76      	subs	r6, r6, r5
   84fae:	10b6      	asrs	r6, r6, #2
   84fb0:	d008      	beq.n	84fc4 <__libc_init_array+0x3c>
   84fb2:	3d04      	subs	r5, #4
   84fb4:	2400      	movs	r4, #0
   84fb6:	3401      	adds	r4, #1
   84fb8:	f855 3f04 	ldr.w	r3, [r5, #4]!
   84fbc:	4798      	blx	r3
   84fbe:	42a6      	cmp	r6, r4
   84fc0:	d1f9      	bne.n	84fb6 <__libc_init_array+0x2e>
   84fc2:	bd70      	pop	{r4, r5, r6, pc}
   84fc4:	bd70      	pop	{r4, r5, r6, pc}
   84fc6:	bf00      	nop
   84fc8:	000884fc 	.word	0x000884fc
   84fcc:	000884fc 	.word	0x000884fc
   84fd0:	00088504 	.word	0x00088504
   84fd4:	000884fc 	.word	0x000884fc

00084fd8 <iprintf>:
   84fd8:	b40f      	push	{r0, r1, r2, r3}
   84fda:	b510      	push	{r4, lr}
   84fdc:	4b07      	ldr	r3, [pc, #28]	; (84ffc <iprintf+0x24>)
   84fde:	b082      	sub	sp, #8
   84fe0:	ac04      	add	r4, sp, #16
   84fe2:	f854 2b04 	ldr.w	r2, [r4], #4
   84fe6:	6818      	ldr	r0, [r3, #0]
   84fe8:	4623      	mov	r3, r4
   84fea:	6881      	ldr	r1, [r0, #8]
   84fec:	9401      	str	r4, [sp, #4]
   84fee:	f000 f9ed 	bl	853cc <_vfiprintf_r>
   84ff2:	b002      	add	sp, #8
   84ff4:	e8bd 4010 	ldmia.w	sp!, {r4, lr}
   84ff8:	b004      	add	sp, #16
   84ffa:	4770      	bx	lr
   84ffc:	200705b0 	.word	0x200705b0

00085000 <memcpy>:
   85000:	4684      	mov	ip, r0
   85002:	ea41 0300 	orr.w	r3, r1, r0
   85006:	f013 0303 	ands.w	r3, r3, #3
   8500a:	d149      	bne.n	850a0 <memcpy+0xa0>
   8500c:	3a40      	subs	r2, #64	; 0x40
   8500e:	d323      	bcc.n	85058 <memcpy+0x58>
   85010:	680b      	ldr	r3, [r1, #0]
   85012:	6003      	str	r3, [r0, #0]
   85014:	684b      	ldr	r3, [r1, #4]
   85016:	6043      	str	r3, [r0, #4]
   85018:	688b      	ldr	r3, [r1, #8]
   8501a:	6083      	str	r3, [r0, #8]
   8501c:	68cb      	ldr	r3, [r1, #12]
   8501e:	60c3      	str	r3, [r0, #12]
   85020:	690b      	ldr	r3, [r1, #16]
   85022:	6103      	str	r3, [r0, #16]
   85024:	694b      	ldr	r3, [r1, #20]
   85026:	6143      	str	r3, [r0, #20]
   85028:	698b      	ldr	r3, [r1, #24]
   8502a:	6183      	str	r3, [r0, #24]
   8502c:	69cb      	ldr	r3, [r1, #28]
   8502e:	61c3      	str	r3, [r0, #28]
   85030:	6a0b      	ldr	r3, [r1, #32]
   85032:	6203      	str	r3, [r0, #32]
   85034:	6a4b      	ldr	r3, [r1, #36]	; 0x24
   85036:	6243      	str	r3, [r0, #36]	; 0x24
   85038:	6a8b      	ldr	r3, [r1, #40]	; 0x28
   8503a:	6283      	str	r3, [r0, #40]	; 0x28
   8503c:	6acb      	ldr	r3, [r1, #44]	; 0x2c
   8503e:	62c3      	str	r3, [r0, #44]	; 0x2c
   85040:	6b0b      	ldr	r3, [r1, #48]	; 0x30
   85042:	6303      	str	r3, [r0, #48]	; 0x30
   85044:	6b4b      	ldr	r3, [r1, #52]	; 0x34
   85046:	6343      	str	r3, [r0, #52]	; 0x34
   85048:	6b8b      	ldr	r3, [r1, #56]	; 0x38
   8504a:	6383      	str	r3, [r0, #56]	; 0x38
   8504c:	6bcb      	ldr	r3, [r1, #60]	; 0x3c
   8504e:	63c3      	str	r3, [r0, #60]	; 0x3c
   85050:	3040      	adds	r0, #64	; 0x40
   85052:	3140      	adds	r1, #64	; 0x40
   85054:	3a40      	subs	r2, #64	; 0x40
   85056:	d2db      	bcs.n	85010 <memcpy+0x10>
   85058:	3230      	adds	r2, #48	; 0x30
   8505a:	d30b      	bcc.n	85074 <memcpy+0x74>
   8505c:	680b      	ldr	r3, [r1, #0]
   8505e:	6003      	str	r3, [r0, #0]
   85060:	684b      	ldr	r3, [r1, #4]
   85062:	6043      	str	r3, [r0, #4]
   85064:	688b      	ldr	r3, [r1, #8]
   85066:	6083      	str	r3, [r0, #8]
   85068:	68cb      	ldr	r3, [r1, #12]
   8506a:	60c3      	str	r3, [r0, #12]
   8506c:	3010      	adds	r0, #16
   8506e:	3110      	adds	r1, #16
   85070:	3a10      	subs	r2, #16
   85072:	d2f3      	bcs.n	8505c <memcpy+0x5c>
   85074:	320c      	adds	r2, #12
   85076:	d305      	bcc.n	85084 <memcpy+0x84>
   85078:	f851 3b04 	ldr.w	r3, [r1], #4
   8507c:	f840 3b04 	str.w	r3, [r0], #4
   85080:	3a04      	subs	r2, #4
   85082:	d2f9      	bcs.n	85078 <memcpy+0x78>
   85084:	3204      	adds	r2, #4
   85086:	d008      	beq.n	8509a <memcpy+0x9a>
   85088:	07d2      	lsls	r2, r2, #31
   8508a:	bf1c      	itt	ne
   8508c:	f811 3b01 	ldrbne.w	r3, [r1], #1
   85090:	f800 3b01 	strbne.w	r3, [r0], #1
   85094:	d301      	bcc.n	8509a <memcpy+0x9a>
   85096:	880b      	ldrh	r3, [r1, #0]
   85098:	8003      	strh	r3, [r0, #0]
   8509a:	4660      	mov	r0, ip
   8509c:	4770      	bx	lr
   8509e:	bf00      	nop
   850a0:	2a08      	cmp	r2, #8
   850a2:	d313      	bcc.n	850cc <memcpy+0xcc>
   850a4:	078b      	lsls	r3, r1, #30
   850a6:	d0b1      	beq.n	8500c <memcpy+0xc>
   850a8:	f010 0303 	ands.w	r3, r0, #3
   850ac:	d0ae      	beq.n	8500c <memcpy+0xc>
   850ae:	f1c3 0304 	rsb	r3, r3, #4
   850b2:	1ad2      	subs	r2, r2, r3
   850b4:	07db      	lsls	r3, r3, #31
   850b6:	bf1c      	itt	ne
   850b8:	f811 3b01 	ldrbne.w	r3, [r1], #1
   850bc:	f800 3b01 	strbne.w	r3, [r0], #1
   850c0:	d3a4      	bcc.n	8500c <memcpy+0xc>
   850c2:	f831 3b02 	ldrh.w	r3, [r1], #2
   850c6:	f820 3b02 	strh.w	r3, [r0], #2
   850ca:	e79f      	b.n	8500c <memcpy+0xc>
   850cc:	3a04      	subs	r2, #4
   850ce:	d3d9      	bcc.n	85084 <memcpy+0x84>
   850d0:	3a01      	subs	r2, #1
   850d2:	f811 3b01 	ldrb.w	r3, [r1], #1
   850d6:	f800 3b01 	strb.w	r3, [r0], #1
   850da:	d2f9      	bcs.n	850d0 <memcpy+0xd0>
   850dc:	780b      	ldrb	r3, [r1, #0]
   850de:	7003      	strb	r3, [r0, #0]
   850e0:	784b      	ldrb	r3, [r1, #1]
   850e2:	7043      	strb	r3, [r0, #1]
   850e4:	788b      	ldrb	r3, [r1, #2]
   850e6:	7083      	strb	r3, [r0, #2]
   850e8:	4660      	mov	r0, ip
   850ea:	4770      	bx	lr

000850ec <memset>:
   850ec:	b4f0      	push	{r4, r5, r6, r7}
   850ee:	0784      	lsls	r4, r0, #30
   850f0:	d043      	beq.n	8517a <memset+0x8e>
   850f2:	1e54      	subs	r4, r2, #1
   850f4:	2a00      	cmp	r2, #0
   850f6:	d03e      	beq.n	85176 <memset+0x8a>
   850f8:	b2cd      	uxtb	r5, r1
   850fa:	4603      	mov	r3, r0
   850fc:	e003      	b.n	85106 <memset+0x1a>
   850fe:	1e62      	subs	r2, r4, #1
   85100:	2c00      	cmp	r4, #0
   85102:	d038      	beq.n	85176 <memset+0x8a>
   85104:	4614      	mov	r4, r2
   85106:	f803 5b01 	strb.w	r5, [r3], #1
   8510a:	079a      	lsls	r2, r3, #30
   8510c:	d1f7      	bne.n	850fe <memset+0x12>
   8510e:	2c03      	cmp	r4, #3
   85110:	d92a      	bls.n	85168 <memset+0x7c>
   85112:	b2cd      	uxtb	r5, r1
   85114:	ea45 2505 	orr.w	r5, r5, r5, lsl #8
   85118:	2c0f      	cmp	r4, #15
   8511a:	ea45 4505 	orr.w	r5, r5, r5, lsl #16
   8511e:	d915      	bls.n	8514c <memset+0x60>
   85120:	f1a4 0710 	sub.w	r7, r4, #16
   85124:	093f      	lsrs	r7, r7, #4
   85126:	f103 0610 	add.w	r6, r3, #16
   8512a:	eb06 1607 	add.w	r6, r6, r7, lsl #4
   8512e:	461a      	mov	r2, r3
   85130:	6015      	str	r5, [r2, #0]
   85132:	6055      	str	r5, [r2, #4]
   85134:	6095      	str	r5, [r2, #8]
   85136:	60d5      	str	r5, [r2, #12]
   85138:	3210      	adds	r2, #16
   8513a:	42b2      	cmp	r2, r6
   8513c:	d1f8      	bne.n	85130 <memset+0x44>
   8513e:	f004 040f 	and.w	r4, r4, #15
   85142:	3701      	adds	r7, #1
   85144:	2c03      	cmp	r4, #3
   85146:	eb03 1307 	add.w	r3, r3, r7, lsl #4
   8514a:	d90d      	bls.n	85168 <memset+0x7c>
   8514c:	461e      	mov	r6, r3
   8514e:	4622      	mov	r2, r4
   85150:	3a04      	subs	r2, #4
   85152:	2a03      	cmp	r2, #3
   85154:	f846 5b04 	str.w	r5, [r6], #4
   85158:	d8fa      	bhi.n	85150 <memset+0x64>
   8515a:	1f22      	subs	r2, r4, #4
   8515c:	f022 0203 	bic.w	r2, r2, #3
   85160:	3204      	adds	r2, #4
   85162:	4413      	add	r3, r2
   85164:	f004 0403 	and.w	r4, r4, #3
   85168:	b12c      	cbz	r4, 85176 <memset+0x8a>
   8516a:	b2c9      	uxtb	r1, r1
   8516c:	441c      	add	r4, r3
   8516e:	f803 1b01 	strb.w	r1, [r3], #1
   85172:	42a3      	cmp	r3, r4
   85174:	d1fb      	bne.n	8516e <memset+0x82>
   85176:	bcf0      	pop	{r4, r5, r6, r7}
   85178:	4770      	bx	lr
   8517a:	4614      	mov	r4, r2
   8517c:	4603      	mov	r3, r0
   8517e:	e7c6      	b.n	8510e <memset+0x22>

00085180 <setbuf>:
   85180:	2900      	cmp	r1, #0
   85182:	bf0c      	ite	eq
   85184:	2202      	moveq	r2, #2
   85186:	2200      	movne	r2, #0
   85188:	f44f 6380 	mov.w	r3, #1024	; 0x400
   8518c:	f000 b800 	b.w	85190 <setvbuf>

00085190 <setvbuf>:
   85190:	e92d 41f0 	stmdb	sp!, {r4, r5, r6, r7, r8, lr}
   85194:	4d3c      	ldr	r5, [pc, #240]	; (85288 <setvbuf+0xf8>)
   85196:	4604      	mov	r4, r0
   85198:	682d      	ldr	r5, [r5, #0]
   8519a:	4688      	mov	r8, r1
   8519c:	4616      	mov	r6, r2
   8519e:	461f      	mov	r7, r3
   851a0:	b115      	cbz	r5, 851a8 <setvbuf+0x18>
   851a2:	6bab      	ldr	r3, [r5, #56]	; 0x38
   851a4:	2b00      	cmp	r3, #0
   851a6:	d04f      	beq.n	85248 <setvbuf+0xb8>
   851a8:	2e02      	cmp	r6, #2
   851aa:	d830      	bhi.n	8520e <setvbuf+0x7e>
   851ac:	2f00      	cmp	r7, #0
   851ae:	db2e      	blt.n	8520e <setvbuf+0x7e>
   851b0:	4628      	mov	r0, r5
   851b2:	4621      	mov	r1, r4
   851b4:	f001 f888 	bl	862c8 <_fflush_r>
   851b8:	89a3      	ldrh	r3, [r4, #12]
   851ba:	2200      	movs	r2, #0
   851bc:	6062      	str	r2, [r4, #4]
   851be:	61a2      	str	r2, [r4, #24]
   851c0:	061a      	lsls	r2, r3, #24
   851c2:	d428      	bmi.n	85216 <setvbuf+0x86>
   851c4:	f023 0383 	bic.w	r3, r3, #131	; 0x83
   851c8:	b29b      	uxth	r3, r3
   851ca:	2e02      	cmp	r6, #2
   851cc:	81a3      	strh	r3, [r4, #12]
   851ce:	d02d      	beq.n	8522c <setvbuf+0x9c>
   851d0:	f1b8 0f00 	cmp.w	r8, #0
   851d4:	d03c      	beq.n	85250 <setvbuf+0xc0>
   851d6:	2e01      	cmp	r6, #1
   851d8:	d013      	beq.n	85202 <setvbuf+0x72>
   851da:	b29b      	uxth	r3, r3
   851dc:	f003 0008 	and.w	r0, r3, #8
   851e0:	4a2a      	ldr	r2, [pc, #168]	; (8528c <setvbuf+0xfc>)
   851e2:	b280      	uxth	r0, r0
   851e4:	63ea      	str	r2, [r5, #60]	; 0x3c
   851e6:	f8c4 8000 	str.w	r8, [r4]
   851ea:	f8c4 8010 	str.w	r8, [r4, #16]
   851ee:	6167      	str	r7, [r4, #20]
   851f0:	b178      	cbz	r0, 85212 <setvbuf+0x82>
   851f2:	f013 0f03 	tst.w	r3, #3
   851f6:	bf18      	it	ne
   851f8:	2700      	movne	r7, #0
   851fa:	60a7      	str	r7, [r4, #8]
   851fc:	2000      	movs	r0, #0
   851fe:	e8bd 81f0 	ldmia.w	sp!, {r4, r5, r6, r7, r8, pc}
   85202:	f043 0301 	orr.w	r3, r3, #1
   85206:	427a      	negs	r2, r7
   85208:	81a3      	strh	r3, [r4, #12]
   8520a:	61a2      	str	r2, [r4, #24]
   8520c:	e7e5      	b.n	851da <setvbuf+0x4a>
   8520e:	f04f 30ff 	mov.w	r0, #4294967295
   85212:	e8bd 81f0 	ldmia.w	sp!, {r4, r5, r6, r7, r8, pc}
   85216:	4628      	mov	r0, r5
   85218:	6921      	ldr	r1, [r4, #16]
   8521a:	f001 f9b5 	bl	86588 <_free_r>
   8521e:	89a3      	ldrh	r3, [r4, #12]
   85220:	2e02      	cmp	r6, #2
   85222:	f023 0383 	bic.w	r3, r3, #131	; 0x83
   85226:	b29b      	uxth	r3, r3
   85228:	81a3      	strh	r3, [r4, #12]
   8522a:	d1d1      	bne.n	851d0 <setvbuf+0x40>
   8522c:	2000      	movs	r0, #0
   8522e:	f104 0243 	add.w	r2, r4, #67	; 0x43
   85232:	f043 0302 	orr.w	r3, r3, #2
   85236:	2500      	movs	r5, #0
   85238:	2101      	movs	r1, #1
   8523a:	81a3      	strh	r3, [r4, #12]
   8523c:	60a5      	str	r5, [r4, #8]
   8523e:	6022      	str	r2, [r4, #0]
   85240:	6122      	str	r2, [r4, #16]
   85242:	6161      	str	r1, [r4, #20]
   85244:	e8bd 81f0 	ldmia.w	sp!, {r4, r5, r6, r7, r8, pc}
   85248:	4628      	mov	r0, r5
   8524a:	f001 f859 	bl	86300 <__sinit>
   8524e:	e7ab      	b.n	851a8 <setvbuf+0x18>
   85250:	2f00      	cmp	r7, #0
   85252:	bf08      	it	eq
   85254:	f44f 6780 	moveq.w	r7, #1024	; 0x400
   85258:	4638      	mov	r0, r7
   8525a:	f001 fc8b 	bl	86b74 <malloc>
   8525e:	4680      	mov	r8, r0
   85260:	b128      	cbz	r0, 8526e <setvbuf+0xde>
   85262:	89a3      	ldrh	r3, [r4, #12]
   85264:	f043 0380 	orr.w	r3, r3, #128	; 0x80
   85268:	b29b      	uxth	r3, r3
   8526a:	81a3      	strh	r3, [r4, #12]
   8526c:	e7b3      	b.n	851d6 <setvbuf+0x46>
   8526e:	f44f 6080 	mov.w	r0, #1024	; 0x400
   85272:	f001 fc7f 	bl	86b74 <malloc>
   85276:	4680      	mov	r8, r0
   85278:	b918      	cbnz	r0, 85282 <setvbuf+0xf2>
   8527a:	89a3      	ldrh	r3, [r4, #12]
   8527c:	f04f 30ff 	mov.w	r0, #4294967295
   85280:	e7d5      	b.n	8522e <setvbuf+0x9e>
   85282:	f44f 6780 	mov.w	r7, #1024	; 0x400
   85286:	e7ec      	b.n	85262 <setvbuf+0xd2>
   85288:	200705b0 	.word	0x200705b0
   8528c:	000862f5 	.word	0x000862f5

00085290 <strlen>:
   85290:	f020 0103 	bic.w	r1, r0, #3
   85294:	f010 0003 	ands.w	r0, r0, #3
   85298:	f1c0 0000 	rsb	r0, r0, #0
   8529c:	f851 3b04 	ldr.w	r3, [r1], #4
   852a0:	f100 0c04 	add.w	ip, r0, #4
   852a4:	ea4f 0ccc 	mov.w	ip, ip, lsl #3
   852a8:	f06f 0200 	mvn.w	r2, #0
   852ac:	bf1c      	itt	ne
   852ae:	fa22 f20c 	lsrne.w	r2, r2, ip
   852b2:	4313      	orrne	r3, r2
   852b4:	f04f 0c01 	mov.w	ip, #1
   852b8:	ea4c 2c0c 	orr.w	ip, ip, ip, lsl #8
   852bc:	ea4c 4c0c 	orr.w	ip, ip, ip, lsl #16
   852c0:	eba3 020c 	sub.w	r2, r3, ip
   852c4:	ea22 0203 	bic.w	r2, r2, r3
   852c8:	ea12 12cc 	ands.w	r2, r2, ip, lsl #7
   852cc:	bf04      	itt	eq
   852ce:	f851 3b04 	ldreq.w	r3, [r1], #4
   852d2:	3004      	addeq	r0, #4
   852d4:	d0f4      	beq.n	852c0 <strlen+0x30>
   852d6:	f013 0fff 	tst.w	r3, #255	; 0xff
   852da:	bf1f      	itttt	ne
   852dc:	3001      	addne	r0, #1
   852de:	f413 4f7f 	tstne.w	r3, #65280	; 0xff00
   852e2:	3001      	addne	r0, #1
   852e4:	f413 0f7f 	tstne.w	r3, #16711680	; 0xff0000
   852e8:	bf18      	it	ne
   852ea:	3001      	addne	r0, #1
   852ec:	4770      	bx	lr
   852ee:	bf00      	nop

000852f0 <strncpy>:
   852f0:	ea40 0301 	orr.w	r3, r0, r1
   852f4:	079b      	lsls	r3, r3, #30
   852f6:	b470      	push	{r4, r5, r6}
   852f8:	d12a      	bne.n	85350 <strncpy+0x60>
   852fa:	2a03      	cmp	r2, #3
   852fc:	d928      	bls.n	85350 <strncpy+0x60>
   852fe:	460c      	mov	r4, r1
   85300:	4603      	mov	r3, r0
   85302:	4621      	mov	r1, r4
   85304:	f854 5b04 	ldr.w	r5, [r4], #4
   85308:	f1a5 3601 	sub.w	r6, r5, #16843009	; 0x1010101
   8530c:	ea26 0605 	bic.w	r6, r6, r5
   85310:	f016 3f80 	tst.w	r6, #2155905152	; 0x80808080
   85314:	d105      	bne.n	85322 <strncpy+0x32>
   85316:	3a04      	subs	r2, #4
   85318:	2a03      	cmp	r2, #3
   8531a:	f843 5b04 	str.w	r5, [r3], #4
   8531e:	4621      	mov	r1, r4
   85320:	d8ef      	bhi.n	85302 <strncpy+0x12>
   85322:	b19a      	cbz	r2, 8534c <strncpy+0x5c>
   85324:	780c      	ldrb	r4, [r1, #0]
   85326:	3a01      	subs	r2, #1
   85328:	701c      	strb	r4, [r3, #0]
   8532a:	3301      	adds	r3, #1
   8532c:	b13c      	cbz	r4, 8533e <strncpy+0x4e>
   8532e:	b16a      	cbz	r2, 8534c <strncpy+0x5c>
   85330:	f811 4f01 	ldrb.w	r4, [r1, #1]!
   85334:	3a01      	subs	r2, #1
   85336:	f803 4b01 	strb.w	r4, [r3], #1
   8533a:	2c00      	cmp	r4, #0
   8533c:	d1f7      	bne.n	8532e <strncpy+0x3e>
   8533e:	b12a      	cbz	r2, 8534c <strncpy+0x5c>
   85340:	441a      	add	r2, r3
   85342:	2100      	movs	r1, #0
   85344:	f803 1b01 	strb.w	r1, [r3], #1
   85348:	4293      	cmp	r3, r2
   8534a:	d1fb      	bne.n	85344 <strncpy+0x54>
   8534c:	bc70      	pop	{r4, r5, r6}
   8534e:	4770      	bx	lr
   85350:	4603      	mov	r3, r0
   85352:	e7e6      	b.n	85322 <strncpy+0x32>

00085354 <__sprint_r.part.0>:
   85354:	6e4b      	ldr	r3, [r1, #100]	; 0x64
   85356:	e92d 47f0 	stmdb	sp!, {r4, r5, r6, r7, r8, r9, sl, lr}
   8535a:	049c      	lsls	r4, r3, #18
   8535c:	460e      	mov	r6, r1
   8535e:	4680      	mov	r8, r0
   85360:	4691      	mov	r9, r2
   85362:	d52a      	bpl.n	853ba <__sprint_r.part.0+0x66>
   85364:	6893      	ldr	r3, [r2, #8]
   85366:	6812      	ldr	r2, [r2, #0]
   85368:	f102 0a08 	add.w	sl, r2, #8
   8536c:	b31b      	cbz	r3, 853b6 <__sprint_r.part.0+0x62>
   8536e:	e91a 00a0 	ldmdb	sl, {r5, r7}
   85372:	08bf      	lsrs	r7, r7, #2
   85374:	d017      	beq.n	853a6 <__sprint_r.part.0+0x52>
   85376:	3d04      	subs	r5, #4
   85378:	2400      	movs	r4, #0
   8537a:	e001      	b.n	85380 <__sprint_r.part.0+0x2c>
   8537c:	42a7      	cmp	r7, r4
   8537e:	d010      	beq.n	853a2 <__sprint_r.part.0+0x4e>
   85380:	4640      	mov	r0, r8
   85382:	f855 1f04 	ldr.w	r1, [r5, #4]!
   85386:	4632      	mov	r2, r6
   85388:	f001 f850 	bl	8642c <_fputwc_r>
   8538c:	1c43      	adds	r3, r0, #1
   8538e:	f104 0401 	add.w	r4, r4, #1
   85392:	d1f3      	bne.n	8537c <__sprint_r.part.0+0x28>
   85394:	2300      	movs	r3, #0
   85396:	f8c9 3008 	str.w	r3, [r9, #8]
   8539a:	f8c9 3004 	str.w	r3, [r9, #4]
   8539e:	e8bd 87f0 	ldmia.w	sp!, {r4, r5, r6, r7, r8, r9, sl, pc}
   853a2:	f8d9 3008 	ldr.w	r3, [r9, #8]
   853a6:	eba3 0387 	sub.w	r3, r3, r7, lsl #2
   853aa:	f8c9 3008 	str.w	r3, [r9, #8]
   853ae:	f10a 0a08 	add.w	sl, sl, #8
   853b2:	2b00      	cmp	r3, #0
   853b4:	d1db      	bne.n	8536e <__sprint_r.part.0+0x1a>
   853b6:	2000      	movs	r0, #0
   853b8:	e7ec      	b.n	85394 <__sprint_r.part.0+0x40>
   853ba:	f001 f9b1 	bl	86720 <__sfvwrite_r>
   853be:	2300      	movs	r3, #0
   853c0:	f8c9 3008 	str.w	r3, [r9, #8]
   853c4:	f8c9 3004 	str.w	r3, [r9, #4]
   853c8:	e8bd 87f0 	ldmia.w	sp!, {r4, r5, r6, r7, r8, r9, sl, pc}

000853cc <_vfiprintf_r>:
   853cc:	e92d 4ff0 	stmdb	sp!, {r4, r5, r6, r7, r8, r9, sl, fp, lr}
   853d0:	b0b1      	sub	sp, #196	; 0xc4
   853d2:	461c      	mov	r4, r3
   853d4:	9102      	str	r1, [sp, #8]
   853d6:	4690      	mov	r8, r2
   853d8:	9308      	str	r3, [sp, #32]
   853da:	9006      	str	r0, [sp, #24]
   853dc:	b118      	cbz	r0, 853e6 <_vfiprintf_r+0x1a>
   853de:	6b83      	ldr	r3, [r0, #56]	; 0x38
   853e0:	2b00      	cmp	r3, #0
   853e2:	f000 80e8 	beq.w	855b6 <_vfiprintf_r+0x1ea>
   853e6:	9d02      	ldr	r5, [sp, #8]
   853e8:	89ab      	ldrh	r3, [r5, #12]
   853ea:	b29a      	uxth	r2, r3
   853ec:	0490      	lsls	r0, r2, #18
   853ee:	d407      	bmi.n	85400 <_vfiprintf_r+0x34>
   853f0:	6e6a      	ldr	r2, [r5, #100]	; 0x64
   853f2:	f443 5300 	orr.w	r3, r3, #8192	; 0x2000
   853f6:	f422 5100 	bic.w	r1, r2, #8192	; 0x2000
   853fa:	81ab      	strh	r3, [r5, #12]
   853fc:	b29a      	uxth	r2, r3
   853fe:	6669      	str	r1, [r5, #100]	; 0x64
   85400:	0711      	lsls	r1, r2, #28
   85402:	f140 80b7 	bpl.w	85574 <_vfiprintf_r+0x1a8>
   85406:	f8dd b008 	ldr.w	fp, [sp, #8]
   8540a:	f8db 3010 	ldr.w	r3, [fp, #16]
   8540e:	2b00      	cmp	r3, #0
   85410:	f000 80b0 	beq.w	85574 <_vfiprintf_r+0x1a8>
   85414:	f002 021a 	and.w	r2, r2, #26
   85418:	2a0a      	cmp	r2, #10
   8541a:	f000 80b7 	beq.w	8558c <_vfiprintf_r+0x1c0>
   8541e:	2300      	movs	r3, #0
   85420:	f10d 0980 	add.w	r9, sp, #128	; 0x80
   85424:	930a      	str	r3, [sp, #40]	; 0x28
   85426:	9315      	str	r3, [sp, #84]	; 0x54
   85428:	9314      	str	r3, [sp, #80]	; 0x50
   8542a:	9309      	str	r3, [sp, #36]	; 0x24
   8542c:	f8cd 904c 	str.w	r9, [sp, #76]	; 0x4c
   85430:	464e      	mov	r6, r9
   85432:	f898 3000 	ldrb.w	r3, [r8]
   85436:	2b00      	cmp	r3, #0
   85438:	f000 84c8 	beq.w	85dcc <_vfiprintf_r+0xa00>
   8543c:	2b25      	cmp	r3, #37	; 0x25
   8543e:	f000 84c5 	beq.w	85dcc <_vfiprintf_r+0xa00>
   85442:	f108 0201 	add.w	r2, r8, #1
   85446:	e001      	b.n	8544c <_vfiprintf_r+0x80>
   85448:	2b25      	cmp	r3, #37	; 0x25
   8544a:	d004      	beq.n	85456 <_vfiprintf_r+0x8a>
   8544c:	7813      	ldrb	r3, [r2, #0]
   8544e:	4614      	mov	r4, r2
   85450:	3201      	adds	r2, #1
   85452:	2b00      	cmp	r3, #0
   85454:	d1f8      	bne.n	85448 <_vfiprintf_r+0x7c>
   85456:	ebc8 0504 	rsb	r5, r8, r4
   8545a:	b195      	cbz	r5, 85482 <_vfiprintf_r+0xb6>
   8545c:	9b14      	ldr	r3, [sp, #80]	; 0x50
   8545e:	9a15      	ldr	r2, [sp, #84]	; 0x54
   85460:	3301      	adds	r3, #1
   85462:	442a      	add	r2, r5
   85464:	2b07      	cmp	r3, #7
   85466:	f8c6 8000 	str.w	r8, [r6]
   8546a:	6075      	str	r5, [r6, #4]
   8546c:	9215      	str	r2, [sp, #84]	; 0x54
   8546e:	9314      	str	r3, [sp, #80]	; 0x50
   85470:	dd7b      	ble.n	8556a <_vfiprintf_r+0x19e>
   85472:	2a00      	cmp	r2, #0
   85474:	f040 84d5 	bne.w	85e22 <_vfiprintf_r+0xa56>
   85478:	9809      	ldr	r0, [sp, #36]	; 0x24
   8547a:	9214      	str	r2, [sp, #80]	; 0x50
   8547c:	4428      	add	r0, r5
   8547e:	464e      	mov	r6, r9
   85480:	9009      	str	r0, [sp, #36]	; 0x24
   85482:	7823      	ldrb	r3, [r4, #0]
   85484:	2b00      	cmp	r3, #0
   85486:	f000 83ed 	beq.w	85c64 <_vfiprintf_r+0x898>
   8548a:	2100      	movs	r1, #0
   8548c:	f04f 0200 	mov.w	r2, #0
   85490:	f04f 3cff 	mov.w	ip, #4294967295
   85494:	7863      	ldrb	r3, [r4, #1]
   85496:	f88d 2047 	strb.w	r2, [sp, #71]	; 0x47
   8549a:	9104      	str	r1, [sp, #16]
   8549c:	468a      	mov	sl, r1
   8549e:	f104 0801 	add.w	r8, r4, #1
   854a2:	4608      	mov	r0, r1
   854a4:	4665      	mov	r5, ip
   854a6:	f108 0801 	add.w	r8, r8, #1
   854aa:	f1a3 0220 	sub.w	r2, r3, #32
   854ae:	2a58      	cmp	r2, #88	; 0x58
   854b0:	f200 82d9 	bhi.w	85a66 <_vfiprintf_r+0x69a>
   854b4:	e8df f012 	tbh	[pc, r2, lsl #1]
   854b8:	02d702cb 	.word	0x02d702cb
   854bc:	02d202d7 	.word	0x02d202d7
   854c0:	02d702d7 	.word	0x02d702d7
   854c4:	02d702d7 	.word	0x02d702d7
   854c8:	02d702d7 	.word	0x02d702d7
   854cc:	028f0282 	.word	0x028f0282
   854d0:	008402d7 	.word	0x008402d7
   854d4:	02d70293 	.word	0x02d70293
   854d8:	0196012b 	.word	0x0196012b
   854dc:	01960196 	.word	0x01960196
   854e0:	01960196 	.word	0x01960196
   854e4:	01960196 	.word	0x01960196
   854e8:	01960196 	.word	0x01960196
   854ec:	02d702d7 	.word	0x02d702d7
   854f0:	02d702d7 	.word	0x02d702d7
   854f4:	02d702d7 	.word	0x02d702d7
   854f8:	02d702d7 	.word	0x02d702d7
   854fc:	02d702d7 	.word	0x02d702d7
   85500:	02d70130 	.word	0x02d70130
   85504:	02d702d7 	.word	0x02d702d7
   85508:	02d702d7 	.word	0x02d702d7
   8550c:	02d702d7 	.word	0x02d702d7
   85510:	02d702d7 	.word	0x02d702d7
   85514:	017b02d7 	.word	0x017b02d7
   85518:	02d702d7 	.word	0x02d702d7
   8551c:	02d702d7 	.word	0x02d702d7
   85520:	01a402d7 	.word	0x01a402d7
   85524:	02d702d7 	.word	0x02d702d7
   85528:	02d701bf 	.word	0x02d701bf
   8552c:	02d702d7 	.word	0x02d702d7
   85530:	02d702d7 	.word	0x02d702d7
   85534:	02d702d7 	.word	0x02d702d7
   85538:	02d702d7 	.word	0x02d702d7
   8553c:	01e402d7 	.word	0x01e402d7
   85540:	02d701fa 	.word	0x02d701fa
   85544:	02d702d7 	.word	0x02d702d7
   85548:	01fa0216 	.word	0x01fa0216
   8554c:	02d702d7 	.word	0x02d702d7
   85550:	02d7021b 	.word	0x02d7021b
   85554:	00890228 	.word	0x00890228
   85558:	027d0266 	.word	0x027d0266
   8555c:	023a02d7 	.word	0x023a02d7
   85560:	011902d7 	.word	0x011902d7
   85564:	02d702d7 	.word	0x02d702d7
   85568:	02af      	.short	0x02af
   8556a:	3608      	adds	r6, #8
   8556c:	9809      	ldr	r0, [sp, #36]	; 0x24
   8556e:	4428      	add	r0, r5
   85570:	9009      	str	r0, [sp, #36]	; 0x24
   85572:	e786      	b.n	85482 <_vfiprintf_r+0xb6>
   85574:	9806      	ldr	r0, [sp, #24]
   85576:	9902      	ldr	r1, [sp, #8]
   85578:	f000 fd90 	bl	8609c <__swsetup_r>
   8557c:	b9b0      	cbnz	r0, 855ac <_vfiprintf_r+0x1e0>
   8557e:	9d02      	ldr	r5, [sp, #8]
   85580:	89aa      	ldrh	r2, [r5, #12]
   85582:	f002 021a 	and.w	r2, r2, #26
   85586:	2a0a      	cmp	r2, #10
   85588:	f47f af49 	bne.w	8541e <_vfiprintf_r+0x52>
   8558c:	f8dd b008 	ldr.w	fp, [sp, #8]
   85590:	f9bb 300e 	ldrsh.w	r3, [fp, #14]
   85594:	2b00      	cmp	r3, #0
   85596:	f6ff af42 	blt.w	8541e <_vfiprintf_r+0x52>
   8559a:	9806      	ldr	r0, [sp, #24]
   8559c:	4659      	mov	r1, fp
   8559e:	4642      	mov	r2, r8
   855a0:	4623      	mov	r3, r4
   855a2:	f000 fd3d 	bl	86020 <__sbprintf>
   855a6:	b031      	add	sp, #196	; 0xc4
   855a8:	e8bd 8ff0 	ldmia.w	sp!, {r4, r5, r6, r7, r8, r9, sl, fp, pc}
   855ac:	f04f 30ff 	mov.w	r0, #4294967295
   855b0:	b031      	add	sp, #196	; 0xc4
   855b2:	e8bd 8ff0 	ldmia.w	sp!, {r4, r5, r6, r7, r8, r9, sl, fp, pc}
   855b6:	f000 fea3 	bl	86300 <__sinit>
   855ba:	e714      	b.n	853e6 <_vfiprintf_r+0x1a>
   855bc:	4240      	negs	r0, r0
   855be:	9308      	str	r3, [sp, #32]
   855c0:	f04a 0a04 	orr.w	sl, sl, #4
   855c4:	f898 3000 	ldrb.w	r3, [r8]
   855c8:	e76d      	b.n	854a6 <_vfiprintf_r+0xda>
   855ca:	f01a 0320 	ands.w	r3, sl, #32
   855ce:	9004      	str	r0, [sp, #16]
   855d0:	46ac      	mov	ip, r5
   855d2:	f000 80f4 	beq.w	857be <_vfiprintf_r+0x3f2>
   855d6:	f8dd b020 	ldr.w	fp, [sp, #32]
   855da:	f10b 0307 	add.w	r3, fp, #7
   855de:	f023 0307 	bic.w	r3, r3, #7
   855e2:	f103 0408 	add.w	r4, r3, #8
   855e6:	9408      	str	r4, [sp, #32]
   855e8:	e9d3 4500 	ldrd	r4, r5, [r3]
   855ec:	2300      	movs	r3, #0
   855ee:	f04f 0000 	mov.w	r0, #0
   855f2:	2100      	movs	r1, #0
   855f4:	f88d 0047 	strb.w	r0, [sp, #71]	; 0x47
   855f8:	f8cd c014 	str.w	ip, [sp, #20]
   855fc:	9107      	str	r1, [sp, #28]
   855fe:	f1bc 0f00 	cmp.w	ip, #0
   85602:	bfa8      	it	ge
   85604:	f02a 0a80 	bicge.w	sl, sl, #128	; 0x80
   85608:	ea54 0205 	orrs.w	r2, r4, r5
   8560c:	f040 80ad 	bne.w	8576a <_vfiprintf_r+0x39e>
   85610:	f1bc 0f00 	cmp.w	ip, #0
   85614:	f040 80a9 	bne.w	8576a <_vfiprintf_r+0x39e>
   85618:	2b00      	cmp	r3, #0
   8561a:	f040 83c0 	bne.w	85d9e <_vfiprintf_r+0x9d2>
   8561e:	f01a 0f01 	tst.w	sl, #1
   85622:	f000 83bc 	beq.w	85d9e <_vfiprintf_r+0x9d2>
   85626:	2330      	movs	r3, #48	; 0x30
   85628:	af30      	add	r7, sp, #192	; 0xc0
   8562a:	f807 3d41 	strb.w	r3, [r7, #-65]!
   8562e:	ebc7 0409 	rsb	r4, r7, r9
   85632:	9405      	str	r4, [sp, #20]
   85634:	f8dd b014 	ldr.w	fp, [sp, #20]
   85638:	9c07      	ldr	r4, [sp, #28]
   8563a:	45e3      	cmp	fp, ip
   8563c:	bfb8      	it	lt
   8563e:	46e3      	movlt	fp, ip
   85640:	f8cd b00c 	str.w	fp, [sp, #12]
   85644:	b11c      	cbz	r4, 8564e <_vfiprintf_r+0x282>
   85646:	f10b 0b01 	add.w	fp, fp, #1
   8564a:	f8cd b00c 	str.w	fp, [sp, #12]
   8564e:	f01a 0502 	ands.w	r5, sl, #2
   85652:	9507      	str	r5, [sp, #28]
   85654:	d005      	beq.n	85662 <_vfiprintf_r+0x296>
   85656:	f8dd b00c 	ldr.w	fp, [sp, #12]
   8565a:	f10b 0b02 	add.w	fp, fp, #2
   8565e:	f8cd b00c 	str.w	fp, [sp, #12]
   85662:	f01a 0384 	ands.w	r3, sl, #132	; 0x84
   85666:	930b      	str	r3, [sp, #44]	; 0x2c
   85668:	f040 821b 	bne.w	85aa2 <_vfiprintf_r+0x6d6>
   8566c:	9d04      	ldr	r5, [sp, #16]
   8566e:	f8dd b00c 	ldr.w	fp, [sp, #12]
   85672:	ebcb 0405 	rsb	r4, fp, r5
   85676:	2c00      	cmp	r4, #0
   85678:	f340 8213 	ble.w	85aa2 <_vfiprintf_r+0x6d6>
   8567c:	2c10      	cmp	r4, #16
   8567e:	f340 8489 	ble.w	85f94 <_vfiprintf_r+0xbc8>
   85682:	4dbe      	ldr	r5, [pc, #760]	; (8597c <_vfiprintf_r+0x5b0>)
   85684:	9a15      	ldr	r2, [sp, #84]	; 0x54
   85686:	462b      	mov	r3, r5
   85688:	9814      	ldr	r0, [sp, #80]	; 0x50
   8568a:	4625      	mov	r5, r4
   8568c:	f04f 0b10 	mov.w	fp, #16
   85690:	4664      	mov	r4, ip
   85692:	46b4      	mov	ip, r6
   85694:	461e      	mov	r6, r3
   85696:	e006      	b.n	856a6 <_vfiprintf_r+0x2da>
   85698:	1c83      	adds	r3, r0, #2
   8569a:	f10c 0c08 	add.w	ip, ip, #8
   8569e:	4608      	mov	r0, r1
   856a0:	3d10      	subs	r5, #16
   856a2:	2d10      	cmp	r5, #16
   856a4:	dd11      	ble.n	856ca <_vfiprintf_r+0x2fe>
   856a6:	1c41      	adds	r1, r0, #1
   856a8:	3210      	adds	r2, #16
   856aa:	2907      	cmp	r1, #7
   856ac:	9215      	str	r2, [sp, #84]	; 0x54
   856ae:	e88c 0840 	stmia.w	ip, {r6, fp}
   856b2:	9114      	str	r1, [sp, #80]	; 0x50
   856b4:	ddf0      	ble.n	85698 <_vfiprintf_r+0x2cc>
   856b6:	2a00      	cmp	r2, #0
   856b8:	f040 81e6 	bne.w	85a88 <_vfiprintf_r+0x6bc>
   856bc:	3d10      	subs	r5, #16
   856be:	2d10      	cmp	r5, #16
   856c0:	f04f 0301 	mov.w	r3, #1
   856c4:	4610      	mov	r0, r2
   856c6:	46cc      	mov	ip, r9
   856c8:	dced      	bgt.n	856a6 <_vfiprintf_r+0x2da>
   856ca:	4631      	mov	r1, r6
   856cc:	4666      	mov	r6, ip
   856ce:	46a4      	mov	ip, r4
   856d0:	462c      	mov	r4, r5
   856d2:	460d      	mov	r5, r1
   856d4:	4422      	add	r2, r4
   856d6:	2b07      	cmp	r3, #7
   856d8:	9215      	str	r2, [sp, #84]	; 0x54
   856da:	6035      	str	r5, [r6, #0]
   856dc:	6074      	str	r4, [r6, #4]
   856de:	9314      	str	r3, [sp, #80]	; 0x50
   856e0:	f300 836d 	bgt.w	85dbe <_vfiprintf_r+0x9f2>
   856e4:	3608      	adds	r6, #8
   856e6:	1c59      	adds	r1, r3, #1
   856e8:	e1de      	b.n	85aa8 <_vfiprintf_r+0x6dc>
   856ea:	f01a 0f20 	tst.w	sl, #32
   856ee:	9004      	str	r0, [sp, #16]
   856f0:	46ac      	mov	ip, r5
   856f2:	f000 808d 	beq.w	85810 <_vfiprintf_r+0x444>
   856f6:	9d08      	ldr	r5, [sp, #32]
   856f8:	1deb      	adds	r3, r5, #7
   856fa:	f023 0307 	bic.w	r3, r3, #7
   856fe:	f103 0b08 	add.w	fp, r3, #8
   85702:	e9d3 4500 	ldrd	r4, r5, [r3]
   85706:	f8cd b020 	str.w	fp, [sp, #32]
   8570a:	2301      	movs	r3, #1
   8570c:	e76f      	b.n	855ee <_vfiprintf_r+0x222>
   8570e:	f04a 0a80 	orr.w	sl, sl, #128	; 0x80
   85712:	f898 3000 	ldrb.w	r3, [r8]
   85716:	e6c6      	b.n	854a6 <_vfiprintf_r+0xda>
   85718:	f04a 0a10 	orr.w	sl, sl, #16
   8571c:	f01a 0f20 	tst.w	sl, #32
   85720:	9004      	str	r0, [sp, #16]
   85722:	46ac      	mov	ip, r5
   85724:	f88d 1047 	strb.w	r1, [sp, #71]	; 0x47
   85728:	f000 80c8 	beq.w	858bc <_vfiprintf_r+0x4f0>
   8572c:	9c08      	ldr	r4, [sp, #32]
   8572e:	1de1      	adds	r1, r4, #7
   85730:	f021 0107 	bic.w	r1, r1, #7
   85734:	e9d1 2300 	ldrd	r2, r3, [r1]
   85738:	3108      	adds	r1, #8
   8573a:	9108      	str	r1, [sp, #32]
   8573c:	4614      	mov	r4, r2
   8573e:	461d      	mov	r5, r3
   85740:	2a00      	cmp	r2, #0
   85742:	f173 0b00 	sbcs.w	fp, r3, #0
   85746:	f2c0 83ce 	blt.w	85ee6 <_vfiprintf_r+0xb1a>
   8574a:	f1bc 0f00 	cmp.w	ip, #0
   8574e:	f89d 0047 	ldrb.w	r0, [sp, #71]	; 0x47
   85752:	bfa8      	it	ge
   85754:	f02a 0a80 	bicge.w	sl, sl, #128	; 0x80
   85758:	ea54 0205 	orrs.w	r2, r4, r5
   8575c:	9007      	str	r0, [sp, #28]
   8575e:	f8cd c014 	str.w	ip, [sp, #20]
   85762:	f04f 0301 	mov.w	r3, #1
   85766:	f43f af53 	beq.w	85610 <_vfiprintf_r+0x244>
   8576a:	2b01      	cmp	r3, #1
   8576c:	f000 8319 	beq.w	85da2 <_vfiprintf_r+0x9d6>
   85770:	2b02      	cmp	r3, #2
   85772:	f10d 037f 	add.w	r3, sp, #127	; 0x7f
   85776:	f040 824c 	bne.w	85c12 <_vfiprintf_r+0x846>
   8577a:	f8dd b028 	ldr.w	fp, [sp, #40]	; 0x28
   8577e:	4619      	mov	r1, r3
   85780:	f004 000f 	and.w	r0, r4, #15
   85784:	0922      	lsrs	r2, r4, #4
   85786:	f81b 0000 	ldrb.w	r0, [fp, r0]
   8578a:	ea42 7205 	orr.w	r2, r2, r5, lsl #28
   8578e:	092b      	lsrs	r3, r5, #4
   85790:	7008      	strb	r0, [r1, #0]
   85792:	ea52 0003 	orrs.w	r0, r2, r3
   85796:	460f      	mov	r7, r1
   85798:	4614      	mov	r4, r2
   8579a:	461d      	mov	r5, r3
   8579c:	f101 31ff 	add.w	r1, r1, #4294967295
   857a0:	d1ee      	bne.n	85780 <_vfiprintf_r+0x3b4>
   857a2:	e9cd 230e 	strd	r2, r3, [sp, #56]	; 0x38
   857a6:	ebc7 0309 	rsb	r3, r7, r9
   857aa:	9305      	str	r3, [sp, #20]
   857ac:	e742      	b.n	85634 <_vfiprintf_r+0x268>
   857ae:	f04a 0a10 	orr.w	sl, sl, #16
   857b2:	f01a 0320 	ands.w	r3, sl, #32
   857b6:	9004      	str	r0, [sp, #16]
   857b8:	46ac      	mov	ip, r5
   857ba:	f47f af0c 	bne.w	855d6 <_vfiprintf_r+0x20a>
   857be:	f01a 0210 	ands.w	r2, sl, #16
   857c2:	f040 8311 	bne.w	85de8 <_vfiprintf_r+0xa1c>
   857c6:	f01a 0340 	ands.w	r3, sl, #64	; 0x40
   857ca:	f000 830d 	beq.w	85de8 <_vfiprintf_r+0xa1c>
   857ce:	f8dd b020 	ldr.w	fp, [sp, #32]
   857d2:	4613      	mov	r3, r2
   857d4:	f8bb 4000 	ldrh.w	r4, [fp]
   857d8:	f10b 0b04 	add.w	fp, fp, #4
   857dc:	2500      	movs	r5, #0
   857de:	f8cd b020 	str.w	fp, [sp, #32]
   857e2:	e704      	b.n	855ee <_vfiprintf_r+0x222>
   857e4:	f1a3 0230 	sub.w	r2, r3, #48	; 0x30
   857e8:	2000      	movs	r0, #0
   857ea:	f818 3b01 	ldrb.w	r3, [r8], #1
   857ee:	eb00 0080 	add.w	r0, r0, r0, lsl #2
   857f2:	eb02 0040 	add.w	r0, r2, r0, lsl #1
   857f6:	f1a3 0230 	sub.w	r2, r3, #48	; 0x30
   857fa:	2a09      	cmp	r2, #9
   857fc:	d9f5      	bls.n	857ea <_vfiprintf_r+0x41e>
   857fe:	e654      	b.n	854aa <_vfiprintf_r+0xde>
   85800:	f04a 0a10 	orr.w	sl, sl, #16
   85804:	f01a 0f20 	tst.w	sl, #32
   85808:	9004      	str	r0, [sp, #16]
   8580a:	46ac      	mov	ip, r5
   8580c:	f47f af73 	bne.w	856f6 <_vfiprintf_r+0x32a>
   85810:	f01a 0f10 	tst.w	sl, #16
   85814:	f040 82ef 	bne.w	85df6 <_vfiprintf_r+0xa2a>
   85818:	f01a 0f40 	tst.w	sl, #64	; 0x40
   8581c:	f000 82eb 	beq.w	85df6 <_vfiprintf_r+0xa2a>
   85820:	f8dd b020 	ldr.w	fp, [sp, #32]
   85824:	2500      	movs	r5, #0
   85826:	f8bb 4000 	ldrh.w	r4, [fp]
   8582a:	f10b 0b04 	add.w	fp, fp, #4
   8582e:	2301      	movs	r3, #1
   85830:	f8cd b020 	str.w	fp, [sp, #32]
   85834:	e6db      	b.n	855ee <_vfiprintf_r+0x222>
   85836:	46ac      	mov	ip, r5
   85838:	4d51      	ldr	r5, [pc, #324]	; (85980 <_vfiprintf_r+0x5b4>)
   8583a:	f01a 0f20 	tst.w	sl, #32
   8583e:	9004      	str	r0, [sp, #16]
   85840:	f88d 1047 	strb.w	r1, [sp, #71]	; 0x47
   85844:	950a      	str	r5, [sp, #40]	; 0x28
   85846:	f000 80f0 	beq.w	85a2a <_vfiprintf_r+0x65e>
   8584a:	9d08      	ldr	r5, [sp, #32]
   8584c:	1dea      	adds	r2, r5, #7
   8584e:	f022 0207 	bic.w	r2, r2, #7
   85852:	f102 0b08 	add.w	fp, r2, #8
   85856:	f8cd b020 	str.w	fp, [sp, #32]
   8585a:	e9d2 4500 	ldrd	r4, r5, [r2]
   8585e:	f01a 0f01 	tst.w	sl, #1
   85862:	f000 82aa 	beq.w	85dba <_vfiprintf_r+0x9ee>
   85866:	ea54 0b05 	orrs.w	fp, r4, r5
   8586a:	f000 82a6 	beq.w	85dba <_vfiprintf_r+0x9ee>
   8586e:	2230      	movs	r2, #48	; 0x30
   85870:	f88d 3049 	strb.w	r3, [sp, #73]	; 0x49
   85874:	f04a 0a02 	orr.w	sl, sl, #2
   85878:	f88d 2048 	strb.w	r2, [sp, #72]	; 0x48
   8587c:	2302      	movs	r3, #2
   8587e:	e6b6      	b.n	855ee <_vfiprintf_r+0x222>
   85880:	9b08      	ldr	r3, [sp, #32]
   85882:	f8dd b020 	ldr.w	fp, [sp, #32]
   85886:	681b      	ldr	r3, [r3, #0]
   85888:	2401      	movs	r4, #1
   8588a:	f04f 0500 	mov.w	r5, #0
   8588e:	f10b 0b04 	add.w	fp, fp, #4
   85892:	9004      	str	r0, [sp, #16]
   85894:	9403      	str	r4, [sp, #12]
   85896:	f88d 5047 	strb.w	r5, [sp, #71]	; 0x47
   8589a:	f88d 3058 	strb.w	r3, [sp, #88]	; 0x58
   8589e:	f8cd b020 	str.w	fp, [sp, #32]
   858a2:	9405      	str	r4, [sp, #20]
   858a4:	af16      	add	r7, sp, #88	; 0x58
   858a6:	f04f 0c00 	mov.w	ip, #0
   858aa:	e6d0      	b.n	8564e <_vfiprintf_r+0x282>
   858ac:	f01a 0f20 	tst.w	sl, #32
   858b0:	9004      	str	r0, [sp, #16]
   858b2:	46ac      	mov	ip, r5
   858b4:	f88d 1047 	strb.w	r1, [sp, #71]	; 0x47
   858b8:	f47f af38 	bne.w	8572c <_vfiprintf_r+0x360>
   858bc:	f01a 0f10 	tst.w	sl, #16
   858c0:	f040 82a7 	bne.w	85e12 <_vfiprintf_r+0xa46>
   858c4:	f01a 0f40 	tst.w	sl, #64	; 0x40
   858c8:	f000 82a3 	beq.w	85e12 <_vfiprintf_r+0xa46>
   858cc:	f8dd b020 	ldr.w	fp, [sp, #32]
   858d0:	f9bb 4000 	ldrsh.w	r4, [fp]
   858d4:	f10b 0b04 	add.w	fp, fp, #4
   858d8:	17e5      	asrs	r5, r4, #31
   858da:	4622      	mov	r2, r4
   858dc:	462b      	mov	r3, r5
   858de:	f8cd b020 	str.w	fp, [sp, #32]
   858e2:	e72d      	b.n	85740 <_vfiprintf_r+0x374>
   858e4:	f04a 0a40 	orr.w	sl, sl, #64	; 0x40
   858e8:	f898 3000 	ldrb.w	r3, [r8]
   858ec:	e5db      	b.n	854a6 <_vfiprintf_r+0xda>
   858ee:	f898 3000 	ldrb.w	r3, [r8]
   858f2:	4642      	mov	r2, r8
   858f4:	2b6c      	cmp	r3, #108	; 0x6c
   858f6:	bf03      	ittte	eq
   858f8:	f108 0801 	addeq.w	r8, r8, #1
   858fc:	f04a 0a20 	orreq.w	sl, sl, #32
   85900:	7853      	ldrbeq	r3, [r2, #1]
   85902:	f04a 0a10 	orrne.w	sl, sl, #16
   85906:	e5ce      	b.n	854a6 <_vfiprintf_r+0xda>
   85908:	f01a 0f20 	tst.w	sl, #32
   8590c:	f88d 1047 	strb.w	r1, [sp, #71]	; 0x47
   85910:	f000 82f7 	beq.w	85f02 <_vfiprintf_r+0xb36>
   85914:	9c08      	ldr	r4, [sp, #32]
   85916:	6821      	ldr	r1, [r4, #0]
   85918:	9c09      	ldr	r4, [sp, #36]	; 0x24
   8591a:	17e5      	asrs	r5, r4, #31
   8591c:	462b      	mov	r3, r5
   8591e:	9d08      	ldr	r5, [sp, #32]
   85920:	4622      	mov	r2, r4
   85922:	3504      	adds	r5, #4
   85924:	9508      	str	r5, [sp, #32]
   85926:	e9c1 2300 	strd	r2, r3, [r1]
   8592a:	e582      	b.n	85432 <_vfiprintf_r+0x66>
   8592c:	9c08      	ldr	r4, [sp, #32]
   8592e:	46ac      	mov	ip, r5
   85930:	6827      	ldr	r7, [r4, #0]
   85932:	f04f 0500 	mov.w	r5, #0
   85936:	9004      	str	r0, [sp, #16]
   85938:	f88d 5047 	strb.w	r5, [sp, #71]	; 0x47
   8593c:	3404      	adds	r4, #4
   8593e:	2f00      	cmp	r7, #0
   85940:	f000 8332 	beq.w	85fa8 <_vfiprintf_r+0xbdc>
   85944:	f1bc 0f00 	cmp.w	ip, #0
   85948:	4638      	mov	r0, r7
   8594a:	f2c0 8307 	blt.w	85f5c <_vfiprintf_r+0xb90>
   8594e:	4662      	mov	r2, ip
   85950:	2100      	movs	r1, #0
   85952:	f8cd c004 	str.w	ip, [sp, #4]
   85956:	f001 fbb1 	bl	870bc <memchr>
   8595a:	f8dd c004 	ldr.w	ip, [sp, #4]
   8595e:	2800      	cmp	r0, #0
   85960:	f000 833a 	beq.w	85fd8 <_vfiprintf_r+0xc0c>
   85964:	1bc0      	subs	r0, r0, r7
   85966:	f89d 5047 	ldrb.w	r5, [sp, #71]	; 0x47
   8596a:	4560      	cmp	r0, ip
   8596c:	bfa8      	it	ge
   8596e:	4660      	movge	r0, ip
   85970:	9005      	str	r0, [sp, #20]
   85972:	9408      	str	r4, [sp, #32]
   85974:	9507      	str	r5, [sp, #28]
   85976:	f04f 0c00 	mov.w	ip, #0
   8597a:	e65b      	b.n	85634 <_vfiprintf_r+0x268>
   8597c:	000884e0 	.word	0x000884e0
   85980:	000884a0 	.word	0x000884a0
   85984:	9b08      	ldr	r3, [sp, #32]
   85986:	f8dd b020 	ldr.w	fp, [sp, #32]
   8598a:	9004      	str	r0, [sp, #16]
   8598c:	48b2      	ldr	r0, [pc, #712]	; (85c58 <_vfiprintf_r+0x88c>)
   8598e:	681c      	ldr	r4, [r3, #0]
   85990:	2230      	movs	r2, #48	; 0x30
   85992:	2378      	movs	r3, #120	; 0x78
   85994:	f10b 0b04 	add.w	fp, fp, #4
   85998:	46ac      	mov	ip, r5
   8599a:	f88d 3049 	strb.w	r3, [sp, #73]	; 0x49
   8599e:	f04a 0a02 	orr.w	sl, sl, #2
   859a2:	f8cd b020 	str.w	fp, [sp, #32]
   859a6:	2500      	movs	r5, #0
   859a8:	f88d 2048 	strb.w	r2, [sp, #72]	; 0x48
   859ac:	900a      	str	r0, [sp, #40]	; 0x28
   859ae:	2302      	movs	r3, #2
   859b0:	e61d      	b.n	855ee <_vfiprintf_r+0x222>
   859b2:	f04a 0a20 	orr.w	sl, sl, #32
   859b6:	f898 3000 	ldrb.w	r3, [r8]
   859ba:	e574      	b.n	854a6 <_vfiprintf_r+0xda>
   859bc:	f8dd b020 	ldr.w	fp, [sp, #32]
   859c0:	f8db 0000 	ldr.w	r0, [fp]
   859c4:	f10b 0304 	add.w	r3, fp, #4
   859c8:	2800      	cmp	r0, #0
   859ca:	f6ff adf7 	blt.w	855bc <_vfiprintf_r+0x1f0>
   859ce:	9308      	str	r3, [sp, #32]
   859d0:	f898 3000 	ldrb.w	r3, [r8]
   859d4:	e567      	b.n	854a6 <_vfiprintf_r+0xda>
   859d6:	f898 3000 	ldrb.w	r3, [r8]
   859da:	212b      	movs	r1, #43	; 0x2b
   859dc:	e563      	b.n	854a6 <_vfiprintf_r+0xda>
   859de:	f898 3000 	ldrb.w	r3, [r8]
   859e2:	f108 0401 	add.w	r4, r8, #1
   859e6:	2b2a      	cmp	r3, #42	; 0x2a
   859e8:	f000 8305 	beq.w	85ff6 <_vfiprintf_r+0xc2a>
   859ec:	f1a3 0230 	sub.w	r2, r3, #48	; 0x30
   859f0:	2a09      	cmp	r2, #9
   859f2:	bf98      	it	ls
   859f4:	2500      	movls	r5, #0
   859f6:	f200 82fa 	bhi.w	85fee <_vfiprintf_r+0xc22>
   859fa:	f814 3b01 	ldrb.w	r3, [r4], #1
   859fe:	eb05 0585 	add.w	r5, r5, r5, lsl #2
   85a02:	eb02 0545 	add.w	r5, r2, r5, lsl #1
   85a06:	f1a3 0230 	sub.w	r2, r3, #48	; 0x30
   85a0a:	2a09      	cmp	r2, #9
   85a0c:	d9f5      	bls.n	859fa <_vfiprintf_r+0x62e>
   85a0e:	ea45 75e5 	orr.w	r5, r5, r5, asr #31
   85a12:	46a0      	mov	r8, r4
   85a14:	e549      	b.n	854aa <_vfiprintf_r+0xde>
   85a16:	4c90      	ldr	r4, [pc, #576]	; (85c58 <_vfiprintf_r+0x88c>)
   85a18:	f01a 0f20 	tst.w	sl, #32
   85a1c:	9004      	str	r0, [sp, #16]
   85a1e:	46ac      	mov	ip, r5
   85a20:	940a      	str	r4, [sp, #40]	; 0x28
   85a22:	f88d 1047 	strb.w	r1, [sp, #71]	; 0x47
   85a26:	f47f af10 	bne.w	8584a <_vfiprintf_r+0x47e>
   85a2a:	f01a 0f10 	tst.w	sl, #16
   85a2e:	f040 81ea 	bne.w	85e06 <_vfiprintf_r+0xa3a>
   85a32:	f01a 0f40 	tst.w	sl, #64	; 0x40
   85a36:	f000 81e6 	beq.w	85e06 <_vfiprintf_r+0xa3a>
   85a3a:	f8dd b020 	ldr.w	fp, [sp, #32]
   85a3e:	2500      	movs	r5, #0
   85a40:	f8bb 4000 	ldrh.w	r4, [fp]
   85a44:	f10b 0b04 	add.w	fp, fp, #4
   85a48:	f8cd b020 	str.w	fp, [sp, #32]
   85a4c:	e707      	b.n	8585e <_vfiprintf_r+0x492>
   85a4e:	f898 3000 	ldrb.w	r3, [r8]
   85a52:	2900      	cmp	r1, #0
   85a54:	f47f ad27 	bne.w	854a6 <_vfiprintf_r+0xda>
   85a58:	2120      	movs	r1, #32
   85a5a:	e524      	b.n	854a6 <_vfiprintf_r+0xda>
   85a5c:	f04a 0a01 	orr.w	sl, sl, #1
   85a60:	f898 3000 	ldrb.w	r3, [r8]
   85a64:	e51f      	b.n	854a6 <_vfiprintf_r+0xda>
   85a66:	9004      	str	r0, [sp, #16]
   85a68:	f88d 1047 	strb.w	r1, [sp, #71]	; 0x47
   85a6c:	2b00      	cmp	r3, #0
   85a6e:	f000 80f9 	beq.w	85c64 <_vfiprintf_r+0x898>
   85a72:	2501      	movs	r5, #1
   85a74:	f04f 0b00 	mov.w	fp, #0
   85a78:	9503      	str	r5, [sp, #12]
   85a7a:	f88d 3058 	strb.w	r3, [sp, #88]	; 0x58
   85a7e:	f88d b047 	strb.w	fp, [sp, #71]	; 0x47
   85a82:	9505      	str	r5, [sp, #20]
   85a84:	af16      	add	r7, sp, #88	; 0x58
   85a86:	e70e      	b.n	858a6 <_vfiprintf_r+0x4da>
   85a88:	9806      	ldr	r0, [sp, #24]
   85a8a:	9902      	ldr	r1, [sp, #8]
   85a8c:	aa13      	add	r2, sp, #76	; 0x4c
   85a8e:	f7ff fc61 	bl	85354 <__sprint_r.part.0>
   85a92:	2800      	cmp	r0, #0
   85a94:	f040 80ed 	bne.w	85c72 <_vfiprintf_r+0x8a6>
   85a98:	9814      	ldr	r0, [sp, #80]	; 0x50
   85a9a:	9a15      	ldr	r2, [sp, #84]	; 0x54
   85a9c:	1c43      	adds	r3, r0, #1
   85a9e:	46cc      	mov	ip, r9
   85aa0:	e5fe      	b.n	856a0 <_vfiprintf_r+0x2d4>
   85aa2:	9b14      	ldr	r3, [sp, #80]	; 0x50
   85aa4:	9a15      	ldr	r2, [sp, #84]	; 0x54
   85aa6:	1c59      	adds	r1, r3, #1
   85aa8:	f89d 0047 	ldrb.w	r0, [sp, #71]	; 0x47
   85aac:	b168      	cbz	r0, 85aca <_vfiprintf_r+0x6fe>
   85aae:	3201      	adds	r2, #1
   85ab0:	f10d 0047 	add.w	r0, sp, #71	; 0x47
   85ab4:	2301      	movs	r3, #1
   85ab6:	2907      	cmp	r1, #7
   85ab8:	9215      	str	r2, [sp, #84]	; 0x54
   85aba:	9114      	str	r1, [sp, #80]	; 0x50
   85abc:	e886 0009 	stmia.w	r6, {r0, r3}
   85ac0:	f300 8160 	bgt.w	85d84 <_vfiprintf_r+0x9b8>
   85ac4:	460b      	mov	r3, r1
   85ac6:	3608      	adds	r6, #8
   85ac8:	3101      	adds	r1, #1
   85aca:	9c07      	ldr	r4, [sp, #28]
   85acc:	b164      	cbz	r4, 85ae8 <_vfiprintf_r+0x71c>
   85ace:	3202      	adds	r2, #2
   85ad0:	a812      	add	r0, sp, #72	; 0x48
   85ad2:	2302      	movs	r3, #2
   85ad4:	2907      	cmp	r1, #7
   85ad6:	9215      	str	r2, [sp, #84]	; 0x54
   85ad8:	9114      	str	r1, [sp, #80]	; 0x50
   85ada:	e886 0009 	stmia.w	r6, {r0, r3}
   85ade:	f300 8157 	bgt.w	85d90 <_vfiprintf_r+0x9c4>
   85ae2:	460b      	mov	r3, r1
   85ae4:	3608      	adds	r6, #8
   85ae6:	3101      	adds	r1, #1
   85ae8:	9d0b      	ldr	r5, [sp, #44]	; 0x2c
   85aea:	2d80      	cmp	r5, #128	; 0x80
   85aec:	f000 8101 	beq.w	85cf2 <_vfiprintf_r+0x926>
   85af0:	9d05      	ldr	r5, [sp, #20]
   85af2:	ebc5 040c 	rsb	r4, r5, ip
   85af6:	2c00      	cmp	r4, #0
   85af8:	dd2f      	ble.n	85b5a <_vfiprintf_r+0x78e>
   85afa:	2c10      	cmp	r4, #16
   85afc:	4d57      	ldr	r5, [pc, #348]	; (85c5c <_vfiprintf_r+0x890>)
   85afe:	dd22      	ble.n	85b46 <_vfiprintf_r+0x77a>
   85b00:	4630      	mov	r0, r6
   85b02:	f04f 0b10 	mov.w	fp, #16
   85b06:	462e      	mov	r6, r5
   85b08:	4625      	mov	r5, r4
   85b0a:	9c06      	ldr	r4, [sp, #24]
   85b0c:	e006      	b.n	85b1c <_vfiprintf_r+0x750>
   85b0e:	f103 0c02 	add.w	ip, r3, #2
   85b12:	3008      	adds	r0, #8
   85b14:	460b      	mov	r3, r1
   85b16:	3d10      	subs	r5, #16
   85b18:	2d10      	cmp	r5, #16
   85b1a:	dd10      	ble.n	85b3e <_vfiprintf_r+0x772>
   85b1c:	1c59      	adds	r1, r3, #1
   85b1e:	3210      	adds	r2, #16
   85b20:	2907      	cmp	r1, #7
   85b22:	9215      	str	r2, [sp, #84]	; 0x54
   85b24:	e880 0840 	stmia.w	r0, {r6, fp}
   85b28:	9114      	str	r1, [sp, #80]	; 0x50
   85b2a:	ddf0      	ble.n	85b0e <_vfiprintf_r+0x742>
   85b2c:	2a00      	cmp	r2, #0
   85b2e:	d163      	bne.n	85bf8 <_vfiprintf_r+0x82c>
   85b30:	3d10      	subs	r5, #16
   85b32:	2d10      	cmp	r5, #16
   85b34:	f04f 0c01 	mov.w	ip, #1
   85b38:	4613      	mov	r3, r2
   85b3a:	4648      	mov	r0, r9
   85b3c:	dcee      	bgt.n	85b1c <_vfiprintf_r+0x750>
   85b3e:	462c      	mov	r4, r5
   85b40:	4661      	mov	r1, ip
   85b42:	4635      	mov	r5, r6
   85b44:	4606      	mov	r6, r0
   85b46:	4422      	add	r2, r4
   85b48:	2907      	cmp	r1, #7
   85b4a:	9215      	str	r2, [sp, #84]	; 0x54
   85b4c:	6035      	str	r5, [r6, #0]
   85b4e:	6074      	str	r4, [r6, #4]
   85b50:	9114      	str	r1, [sp, #80]	; 0x50
   85b52:	f300 80c1 	bgt.w	85cd8 <_vfiprintf_r+0x90c>
   85b56:	3608      	adds	r6, #8
   85b58:	3101      	adds	r1, #1
   85b5a:	9d05      	ldr	r5, [sp, #20]
   85b5c:	2907      	cmp	r1, #7
   85b5e:	442a      	add	r2, r5
   85b60:	9215      	str	r2, [sp, #84]	; 0x54
   85b62:	6037      	str	r7, [r6, #0]
   85b64:	6075      	str	r5, [r6, #4]
   85b66:	9114      	str	r1, [sp, #80]	; 0x50
   85b68:	f340 80c1 	ble.w	85cee <_vfiprintf_r+0x922>
   85b6c:	2a00      	cmp	r2, #0
   85b6e:	f040 8130 	bne.w	85dd2 <_vfiprintf_r+0xa06>
   85b72:	9214      	str	r2, [sp, #80]	; 0x50
   85b74:	464e      	mov	r6, r9
   85b76:	f01a 0f04 	tst.w	sl, #4
   85b7a:	f000 808b 	beq.w	85c94 <_vfiprintf_r+0x8c8>
   85b7e:	9d04      	ldr	r5, [sp, #16]
   85b80:	f8dd b00c 	ldr.w	fp, [sp, #12]
   85b84:	ebcb 0405 	rsb	r4, fp, r5
   85b88:	2c00      	cmp	r4, #0
   85b8a:	f340 8083 	ble.w	85c94 <_vfiprintf_r+0x8c8>
   85b8e:	2c10      	cmp	r4, #16
   85b90:	f340 821e 	ble.w	85fd0 <_vfiprintf_r+0xc04>
   85b94:	9914      	ldr	r1, [sp, #80]	; 0x50
   85b96:	4d32      	ldr	r5, [pc, #200]	; (85c60 <_vfiprintf_r+0x894>)
   85b98:	2710      	movs	r7, #16
   85b9a:	f8dd a018 	ldr.w	sl, [sp, #24]
   85b9e:	f8dd b008 	ldr.w	fp, [sp, #8]
   85ba2:	e005      	b.n	85bb0 <_vfiprintf_r+0x7e4>
   85ba4:	1c88      	adds	r0, r1, #2
   85ba6:	3608      	adds	r6, #8
   85ba8:	4619      	mov	r1, r3
   85baa:	3c10      	subs	r4, #16
   85bac:	2c10      	cmp	r4, #16
   85bae:	dd10      	ble.n	85bd2 <_vfiprintf_r+0x806>
   85bb0:	1c4b      	adds	r3, r1, #1
   85bb2:	3210      	adds	r2, #16
   85bb4:	2b07      	cmp	r3, #7
   85bb6:	9215      	str	r2, [sp, #84]	; 0x54
   85bb8:	e886 00a0 	stmia.w	r6, {r5, r7}
   85bbc:	9314      	str	r3, [sp, #80]	; 0x50
   85bbe:	ddf1      	ble.n	85ba4 <_vfiprintf_r+0x7d8>
   85bc0:	2a00      	cmp	r2, #0
   85bc2:	d17d      	bne.n	85cc0 <_vfiprintf_r+0x8f4>
   85bc4:	3c10      	subs	r4, #16
   85bc6:	2c10      	cmp	r4, #16
   85bc8:	f04f 0001 	mov.w	r0, #1
   85bcc:	4611      	mov	r1, r2
   85bce:	464e      	mov	r6, r9
   85bd0:	dcee      	bgt.n	85bb0 <_vfiprintf_r+0x7e4>
   85bd2:	4422      	add	r2, r4
   85bd4:	2807      	cmp	r0, #7
   85bd6:	9215      	str	r2, [sp, #84]	; 0x54
   85bd8:	6035      	str	r5, [r6, #0]
   85bda:	6074      	str	r4, [r6, #4]
   85bdc:	9014      	str	r0, [sp, #80]	; 0x50
   85bde:	dd59      	ble.n	85c94 <_vfiprintf_r+0x8c8>
   85be0:	2a00      	cmp	r2, #0
   85be2:	d14f      	bne.n	85c84 <_vfiprintf_r+0x8b8>
   85be4:	9c09      	ldr	r4, [sp, #36]	; 0x24
   85be6:	f8dd b00c 	ldr.w	fp, [sp, #12]
   85bea:	9d04      	ldr	r5, [sp, #16]
   85bec:	45ab      	cmp	fp, r5
   85bee:	bfac      	ite	ge
   85bf0:	445c      	addge	r4, fp
   85bf2:	1964      	addlt	r4, r4, r5
   85bf4:	9409      	str	r4, [sp, #36]	; 0x24
   85bf6:	e05e      	b.n	85cb6 <_vfiprintf_r+0x8ea>
   85bf8:	4620      	mov	r0, r4
   85bfa:	9902      	ldr	r1, [sp, #8]
   85bfc:	aa13      	add	r2, sp, #76	; 0x4c
   85bfe:	f7ff fba9 	bl	85354 <__sprint_r.part.0>
   85c02:	2800      	cmp	r0, #0
   85c04:	d135      	bne.n	85c72 <_vfiprintf_r+0x8a6>
   85c06:	9b14      	ldr	r3, [sp, #80]	; 0x50
   85c08:	9a15      	ldr	r2, [sp, #84]	; 0x54
   85c0a:	f103 0c01 	add.w	ip, r3, #1
   85c0e:	4648      	mov	r0, r9
   85c10:	e781      	b.n	85b16 <_vfiprintf_r+0x74a>
   85c12:	08e0      	lsrs	r0, r4, #3
   85c14:	ea40 7045 	orr.w	r0, r0, r5, lsl #29
   85c18:	f004 0207 	and.w	r2, r4, #7
   85c1c:	08e9      	lsrs	r1, r5, #3
   85c1e:	3230      	adds	r2, #48	; 0x30
   85c20:	ea50 0b01 	orrs.w	fp, r0, r1
   85c24:	461f      	mov	r7, r3
   85c26:	701a      	strb	r2, [r3, #0]
   85c28:	4604      	mov	r4, r0
   85c2a:	460d      	mov	r5, r1
   85c2c:	f103 33ff 	add.w	r3, r3, #4294967295
   85c30:	d1ef      	bne.n	85c12 <_vfiprintf_r+0x846>
   85c32:	f01a 0f01 	tst.w	sl, #1
   85c36:	e9cd 010c 	strd	r0, r1, [sp, #48]	; 0x30
   85c3a:	4639      	mov	r1, r7
   85c3c:	f000 80b9 	beq.w	85db2 <_vfiprintf_r+0x9e6>
   85c40:	2a30      	cmp	r2, #48	; 0x30
   85c42:	f43f acf4 	beq.w	8562e <_vfiprintf_r+0x262>
   85c46:	461f      	mov	r7, r3
   85c48:	ebc7 0509 	rsb	r5, r7, r9
   85c4c:	2330      	movs	r3, #48	; 0x30
   85c4e:	9505      	str	r5, [sp, #20]
   85c50:	f801 3c01 	strb.w	r3, [r1, #-1]
   85c54:	e4ee      	b.n	85634 <_vfiprintf_r+0x268>
   85c56:	bf00      	nop
   85c58:	000884b4 	.word	0x000884b4
   85c5c:	000884d0 	.word	0x000884d0
   85c60:	000884e0 	.word	0x000884e0
   85c64:	9b15      	ldr	r3, [sp, #84]	; 0x54
   85c66:	b123      	cbz	r3, 85c72 <_vfiprintf_r+0x8a6>
   85c68:	9806      	ldr	r0, [sp, #24]
   85c6a:	9902      	ldr	r1, [sp, #8]
   85c6c:	aa13      	add	r2, sp, #76	; 0x4c
   85c6e:	f7ff fb71 	bl	85354 <__sprint_r.part.0>
   85c72:	9c02      	ldr	r4, [sp, #8]
   85c74:	89a3      	ldrh	r3, [r4, #12]
   85c76:	065b      	lsls	r3, r3, #25
   85c78:	f53f ac98 	bmi.w	855ac <_vfiprintf_r+0x1e0>
   85c7c:	9809      	ldr	r0, [sp, #36]	; 0x24
   85c7e:	b031      	add	sp, #196	; 0xc4
   85c80:	e8bd 8ff0 	ldmia.w	sp!, {r4, r5, r6, r7, r8, r9, sl, fp, pc}
   85c84:	9806      	ldr	r0, [sp, #24]
   85c86:	9902      	ldr	r1, [sp, #8]
   85c88:	aa13      	add	r2, sp, #76	; 0x4c
   85c8a:	f7ff fb63 	bl	85354 <__sprint_r.part.0>
   85c8e:	2800      	cmp	r0, #0
   85c90:	d1ef      	bne.n	85c72 <_vfiprintf_r+0x8a6>
   85c92:	9a15      	ldr	r2, [sp, #84]	; 0x54
   85c94:	9c09      	ldr	r4, [sp, #36]	; 0x24
   85c96:	f8dd b00c 	ldr.w	fp, [sp, #12]
   85c9a:	9d04      	ldr	r5, [sp, #16]
   85c9c:	45ab      	cmp	fp, r5
   85c9e:	bfac      	ite	ge
   85ca0:	445c      	addge	r4, fp
   85ca2:	1964      	addlt	r4, r4, r5
   85ca4:	9409      	str	r4, [sp, #36]	; 0x24
   85ca6:	b132      	cbz	r2, 85cb6 <_vfiprintf_r+0x8ea>
   85ca8:	9806      	ldr	r0, [sp, #24]
   85caa:	9902      	ldr	r1, [sp, #8]
   85cac:	aa13      	add	r2, sp, #76	; 0x4c
   85cae:	f7ff fb51 	bl	85354 <__sprint_r.part.0>
   85cb2:	2800      	cmp	r0, #0
   85cb4:	d1dd      	bne.n	85c72 <_vfiprintf_r+0x8a6>
   85cb6:	2000      	movs	r0, #0
   85cb8:	9014      	str	r0, [sp, #80]	; 0x50
   85cba:	464e      	mov	r6, r9
   85cbc:	f7ff bbb9 	b.w	85432 <_vfiprintf_r+0x66>
   85cc0:	4650      	mov	r0, sl
   85cc2:	4659      	mov	r1, fp
   85cc4:	aa13      	add	r2, sp, #76	; 0x4c
   85cc6:	f7ff fb45 	bl	85354 <__sprint_r.part.0>
   85cca:	2800      	cmp	r0, #0
   85ccc:	d1d1      	bne.n	85c72 <_vfiprintf_r+0x8a6>
   85cce:	9914      	ldr	r1, [sp, #80]	; 0x50
   85cd0:	9a15      	ldr	r2, [sp, #84]	; 0x54
   85cd2:	1c48      	adds	r0, r1, #1
   85cd4:	464e      	mov	r6, r9
   85cd6:	e768      	b.n	85baa <_vfiprintf_r+0x7de>
   85cd8:	2a00      	cmp	r2, #0
   85cda:	f040 80f7 	bne.w	85ecc <_vfiprintf_r+0xb00>
   85cde:	9c05      	ldr	r4, [sp, #20]
   85ce0:	2301      	movs	r3, #1
   85ce2:	9720      	str	r7, [sp, #128]	; 0x80
   85ce4:	9421      	str	r4, [sp, #132]	; 0x84
   85ce6:	9415      	str	r4, [sp, #84]	; 0x54
   85ce8:	4622      	mov	r2, r4
   85cea:	9314      	str	r3, [sp, #80]	; 0x50
   85cec:	464e      	mov	r6, r9
   85cee:	3608      	adds	r6, #8
   85cf0:	e741      	b.n	85b76 <_vfiprintf_r+0x7aa>
   85cf2:	9d04      	ldr	r5, [sp, #16]
   85cf4:	f8dd b00c 	ldr.w	fp, [sp, #12]
   85cf8:	ebcb 0405 	rsb	r4, fp, r5
   85cfc:	2c00      	cmp	r4, #0
   85cfe:	f77f aef7 	ble.w	85af0 <_vfiprintf_r+0x724>
   85d02:	2c10      	cmp	r4, #16
   85d04:	4da6      	ldr	r5, [pc, #664]	; (85fa0 <_vfiprintf_r+0xbd4>)
   85d06:	f340 8170 	ble.w	85fea <_vfiprintf_r+0xc1e>
   85d0a:	4629      	mov	r1, r5
   85d0c:	f04f 0b10 	mov.w	fp, #16
   85d10:	4625      	mov	r5, r4
   85d12:	4664      	mov	r4, ip
   85d14:	46b4      	mov	ip, r6
   85d16:	460e      	mov	r6, r1
   85d18:	e006      	b.n	85d28 <_vfiprintf_r+0x95c>
   85d1a:	1c98      	adds	r0, r3, #2
   85d1c:	f10c 0c08 	add.w	ip, ip, #8
   85d20:	460b      	mov	r3, r1
   85d22:	3d10      	subs	r5, #16
   85d24:	2d10      	cmp	r5, #16
   85d26:	dd0f      	ble.n	85d48 <_vfiprintf_r+0x97c>
   85d28:	1c59      	adds	r1, r3, #1
   85d2a:	3210      	adds	r2, #16
   85d2c:	2907      	cmp	r1, #7
   85d2e:	9215      	str	r2, [sp, #84]	; 0x54
   85d30:	e88c 0840 	stmia.w	ip, {r6, fp}
   85d34:	9114      	str	r1, [sp, #80]	; 0x50
   85d36:	ddf0      	ble.n	85d1a <_vfiprintf_r+0x94e>
   85d38:	b9ba      	cbnz	r2, 85d6a <_vfiprintf_r+0x99e>
   85d3a:	3d10      	subs	r5, #16
   85d3c:	2d10      	cmp	r5, #16
   85d3e:	f04f 0001 	mov.w	r0, #1
   85d42:	4613      	mov	r3, r2
   85d44:	46cc      	mov	ip, r9
   85d46:	dcef      	bgt.n	85d28 <_vfiprintf_r+0x95c>
   85d48:	4633      	mov	r3, r6
   85d4a:	4666      	mov	r6, ip
   85d4c:	46a4      	mov	ip, r4
   85d4e:	462c      	mov	r4, r5
   85d50:	461d      	mov	r5, r3
   85d52:	4422      	add	r2, r4
   85d54:	2807      	cmp	r0, #7
   85d56:	9215      	str	r2, [sp, #84]	; 0x54
   85d58:	6035      	str	r5, [r6, #0]
   85d5a:	6074      	str	r4, [r6, #4]
   85d5c:	9014      	str	r0, [sp, #80]	; 0x50
   85d5e:	f300 80af 	bgt.w	85ec0 <_vfiprintf_r+0xaf4>
   85d62:	3608      	adds	r6, #8
   85d64:	1c41      	adds	r1, r0, #1
   85d66:	4603      	mov	r3, r0
   85d68:	e6c2      	b.n	85af0 <_vfiprintf_r+0x724>
   85d6a:	9806      	ldr	r0, [sp, #24]
   85d6c:	9902      	ldr	r1, [sp, #8]
   85d6e:	aa13      	add	r2, sp, #76	; 0x4c
   85d70:	f7ff faf0 	bl	85354 <__sprint_r.part.0>
   85d74:	2800      	cmp	r0, #0
   85d76:	f47f af7c 	bne.w	85c72 <_vfiprintf_r+0x8a6>
   85d7a:	9b14      	ldr	r3, [sp, #80]	; 0x50
   85d7c:	9a15      	ldr	r2, [sp, #84]	; 0x54
   85d7e:	1c58      	adds	r0, r3, #1
   85d80:	46cc      	mov	ip, r9
   85d82:	e7ce      	b.n	85d22 <_vfiprintf_r+0x956>
   85d84:	2a00      	cmp	r2, #0
   85d86:	d179      	bne.n	85e7c <_vfiprintf_r+0xab0>
   85d88:	4619      	mov	r1, r3
   85d8a:	464e      	mov	r6, r9
   85d8c:	4613      	mov	r3, r2
   85d8e:	e69c      	b.n	85aca <_vfiprintf_r+0x6fe>
   85d90:	2a00      	cmp	r2, #0
   85d92:	f040 8084 	bne.w	85e9e <_vfiprintf_r+0xad2>
   85d96:	2101      	movs	r1, #1
   85d98:	4613      	mov	r3, r2
   85d9a:	464e      	mov	r6, r9
   85d9c:	e6a4      	b.n	85ae8 <_vfiprintf_r+0x71c>
   85d9e:	464f      	mov	r7, r9
   85da0:	e448      	b.n	85634 <_vfiprintf_r+0x268>
   85da2:	2d00      	cmp	r5, #0
   85da4:	bf08      	it	eq
   85da6:	2c0a      	cmpeq	r4, #10
   85da8:	d246      	bcs.n	85e38 <_vfiprintf_r+0xa6c>
   85daa:	3430      	adds	r4, #48	; 0x30
   85dac:	af30      	add	r7, sp, #192	; 0xc0
   85dae:	f807 4d41 	strb.w	r4, [r7, #-65]!
   85db2:	ebc7 0309 	rsb	r3, r7, r9
   85db6:	9305      	str	r3, [sp, #20]
   85db8:	e43c      	b.n	85634 <_vfiprintf_r+0x268>
   85dba:	2302      	movs	r3, #2
   85dbc:	e417      	b.n	855ee <_vfiprintf_r+0x222>
   85dbe:	2a00      	cmp	r2, #0
   85dc0:	f040 80af 	bne.w	85f22 <_vfiprintf_r+0xb56>
   85dc4:	4613      	mov	r3, r2
   85dc6:	2101      	movs	r1, #1
   85dc8:	464e      	mov	r6, r9
   85dca:	e66d      	b.n	85aa8 <_vfiprintf_r+0x6dc>
   85dcc:	4644      	mov	r4, r8
   85dce:	f7ff bb58 	b.w	85482 <_vfiprintf_r+0xb6>
   85dd2:	9806      	ldr	r0, [sp, #24]
   85dd4:	9902      	ldr	r1, [sp, #8]
   85dd6:	aa13      	add	r2, sp, #76	; 0x4c
   85dd8:	f7ff fabc 	bl	85354 <__sprint_r.part.0>
   85ddc:	2800      	cmp	r0, #0
   85dde:	f47f af48 	bne.w	85c72 <_vfiprintf_r+0x8a6>
   85de2:	9a15      	ldr	r2, [sp, #84]	; 0x54
   85de4:	464e      	mov	r6, r9
   85de6:	e6c6      	b.n	85b76 <_vfiprintf_r+0x7aa>
   85de8:	9d08      	ldr	r5, [sp, #32]
   85dea:	682c      	ldr	r4, [r5, #0]
   85dec:	3504      	adds	r5, #4
   85dee:	9508      	str	r5, [sp, #32]
   85df0:	2500      	movs	r5, #0
   85df2:	f7ff bbfc 	b.w	855ee <_vfiprintf_r+0x222>
   85df6:	9d08      	ldr	r5, [sp, #32]
   85df8:	2301      	movs	r3, #1
   85dfa:	682c      	ldr	r4, [r5, #0]
   85dfc:	3504      	adds	r5, #4
   85dfe:	9508      	str	r5, [sp, #32]
   85e00:	2500      	movs	r5, #0
   85e02:	f7ff bbf4 	b.w	855ee <_vfiprintf_r+0x222>
   85e06:	9d08      	ldr	r5, [sp, #32]
   85e08:	682c      	ldr	r4, [r5, #0]
   85e0a:	3504      	adds	r5, #4
   85e0c:	9508      	str	r5, [sp, #32]
   85e0e:	2500      	movs	r5, #0
   85e10:	e525      	b.n	8585e <_vfiprintf_r+0x492>
   85e12:	9d08      	ldr	r5, [sp, #32]
   85e14:	682c      	ldr	r4, [r5, #0]
   85e16:	3504      	adds	r5, #4
   85e18:	9508      	str	r5, [sp, #32]
   85e1a:	17e5      	asrs	r5, r4, #31
   85e1c:	4622      	mov	r2, r4
   85e1e:	462b      	mov	r3, r5
   85e20:	e48e      	b.n	85740 <_vfiprintf_r+0x374>
   85e22:	9806      	ldr	r0, [sp, #24]
   85e24:	9902      	ldr	r1, [sp, #8]
   85e26:	aa13      	add	r2, sp, #76	; 0x4c
   85e28:	f7ff fa94 	bl	85354 <__sprint_r.part.0>
   85e2c:	2800      	cmp	r0, #0
   85e2e:	f47f af20 	bne.w	85c72 <_vfiprintf_r+0x8a6>
   85e32:	464e      	mov	r6, r9
   85e34:	f7ff bb9a 	b.w	8556c <_vfiprintf_r+0x1a0>
   85e38:	f10d 0b7f 	add.w	fp, sp, #127	; 0x7f
   85e3c:	9603      	str	r6, [sp, #12]
   85e3e:	465e      	mov	r6, fp
   85e40:	46e3      	mov	fp, ip
   85e42:	4620      	mov	r0, r4
   85e44:	4629      	mov	r1, r5
   85e46:	220a      	movs	r2, #10
   85e48:	2300      	movs	r3, #0
   85e4a:	f001 fdb9 	bl	879c0 <__aeabi_uldivmod>
   85e4e:	3230      	adds	r2, #48	; 0x30
   85e50:	7032      	strb	r2, [r6, #0]
   85e52:	4620      	mov	r0, r4
   85e54:	4629      	mov	r1, r5
   85e56:	220a      	movs	r2, #10
   85e58:	2300      	movs	r3, #0
   85e5a:	f001 fdb1 	bl	879c0 <__aeabi_uldivmod>
   85e5e:	4604      	mov	r4, r0
   85e60:	460d      	mov	r5, r1
   85e62:	ea54 0005 	orrs.w	r0, r4, r5
   85e66:	4637      	mov	r7, r6
   85e68:	f106 36ff 	add.w	r6, r6, #4294967295
   85e6c:	d1e9      	bne.n	85e42 <_vfiprintf_r+0xa76>
   85e6e:	ebc7 0309 	rsb	r3, r7, r9
   85e72:	46dc      	mov	ip, fp
   85e74:	9e03      	ldr	r6, [sp, #12]
   85e76:	9305      	str	r3, [sp, #20]
   85e78:	f7ff bbdc 	b.w	85634 <_vfiprintf_r+0x268>
   85e7c:	9806      	ldr	r0, [sp, #24]
   85e7e:	9902      	ldr	r1, [sp, #8]
   85e80:	aa13      	add	r2, sp, #76	; 0x4c
   85e82:	f8cd c004 	str.w	ip, [sp, #4]
   85e86:	f7ff fa65 	bl	85354 <__sprint_r.part.0>
   85e8a:	f8dd c004 	ldr.w	ip, [sp, #4]
   85e8e:	2800      	cmp	r0, #0
   85e90:	f47f aeef 	bne.w	85c72 <_vfiprintf_r+0x8a6>
   85e94:	9b14      	ldr	r3, [sp, #80]	; 0x50
   85e96:	9a15      	ldr	r2, [sp, #84]	; 0x54
   85e98:	1c59      	adds	r1, r3, #1
   85e9a:	464e      	mov	r6, r9
   85e9c:	e615      	b.n	85aca <_vfiprintf_r+0x6fe>
   85e9e:	9806      	ldr	r0, [sp, #24]
   85ea0:	9902      	ldr	r1, [sp, #8]
   85ea2:	aa13      	add	r2, sp, #76	; 0x4c
   85ea4:	f8cd c004 	str.w	ip, [sp, #4]
   85ea8:	f7ff fa54 	bl	85354 <__sprint_r.part.0>
   85eac:	f8dd c004 	ldr.w	ip, [sp, #4]
   85eb0:	2800      	cmp	r0, #0
   85eb2:	f47f aede 	bne.w	85c72 <_vfiprintf_r+0x8a6>
   85eb6:	9b14      	ldr	r3, [sp, #80]	; 0x50
   85eb8:	9a15      	ldr	r2, [sp, #84]	; 0x54
   85eba:	1c59      	adds	r1, r3, #1
   85ebc:	464e      	mov	r6, r9
   85ebe:	e613      	b.n	85ae8 <_vfiprintf_r+0x71c>
   85ec0:	2a00      	cmp	r2, #0
   85ec2:	d156      	bne.n	85f72 <_vfiprintf_r+0xba6>
   85ec4:	2101      	movs	r1, #1
   85ec6:	4613      	mov	r3, r2
   85ec8:	464e      	mov	r6, r9
   85eca:	e611      	b.n	85af0 <_vfiprintf_r+0x724>
   85ecc:	9806      	ldr	r0, [sp, #24]
   85ece:	9902      	ldr	r1, [sp, #8]
   85ed0:	aa13      	add	r2, sp, #76	; 0x4c
   85ed2:	f7ff fa3f 	bl	85354 <__sprint_r.part.0>
   85ed6:	2800      	cmp	r0, #0
   85ed8:	f47f aecb 	bne.w	85c72 <_vfiprintf_r+0x8a6>
   85edc:	9914      	ldr	r1, [sp, #80]	; 0x50
   85ede:	9a15      	ldr	r2, [sp, #84]	; 0x54
   85ee0:	3101      	adds	r1, #1
   85ee2:	464e      	mov	r6, r9
   85ee4:	e639      	b.n	85b5a <_vfiprintf_r+0x78e>
   85ee6:	f04f 0b2d 	mov.w	fp, #45	; 0x2d
   85eea:	4264      	negs	r4, r4
   85eec:	eb65 0545 	sbc.w	r5, r5, r5, lsl #1
   85ef0:	f88d b047 	strb.w	fp, [sp, #71]	; 0x47
   85ef4:	f8cd b01c 	str.w	fp, [sp, #28]
   85ef8:	f8cd c014 	str.w	ip, [sp, #20]
   85efc:	2301      	movs	r3, #1
   85efe:	f7ff bb7e 	b.w	855fe <_vfiprintf_r+0x232>
   85f02:	f01a 0f10 	tst.w	sl, #16
   85f06:	d11d      	bne.n	85f44 <_vfiprintf_r+0xb78>
   85f08:	f01a 0f40 	tst.w	sl, #64	; 0x40
   85f0c:	d058      	beq.n	85fc0 <_vfiprintf_r+0xbf4>
   85f0e:	9d08      	ldr	r5, [sp, #32]
   85f10:	f8dd b024 	ldr.w	fp, [sp, #36]	; 0x24
   85f14:	682b      	ldr	r3, [r5, #0]
   85f16:	3504      	adds	r5, #4
   85f18:	9508      	str	r5, [sp, #32]
   85f1a:	f8a3 b000 	strh.w	fp, [r3]
   85f1e:	f7ff ba88 	b.w	85432 <_vfiprintf_r+0x66>
   85f22:	9806      	ldr	r0, [sp, #24]
   85f24:	9902      	ldr	r1, [sp, #8]
   85f26:	aa13      	add	r2, sp, #76	; 0x4c
   85f28:	f8cd c004 	str.w	ip, [sp, #4]
   85f2c:	f7ff fa12 	bl	85354 <__sprint_r.part.0>
   85f30:	f8dd c004 	ldr.w	ip, [sp, #4]
   85f34:	2800      	cmp	r0, #0
   85f36:	f47f ae9c 	bne.w	85c72 <_vfiprintf_r+0x8a6>
   85f3a:	9b14      	ldr	r3, [sp, #80]	; 0x50
   85f3c:	9a15      	ldr	r2, [sp, #84]	; 0x54
   85f3e:	1c59      	adds	r1, r3, #1
   85f40:	464e      	mov	r6, r9
   85f42:	e5b1      	b.n	85aa8 <_vfiprintf_r+0x6dc>
   85f44:	f8dd b020 	ldr.w	fp, [sp, #32]
   85f48:	9c09      	ldr	r4, [sp, #36]	; 0x24
   85f4a:	f8db 3000 	ldr.w	r3, [fp]
   85f4e:	f10b 0b04 	add.w	fp, fp, #4
   85f52:	f8cd b020 	str.w	fp, [sp, #32]
   85f56:	601c      	str	r4, [r3, #0]
   85f58:	f7ff ba6b 	b.w	85432 <_vfiprintf_r+0x66>
   85f5c:	9408      	str	r4, [sp, #32]
   85f5e:	f7ff f997 	bl	85290 <strlen>
   85f62:	f89d 4047 	ldrb.w	r4, [sp, #71]	; 0x47
   85f66:	9005      	str	r0, [sp, #20]
   85f68:	9407      	str	r4, [sp, #28]
   85f6a:	f04f 0c00 	mov.w	ip, #0
   85f6e:	f7ff bb61 	b.w	85634 <_vfiprintf_r+0x268>
   85f72:	9806      	ldr	r0, [sp, #24]
   85f74:	9902      	ldr	r1, [sp, #8]
   85f76:	aa13      	add	r2, sp, #76	; 0x4c
   85f78:	f8cd c004 	str.w	ip, [sp, #4]
   85f7c:	f7ff f9ea 	bl	85354 <__sprint_r.part.0>
   85f80:	f8dd c004 	ldr.w	ip, [sp, #4]
   85f84:	2800      	cmp	r0, #0
   85f86:	f47f ae74 	bne.w	85c72 <_vfiprintf_r+0x8a6>
   85f8a:	9b14      	ldr	r3, [sp, #80]	; 0x50
   85f8c:	9a15      	ldr	r2, [sp, #84]	; 0x54
   85f8e:	1c59      	adds	r1, r3, #1
   85f90:	464e      	mov	r6, r9
   85f92:	e5ad      	b.n	85af0 <_vfiprintf_r+0x724>
   85f94:	9b14      	ldr	r3, [sp, #80]	; 0x50
   85f96:	9a15      	ldr	r2, [sp, #84]	; 0x54
   85f98:	3301      	adds	r3, #1
   85f9a:	4d02      	ldr	r5, [pc, #8]	; (85fa4 <_vfiprintf_r+0xbd8>)
   85f9c:	f7ff bb9a 	b.w	856d4 <_vfiprintf_r+0x308>
   85fa0:	000884d0 	.word	0x000884d0
   85fa4:	000884e0 	.word	0x000884e0
   85fa8:	f1bc 0f06 	cmp.w	ip, #6
   85fac:	bf34      	ite	cc
   85fae:	4663      	movcc	r3, ip
   85fb0:	2306      	movcs	r3, #6
   85fb2:	9408      	str	r4, [sp, #32]
   85fb4:	ea23 74e3 	bic.w	r4, r3, r3, asr #31
   85fb8:	9305      	str	r3, [sp, #20]
   85fba:	9403      	str	r4, [sp, #12]
   85fbc:	4f16      	ldr	r7, [pc, #88]	; (86018 <_vfiprintf_r+0xc4c>)
   85fbe:	e472      	b.n	858a6 <_vfiprintf_r+0x4da>
   85fc0:	9c08      	ldr	r4, [sp, #32]
   85fc2:	9d09      	ldr	r5, [sp, #36]	; 0x24
   85fc4:	6823      	ldr	r3, [r4, #0]
   85fc6:	3404      	adds	r4, #4
   85fc8:	9408      	str	r4, [sp, #32]
   85fca:	601d      	str	r5, [r3, #0]
   85fcc:	f7ff ba31 	b.w	85432 <_vfiprintf_r+0x66>
   85fd0:	9814      	ldr	r0, [sp, #80]	; 0x50
   85fd2:	4d12      	ldr	r5, [pc, #72]	; (8601c <_vfiprintf_r+0xc50>)
   85fd4:	3001      	adds	r0, #1
   85fd6:	e5fc      	b.n	85bd2 <_vfiprintf_r+0x806>
   85fd8:	f89d 5047 	ldrb.w	r5, [sp, #71]	; 0x47
   85fdc:	f8cd c014 	str.w	ip, [sp, #20]
   85fe0:	9507      	str	r5, [sp, #28]
   85fe2:	9408      	str	r4, [sp, #32]
   85fe4:	4684      	mov	ip, r0
   85fe6:	f7ff bb25 	b.w	85634 <_vfiprintf_r+0x268>
   85fea:	4608      	mov	r0, r1
   85fec:	e6b1      	b.n	85d52 <_vfiprintf_r+0x986>
   85fee:	46a0      	mov	r8, r4
   85ff0:	2500      	movs	r5, #0
   85ff2:	f7ff ba5a 	b.w	854aa <_vfiprintf_r+0xde>
   85ff6:	f8dd b020 	ldr.w	fp, [sp, #32]
   85ffa:	f898 3001 	ldrb.w	r3, [r8, #1]
   85ffe:	f8db 5000 	ldr.w	r5, [fp]
   86002:	f10b 0204 	add.w	r2, fp, #4
   86006:	2d00      	cmp	r5, #0
   86008:	9208      	str	r2, [sp, #32]
   8600a:	46a0      	mov	r8, r4
   8600c:	f6bf aa4b 	bge.w	854a6 <_vfiprintf_r+0xda>
   86010:	f04f 35ff 	mov.w	r5, #4294967295
   86014:	f7ff ba47 	b.w	854a6 <_vfiprintf_r+0xda>
   86018:	000884c8 	.word	0x000884c8
   8601c:	000884e0 	.word	0x000884e0

00086020 <__sbprintf>:
   86020:	e92d 47f0 	stmdb	sp!, {r4, r5, r6, r7, r8, r9, sl, lr}
   86024:	6e4f      	ldr	r7, [r1, #100]	; 0x64
   86026:	f5ad 6d8d 	sub.w	sp, sp, #1128	; 0x468
   8602a:	4688      	mov	r8, r1
   8602c:	9719      	str	r7, [sp, #100]	; 0x64
   8602e:	f8d8 701c 	ldr.w	r7, [r8, #28]
   86032:	f8b1 a00c 	ldrh.w	sl, [r1, #12]
   86036:	f8b1 900e 	ldrh.w	r9, [r1, #14]
   8603a:	9707      	str	r7, [sp, #28]
   8603c:	f8d8 7024 	ldr.w	r7, [r8, #36]	; 0x24
   86040:	ac1a      	add	r4, sp, #104	; 0x68
   86042:	f44f 6580 	mov.w	r5, #1024	; 0x400
   86046:	f02a 0a02 	bic.w	sl, sl, #2
   8604a:	2600      	movs	r6, #0
   8604c:	4669      	mov	r1, sp
   8604e:	9400      	str	r4, [sp, #0]
   86050:	9404      	str	r4, [sp, #16]
   86052:	9502      	str	r5, [sp, #8]
   86054:	9505      	str	r5, [sp, #20]
   86056:	f8ad a00c 	strh.w	sl, [sp, #12]
   8605a:	f8ad 900e 	strh.w	r9, [sp, #14]
   8605e:	9709      	str	r7, [sp, #36]	; 0x24
   86060:	9606      	str	r6, [sp, #24]
   86062:	4605      	mov	r5, r0
   86064:	f7ff f9b2 	bl	853cc <_vfiprintf_r>
   86068:	1e04      	subs	r4, r0, #0
   8606a:	db07      	blt.n	8607c <__sbprintf+0x5c>
   8606c:	4628      	mov	r0, r5
   8606e:	4669      	mov	r1, sp
   86070:	f000 f92a 	bl	862c8 <_fflush_r>
   86074:	42b0      	cmp	r0, r6
   86076:	bf18      	it	ne
   86078:	f04f 34ff 	movne.w	r4, #4294967295
   8607c:	f8bd 300c 	ldrh.w	r3, [sp, #12]
   86080:	065b      	lsls	r3, r3, #25
   86082:	d505      	bpl.n	86090 <__sbprintf+0x70>
   86084:	f8b8 300c 	ldrh.w	r3, [r8, #12]
   86088:	f043 0340 	orr.w	r3, r3, #64	; 0x40
   8608c:	f8a8 300c 	strh.w	r3, [r8, #12]
   86090:	4620      	mov	r0, r4
   86092:	f50d 6d8d 	add.w	sp, sp, #1128	; 0x468
   86096:	e8bd 87f0 	ldmia.w	sp!, {r4, r5, r6, r7, r8, r9, sl, pc}
   8609a:	bf00      	nop

0008609c <__swsetup_r>:
   8609c:	4b2f      	ldr	r3, [pc, #188]	; (8615c <__swsetup_r+0xc0>)
   8609e:	b570      	push	{r4, r5, r6, lr}
   860a0:	4606      	mov	r6, r0
   860a2:	6818      	ldr	r0, [r3, #0]
   860a4:	460c      	mov	r4, r1
   860a6:	b110      	cbz	r0, 860ae <__swsetup_r+0x12>
   860a8:	6b82      	ldr	r2, [r0, #56]	; 0x38
   860aa:	2a00      	cmp	r2, #0
   860ac:	d036      	beq.n	8611c <__swsetup_r+0x80>
   860ae:	89a5      	ldrh	r5, [r4, #12]
   860b0:	b2ab      	uxth	r3, r5
   860b2:	0719      	lsls	r1, r3, #28
   860b4:	d50c      	bpl.n	860d0 <__swsetup_r+0x34>
   860b6:	6922      	ldr	r2, [r4, #16]
   860b8:	b1aa      	cbz	r2, 860e6 <__swsetup_r+0x4a>
   860ba:	f013 0101 	ands.w	r1, r3, #1
   860be:	d01e      	beq.n	860fe <__swsetup_r+0x62>
   860c0:	6963      	ldr	r3, [r4, #20]
   860c2:	2100      	movs	r1, #0
   860c4:	425b      	negs	r3, r3
   860c6:	61a3      	str	r3, [r4, #24]
   860c8:	60a1      	str	r1, [r4, #8]
   860ca:	b1f2      	cbz	r2, 8610a <__swsetup_r+0x6e>
   860cc:	2000      	movs	r0, #0
   860ce:	bd70      	pop	{r4, r5, r6, pc}
   860d0:	06da      	lsls	r2, r3, #27
   860d2:	d53a      	bpl.n	8614a <__swsetup_r+0xae>
   860d4:	075b      	lsls	r3, r3, #29
   860d6:	d424      	bmi.n	86122 <__swsetup_r+0x86>
   860d8:	6922      	ldr	r2, [r4, #16]
   860da:	f045 0308 	orr.w	r3, r5, #8
   860de:	81a3      	strh	r3, [r4, #12]
   860e0:	b29b      	uxth	r3, r3
   860e2:	2a00      	cmp	r2, #0
   860e4:	d1e9      	bne.n	860ba <__swsetup_r+0x1e>
   860e6:	f403 7120 	and.w	r1, r3, #640	; 0x280
   860ea:	f5b1 7f00 	cmp.w	r1, #512	; 0x200
   860ee:	d0e4      	beq.n	860ba <__swsetup_r+0x1e>
   860f0:	4630      	mov	r0, r6
   860f2:	4621      	mov	r1, r4
   860f4:	f000 fcce 	bl	86a94 <__smakebuf_r>
   860f8:	89a3      	ldrh	r3, [r4, #12]
   860fa:	6922      	ldr	r2, [r4, #16]
   860fc:	e7dd      	b.n	860ba <__swsetup_r+0x1e>
   860fe:	0798      	lsls	r0, r3, #30
   86100:	bf58      	it	pl
   86102:	6961      	ldrpl	r1, [r4, #20]
   86104:	60a1      	str	r1, [r4, #8]
   86106:	2a00      	cmp	r2, #0
   86108:	d1e0      	bne.n	860cc <__swsetup_r+0x30>
   8610a:	89a3      	ldrh	r3, [r4, #12]
   8610c:	061a      	lsls	r2, r3, #24
   8610e:	d5dd      	bpl.n	860cc <__swsetup_r+0x30>
   86110:	f043 0340 	orr.w	r3, r3, #64	; 0x40
   86114:	81a3      	strh	r3, [r4, #12]
   86116:	f04f 30ff 	mov.w	r0, #4294967295
   8611a:	bd70      	pop	{r4, r5, r6, pc}
   8611c:	f000 f8f0 	bl	86300 <__sinit>
   86120:	e7c5      	b.n	860ae <__swsetup_r+0x12>
   86122:	6b21      	ldr	r1, [r4, #48]	; 0x30
   86124:	b149      	cbz	r1, 8613a <__swsetup_r+0x9e>
   86126:	f104 0340 	add.w	r3, r4, #64	; 0x40
   8612a:	4299      	cmp	r1, r3
   8612c:	d003      	beq.n	86136 <__swsetup_r+0x9a>
   8612e:	4630      	mov	r0, r6
   86130:	f000 fa2a 	bl	86588 <_free_r>
   86134:	89a5      	ldrh	r5, [r4, #12]
   86136:	2300      	movs	r3, #0
   86138:	6323      	str	r3, [r4, #48]	; 0x30
   8613a:	6922      	ldr	r2, [r4, #16]
   8613c:	f025 0524 	bic.w	r5, r5, #36	; 0x24
   86140:	2100      	movs	r1, #0
   86142:	b2ad      	uxth	r5, r5
   86144:	6022      	str	r2, [r4, #0]
   86146:	6061      	str	r1, [r4, #4]
   86148:	e7c7      	b.n	860da <__swsetup_r+0x3e>
   8614a:	f045 0540 	orr.w	r5, r5, #64	; 0x40
   8614e:	2309      	movs	r3, #9
   86150:	6033      	str	r3, [r6, #0]
   86152:	f04f 30ff 	mov.w	r0, #4294967295
   86156:	81a5      	strh	r5, [r4, #12]
   86158:	bd70      	pop	{r4, r5, r6, pc}
   8615a:	bf00      	nop
   8615c:	200705b0 	.word	0x200705b0

00086160 <register_fini>:
   86160:	4b02      	ldr	r3, [pc, #8]	; (8616c <register_fini+0xc>)
   86162:	b113      	cbz	r3, 8616a <register_fini+0xa>
   86164:	4802      	ldr	r0, [pc, #8]	; (86170 <register_fini+0x10>)
   86166:	f000 b805 	b.w	86174 <atexit>
   8616a:	4770      	bx	lr
   8616c:	00000000 	.word	0x00000000
   86170:	000863fd 	.word	0x000863fd

00086174 <atexit>:
   86174:	4601      	mov	r1, r0
   86176:	2000      	movs	r0, #0
   86178:	4602      	mov	r2, r0
   8617a:	4603      	mov	r3, r0
   8617c:	f001 bb24 	b.w	877c8 <__register_exitproc>

00086180 <__sflush_r>:
   86180:	898b      	ldrh	r3, [r1, #12]
   86182:	e92d 41f0 	stmdb	sp!, {r4, r5, r6, r7, r8, lr}
   86186:	b29a      	uxth	r2, r3
   86188:	460d      	mov	r5, r1
   8618a:	0711      	lsls	r1, r2, #28
   8618c:	4680      	mov	r8, r0
   8618e:	d43c      	bmi.n	8620a <__sflush_r+0x8a>
   86190:	686a      	ldr	r2, [r5, #4]
   86192:	f443 6300 	orr.w	r3, r3, #2048	; 0x800
   86196:	2a00      	cmp	r2, #0
   86198:	81ab      	strh	r3, [r5, #12]
   8619a:	dd59      	ble.n	86250 <__sflush_r+0xd0>
   8619c:	6aac      	ldr	r4, [r5, #40]	; 0x28
   8619e:	2c00      	cmp	r4, #0
   861a0:	d04b      	beq.n	8623a <__sflush_r+0xba>
   861a2:	b29b      	uxth	r3, r3
   861a4:	f403 5280 	and.w	r2, r3, #4096	; 0x1000
   861a8:	2100      	movs	r1, #0
   861aa:	b292      	uxth	r2, r2
   861ac:	f8d8 6000 	ldr.w	r6, [r8]
   861b0:	f8c8 1000 	str.w	r1, [r8]
   861b4:	2a00      	cmp	r2, #0
   861b6:	d04f      	beq.n	86258 <__sflush_r+0xd8>
   861b8:	6d2a      	ldr	r2, [r5, #80]	; 0x50
   861ba:	075f      	lsls	r7, r3, #29
   861bc:	d505      	bpl.n	861ca <__sflush_r+0x4a>
   861be:	6869      	ldr	r1, [r5, #4]
   861c0:	6b2b      	ldr	r3, [r5, #48]	; 0x30
   861c2:	1a52      	subs	r2, r2, r1
   861c4:	b10b      	cbz	r3, 861ca <__sflush_r+0x4a>
   861c6:	6beb      	ldr	r3, [r5, #60]	; 0x3c
   861c8:	1ad2      	subs	r2, r2, r3
   861ca:	4640      	mov	r0, r8
   861cc:	69e9      	ldr	r1, [r5, #28]
   861ce:	2300      	movs	r3, #0
   861d0:	47a0      	blx	r4
   861d2:	1c44      	adds	r4, r0, #1
   861d4:	d04a      	beq.n	8626c <__sflush_r+0xec>
   861d6:	89ab      	ldrh	r3, [r5, #12]
   861d8:	692a      	ldr	r2, [r5, #16]
   861da:	f423 6300 	bic.w	r3, r3, #2048	; 0x800
   861de:	b29b      	uxth	r3, r3
   861e0:	2100      	movs	r1, #0
   861e2:	602a      	str	r2, [r5, #0]
   861e4:	04da      	lsls	r2, r3, #19
   861e6:	81ab      	strh	r3, [r5, #12]
   861e8:	6069      	str	r1, [r5, #4]
   861ea:	d44c      	bmi.n	86286 <__sflush_r+0x106>
   861ec:	6b29      	ldr	r1, [r5, #48]	; 0x30
   861ee:	f8c8 6000 	str.w	r6, [r8]
   861f2:	b311      	cbz	r1, 8623a <__sflush_r+0xba>
   861f4:	f105 0340 	add.w	r3, r5, #64	; 0x40
   861f8:	4299      	cmp	r1, r3
   861fa:	d002      	beq.n	86202 <__sflush_r+0x82>
   861fc:	4640      	mov	r0, r8
   861fe:	f000 f9c3 	bl	86588 <_free_r>
   86202:	2000      	movs	r0, #0
   86204:	6328      	str	r0, [r5, #48]	; 0x30
   86206:	e8bd 81f0 	ldmia.w	sp!, {r4, r5, r6, r7, r8, pc}
   8620a:	692e      	ldr	r6, [r5, #16]
   8620c:	b1ae      	cbz	r6, 8623a <__sflush_r+0xba>
   8620e:	0791      	lsls	r1, r2, #30
   86210:	682c      	ldr	r4, [r5, #0]
   86212:	bf0c      	ite	eq
   86214:	696b      	ldreq	r3, [r5, #20]
   86216:	2300      	movne	r3, #0
   86218:	602e      	str	r6, [r5, #0]
   8621a:	1ba4      	subs	r4, r4, r6
   8621c:	60ab      	str	r3, [r5, #8]
   8621e:	e00a      	b.n	86236 <__sflush_r+0xb6>
   86220:	4632      	mov	r2, r6
   86222:	4623      	mov	r3, r4
   86224:	6a6f      	ldr	r7, [r5, #36]	; 0x24
   86226:	4640      	mov	r0, r8
   86228:	69e9      	ldr	r1, [r5, #28]
   8622a:	47b8      	blx	r7
   8622c:	2800      	cmp	r0, #0
   8622e:	ebc0 0404 	rsb	r4, r0, r4
   86232:	4406      	add	r6, r0
   86234:	dd04      	ble.n	86240 <__sflush_r+0xc0>
   86236:	2c00      	cmp	r4, #0
   86238:	dcf2      	bgt.n	86220 <__sflush_r+0xa0>
   8623a:	2000      	movs	r0, #0
   8623c:	e8bd 81f0 	ldmia.w	sp!, {r4, r5, r6, r7, r8, pc}
   86240:	89ab      	ldrh	r3, [r5, #12]
   86242:	f04f 30ff 	mov.w	r0, #4294967295
   86246:	f043 0340 	orr.w	r3, r3, #64	; 0x40
   8624a:	81ab      	strh	r3, [r5, #12]
   8624c:	e8bd 81f0 	ldmia.w	sp!, {r4, r5, r6, r7, r8, pc}
   86250:	6bea      	ldr	r2, [r5, #60]	; 0x3c
   86252:	2a00      	cmp	r2, #0
   86254:	dca2      	bgt.n	8619c <__sflush_r+0x1c>
   86256:	e7f0      	b.n	8623a <__sflush_r+0xba>
   86258:	2301      	movs	r3, #1
   8625a:	4640      	mov	r0, r8
   8625c:	69e9      	ldr	r1, [r5, #28]
   8625e:	47a0      	blx	r4
   86260:	1c43      	adds	r3, r0, #1
   86262:	4602      	mov	r2, r0
   86264:	d01e      	beq.n	862a4 <__sflush_r+0x124>
   86266:	89ab      	ldrh	r3, [r5, #12]
   86268:	6aac      	ldr	r4, [r5, #40]	; 0x28
   8626a:	e7a6      	b.n	861ba <__sflush_r+0x3a>
   8626c:	f8d8 3000 	ldr.w	r3, [r8]
   86270:	b95b      	cbnz	r3, 8628a <__sflush_r+0x10a>
   86272:	89aa      	ldrh	r2, [r5, #12]
   86274:	6929      	ldr	r1, [r5, #16]
   86276:	f422 6200 	bic.w	r2, r2, #2048	; 0x800
   8627a:	b292      	uxth	r2, r2
   8627c:	606b      	str	r3, [r5, #4]
   8627e:	04d3      	lsls	r3, r2, #19
   86280:	81aa      	strh	r2, [r5, #12]
   86282:	6029      	str	r1, [r5, #0]
   86284:	d5b2      	bpl.n	861ec <__sflush_r+0x6c>
   86286:	6528      	str	r0, [r5, #80]	; 0x50
   86288:	e7b0      	b.n	861ec <__sflush_r+0x6c>
   8628a:	2b1d      	cmp	r3, #29
   8628c:	d001      	beq.n	86292 <__sflush_r+0x112>
   8628e:	2b16      	cmp	r3, #22
   86290:	d113      	bne.n	862ba <__sflush_r+0x13a>
   86292:	89a9      	ldrh	r1, [r5, #12]
   86294:	692b      	ldr	r3, [r5, #16]
   86296:	f421 6100 	bic.w	r1, r1, #2048	; 0x800
   8629a:	2200      	movs	r2, #0
   8629c:	81a9      	strh	r1, [r5, #12]
   8629e:	602b      	str	r3, [r5, #0]
   862a0:	606a      	str	r2, [r5, #4]
   862a2:	e7a3      	b.n	861ec <__sflush_r+0x6c>
   862a4:	f8d8 3000 	ldr.w	r3, [r8]
   862a8:	2b00      	cmp	r3, #0
   862aa:	d0dc      	beq.n	86266 <__sflush_r+0xe6>
   862ac:	2b1d      	cmp	r3, #29
   862ae:	d001      	beq.n	862b4 <__sflush_r+0x134>
   862b0:	2b16      	cmp	r3, #22
   862b2:	d1c5      	bne.n	86240 <__sflush_r+0xc0>
   862b4:	f8c8 6000 	str.w	r6, [r8]
   862b8:	e7bf      	b.n	8623a <__sflush_r+0xba>
   862ba:	89ab      	ldrh	r3, [r5, #12]
   862bc:	f043 0340 	orr.w	r3, r3, #64	; 0x40
   862c0:	81ab      	strh	r3, [r5, #12]
   862c2:	e8bd 81f0 	ldmia.w	sp!, {r4, r5, r6, r7, r8, pc}
   862c6:	bf00      	nop

000862c8 <_fflush_r>:
   862c8:	b510      	push	{r4, lr}
   862ca:	4604      	mov	r4, r0
   862cc:	b082      	sub	sp, #8
   862ce:	b108      	cbz	r0, 862d4 <_fflush_r+0xc>
   862d0:	6b83      	ldr	r3, [r0, #56]	; 0x38
   862d2:	b153      	cbz	r3, 862ea <_fflush_r+0x22>
   862d4:	f9b1 000c 	ldrsh.w	r0, [r1, #12]
   862d8:	b908      	cbnz	r0, 862de <_fflush_r+0x16>
   862da:	b002      	add	sp, #8
   862dc:	bd10      	pop	{r4, pc}
   862de:	4620      	mov	r0, r4
   862e0:	b002      	add	sp, #8
   862e2:	e8bd 4010 	ldmia.w	sp!, {r4, lr}
   862e6:	f7ff bf4b 	b.w	86180 <__sflush_r>
   862ea:	9101      	str	r1, [sp, #4]
   862ec:	f000 f808 	bl	86300 <__sinit>
   862f0:	9901      	ldr	r1, [sp, #4]
   862f2:	e7ef      	b.n	862d4 <_fflush_r+0xc>

000862f4 <_cleanup_r>:
   862f4:	4901      	ldr	r1, [pc, #4]	; (862fc <_cleanup_r+0x8>)
   862f6:	f000 bb9f 	b.w	86a38 <_fwalk>
   862fa:	bf00      	nop
   862fc:	00087915 	.word	0x00087915

00086300 <__sinit>:
   86300:	e92d 4ff0 	stmdb	sp!, {r4, r5, r6, r7, r8, r9, sl, fp, lr}
   86304:	6b84      	ldr	r4, [r0, #56]	; 0x38
   86306:	b083      	sub	sp, #12
   86308:	4607      	mov	r7, r0
   8630a:	2c00      	cmp	r4, #0
   8630c:	d165      	bne.n	863da <__sinit+0xda>
   8630e:	687d      	ldr	r5, [r7, #4]
   86310:	4833      	ldr	r0, [pc, #204]	; (863e0 <__sinit+0xe0>)
   86312:	2304      	movs	r3, #4
   86314:	2103      	movs	r1, #3
   86316:	f507 723b 	add.w	r2, r7, #748	; 0x2ec
   8631a:	63f8      	str	r0, [r7, #60]	; 0x3c
   8631c:	f8c7 12e4 	str.w	r1, [r7, #740]	; 0x2e4
   86320:	f8c7 22e8 	str.w	r2, [r7, #744]	; 0x2e8
   86324:	f8c7 42e0 	str.w	r4, [r7, #736]	; 0x2e0
   86328:	f105 005c 	add.w	r0, r5, #92	; 0x5c
   8632c:	81ab      	strh	r3, [r5, #12]
   8632e:	602c      	str	r4, [r5, #0]
   86330:	606c      	str	r4, [r5, #4]
   86332:	60ac      	str	r4, [r5, #8]
   86334:	666c      	str	r4, [r5, #100]	; 0x64
   86336:	81ec      	strh	r4, [r5, #14]
   86338:	612c      	str	r4, [r5, #16]
   8633a:	616c      	str	r4, [r5, #20]
   8633c:	61ac      	str	r4, [r5, #24]
   8633e:	4621      	mov	r1, r4
   86340:	2208      	movs	r2, #8
   86342:	f7fe fed3 	bl	850ec <memset>
   86346:	f8df b09c 	ldr.w	fp, [pc, #156]	; 863e4 <__sinit+0xe4>
   8634a:	68be      	ldr	r6, [r7, #8]
   8634c:	f8df a098 	ldr.w	sl, [pc, #152]	; 863e8 <__sinit+0xe8>
   86350:	f8df 9098 	ldr.w	r9, [pc, #152]	; 863ec <__sinit+0xec>
   86354:	f8df 8098 	ldr.w	r8, [pc, #152]	; 863f0 <__sinit+0xf0>
   86358:	2301      	movs	r3, #1
   8635a:	2209      	movs	r2, #9
   8635c:	61ed      	str	r5, [r5, #28]
   8635e:	f8c5 b020 	str.w	fp, [r5, #32]
   86362:	f8c5 a024 	str.w	sl, [r5, #36]	; 0x24
   86366:	f8c5 9028 	str.w	r9, [r5, #40]	; 0x28
   8636a:	f8c5 802c 	str.w	r8, [r5, #44]	; 0x2c
   8636e:	4621      	mov	r1, r4
   86370:	81f3      	strh	r3, [r6, #14]
   86372:	81b2      	strh	r2, [r6, #12]
   86374:	6034      	str	r4, [r6, #0]
   86376:	6074      	str	r4, [r6, #4]
   86378:	60b4      	str	r4, [r6, #8]
   8637a:	6674      	str	r4, [r6, #100]	; 0x64
   8637c:	6134      	str	r4, [r6, #16]
   8637e:	6174      	str	r4, [r6, #20]
   86380:	61b4      	str	r4, [r6, #24]
   86382:	2208      	movs	r2, #8
   86384:	f106 005c 	add.w	r0, r6, #92	; 0x5c
   86388:	9301      	str	r3, [sp, #4]
   8638a:	f7fe feaf 	bl	850ec <memset>
   8638e:	68fd      	ldr	r5, [r7, #12]
   86390:	2012      	movs	r0, #18
   86392:	2202      	movs	r2, #2
   86394:	61f6      	str	r6, [r6, #28]
   86396:	f8c6 b020 	str.w	fp, [r6, #32]
   8639a:	f8c6 a024 	str.w	sl, [r6, #36]	; 0x24
   8639e:	f8c6 9028 	str.w	r9, [r6, #40]	; 0x28
   863a2:	f8c6 802c 	str.w	r8, [r6, #44]	; 0x2c
   863a6:	4621      	mov	r1, r4
   863a8:	81a8      	strh	r0, [r5, #12]
   863aa:	81ea      	strh	r2, [r5, #14]
   863ac:	602c      	str	r4, [r5, #0]
   863ae:	606c      	str	r4, [r5, #4]
   863b0:	60ac      	str	r4, [r5, #8]
   863b2:	666c      	str	r4, [r5, #100]	; 0x64
   863b4:	612c      	str	r4, [r5, #16]
   863b6:	616c      	str	r4, [r5, #20]
   863b8:	61ac      	str	r4, [r5, #24]
   863ba:	f105 005c 	add.w	r0, r5, #92	; 0x5c
   863be:	2208      	movs	r2, #8
   863c0:	f7fe fe94 	bl	850ec <memset>
   863c4:	9b01      	ldr	r3, [sp, #4]
   863c6:	61ed      	str	r5, [r5, #28]
   863c8:	f8c5 b020 	str.w	fp, [r5, #32]
   863cc:	f8c5 a024 	str.w	sl, [r5, #36]	; 0x24
   863d0:	f8c5 9028 	str.w	r9, [r5, #40]	; 0x28
   863d4:	f8c5 802c 	str.w	r8, [r5, #44]	; 0x2c
   863d8:	63bb      	str	r3, [r7, #56]	; 0x38
   863da:	b003      	add	sp, #12
   863dc:	e8bd 8ff0 	ldmia.w	sp!, {r4, r5, r6, r7, r8, r9, sl, fp, pc}
   863e0:	000862f5 	.word	0x000862f5
   863e4:	00087609 	.word	0x00087609
   863e8:	0008762d 	.word	0x0008762d
   863ec:	00087665 	.word	0x00087665
   863f0:	00087685 	.word	0x00087685

000863f4 <__sfp_lock_acquire>:
   863f4:	4770      	bx	lr
   863f6:	bf00      	nop

000863f8 <__sfp_lock_release>:
   863f8:	4770      	bx	lr
   863fa:	bf00      	nop

000863fc <__libc_fini_array>:
   863fc:	b538      	push	{r3, r4, r5, lr}
   863fe:	4d09      	ldr	r5, [pc, #36]	; (86424 <__libc_fini_array+0x28>)
   86400:	4c09      	ldr	r4, [pc, #36]	; (86428 <__libc_fini_array+0x2c>)
   86402:	1b64      	subs	r4, r4, r5
   86404:	10a4      	asrs	r4, r4, #2
   86406:	bf18      	it	ne
   86408:	eb05 0584 	addne.w	r5, r5, r4, lsl #2
   8640c:	d005      	beq.n	8641a <__libc_fini_array+0x1e>
   8640e:	3c01      	subs	r4, #1
   86410:	f855 3d04 	ldr.w	r3, [r5, #-4]!
   86414:	4798      	blx	r3
   86416:	2c00      	cmp	r4, #0
   86418:	d1f9      	bne.n	8640e <__libc_fini_array+0x12>
   8641a:	e8bd 4038 	ldmia.w	sp!, {r3, r4, r5, lr}
   8641e:	f002 b871 	b.w	88504 <_fini>
   86422:	bf00      	nop
   86424:	00088510 	.word	0x00088510
   86428:	00088514 	.word	0x00088514

0008642c <_fputwc_r>:
   8642c:	e92d 41f0 	stmdb	sp!, {r4, r5, r6, r7, r8, lr}
   86430:	8993      	ldrh	r3, [r2, #12]
   86432:	460f      	mov	r7, r1
   86434:	0499      	lsls	r1, r3, #18
   86436:	b082      	sub	sp, #8
   86438:	4614      	mov	r4, r2
   8643a:	4680      	mov	r8, r0
   8643c:	d406      	bmi.n	8644c <_fputwc_r+0x20>
   8643e:	6e52      	ldr	r2, [r2, #100]	; 0x64
   86440:	f443 5300 	orr.w	r3, r3, #8192	; 0x2000
   86444:	f442 5200 	orr.w	r2, r2, #8192	; 0x2000
   86448:	81a3      	strh	r3, [r4, #12]
   8644a:	6662      	str	r2, [r4, #100]	; 0x64
   8644c:	f000 fb1c 	bl	86a88 <__locale_mb_cur_max>
   86450:	2801      	cmp	r0, #1
   86452:	d03e      	beq.n	864d2 <_fputwc_r+0xa6>
   86454:	463a      	mov	r2, r7
   86456:	4640      	mov	r0, r8
   86458:	a901      	add	r1, sp, #4
   8645a:	f104 035c 	add.w	r3, r4, #92	; 0x5c
   8645e:	f001 f969 	bl	87734 <_wcrtomb_r>
   86462:	1c42      	adds	r2, r0, #1
   86464:	4606      	mov	r6, r0
   86466:	d02d      	beq.n	864c4 <_fputwc_r+0x98>
   86468:	2800      	cmp	r0, #0
   8646a:	d03a      	beq.n	864e2 <_fputwc_r+0xb6>
   8646c:	f89d 1004 	ldrb.w	r1, [sp, #4]
   86470:	2500      	movs	r5, #0
   86472:	e009      	b.n	86488 <_fputwc_r+0x5c>
   86474:	6823      	ldr	r3, [r4, #0]
   86476:	7019      	strb	r1, [r3, #0]
   86478:	6823      	ldr	r3, [r4, #0]
   8647a:	3301      	adds	r3, #1
   8647c:	6023      	str	r3, [r4, #0]
   8647e:	3501      	adds	r5, #1
   86480:	42b5      	cmp	r5, r6
   86482:	d22e      	bcs.n	864e2 <_fputwc_r+0xb6>
   86484:	ab01      	add	r3, sp, #4
   86486:	5ce9      	ldrb	r1, [r5, r3]
   86488:	68a3      	ldr	r3, [r4, #8]
   8648a:	3b01      	subs	r3, #1
   8648c:	2b00      	cmp	r3, #0
   8648e:	60a3      	str	r3, [r4, #8]
   86490:	daf0      	bge.n	86474 <_fputwc_r+0x48>
   86492:	69a2      	ldr	r2, [r4, #24]
   86494:	4293      	cmp	r3, r2
   86496:	db06      	blt.n	864a6 <_fputwc_r+0x7a>
   86498:	6823      	ldr	r3, [r4, #0]
   8649a:	7019      	strb	r1, [r3, #0]
   8649c:	6823      	ldr	r3, [r4, #0]
   8649e:	7819      	ldrb	r1, [r3, #0]
   864a0:	3301      	adds	r3, #1
   864a2:	290a      	cmp	r1, #10
   864a4:	d1ea      	bne.n	8647c <_fputwc_r+0x50>
   864a6:	4640      	mov	r0, r8
   864a8:	4622      	mov	r2, r4
   864aa:	f001 f8ef 	bl	8768c <__swbuf_r>
   864ae:	f1b0 33ff 	subs.w	r3, r0, #4294967295
   864b2:	4258      	negs	r0, r3
   864b4:	4158      	adcs	r0, r3
   864b6:	2800      	cmp	r0, #0
   864b8:	d0e1      	beq.n	8647e <_fputwc_r+0x52>
   864ba:	f04f 30ff 	mov.w	r0, #4294967295
   864be:	b002      	add	sp, #8
   864c0:	e8bd 81f0 	ldmia.w	sp!, {r4, r5, r6, r7, r8, pc}
   864c4:	89a3      	ldrh	r3, [r4, #12]
   864c6:	f043 0340 	orr.w	r3, r3, #64	; 0x40
   864ca:	81a3      	strh	r3, [r4, #12]
   864cc:	b002      	add	sp, #8
   864ce:	e8bd 81f0 	ldmia.w	sp!, {r4, r5, r6, r7, r8, pc}
   864d2:	1e7b      	subs	r3, r7, #1
   864d4:	2bfe      	cmp	r3, #254	; 0xfe
   864d6:	d8bd      	bhi.n	86454 <_fputwc_r+0x28>
   864d8:	b2f9      	uxtb	r1, r7
   864da:	4606      	mov	r6, r0
   864dc:	f88d 1004 	strb.w	r1, [sp, #4]
   864e0:	e7c6      	b.n	86470 <_fputwc_r+0x44>
   864e2:	4638      	mov	r0, r7
   864e4:	b002      	add	sp, #8
   864e6:	e8bd 81f0 	ldmia.w	sp!, {r4, r5, r6, r7, r8, pc}
   864ea:	bf00      	nop

000864ec <_malloc_trim_r>:
   864ec:	b5f8      	push	{r3, r4, r5, r6, r7, lr}
   864ee:	4d23      	ldr	r5, [pc, #140]	; (8657c <_malloc_trim_r+0x90>)
   864f0:	460f      	mov	r7, r1
   864f2:	4604      	mov	r4, r0
   864f4:	f000 fe92 	bl	8721c <__malloc_lock>
   864f8:	68ab      	ldr	r3, [r5, #8]
   864fa:	685e      	ldr	r6, [r3, #4]
   864fc:	f026 0603 	bic.w	r6, r6, #3
   86500:	1bf1      	subs	r1, r6, r7
   86502:	f601 71ef 	addw	r1, r1, #4079	; 0xfef
   86506:	f421 617f 	bic.w	r1, r1, #4080	; 0xff0
   8650a:	f021 010f 	bic.w	r1, r1, #15
   8650e:	f5a1 5780 	sub.w	r7, r1, #4096	; 0x1000
   86512:	f5b7 5f80 	cmp.w	r7, #4096	; 0x1000
   86516:	db07      	blt.n	86528 <_malloc_trim_r+0x3c>
   86518:	4620      	mov	r0, r4
   8651a:	2100      	movs	r1, #0
   8651c:	f001 f862 	bl	875e4 <_sbrk_r>
   86520:	68ab      	ldr	r3, [r5, #8]
   86522:	4433      	add	r3, r6
   86524:	4298      	cmp	r0, r3
   86526:	d004      	beq.n	86532 <_malloc_trim_r+0x46>
   86528:	4620      	mov	r0, r4
   8652a:	f000 fe79 	bl	87220 <__malloc_unlock>
   8652e:	2000      	movs	r0, #0
   86530:	bdf8      	pop	{r3, r4, r5, r6, r7, pc}
   86532:	4620      	mov	r0, r4
   86534:	4279      	negs	r1, r7
   86536:	f001 f855 	bl	875e4 <_sbrk_r>
   8653a:	3001      	adds	r0, #1
   8653c:	d00d      	beq.n	8655a <_malloc_trim_r+0x6e>
   8653e:	4b10      	ldr	r3, [pc, #64]	; (86580 <_malloc_trim_r+0x94>)
   86540:	68aa      	ldr	r2, [r5, #8]
   86542:	6819      	ldr	r1, [r3, #0]
   86544:	1bf6      	subs	r6, r6, r7
   86546:	f046 0601 	orr.w	r6, r6, #1
   8654a:	4620      	mov	r0, r4
   8654c:	1bc9      	subs	r1, r1, r7
   8654e:	6056      	str	r6, [r2, #4]
   86550:	6019      	str	r1, [r3, #0]
   86552:	f000 fe65 	bl	87220 <__malloc_unlock>
   86556:	2001      	movs	r0, #1
   86558:	bdf8      	pop	{r3, r4, r5, r6, r7, pc}
   8655a:	4620      	mov	r0, r4
   8655c:	2100      	movs	r1, #0
   8655e:	f001 f841 	bl	875e4 <_sbrk_r>
   86562:	68ab      	ldr	r3, [r5, #8]
   86564:	1ac2      	subs	r2, r0, r3
   86566:	2a0f      	cmp	r2, #15
   86568:	ddde      	ble.n	86528 <_malloc_trim_r+0x3c>
   8656a:	4d06      	ldr	r5, [pc, #24]	; (86584 <_malloc_trim_r+0x98>)
   8656c:	4904      	ldr	r1, [pc, #16]	; (86580 <_malloc_trim_r+0x94>)
   8656e:	682d      	ldr	r5, [r5, #0]
   86570:	f042 0201 	orr.w	r2, r2, #1
   86574:	1b40      	subs	r0, r0, r5
   86576:	605a      	str	r2, [r3, #4]
   86578:	6008      	str	r0, [r1, #0]
   8657a:	e7d5      	b.n	86528 <_malloc_trim_r+0x3c>
   8657c:	200705d8 	.word	0x200705d8
   86580:	20078cf0 	.word	0x20078cf0
   86584:	200709e4 	.word	0x200709e4

00086588 <_free_r>:
   86588:	e92d 41f0 	stmdb	sp!, {r4, r5, r6, r7, r8, lr}
   8658c:	460d      	mov	r5, r1
   8658e:	4606      	mov	r6, r0
   86590:	2900      	cmp	r1, #0
   86592:	d055      	beq.n	86640 <_free_r+0xb8>
   86594:	f000 fe42 	bl	8721c <__malloc_lock>
   86598:	f855 1c04 	ldr.w	r1, [r5, #-4]
   8659c:	f8df c170 	ldr.w	ip, [pc, #368]	; 86710 <_free_r+0x188>
   865a0:	f1a5 0408 	sub.w	r4, r5, #8
   865a4:	f021 0301 	bic.w	r3, r1, #1
   865a8:	18e2      	adds	r2, r4, r3
   865aa:	f8dc 0008 	ldr.w	r0, [ip, #8]
   865ae:	6857      	ldr	r7, [r2, #4]
   865b0:	4290      	cmp	r0, r2
   865b2:	f027 0703 	bic.w	r7, r7, #3
   865b6:	d068      	beq.n	8668a <_free_r+0x102>
   865b8:	f011 0101 	ands.w	r1, r1, #1
   865bc:	6057      	str	r7, [r2, #4]
   865be:	d032      	beq.n	86626 <_free_r+0x9e>
   865c0:	2100      	movs	r1, #0
   865c2:	19d0      	adds	r0, r2, r7
   865c4:	6840      	ldr	r0, [r0, #4]
   865c6:	07c0      	lsls	r0, r0, #31
   865c8:	d406      	bmi.n	865d8 <_free_r+0x50>
   865ca:	443b      	add	r3, r7
   865cc:	6890      	ldr	r0, [r2, #8]
   865ce:	2900      	cmp	r1, #0
   865d0:	d04d      	beq.n	8666e <_free_r+0xe6>
   865d2:	68d2      	ldr	r2, [r2, #12]
   865d4:	60c2      	str	r2, [r0, #12]
   865d6:	6090      	str	r0, [r2, #8]
   865d8:	f043 0201 	orr.w	r2, r3, #1
   865dc:	6062      	str	r2, [r4, #4]
   865de:	50e3      	str	r3, [r4, r3]
   865e0:	b9e1      	cbnz	r1, 8661c <_free_r+0x94>
   865e2:	f5b3 7f00 	cmp.w	r3, #512	; 0x200
   865e6:	d32d      	bcc.n	86644 <_free_r+0xbc>
   865e8:	0a5a      	lsrs	r2, r3, #9
   865ea:	2a04      	cmp	r2, #4
   865ec:	d869      	bhi.n	866c2 <_free_r+0x13a>
   865ee:	0998      	lsrs	r0, r3, #6
   865f0:	3038      	adds	r0, #56	; 0x38
   865f2:	0041      	lsls	r1, r0, #1
   865f4:	eb0c 0c81 	add.w	ip, ip, r1, lsl #2
   865f8:	f8dc 2008 	ldr.w	r2, [ip, #8]
   865fc:	4944      	ldr	r1, [pc, #272]	; (86710 <_free_r+0x188>)
   865fe:	4562      	cmp	r2, ip
   86600:	d065      	beq.n	866ce <_free_r+0x146>
   86602:	6851      	ldr	r1, [r2, #4]
   86604:	f021 0103 	bic.w	r1, r1, #3
   86608:	428b      	cmp	r3, r1
   8660a:	d202      	bcs.n	86612 <_free_r+0x8a>
   8660c:	6892      	ldr	r2, [r2, #8]
   8660e:	4594      	cmp	ip, r2
   86610:	d1f7      	bne.n	86602 <_free_r+0x7a>
   86612:	68d3      	ldr	r3, [r2, #12]
   86614:	60e3      	str	r3, [r4, #12]
   86616:	60a2      	str	r2, [r4, #8]
   86618:	609c      	str	r4, [r3, #8]
   8661a:	60d4      	str	r4, [r2, #12]
   8661c:	4630      	mov	r0, r6
   8661e:	e8bd 41f0 	ldmia.w	sp!, {r4, r5, r6, r7, r8, lr}
   86622:	f000 bdfd 	b.w	87220 <__malloc_unlock>
   86626:	f855 5c08 	ldr.w	r5, [r5, #-8]
   8662a:	f10c 0808 	add.w	r8, ip, #8
   8662e:	1b64      	subs	r4, r4, r5
   86630:	68a0      	ldr	r0, [r4, #8]
   86632:	442b      	add	r3, r5
   86634:	4540      	cmp	r0, r8
   86636:	d042      	beq.n	866be <_free_r+0x136>
   86638:	68e5      	ldr	r5, [r4, #12]
   8663a:	60c5      	str	r5, [r0, #12]
   8663c:	60a8      	str	r0, [r5, #8]
   8663e:	e7c0      	b.n	865c2 <_free_r+0x3a>
   86640:	e8bd 81f0 	ldmia.w	sp!, {r4, r5, r6, r7, r8, pc}
   86644:	08db      	lsrs	r3, r3, #3
   86646:	109a      	asrs	r2, r3, #2
   86648:	2001      	movs	r0, #1
   8664a:	4090      	lsls	r0, r2
   8664c:	f8dc 1004 	ldr.w	r1, [ip, #4]
   86650:	eb0c 03c3 	add.w	r3, ip, r3, lsl #3
   86654:	689a      	ldr	r2, [r3, #8]
   86656:	4301      	orrs	r1, r0
   86658:	60a2      	str	r2, [r4, #8]
   8665a:	60e3      	str	r3, [r4, #12]
   8665c:	f8cc 1004 	str.w	r1, [ip, #4]
   86660:	4630      	mov	r0, r6
   86662:	609c      	str	r4, [r3, #8]
   86664:	60d4      	str	r4, [r2, #12]
   86666:	e8bd 41f0 	ldmia.w	sp!, {r4, r5, r6, r7, r8, lr}
   8666a:	f000 bdd9 	b.w	87220 <__malloc_unlock>
   8666e:	4d29      	ldr	r5, [pc, #164]	; (86714 <_free_r+0x18c>)
   86670:	42a8      	cmp	r0, r5
   86672:	d1ae      	bne.n	865d2 <_free_r+0x4a>
   86674:	f043 0201 	orr.w	r2, r3, #1
   86678:	f8cc 4014 	str.w	r4, [ip, #20]
   8667c:	f8cc 4010 	str.w	r4, [ip, #16]
   86680:	60e0      	str	r0, [r4, #12]
   86682:	60a0      	str	r0, [r4, #8]
   86684:	6062      	str	r2, [r4, #4]
   86686:	50e3      	str	r3, [r4, r3]
   86688:	e7c8      	b.n	8661c <_free_r+0x94>
   8668a:	441f      	add	r7, r3
   8668c:	07cb      	lsls	r3, r1, #31
   8668e:	d407      	bmi.n	866a0 <_free_r+0x118>
   86690:	f855 1c08 	ldr.w	r1, [r5, #-8]
   86694:	1a64      	subs	r4, r4, r1
   86696:	68e3      	ldr	r3, [r4, #12]
   86698:	68a2      	ldr	r2, [r4, #8]
   8669a:	440f      	add	r7, r1
   8669c:	60d3      	str	r3, [r2, #12]
   8669e:	609a      	str	r2, [r3, #8]
   866a0:	4b1d      	ldr	r3, [pc, #116]	; (86718 <_free_r+0x190>)
   866a2:	f047 0201 	orr.w	r2, r7, #1
   866a6:	681b      	ldr	r3, [r3, #0]
   866a8:	6062      	str	r2, [r4, #4]
   866aa:	429f      	cmp	r7, r3
   866ac:	f8cc 4008 	str.w	r4, [ip, #8]
   866b0:	d3b4      	bcc.n	8661c <_free_r+0x94>
   866b2:	4b1a      	ldr	r3, [pc, #104]	; (8671c <_free_r+0x194>)
   866b4:	4630      	mov	r0, r6
   866b6:	6819      	ldr	r1, [r3, #0]
   866b8:	f7ff ff18 	bl	864ec <_malloc_trim_r>
   866bc:	e7ae      	b.n	8661c <_free_r+0x94>
   866be:	2101      	movs	r1, #1
   866c0:	e77f      	b.n	865c2 <_free_r+0x3a>
   866c2:	2a14      	cmp	r2, #20
   866c4:	d80b      	bhi.n	866de <_free_r+0x156>
   866c6:	f102 005b 	add.w	r0, r2, #91	; 0x5b
   866ca:	0041      	lsls	r1, r0, #1
   866cc:	e792      	b.n	865f4 <_free_r+0x6c>
   866ce:	1080      	asrs	r0, r0, #2
   866d0:	2501      	movs	r5, #1
   866d2:	4085      	lsls	r5, r0
   866d4:	6848      	ldr	r0, [r1, #4]
   866d6:	4613      	mov	r3, r2
   866d8:	4328      	orrs	r0, r5
   866da:	6048      	str	r0, [r1, #4]
   866dc:	e79a      	b.n	86614 <_free_r+0x8c>
   866de:	2a54      	cmp	r2, #84	; 0x54
   866e0:	d803      	bhi.n	866ea <_free_r+0x162>
   866e2:	0b18      	lsrs	r0, r3, #12
   866e4:	306e      	adds	r0, #110	; 0x6e
   866e6:	0041      	lsls	r1, r0, #1
   866e8:	e784      	b.n	865f4 <_free_r+0x6c>
   866ea:	f5b2 7faa 	cmp.w	r2, #340	; 0x154
   866ee:	d803      	bhi.n	866f8 <_free_r+0x170>
   866f0:	0bd8      	lsrs	r0, r3, #15
   866f2:	3077      	adds	r0, #119	; 0x77
   866f4:	0041      	lsls	r1, r0, #1
   866f6:	e77d      	b.n	865f4 <_free_r+0x6c>
   866f8:	f240 5154 	movw	r1, #1364	; 0x554
   866fc:	428a      	cmp	r2, r1
   866fe:	d803      	bhi.n	86708 <_free_r+0x180>
   86700:	0c98      	lsrs	r0, r3, #18
   86702:	307c      	adds	r0, #124	; 0x7c
   86704:	0041      	lsls	r1, r0, #1
   86706:	e775      	b.n	865f4 <_free_r+0x6c>
   86708:	21fc      	movs	r1, #252	; 0xfc
   8670a:	207e      	movs	r0, #126	; 0x7e
   8670c:	e772      	b.n	865f4 <_free_r+0x6c>
   8670e:	bf00      	nop
   86710:	200705d8 	.word	0x200705d8
   86714:	200705e0 	.word	0x200705e0
   86718:	200709e0 	.word	0x200709e0
   8671c:	20078cec 	.word	0x20078cec

00086720 <__sfvwrite_r>:
   86720:	e92d 4ff0 	stmdb	sp!, {r4, r5, r6, r7, r8, r9, sl, fp, lr}
   86724:	6893      	ldr	r3, [r2, #8]
   86726:	b083      	sub	sp, #12
   86728:	4616      	mov	r6, r2
   8672a:	4681      	mov	r9, r0
   8672c:	460c      	mov	r4, r1
   8672e:	b32b      	cbz	r3, 8677c <__sfvwrite_r+0x5c>
   86730:	898b      	ldrh	r3, [r1, #12]
   86732:	0719      	lsls	r1, r3, #28
   86734:	d526      	bpl.n	86784 <__sfvwrite_r+0x64>
   86736:	6922      	ldr	r2, [r4, #16]
   86738:	b322      	cbz	r2, 86784 <__sfvwrite_r+0x64>
   8673a:	f003 0202 	and.w	r2, r3, #2
   8673e:	b292      	uxth	r2, r2
   86740:	6835      	ldr	r5, [r6, #0]
   86742:	2a00      	cmp	r2, #0
   86744:	d02c      	beq.n	867a0 <__sfvwrite_r+0x80>
   86746:	f04f 0a00 	mov.w	sl, #0
   8674a:	f8df b2e8 	ldr.w	fp, [pc, #744]	; 86a34 <__sfvwrite_r+0x314>
   8674e:	46d0      	mov	r8, sl
   86750:	45d8      	cmp	r8, fp
   86752:	bf34      	ite	cc
   86754:	4643      	movcc	r3, r8
   86756:	465b      	movcs	r3, fp
   86758:	4652      	mov	r2, sl
   8675a:	4648      	mov	r0, r9
   8675c:	f1b8 0f00 	cmp.w	r8, #0
   86760:	d04f      	beq.n	86802 <__sfvwrite_r+0xe2>
   86762:	69e1      	ldr	r1, [r4, #28]
   86764:	6a67      	ldr	r7, [r4, #36]	; 0x24
   86766:	47b8      	blx	r7
   86768:	2800      	cmp	r0, #0
   8676a:	dd56      	ble.n	8681a <__sfvwrite_r+0xfa>
   8676c:	68b3      	ldr	r3, [r6, #8]
   8676e:	4482      	add	sl, r0
   86770:	1a1b      	subs	r3, r3, r0
   86772:	ebc0 0808 	rsb	r8, r0, r8
   86776:	60b3      	str	r3, [r6, #8]
   86778:	2b00      	cmp	r3, #0
   8677a:	d1e9      	bne.n	86750 <__sfvwrite_r+0x30>
   8677c:	2000      	movs	r0, #0
   8677e:	b003      	add	sp, #12
   86780:	e8bd 8ff0 	ldmia.w	sp!, {r4, r5, r6, r7, r8, r9, sl, fp, pc}
   86784:	4648      	mov	r0, r9
   86786:	4621      	mov	r1, r4
   86788:	f7ff fc88 	bl	8609c <__swsetup_r>
   8678c:	2800      	cmp	r0, #0
   8678e:	f040 8148 	bne.w	86a22 <__sfvwrite_r+0x302>
   86792:	89a3      	ldrh	r3, [r4, #12]
   86794:	6835      	ldr	r5, [r6, #0]
   86796:	f003 0202 	and.w	r2, r3, #2
   8679a:	b292      	uxth	r2, r2
   8679c:	2a00      	cmp	r2, #0
   8679e:	d1d2      	bne.n	86746 <__sfvwrite_r+0x26>
   867a0:	f013 0a01 	ands.w	sl, r3, #1
   867a4:	d142      	bne.n	8682c <__sfvwrite_r+0x10c>
   867a6:	46d0      	mov	r8, sl
   867a8:	f1b8 0f00 	cmp.w	r8, #0
   867ac:	d023      	beq.n	867f6 <__sfvwrite_r+0xd6>
   867ae:	059a      	lsls	r2, r3, #22
   867b0:	68a7      	ldr	r7, [r4, #8]
   867b2:	d576      	bpl.n	868a2 <__sfvwrite_r+0x182>
   867b4:	45b8      	cmp	r8, r7
   867b6:	f0c0 80a4 	bcc.w	86902 <__sfvwrite_r+0x1e2>
   867ba:	f413 6f90 	tst.w	r3, #1152	; 0x480
   867be:	f040 80b2 	bne.w	86926 <__sfvwrite_r+0x206>
   867c2:	6820      	ldr	r0, [r4, #0]
   867c4:	46bb      	mov	fp, r7
   867c6:	4651      	mov	r1, sl
   867c8:	465a      	mov	r2, fp
   867ca:	f000 fcc1 	bl	87150 <memmove>
   867ce:	68a2      	ldr	r2, [r4, #8]
   867d0:	6821      	ldr	r1, [r4, #0]
   867d2:	1bd2      	subs	r2, r2, r7
   867d4:	eb01 030b 	add.w	r3, r1, fp
   867d8:	60a2      	str	r2, [r4, #8]
   867da:	6023      	str	r3, [r4, #0]
   867dc:	4642      	mov	r2, r8
   867de:	68b3      	ldr	r3, [r6, #8]
   867e0:	4492      	add	sl, r2
   867e2:	1a9b      	subs	r3, r3, r2
   867e4:	ebc2 0808 	rsb	r8, r2, r8
   867e8:	60b3      	str	r3, [r6, #8]
   867ea:	2b00      	cmp	r3, #0
   867ec:	d0c6      	beq.n	8677c <__sfvwrite_r+0x5c>
   867ee:	89a3      	ldrh	r3, [r4, #12]
   867f0:	f1b8 0f00 	cmp.w	r8, #0
   867f4:	d1db      	bne.n	867ae <__sfvwrite_r+0x8e>
   867f6:	f8d5 a000 	ldr.w	sl, [r5]
   867fa:	f8d5 8004 	ldr.w	r8, [r5, #4]
   867fe:	3508      	adds	r5, #8
   86800:	e7d2      	b.n	867a8 <__sfvwrite_r+0x88>
   86802:	f8d5 a000 	ldr.w	sl, [r5]
   86806:	f8d5 8004 	ldr.w	r8, [r5, #4]
   8680a:	3508      	adds	r5, #8
   8680c:	e7a0      	b.n	86750 <__sfvwrite_r+0x30>
   8680e:	4648      	mov	r0, r9
   86810:	4621      	mov	r1, r4
   86812:	f7ff fd59 	bl	862c8 <_fflush_r>
   86816:	2800      	cmp	r0, #0
   86818:	d059      	beq.n	868ce <__sfvwrite_r+0x1ae>
   8681a:	89a3      	ldrh	r3, [r4, #12]
   8681c:	f043 0340 	orr.w	r3, r3, #64	; 0x40
   86820:	f04f 30ff 	mov.w	r0, #4294967295
   86824:	81a3      	strh	r3, [r4, #12]
   86826:	b003      	add	sp, #12
   86828:	e8bd 8ff0 	ldmia.w	sp!, {r4, r5, r6, r7, r8, r9, sl, fp, pc}
   8682c:	4692      	mov	sl, r2
   8682e:	9201      	str	r2, [sp, #4]
   86830:	4693      	mov	fp, r2
   86832:	4690      	mov	r8, r2
   86834:	f1b8 0f00 	cmp.w	r8, #0
   86838:	d02b      	beq.n	86892 <__sfvwrite_r+0x172>
   8683a:	9f01      	ldr	r7, [sp, #4]
   8683c:	2f00      	cmp	r7, #0
   8683e:	d064      	beq.n	8690a <__sfvwrite_r+0x1ea>
   86840:	6820      	ldr	r0, [r4, #0]
   86842:	6921      	ldr	r1, [r4, #16]
   86844:	45c2      	cmp	sl, r8
   86846:	bf34      	ite	cc
   86848:	4653      	movcc	r3, sl
   8684a:	4643      	movcs	r3, r8
   8684c:	4288      	cmp	r0, r1
   8684e:	461f      	mov	r7, r3
   86850:	f8d4 c008 	ldr.w	ip, [r4, #8]
   86854:	6962      	ldr	r2, [r4, #20]
   86856:	d903      	bls.n	86860 <__sfvwrite_r+0x140>
   86858:	4494      	add	ip, r2
   8685a:	4563      	cmp	r3, ip
   8685c:	f300 80ae 	bgt.w	869bc <__sfvwrite_r+0x29c>
   86860:	4293      	cmp	r3, r2
   86862:	db36      	blt.n	868d2 <__sfvwrite_r+0x1b2>
   86864:	4613      	mov	r3, r2
   86866:	6a67      	ldr	r7, [r4, #36]	; 0x24
   86868:	4648      	mov	r0, r9
   8686a:	69e1      	ldr	r1, [r4, #28]
   8686c:	465a      	mov	r2, fp
   8686e:	47b8      	blx	r7
   86870:	1e07      	subs	r7, r0, #0
   86872:	ddd2      	ble.n	8681a <__sfvwrite_r+0xfa>
   86874:	ebba 0a07 	subs.w	sl, sl, r7
   86878:	d03a      	beq.n	868f0 <__sfvwrite_r+0x1d0>
   8687a:	68b3      	ldr	r3, [r6, #8]
   8687c:	44bb      	add	fp, r7
   8687e:	1bdb      	subs	r3, r3, r7
   86880:	ebc7 0808 	rsb	r8, r7, r8
   86884:	60b3      	str	r3, [r6, #8]
   86886:	2b00      	cmp	r3, #0
   86888:	f43f af78 	beq.w	8677c <__sfvwrite_r+0x5c>
   8688c:	f1b8 0f00 	cmp.w	r8, #0
   86890:	d1d3      	bne.n	8683a <__sfvwrite_r+0x11a>
   86892:	2700      	movs	r7, #0
   86894:	f8d5 b000 	ldr.w	fp, [r5]
   86898:	f8d5 8004 	ldr.w	r8, [r5, #4]
   8689c:	9701      	str	r7, [sp, #4]
   8689e:	3508      	adds	r5, #8
   868a0:	e7c8      	b.n	86834 <__sfvwrite_r+0x114>
   868a2:	6820      	ldr	r0, [r4, #0]
   868a4:	6923      	ldr	r3, [r4, #16]
   868a6:	4298      	cmp	r0, r3
   868a8:	d802      	bhi.n	868b0 <__sfvwrite_r+0x190>
   868aa:	6963      	ldr	r3, [r4, #20]
   868ac:	4598      	cmp	r8, r3
   868ae:	d272      	bcs.n	86996 <__sfvwrite_r+0x276>
   868b0:	45b8      	cmp	r8, r7
   868b2:	bf38      	it	cc
   868b4:	4647      	movcc	r7, r8
   868b6:	463a      	mov	r2, r7
   868b8:	4651      	mov	r1, sl
   868ba:	f000 fc49 	bl	87150 <memmove>
   868be:	68a3      	ldr	r3, [r4, #8]
   868c0:	6822      	ldr	r2, [r4, #0]
   868c2:	1bdb      	subs	r3, r3, r7
   868c4:	443a      	add	r2, r7
   868c6:	60a3      	str	r3, [r4, #8]
   868c8:	6022      	str	r2, [r4, #0]
   868ca:	2b00      	cmp	r3, #0
   868cc:	d09f      	beq.n	8680e <__sfvwrite_r+0xee>
   868ce:	463a      	mov	r2, r7
   868d0:	e785      	b.n	867de <__sfvwrite_r+0xbe>
   868d2:	461a      	mov	r2, r3
   868d4:	4659      	mov	r1, fp
   868d6:	9300      	str	r3, [sp, #0]
   868d8:	f000 fc3a 	bl	87150 <memmove>
   868dc:	9b00      	ldr	r3, [sp, #0]
   868de:	68a1      	ldr	r1, [r4, #8]
   868e0:	6822      	ldr	r2, [r4, #0]
   868e2:	1ac9      	subs	r1, r1, r3
   868e4:	ebba 0a07 	subs.w	sl, sl, r7
   868e8:	4413      	add	r3, r2
   868ea:	60a1      	str	r1, [r4, #8]
   868ec:	6023      	str	r3, [r4, #0]
   868ee:	d1c4      	bne.n	8687a <__sfvwrite_r+0x15a>
   868f0:	4648      	mov	r0, r9
   868f2:	4621      	mov	r1, r4
   868f4:	f7ff fce8 	bl	862c8 <_fflush_r>
   868f8:	2800      	cmp	r0, #0
   868fa:	d18e      	bne.n	8681a <__sfvwrite_r+0xfa>
   868fc:	f8cd a004 	str.w	sl, [sp, #4]
   86900:	e7bb      	b.n	8687a <__sfvwrite_r+0x15a>
   86902:	6820      	ldr	r0, [r4, #0]
   86904:	4647      	mov	r7, r8
   86906:	46c3      	mov	fp, r8
   86908:	e75d      	b.n	867c6 <__sfvwrite_r+0xa6>
   8690a:	4658      	mov	r0, fp
   8690c:	210a      	movs	r1, #10
   8690e:	4642      	mov	r2, r8
   86910:	f000 fbd4 	bl	870bc <memchr>
   86914:	2800      	cmp	r0, #0
   86916:	d07f      	beq.n	86a18 <__sfvwrite_r+0x2f8>
   86918:	f100 0a01 	add.w	sl, r0, #1
   8691c:	2701      	movs	r7, #1
   8691e:	ebcb 0a0a 	rsb	sl, fp, sl
   86922:	9701      	str	r7, [sp, #4]
   86924:	e78c      	b.n	86840 <__sfvwrite_r+0x120>
   86926:	6822      	ldr	r2, [r4, #0]
   86928:	6921      	ldr	r1, [r4, #16]
   8692a:	6967      	ldr	r7, [r4, #20]
   8692c:	ebc1 0c02 	rsb	ip, r1, r2
   86930:	eb07 0747 	add.w	r7, r7, r7, lsl #1
   86934:	f10c 0201 	add.w	r2, ip, #1
   86938:	eb07 77d7 	add.w	r7, r7, r7, lsr #31
   8693c:	4442      	add	r2, r8
   8693e:	107f      	asrs	r7, r7, #1
   86940:	4297      	cmp	r7, r2
   86942:	bf34      	ite	cc
   86944:	4617      	movcc	r7, r2
   86946:	463a      	movcs	r2, r7
   86948:	055b      	lsls	r3, r3, #21
   8694a:	d54f      	bpl.n	869ec <__sfvwrite_r+0x2cc>
   8694c:	4611      	mov	r1, r2
   8694e:	4648      	mov	r0, r9
   86950:	f8cd c000 	str.w	ip, [sp]
   86954:	f000 f916 	bl	86b84 <_malloc_r>
   86958:	f8dd c000 	ldr.w	ip, [sp]
   8695c:	4683      	mov	fp, r0
   8695e:	2800      	cmp	r0, #0
   86960:	d062      	beq.n	86a28 <__sfvwrite_r+0x308>
   86962:	4662      	mov	r2, ip
   86964:	6921      	ldr	r1, [r4, #16]
   86966:	f8cd c000 	str.w	ip, [sp]
   8696a:	f7fe fb49 	bl	85000 <memcpy>
   8696e:	89a2      	ldrh	r2, [r4, #12]
   86970:	f8dd c000 	ldr.w	ip, [sp]
   86974:	f422 6290 	bic.w	r2, r2, #1152	; 0x480
   86978:	f042 0280 	orr.w	r2, r2, #128	; 0x80
   8697c:	81a2      	strh	r2, [r4, #12]
   8697e:	eb0b 000c 	add.w	r0, fp, ip
   86982:	ebcc 0207 	rsb	r2, ip, r7
   86986:	f8c4 b010 	str.w	fp, [r4, #16]
   8698a:	6167      	str	r7, [r4, #20]
   8698c:	6020      	str	r0, [r4, #0]
   8698e:	60a2      	str	r2, [r4, #8]
   86990:	4647      	mov	r7, r8
   86992:	46c3      	mov	fp, r8
   86994:	e717      	b.n	867c6 <__sfvwrite_r+0xa6>
   86996:	f06f 4200 	mvn.w	r2, #2147483648	; 0x80000000
   8699a:	4590      	cmp	r8, r2
   8699c:	bf38      	it	cc
   8699e:	4642      	movcc	r2, r8
   869a0:	fb92 f2f3 	sdiv	r2, r2, r3
   869a4:	fb02 f303 	mul.w	r3, r2, r3
   869a8:	6a67      	ldr	r7, [r4, #36]	; 0x24
   869aa:	4648      	mov	r0, r9
   869ac:	69e1      	ldr	r1, [r4, #28]
   869ae:	4652      	mov	r2, sl
   869b0:	47b8      	blx	r7
   869b2:	2800      	cmp	r0, #0
   869b4:	f77f af31 	ble.w	8681a <__sfvwrite_r+0xfa>
   869b8:	4602      	mov	r2, r0
   869ba:	e710      	b.n	867de <__sfvwrite_r+0xbe>
   869bc:	4662      	mov	r2, ip
   869be:	4659      	mov	r1, fp
   869c0:	f8cd c000 	str.w	ip, [sp]
   869c4:	f000 fbc4 	bl	87150 <memmove>
   869c8:	f8dd c000 	ldr.w	ip, [sp]
   869cc:	6823      	ldr	r3, [r4, #0]
   869ce:	4648      	mov	r0, r9
   869d0:	4463      	add	r3, ip
   869d2:	6023      	str	r3, [r4, #0]
   869d4:	4621      	mov	r1, r4
   869d6:	f8cd c000 	str.w	ip, [sp]
   869da:	f7ff fc75 	bl	862c8 <_fflush_r>
   869de:	f8dd c000 	ldr.w	ip, [sp]
   869e2:	2800      	cmp	r0, #0
   869e4:	f47f af19 	bne.w	8681a <__sfvwrite_r+0xfa>
   869e8:	4667      	mov	r7, ip
   869ea:	e743      	b.n	86874 <__sfvwrite_r+0x154>
   869ec:	4648      	mov	r0, r9
   869ee:	f8cd c000 	str.w	ip, [sp]
   869f2:	f000 fc17 	bl	87224 <_realloc_r>
   869f6:	f8dd c000 	ldr.w	ip, [sp]
   869fa:	4683      	mov	fp, r0
   869fc:	2800      	cmp	r0, #0
   869fe:	d1be      	bne.n	8697e <__sfvwrite_r+0x25e>
   86a00:	4648      	mov	r0, r9
   86a02:	6921      	ldr	r1, [r4, #16]
   86a04:	f7ff fdc0 	bl	86588 <_free_r>
   86a08:	89a3      	ldrh	r3, [r4, #12]
   86a0a:	220c      	movs	r2, #12
   86a0c:	f023 0380 	bic.w	r3, r3, #128	; 0x80
   86a10:	b29b      	uxth	r3, r3
   86a12:	f8c9 2000 	str.w	r2, [r9]
   86a16:	e701      	b.n	8681c <__sfvwrite_r+0xfc>
   86a18:	2701      	movs	r7, #1
   86a1a:	f108 0a01 	add.w	sl, r8, #1
   86a1e:	9701      	str	r7, [sp, #4]
   86a20:	e70e      	b.n	86840 <__sfvwrite_r+0x120>
   86a22:	f04f 30ff 	mov.w	r0, #4294967295
   86a26:	e6aa      	b.n	8677e <__sfvwrite_r+0x5e>
   86a28:	230c      	movs	r3, #12
   86a2a:	f8c9 3000 	str.w	r3, [r9]
   86a2e:	89a3      	ldrh	r3, [r4, #12]
   86a30:	e6f4      	b.n	8681c <__sfvwrite_r+0xfc>
   86a32:	bf00      	nop
   86a34:	7ffffc00 	.word	0x7ffffc00

00086a38 <_fwalk>:
   86a38:	e92d 41f0 	stmdb	sp!, {r4, r5, r6, r7, r8, lr}
   86a3c:	f510 7738 	adds.w	r7, r0, #736	; 0x2e0
   86a40:	4688      	mov	r8, r1
   86a42:	d019      	beq.n	86a78 <_fwalk+0x40>
   86a44:	2600      	movs	r6, #0
   86a46:	687d      	ldr	r5, [r7, #4]
   86a48:	68bc      	ldr	r4, [r7, #8]
   86a4a:	3d01      	subs	r5, #1
   86a4c:	d40e      	bmi.n	86a6c <_fwalk+0x34>
   86a4e:	89a3      	ldrh	r3, [r4, #12]
   86a50:	3d01      	subs	r5, #1
   86a52:	2b01      	cmp	r3, #1
   86a54:	d906      	bls.n	86a64 <_fwalk+0x2c>
   86a56:	f9b4 300e 	ldrsh.w	r3, [r4, #14]
   86a5a:	4620      	mov	r0, r4
   86a5c:	3301      	adds	r3, #1
   86a5e:	d001      	beq.n	86a64 <_fwalk+0x2c>
   86a60:	47c0      	blx	r8
   86a62:	4306      	orrs	r6, r0
   86a64:	1c6b      	adds	r3, r5, #1
   86a66:	f104 0468 	add.w	r4, r4, #104	; 0x68
   86a6a:	d1f0      	bne.n	86a4e <_fwalk+0x16>
   86a6c:	683f      	ldr	r7, [r7, #0]
   86a6e:	2f00      	cmp	r7, #0
   86a70:	d1e9      	bne.n	86a46 <_fwalk+0xe>
   86a72:	4630      	mov	r0, r6
   86a74:	e8bd 81f0 	ldmia.w	sp!, {r4, r5, r6, r7, r8, pc}
   86a78:	463e      	mov	r6, r7
   86a7a:	4630      	mov	r0, r6
   86a7c:	e8bd 81f0 	ldmia.w	sp!, {r4, r5, r6, r7, r8, pc}

00086a80 <__locale_charset>:
   86a80:	4800      	ldr	r0, [pc, #0]	; (86a84 <__locale_charset+0x4>)
   86a82:	4770      	bx	lr
   86a84:	200705b4 	.word	0x200705b4

00086a88 <__locale_mb_cur_max>:
   86a88:	4b01      	ldr	r3, [pc, #4]	; (86a90 <__locale_mb_cur_max+0x8>)
   86a8a:	6818      	ldr	r0, [r3, #0]
   86a8c:	4770      	bx	lr
   86a8e:	bf00      	nop
   86a90:	200705d4 	.word	0x200705d4

00086a94 <__smakebuf_r>:
   86a94:	b5f0      	push	{r4, r5, r6, r7, lr}
   86a96:	898b      	ldrh	r3, [r1, #12]
   86a98:	b091      	sub	sp, #68	; 0x44
   86a9a:	b29a      	uxth	r2, r3
   86a9c:	0796      	lsls	r6, r2, #30
   86a9e:	460c      	mov	r4, r1
   86aa0:	4605      	mov	r5, r0
   86aa2:	d437      	bmi.n	86b14 <__smakebuf_r+0x80>
   86aa4:	f9b1 100e 	ldrsh.w	r1, [r1, #14]
   86aa8:	2900      	cmp	r1, #0
   86aaa:	db17      	blt.n	86adc <__smakebuf_r+0x48>
   86aac:	aa01      	add	r2, sp, #4
   86aae:	f000 ff39 	bl	87924 <_fstat_r>
   86ab2:	2800      	cmp	r0, #0
   86ab4:	db10      	blt.n	86ad8 <__smakebuf_r+0x44>
   86ab6:	9b02      	ldr	r3, [sp, #8]
   86ab8:	f403 4370 	and.w	r3, r3, #61440	; 0xf000
   86abc:	f5b3 5100 	subs.w	r1, r3, #8192	; 0x2000
   86ac0:	424f      	negs	r7, r1
   86ac2:	414f      	adcs	r7, r1
   86ac4:	f5b3 4f00 	cmp.w	r3, #32768	; 0x8000
   86ac8:	d02c      	beq.n	86b24 <__smakebuf_r+0x90>
   86aca:	89a3      	ldrh	r3, [r4, #12]
   86acc:	f44f 6680 	mov.w	r6, #1024	; 0x400
   86ad0:	f443 6300 	orr.w	r3, r3, #2048	; 0x800
   86ad4:	81a3      	strh	r3, [r4, #12]
   86ad6:	e00b      	b.n	86af0 <__smakebuf_r+0x5c>
   86ad8:	89a3      	ldrh	r3, [r4, #12]
   86ada:	b29a      	uxth	r2, r3
   86adc:	f012 0f80 	tst.w	r2, #128	; 0x80
   86ae0:	f443 6300 	orr.w	r3, r3, #2048	; 0x800
   86ae4:	81a3      	strh	r3, [r4, #12]
   86ae6:	bf14      	ite	ne
   86ae8:	2640      	movne	r6, #64	; 0x40
   86aea:	f44f 6680 	moveq.w	r6, #1024	; 0x400
   86aee:	2700      	movs	r7, #0
   86af0:	4628      	mov	r0, r5
   86af2:	4631      	mov	r1, r6
   86af4:	f000 f846 	bl	86b84 <_malloc_r>
   86af8:	89a3      	ldrh	r3, [r4, #12]
   86afa:	2800      	cmp	r0, #0
   86afc:	d029      	beq.n	86b52 <__smakebuf_r+0xbe>
   86afe:	4a1b      	ldr	r2, [pc, #108]	; (86b6c <__smakebuf_r+0xd8>)
   86b00:	f043 0380 	orr.w	r3, r3, #128	; 0x80
   86b04:	63ea      	str	r2, [r5, #60]	; 0x3c
   86b06:	81a3      	strh	r3, [r4, #12]
   86b08:	6020      	str	r0, [r4, #0]
   86b0a:	6120      	str	r0, [r4, #16]
   86b0c:	6166      	str	r6, [r4, #20]
   86b0e:	b9a7      	cbnz	r7, 86b3a <__smakebuf_r+0xa6>
   86b10:	b011      	add	sp, #68	; 0x44
   86b12:	bdf0      	pop	{r4, r5, r6, r7, pc}
   86b14:	f101 0343 	add.w	r3, r1, #67	; 0x43
   86b18:	2201      	movs	r2, #1
   86b1a:	600b      	str	r3, [r1, #0]
   86b1c:	610b      	str	r3, [r1, #16]
   86b1e:	614a      	str	r2, [r1, #20]
   86b20:	b011      	add	sp, #68	; 0x44
   86b22:	bdf0      	pop	{r4, r5, r6, r7, pc}
   86b24:	4a12      	ldr	r2, [pc, #72]	; (86b70 <__smakebuf_r+0xdc>)
   86b26:	6aa3      	ldr	r3, [r4, #40]	; 0x28
   86b28:	4293      	cmp	r3, r2
   86b2a:	d1ce      	bne.n	86aca <__smakebuf_r+0x36>
   86b2c:	89a3      	ldrh	r3, [r4, #12]
   86b2e:	f44f 6680 	mov.w	r6, #1024	; 0x400
   86b32:	4333      	orrs	r3, r6
   86b34:	81a3      	strh	r3, [r4, #12]
   86b36:	64e6      	str	r6, [r4, #76]	; 0x4c
   86b38:	e7da      	b.n	86af0 <__smakebuf_r+0x5c>
   86b3a:	4628      	mov	r0, r5
   86b3c:	f9b4 100e 	ldrsh.w	r1, [r4, #14]
   86b40:	f000 ff04 	bl	8794c <_isatty_r>
   86b44:	2800      	cmp	r0, #0
   86b46:	d0e3      	beq.n	86b10 <__smakebuf_r+0x7c>
   86b48:	89a3      	ldrh	r3, [r4, #12]
   86b4a:	f043 0301 	orr.w	r3, r3, #1
   86b4e:	81a3      	strh	r3, [r4, #12]
   86b50:	e7de      	b.n	86b10 <__smakebuf_r+0x7c>
   86b52:	059a      	lsls	r2, r3, #22
   86b54:	d4dc      	bmi.n	86b10 <__smakebuf_r+0x7c>
   86b56:	f104 0243 	add.w	r2, r4, #67	; 0x43
   86b5a:	f043 0302 	orr.w	r3, r3, #2
   86b5e:	2101      	movs	r1, #1
   86b60:	81a3      	strh	r3, [r4, #12]
   86b62:	6022      	str	r2, [r4, #0]
   86b64:	6122      	str	r2, [r4, #16]
   86b66:	6161      	str	r1, [r4, #20]
   86b68:	e7d2      	b.n	86b10 <__smakebuf_r+0x7c>
   86b6a:	bf00      	nop
   86b6c:	000862f5 	.word	0x000862f5
   86b70:	00087665 	.word	0x00087665

00086b74 <malloc>:
   86b74:	4b02      	ldr	r3, [pc, #8]	; (86b80 <malloc+0xc>)
   86b76:	4601      	mov	r1, r0
   86b78:	6818      	ldr	r0, [r3, #0]
   86b7a:	f000 b803 	b.w	86b84 <_malloc_r>
   86b7e:	bf00      	nop
   86b80:	200705b0 	.word	0x200705b0

00086b84 <_malloc_r>:
   86b84:	e92d 4ff0 	stmdb	sp!, {r4, r5, r6, r7, r8, r9, sl, fp, lr}
   86b88:	f101 050b 	add.w	r5, r1, #11
   86b8c:	2d16      	cmp	r5, #22
   86b8e:	b083      	sub	sp, #12
   86b90:	4606      	mov	r6, r0
   86b92:	d927      	bls.n	86be4 <_malloc_r+0x60>
   86b94:	f035 0507 	bics.w	r5, r5, #7
   86b98:	d427      	bmi.n	86bea <_malloc_r+0x66>
   86b9a:	42a9      	cmp	r1, r5
   86b9c:	d825      	bhi.n	86bea <_malloc_r+0x66>
   86b9e:	4630      	mov	r0, r6
   86ba0:	f000 fb3c 	bl	8721c <__malloc_lock>
   86ba4:	f5b5 7ffc 	cmp.w	r5, #504	; 0x1f8
   86ba8:	d226      	bcs.n	86bf8 <_malloc_r+0x74>
   86baa:	4fc1      	ldr	r7, [pc, #772]	; (86eb0 <_malloc_r+0x32c>)
   86bac:	ea4f 0cd5 	mov.w	ip, r5, lsr #3
   86bb0:	eb07 03cc 	add.w	r3, r7, ip, lsl #3
   86bb4:	68dc      	ldr	r4, [r3, #12]
   86bb6:	429c      	cmp	r4, r3
   86bb8:	f000 81d2 	beq.w	86f60 <_malloc_r+0x3dc>
   86bbc:	6863      	ldr	r3, [r4, #4]
   86bbe:	68e2      	ldr	r2, [r4, #12]
   86bc0:	f023 0303 	bic.w	r3, r3, #3
   86bc4:	4423      	add	r3, r4
   86bc6:	6858      	ldr	r0, [r3, #4]
   86bc8:	68a1      	ldr	r1, [r4, #8]
   86bca:	f040 0501 	orr.w	r5, r0, #1
   86bce:	60ca      	str	r2, [r1, #12]
   86bd0:	4630      	mov	r0, r6
   86bd2:	6091      	str	r1, [r2, #8]
   86bd4:	605d      	str	r5, [r3, #4]
   86bd6:	f000 fb23 	bl	87220 <__malloc_unlock>
   86bda:	3408      	adds	r4, #8
   86bdc:	4620      	mov	r0, r4
   86bde:	b003      	add	sp, #12
   86be0:	e8bd 8ff0 	ldmia.w	sp!, {r4, r5, r6, r7, r8, r9, sl, fp, pc}
   86be4:	2510      	movs	r5, #16
   86be6:	42a9      	cmp	r1, r5
   86be8:	d9d9      	bls.n	86b9e <_malloc_r+0x1a>
   86bea:	2400      	movs	r4, #0
   86bec:	230c      	movs	r3, #12
   86bee:	4620      	mov	r0, r4
   86bf0:	6033      	str	r3, [r6, #0]
   86bf2:	b003      	add	sp, #12
   86bf4:	e8bd 8ff0 	ldmia.w	sp!, {r4, r5, r6, r7, r8, r9, sl, fp, pc}
   86bf8:	ea5f 2c55 	movs.w	ip, r5, lsr #9
   86bfc:	f000 8089 	beq.w	86d12 <_malloc_r+0x18e>
   86c00:	f1bc 0f04 	cmp.w	ip, #4
   86c04:	f200 8160 	bhi.w	86ec8 <_malloc_r+0x344>
   86c08:	ea4f 1c95 	mov.w	ip, r5, lsr #6
   86c0c:	f10c 0c38 	add.w	ip, ip, #56	; 0x38
   86c10:	ea4f 014c 	mov.w	r1, ip, lsl #1
   86c14:	4fa6      	ldr	r7, [pc, #664]	; (86eb0 <_malloc_r+0x32c>)
   86c16:	eb07 0181 	add.w	r1, r7, r1, lsl #2
   86c1a:	68cc      	ldr	r4, [r1, #12]
   86c1c:	42a1      	cmp	r1, r4
   86c1e:	d105      	bne.n	86c2c <_malloc_r+0xa8>
   86c20:	e00c      	b.n	86c3c <_malloc_r+0xb8>
   86c22:	2b00      	cmp	r3, #0
   86c24:	da79      	bge.n	86d1a <_malloc_r+0x196>
   86c26:	68e4      	ldr	r4, [r4, #12]
   86c28:	42a1      	cmp	r1, r4
   86c2a:	d007      	beq.n	86c3c <_malloc_r+0xb8>
   86c2c:	6862      	ldr	r2, [r4, #4]
   86c2e:	f022 0203 	bic.w	r2, r2, #3
   86c32:	1b53      	subs	r3, r2, r5
   86c34:	2b0f      	cmp	r3, #15
   86c36:	ddf4      	ble.n	86c22 <_malloc_r+0x9e>
   86c38:	f10c 3cff 	add.w	ip, ip, #4294967295
   86c3c:	f10c 0c01 	add.w	ip, ip, #1
   86c40:	4b9b      	ldr	r3, [pc, #620]	; (86eb0 <_malloc_r+0x32c>)
   86c42:	693c      	ldr	r4, [r7, #16]
   86c44:	f103 0e08 	add.w	lr, r3, #8
   86c48:	4574      	cmp	r4, lr
   86c4a:	f000 817e 	beq.w	86f4a <_malloc_r+0x3c6>
   86c4e:	6861      	ldr	r1, [r4, #4]
   86c50:	f021 0103 	bic.w	r1, r1, #3
   86c54:	1b4a      	subs	r2, r1, r5
   86c56:	2a0f      	cmp	r2, #15
   86c58:	f300 8164 	bgt.w	86f24 <_malloc_r+0x3a0>
   86c5c:	2a00      	cmp	r2, #0
   86c5e:	f8c3 e014 	str.w	lr, [r3, #20]
   86c62:	f8c3 e010 	str.w	lr, [r3, #16]
   86c66:	da69      	bge.n	86d3c <_malloc_r+0x1b8>
   86c68:	f5b1 7f00 	cmp.w	r1, #512	; 0x200
   86c6c:	f080 813a 	bcs.w	86ee4 <_malloc_r+0x360>
   86c70:	08c9      	lsrs	r1, r1, #3
   86c72:	108a      	asrs	r2, r1, #2
   86c74:	f04f 0801 	mov.w	r8, #1
   86c78:	fa08 f802 	lsl.w	r8, r8, r2
   86c7c:	eb03 01c1 	add.w	r1, r3, r1, lsl #3
   86c80:	685a      	ldr	r2, [r3, #4]
   86c82:	6888      	ldr	r0, [r1, #8]
   86c84:	ea48 0202 	orr.w	r2, r8, r2
   86c88:	60a0      	str	r0, [r4, #8]
   86c8a:	60e1      	str	r1, [r4, #12]
   86c8c:	605a      	str	r2, [r3, #4]
   86c8e:	608c      	str	r4, [r1, #8]
   86c90:	60c4      	str	r4, [r0, #12]
   86c92:	ea4f 03ac 	mov.w	r3, ip, asr #2
   86c96:	2001      	movs	r0, #1
   86c98:	4098      	lsls	r0, r3
   86c9a:	4290      	cmp	r0, r2
   86c9c:	d85b      	bhi.n	86d56 <_malloc_r+0x1d2>
   86c9e:	4202      	tst	r2, r0
   86ca0:	d106      	bne.n	86cb0 <_malloc_r+0x12c>
   86ca2:	f02c 0c03 	bic.w	ip, ip, #3
   86ca6:	0040      	lsls	r0, r0, #1
   86ca8:	4202      	tst	r2, r0
   86caa:	f10c 0c04 	add.w	ip, ip, #4
   86cae:	d0fa      	beq.n	86ca6 <_malloc_r+0x122>
   86cb0:	eb07 08cc 	add.w	r8, r7, ip, lsl #3
   86cb4:	4644      	mov	r4, r8
   86cb6:	46e1      	mov	r9, ip
   86cb8:	68e3      	ldr	r3, [r4, #12]
   86cba:	429c      	cmp	r4, r3
   86cbc:	d107      	bne.n	86cce <_malloc_r+0x14a>
   86cbe:	e146      	b.n	86f4e <_malloc_r+0x3ca>
   86cc0:	2a00      	cmp	r2, #0
   86cc2:	f280 8157 	bge.w	86f74 <_malloc_r+0x3f0>
   86cc6:	68db      	ldr	r3, [r3, #12]
   86cc8:	429c      	cmp	r4, r3
   86cca:	f000 8140 	beq.w	86f4e <_malloc_r+0x3ca>
   86cce:	6859      	ldr	r1, [r3, #4]
   86cd0:	f021 0103 	bic.w	r1, r1, #3
   86cd4:	1b4a      	subs	r2, r1, r5
   86cd6:	2a0f      	cmp	r2, #15
   86cd8:	ddf2      	ble.n	86cc0 <_malloc_r+0x13c>
   86cda:	461c      	mov	r4, r3
   86cdc:	f854 cf08 	ldr.w	ip, [r4, #8]!
   86ce0:	68d9      	ldr	r1, [r3, #12]
   86ce2:	f045 0901 	orr.w	r9, r5, #1
   86ce6:	f042 0801 	orr.w	r8, r2, #1
   86cea:	441d      	add	r5, r3
   86cec:	f8c3 9004 	str.w	r9, [r3, #4]
   86cf0:	4630      	mov	r0, r6
   86cf2:	f8cc 100c 	str.w	r1, [ip, #12]
   86cf6:	f8c1 c008 	str.w	ip, [r1, #8]
   86cfa:	617d      	str	r5, [r7, #20]
   86cfc:	613d      	str	r5, [r7, #16]
   86cfe:	f8c5 e00c 	str.w	lr, [r5, #12]
   86d02:	f8c5 e008 	str.w	lr, [r5, #8]
   86d06:	f8c5 8004 	str.w	r8, [r5, #4]
   86d0a:	50aa      	str	r2, [r5, r2]
   86d0c:	f000 fa88 	bl	87220 <__malloc_unlock>
   86d10:	e764      	b.n	86bdc <_malloc_r+0x58>
   86d12:	217e      	movs	r1, #126	; 0x7e
   86d14:	f04f 0c3f 	mov.w	ip, #63	; 0x3f
   86d18:	e77c      	b.n	86c14 <_malloc_r+0x90>
   86d1a:	4422      	add	r2, r4
   86d1c:	6850      	ldr	r0, [r2, #4]
   86d1e:	68e3      	ldr	r3, [r4, #12]
   86d20:	68a1      	ldr	r1, [r4, #8]
   86d22:	f040 0501 	orr.w	r5, r0, #1
   86d26:	60cb      	str	r3, [r1, #12]
   86d28:	4630      	mov	r0, r6
   86d2a:	6099      	str	r1, [r3, #8]
   86d2c:	6055      	str	r5, [r2, #4]
   86d2e:	f000 fa77 	bl	87220 <__malloc_unlock>
   86d32:	3408      	adds	r4, #8
   86d34:	4620      	mov	r0, r4
   86d36:	b003      	add	sp, #12
   86d38:	e8bd 8ff0 	ldmia.w	sp!, {r4, r5, r6, r7, r8, r9, sl, fp, pc}
   86d3c:	4421      	add	r1, r4
   86d3e:	684b      	ldr	r3, [r1, #4]
   86d40:	4630      	mov	r0, r6
   86d42:	f043 0301 	orr.w	r3, r3, #1
   86d46:	604b      	str	r3, [r1, #4]
   86d48:	f000 fa6a 	bl	87220 <__malloc_unlock>
   86d4c:	3408      	adds	r4, #8
   86d4e:	4620      	mov	r0, r4
   86d50:	b003      	add	sp, #12
   86d52:	e8bd 8ff0 	ldmia.w	sp!, {r4, r5, r6, r7, r8, r9, sl, fp, pc}
   86d56:	68bc      	ldr	r4, [r7, #8]
   86d58:	6863      	ldr	r3, [r4, #4]
   86d5a:	f023 0903 	bic.w	r9, r3, #3
   86d5e:	45a9      	cmp	r9, r5
   86d60:	d304      	bcc.n	86d6c <_malloc_r+0x1e8>
   86d62:	ebc5 0309 	rsb	r3, r5, r9
   86d66:	2b0f      	cmp	r3, #15
   86d68:	f300 8091 	bgt.w	86e8e <_malloc_r+0x30a>
   86d6c:	4b51      	ldr	r3, [pc, #324]	; (86eb4 <_malloc_r+0x330>)
   86d6e:	4a52      	ldr	r2, [pc, #328]	; (86eb8 <_malloc_r+0x334>)
   86d70:	6819      	ldr	r1, [r3, #0]
   86d72:	6813      	ldr	r3, [r2, #0]
   86d74:	eb05 0a01 	add.w	sl, r5, r1
   86d78:	3301      	adds	r3, #1
   86d7a:	eb04 0b09 	add.w	fp, r4, r9
   86d7e:	f000 8161 	beq.w	87044 <_malloc_r+0x4c0>
   86d82:	f50a 5a80 	add.w	sl, sl, #4096	; 0x1000
   86d86:	f10a 0a0f 	add.w	sl, sl, #15
   86d8a:	f42a 6a7f 	bic.w	sl, sl, #4080	; 0xff0
   86d8e:	f02a 0a0f 	bic.w	sl, sl, #15
   86d92:	4630      	mov	r0, r6
   86d94:	4651      	mov	r1, sl
   86d96:	9201      	str	r2, [sp, #4]
   86d98:	f000 fc24 	bl	875e4 <_sbrk_r>
   86d9c:	f1b0 3fff 	cmp.w	r0, #4294967295
   86da0:	4680      	mov	r8, r0
   86da2:	9a01      	ldr	r2, [sp, #4]
   86da4:	f000 8101 	beq.w	86faa <_malloc_r+0x426>
   86da8:	4583      	cmp	fp, r0
   86daa:	f200 80fb 	bhi.w	86fa4 <_malloc_r+0x420>
   86dae:	f8df c114 	ldr.w	ip, [pc, #276]	; 86ec4 <_malloc_r+0x340>
   86db2:	45c3      	cmp	fp, r8
   86db4:	f8dc 3000 	ldr.w	r3, [ip]
   86db8:	4453      	add	r3, sl
   86dba:	f8cc 3000 	str.w	r3, [ip]
   86dbe:	f000 814a 	beq.w	87056 <_malloc_r+0x4d2>
   86dc2:	6812      	ldr	r2, [r2, #0]
   86dc4:	493c      	ldr	r1, [pc, #240]	; (86eb8 <_malloc_r+0x334>)
   86dc6:	3201      	adds	r2, #1
   86dc8:	bf1b      	ittet	ne
   86dca:	ebcb 0b08 	rsbne	fp, fp, r8
   86dce:	445b      	addne	r3, fp
   86dd0:	f8c1 8000 	streq.w	r8, [r1]
   86dd4:	f8cc 3000 	strne.w	r3, [ip]
   86dd8:	f018 0307 	ands.w	r3, r8, #7
   86ddc:	f000 8114 	beq.w	87008 <_malloc_r+0x484>
   86de0:	f1c3 0208 	rsb	r2, r3, #8
   86de4:	f5c3 5380 	rsb	r3, r3, #4096	; 0x1000
   86de8:	4490      	add	r8, r2
   86dea:	3308      	adds	r3, #8
   86dec:	44c2      	add	sl, r8
   86dee:	f3ca 0a0b 	ubfx	sl, sl, #0, #12
   86df2:	ebca 0a03 	rsb	sl, sl, r3
   86df6:	4651      	mov	r1, sl
   86df8:	4630      	mov	r0, r6
   86dfa:	f8cd c004 	str.w	ip, [sp, #4]
   86dfe:	f000 fbf1 	bl	875e4 <_sbrk_r>
   86e02:	1c43      	adds	r3, r0, #1
   86e04:	f8dd c004 	ldr.w	ip, [sp, #4]
   86e08:	f000 8135 	beq.w	87076 <_malloc_r+0x4f2>
   86e0c:	ebc8 0200 	rsb	r2, r8, r0
   86e10:	4452      	add	r2, sl
   86e12:	f042 0201 	orr.w	r2, r2, #1
   86e16:	f8dc 3000 	ldr.w	r3, [ip]
   86e1a:	42bc      	cmp	r4, r7
   86e1c:	4453      	add	r3, sl
   86e1e:	f8c7 8008 	str.w	r8, [r7, #8]
   86e22:	f8cc 3000 	str.w	r3, [ip]
   86e26:	f8c8 2004 	str.w	r2, [r8, #4]
   86e2a:	f8df a098 	ldr.w	sl, [pc, #152]	; 86ec4 <_malloc_r+0x340>
   86e2e:	d015      	beq.n	86e5c <_malloc_r+0x2d8>
   86e30:	f1b9 0f0f 	cmp.w	r9, #15
   86e34:	f240 80eb 	bls.w	8700e <_malloc_r+0x48a>
   86e38:	6861      	ldr	r1, [r4, #4]
   86e3a:	f1a9 020c 	sub.w	r2, r9, #12
   86e3e:	f022 0207 	bic.w	r2, r2, #7
   86e42:	f001 0101 	and.w	r1, r1, #1
   86e46:	ea42 0e01 	orr.w	lr, r2, r1
   86e4a:	2005      	movs	r0, #5
   86e4c:	18a1      	adds	r1, r4, r2
   86e4e:	2a0f      	cmp	r2, #15
   86e50:	f8c4 e004 	str.w	lr, [r4, #4]
   86e54:	6048      	str	r0, [r1, #4]
   86e56:	6088      	str	r0, [r1, #8]
   86e58:	f200 8111 	bhi.w	8707e <_malloc_r+0x4fa>
   86e5c:	4a17      	ldr	r2, [pc, #92]	; (86ebc <_malloc_r+0x338>)
   86e5e:	68bc      	ldr	r4, [r7, #8]
   86e60:	6811      	ldr	r1, [r2, #0]
   86e62:	428b      	cmp	r3, r1
   86e64:	bf88      	it	hi
   86e66:	6013      	strhi	r3, [r2, #0]
   86e68:	4a15      	ldr	r2, [pc, #84]	; (86ec0 <_malloc_r+0x33c>)
   86e6a:	6811      	ldr	r1, [r2, #0]
   86e6c:	428b      	cmp	r3, r1
   86e6e:	bf88      	it	hi
   86e70:	6013      	strhi	r3, [r2, #0]
   86e72:	6862      	ldr	r2, [r4, #4]
   86e74:	f022 0203 	bic.w	r2, r2, #3
   86e78:	4295      	cmp	r5, r2
   86e7a:	ebc5 0302 	rsb	r3, r5, r2
   86e7e:	d801      	bhi.n	86e84 <_malloc_r+0x300>
   86e80:	2b0f      	cmp	r3, #15
   86e82:	dc04      	bgt.n	86e8e <_malloc_r+0x30a>
   86e84:	4630      	mov	r0, r6
   86e86:	f000 f9cb 	bl	87220 <__malloc_unlock>
   86e8a:	2400      	movs	r4, #0
   86e8c:	e6a6      	b.n	86bdc <_malloc_r+0x58>
   86e8e:	f045 0201 	orr.w	r2, r5, #1
   86e92:	f043 0301 	orr.w	r3, r3, #1
   86e96:	4425      	add	r5, r4
   86e98:	6062      	str	r2, [r4, #4]
   86e9a:	4630      	mov	r0, r6
   86e9c:	60bd      	str	r5, [r7, #8]
   86e9e:	606b      	str	r3, [r5, #4]
   86ea0:	f000 f9be 	bl	87220 <__malloc_unlock>
   86ea4:	3408      	adds	r4, #8
   86ea6:	4620      	mov	r0, r4
   86ea8:	b003      	add	sp, #12
   86eaa:	e8bd 8ff0 	ldmia.w	sp!, {r4, r5, r6, r7, r8, r9, sl, fp, pc}
   86eae:	bf00      	nop
   86eb0:	200705d8 	.word	0x200705d8
   86eb4:	20078cec 	.word	0x20078cec
   86eb8:	200709e4 	.word	0x200709e4
   86ebc:	20078ce8 	.word	0x20078ce8
   86ec0:	20078ce4 	.word	0x20078ce4
   86ec4:	20078cf0 	.word	0x20078cf0
   86ec8:	f1bc 0f14 	cmp.w	ip, #20
   86ecc:	d961      	bls.n	86f92 <_malloc_r+0x40e>
   86ece:	f1bc 0f54 	cmp.w	ip, #84	; 0x54
   86ed2:	f200 808f 	bhi.w	86ff4 <_malloc_r+0x470>
   86ed6:	ea4f 3c15 	mov.w	ip, r5, lsr #12
   86eda:	f10c 0c6e 	add.w	ip, ip, #110	; 0x6e
   86ede:	ea4f 014c 	mov.w	r1, ip, lsl #1
   86ee2:	e697      	b.n	86c14 <_malloc_r+0x90>
   86ee4:	0a4b      	lsrs	r3, r1, #9
   86ee6:	2b04      	cmp	r3, #4
   86ee8:	d958      	bls.n	86f9c <_malloc_r+0x418>
   86eea:	2b14      	cmp	r3, #20
   86eec:	f200 80ad 	bhi.w	8704a <_malloc_r+0x4c6>
   86ef0:	f103 025b 	add.w	r2, r3, #91	; 0x5b
   86ef4:	0050      	lsls	r0, r2, #1
   86ef6:	eb07 0080 	add.w	r0, r7, r0, lsl #2
   86efa:	6883      	ldr	r3, [r0, #8]
   86efc:	f8df 81b8 	ldr.w	r8, [pc, #440]	; 870b8 <_malloc_r+0x534>
   86f00:	4283      	cmp	r3, r0
   86f02:	f000 808a 	beq.w	8701a <_malloc_r+0x496>
   86f06:	685a      	ldr	r2, [r3, #4]
   86f08:	f022 0203 	bic.w	r2, r2, #3
   86f0c:	4291      	cmp	r1, r2
   86f0e:	d202      	bcs.n	86f16 <_malloc_r+0x392>
   86f10:	689b      	ldr	r3, [r3, #8]
   86f12:	4298      	cmp	r0, r3
   86f14:	d1f7      	bne.n	86f06 <_malloc_r+0x382>
   86f16:	68d9      	ldr	r1, [r3, #12]
   86f18:	687a      	ldr	r2, [r7, #4]
   86f1a:	60e1      	str	r1, [r4, #12]
   86f1c:	60a3      	str	r3, [r4, #8]
   86f1e:	608c      	str	r4, [r1, #8]
   86f20:	60dc      	str	r4, [r3, #12]
   86f22:	e6b6      	b.n	86c92 <_malloc_r+0x10e>
   86f24:	f045 0701 	orr.w	r7, r5, #1
   86f28:	f042 0101 	orr.w	r1, r2, #1
   86f2c:	4425      	add	r5, r4
   86f2e:	6067      	str	r7, [r4, #4]
   86f30:	4630      	mov	r0, r6
   86f32:	615d      	str	r5, [r3, #20]
   86f34:	611d      	str	r5, [r3, #16]
   86f36:	f8c5 e00c 	str.w	lr, [r5, #12]
   86f3a:	f8c5 e008 	str.w	lr, [r5, #8]
   86f3e:	6069      	str	r1, [r5, #4]
   86f40:	50aa      	str	r2, [r5, r2]
   86f42:	3408      	adds	r4, #8
   86f44:	f000 f96c 	bl	87220 <__malloc_unlock>
   86f48:	e648      	b.n	86bdc <_malloc_r+0x58>
   86f4a:	685a      	ldr	r2, [r3, #4]
   86f4c:	e6a1      	b.n	86c92 <_malloc_r+0x10e>
   86f4e:	f109 0901 	add.w	r9, r9, #1
   86f52:	f019 0f03 	tst.w	r9, #3
   86f56:	f104 0408 	add.w	r4, r4, #8
   86f5a:	f47f aead 	bne.w	86cb8 <_malloc_r+0x134>
   86f5e:	e02d      	b.n	86fbc <_malloc_r+0x438>
   86f60:	f104 0308 	add.w	r3, r4, #8
   86f64:	6964      	ldr	r4, [r4, #20]
   86f66:	42a3      	cmp	r3, r4
   86f68:	bf08      	it	eq
   86f6a:	f10c 0c02 	addeq.w	ip, ip, #2
   86f6e:	f43f ae67 	beq.w	86c40 <_malloc_r+0xbc>
   86f72:	e623      	b.n	86bbc <_malloc_r+0x38>
   86f74:	4419      	add	r1, r3
   86f76:	6848      	ldr	r0, [r1, #4]
   86f78:	461c      	mov	r4, r3
   86f7a:	f854 2f08 	ldr.w	r2, [r4, #8]!
   86f7e:	68db      	ldr	r3, [r3, #12]
   86f80:	f040 0501 	orr.w	r5, r0, #1
   86f84:	604d      	str	r5, [r1, #4]
   86f86:	4630      	mov	r0, r6
   86f88:	60d3      	str	r3, [r2, #12]
   86f8a:	609a      	str	r2, [r3, #8]
   86f8c:	f000 f948 	bl	87220 <__malloc_unlock>
   86f90:	e624      	b.n	86bdc <_malloc_r+0x58>
   86f92:	f10c 0c5b 	add.w	ip, ip, #91	; 0x5b
   86f96:	ea4f 014c 	mov.w	r1, ip, lsl #1
   86f9a:	e63b      	b.n	86c14 <_malloc_r+0x90>
   86f9c:	098a      	lsrs	r2, r1, #6
   86f9e:	3238      	adds	r2, #56	; 0x38
   86fa0:	0050      	lsls	r0, r2, #1
   86fa2:	e7a8      	b.n	86ef6 <_malloc_r+0x372>
   86fa4:	42bc      	cmp	r4, r7
   86fa6:	f43f af02 	beq.w	86dae <_malloc_r+0x22a>
   86faa:	68bc      	ldr	r4, [r7, #8]
   86fac:	6862      	ldr	r2, [r4, #4]
   86fae:	f022 0203 	bic.w	r2, r2, #3
   86fb2:	e761      	b.n	86e78 <_malloc_r+0x2f4>
   86fb4:	f8d8 8000 	ldr.w	r8, [r8]
   86fb8:	4598      	cmp	r8, r3
   86fba:	d17a      	bne.n	870b2 <_malloc_r+0x52e>
   86fbc:	f01c 0f03 	tst.w	ip, #3
   86fc0:	f1a8 0308 	sub.w	r3, r8, #8
   86fc4:	f10c 3cff 	add.w	ip, ip, #4294967295
   86fc8:	d1f4      	bne.n	86fb4 <_malloc_r+0x430>
   86fca:	687b      	ldr	r3, [r7, #4]
   86fcc:	ea23 0300 	bic.w	r3, r3, r0
   86fd0:	607b      	str	r3, [r7, #4]
   86fd2:	0040      	lsls	r0, r0, #1
   86fd4:	4298      	cmp	r0, r3
   86fd6:	f63f aebe 	bhi.w	86d56 <_malloc_r+0x1d2>
   86fda:	2800      	cmp	r0, #0
   86fdc:	f43f aebb 	beq.w	86d56 <_malloc_r+0x1d2>
   86fe0:	4203      	tst	r3, r0
   86fe2:	46cc      	mov	ip, r9
   86fe4:	f47f ae64 	bne.w	86cb0 <_malloc_r+0x12c>
   86fe8:	0040      	lsls	r0, r0, #1
   86fea:	4203      	tst	r3, r0
   86fec:	f10c 0c04 	add.w	ip, ip, #4
   86ff0:	d0fa      	beq.n	86fe8 <_malloc_r+0x464>
   86ff2:	e65d      	b.n	86cb0 <_malloc_r+0x12c>
   86ff4:	f5bc 7faa 	cmp.w	ip, #340	; 0x154
   86ff8:	d819      	bhi.n	8702e <_malloc_r+0x4aa>
   86ffa:	ea4f 3cd5 	mov.w	ip, r5, lsr #15
   86ffe:	f10c 0c77 	add.w	ip, ip, #119	; 0x77
   87002:	ea4f 014c 	mov.w	r1, ip, lsl #1
   87006:	e605      	b.n	86c14 <_malloc_r+0x90>
   87008:	f44f 5380 	mov.w	r3, #4096	; 0x1000
   8700c:	e6ee      	b.n	86dec <_malloc_r+0x268>
   8700e:	2301      	movs	r3, #1
   87010:	f8c8 3004 	str.w	r3, [r8, #4]
   87014:	4644      	mov	r4, r8
   87016:	2200      	movs	r2, #0
   87018:	e72e      	b.n	86e78 <_malloc_r+0x2f4>
   8701a:	1092      	asrs	r2, r2, #2
   8701c:	2001      	movs	r0, #1
   8701e:	4090      	lsls	r0, r2
   87020:	f8d8 2004 	ldr.w	r2, [r8, #4]
   87024:	4619      	mov	r1, r3
   87026:	4302      	orrs	r2, r0
   87028:	f8c8 2004 	str.w	r2, [r8, #4]
   8702c:	e775      	b.n	86f1a <_malloc_r+0x396>
   8702e:	f240 5354 	movw	r3, #1364	; 0x554
   87032:	459c      	cmp	ip, r3
   87034:	d81b      	bhi.n	8706e <_malloc_r+0x4ea>
   87036:	ea4f 4c95 	mov.w	ip, r5, lsr #18
   8703a:	f10c 0c7c 	add.w	ip, ip, #124	; 0x7c
   8703e:	ea4f 014c 	mov.w	r1, ip, lsl #1
   87042:	e5e7      	b.n	86c14 <_malloc_r+0x90>
   87044:	f10a 0a10 	add.w	sl, sl, #16
   87048:	e6a3      	b.n	86d92 <_malloc_r+0x20e>
   8704a:	2b54      	cmp	r3, #84	; 0x54
   8704c:	d81f      	bhi.n	8708e <_malloc_r+0x50a>
   8704e:	0b0a      	lsrs	r2, r1, #12
   87050:	326e      	adds	r2, #110	; 0x6e
   87052:	0050      	lsls	r0, r2, #1
   87054:	e74f      	b.n	86ef6 <_malloc_r+0x372>
   87056:	f3cb 010b 	ubfx	r1, fp, #0, #12
   8705a:	2900      	cmp	r1, #0
   8705c:	f47f aeb1 	bne.w	86dc2 <_malloc_r+0x23e>
   87060:	eb0a 0109 	add.w	r1, sl, r9
   87064:	68ba      	ldr	r2, [r7, #8]
   87066:	f041 0101 	orr.w	r1, r1, #1
   8706a:	6051      	str	r1, [r2, #4]
   8706c:	e6f6      	b.n	86e5c <_malloc_r+0x2d8>
   8706e:	21fc      	movs	r1, #252	; 0xfc
   87070:	f04f 0c7e 	mov.w	ip, #126	; 0x7e
   87074:	e5ce      	b.n	86c14 <_malloc_r+0x90>
   87076:	2201      	movs	r2, #1
   87078:	f04f 0a00 	mov.w	sl, #0
   8707c:	e6cb      	b.n	86e16 <_malloc_r+0x292>
   8707e:	f104 0108 	add.w	r1, r4, #8
   87082:	4630      	mov	r0, r6
   87084:	f7ff fa80 	bl	86588 <_free_r>
   87088:	f8da 3000 	ldr.w	r3, [sl]
   8708c:	e6e6      	b.n	86e5c <_malloc_r+0x2d8>
   8708e:	f5b3 7faa 	cmp.w	r3, #340	; 0x154
   87092:	d803      	bhi.n	8709c <_malloc_r+0x518>
   87094:	0bca      	lsrs	r2, r1, #15
   87096:	3277      	adds	r2, #119	; 0x77
   87098:	0050      	lsls	r0, r2, #1
   8709a:	e72c      	b.n	86ef6 <_malloc_r+0x372>
   8709c:	f240 5254 	movw	r2, #1364	; 0x554
   870a0:	4293      	cmp	r3, r2
   870a2:	d803      	bhi.n	870ac <_malloc_r+0x528>
   870a4:	0c8a      	lsrs	r2, r1, #18
   870a6:	327c      	adds	r2, #124	; 0x7c
   870a8:	0050      	lsls	r0, r2, #1
   870aa:	e724      	b.n	86ef6 <_malloc_r+0x372>
   870ac:	20fc      	movs	r0, #252	; 0xfc
   870ae:	227e      	movs	r2, #126	; 0x7e
   870b0:	e721      	b.n	86ef6 <_malloc_r+0x372>
   870b2:	687b      	ldr	r3, [r7, #4]
   870b4:	e78d      	b.n	86fd2 <_malloc_r+0x44e>
   870b6:	bf00      	nop
   870b8:	200705d8 	.word	0x200705d8

000870bc <memchr>:
   870bc:	0783      	lsls	r3, r0, #30
   870be:	b470      	push	{r4, r5, r6}
   870c0:	b2c9      	uxtb	r1, r1
   870c2:	d040      	beq.n	87146 <memchr+0x8a>
   870c4:	1e54      	subs	r4, r2, #1
   870c6:	b32a      	cbz	r2, 87114 <memchr+0x58>
   870c8:	7803      	ldrb	r3, [r0, #0]
   870ca:	428b      	cmp	r3, r1
   870cc:	d023      	beq.n	87116 <memchr+0x5a>
   870ce:	1c43      	adds	r3, r0, #1
   870d0:	e004      	b.n	870dc <memchr+0x20>
   870d2:	b1fc      	cbz	r4, 87114 <memchr+0x58>
   870d4:	7805      	ldrb	r5, [r0, #0]
   870d6:	4614      	mov	r4, r2
   870d8:	428d      	cmp	r5, r1
   870da:	d01c      	beq.n	87116 <memchr+0x5a>
   870dc:	f013 0f03 	tst.w	r3, #3
   870e0:	4618      	mov	r0, r3
   870e2:	f104 32ff 	add.w	r2, r4, #4294967295
   870e6:	f103 0301 	add.w	r3, r3, #1
   870ea:	d1f2      	bne.n	870d2 <memchr+0x16>
   870ec:	2c03      	cmp	r4, #3
   870ee:	d814      	bhi.n	8711a <memchr+0x5e>
   870f0:	1e65      	subs	r5, r4, #1
   870f2:	b354      	cbz	r4, 8714a <memchr+0x8e>
   870f4:	7803      	ldrb	r3, [r0, #0]
   870f6:	428b      	cmp	r3, r1
   870f8:	d00d      	beq.n	87116 <memchr+0x5a>
   870fa:	1c42      	adds	r2, r0, #1
   870fc:	2300      	movs	r3, #0
   870fe:	e002      	b.n	87106 <memchr+0x4a>
   87100:	7804      	ldrb	r4, [r0, #0]
   87102:	428c      	cmp	r4, r1
   87104:	d007      	beq.n	87116 <memchr+0x5a>
   87106:	42ab      	cmp	r3, r5
   87108:	4610      	mov	r0, r2
   8710a:	f103 0301 	add.w	r3, r3, #1
   8710e:	f102 0201 	add.w	r2, r2, #1
   87112:	d1f5      	bne.n	87100 <memchr+0x44>
   87114:	2000      	movs	r0, #0
   87116:	bc70      	pop	{r4, r5, r6}
   87118:	4770      	bx	lr
   8711a:	ea41 2601 	orr.w	r6, r1, r1, lsl #8
   8711e:	4603      	mov	r3, r0
   87120:	ea46 4606 	orr.w	r6, r6, r6, lsl #16
   87124:	681a      	ldr	r2, [r3, #0]
   87126:	4618      	mov	r0, r3
   87128:	4072      	eors	r2, r6
   8712a:	f1a2 3501 	sub.w	r5, r2, #16843009	; 0x1010101
   8712e:	ea25 0202 	bic.w	r2, r5, r2
   87132:	f012 3f80 	tst.w	r2, #2155905152	; 0x80808080
   87136:	f103 0304 	add.w	r3, r3, #4
   8713a:	d1d9      	bne.n	870f0 <memchr+0x34>
   8713c:	3c04      	subs	r4, #4
   8713e:	2c03      	cmp	r4, #3
   87140:	4618      	mov	r0, r3
   87142:	d8ef      	bhi.n	87124 <memchr+0x68>
   87144:	e7d4      	b.n	870f0 <memchr+0x34>
   87146:	4614      	mov	r4, r2
   87148:	e7d0      	b.n	870ec <memchr+0x30>
   8714a:	4620      	mov	r0, r4
   8714c:	e7e3      	b.n	87116 <memchr+0x5a>
   8714e:	bf00      	nop

00087150 <memmove>:
   87150:	4288      	cmp	r0, r1
   87152:	b4f0      	push	{r4, r5, r6, r7}
   87154:	d910      	bls.n	87178 <memmove+0x28>
   87156:	188c      	adds	r4, r1, r2
   87158:	42a0      	cmp	r0, r4
   8715a:	d20d      	bcs.n	87178 <memmove+0x28>
   8715c:	1885      	adds	r5, r0, r2
   8715e:	1e53      	subs	r3, r2, #1
   87160:	b142      	cbz	r2, 87174 <memmove+0x24>
   87162:	4621      	mov	r1, r4
   87164:	462a      	mov	r2, r5
   87166:	f811 4d01 	ldrb.w	r4, [r1, #-1]!
   8716a:	3b01      	subs	r3, #1
   8716c:	f802 4d01 	strb.w	r4, [r2, #-1]!
   87170:	1c5c      	adds	r4, r3, #1
   87172:	d1f8      	bne.n	87166 <memmove+0x16>
   87174:	bcf0      	pop	{r4, r5, r6, r7}
   87176:	4770      	bx	lr
   87178:	2a0f      	cmp	r2, #15
   8717a:	d944      	bls.n	87206 <memmove+0xb6>
   8717c:	ea40 0301 	orr.w	r3, r0, r1
   87180:	079b      	lsls	r3, r3, #30
   87182:	d144      	bne.n	8720e <memmove+0xbe>
   87184:	f1a2 0710 	sub.w	r7, r2, #16
   87188:	093f      	lsrs	r7, r7, #4
   8718a:	eb00 1607 	add.w	r6, r0, r7, lsl #4
   8718e:	3610      	adds	r6, #16
   87190:	460c      	mov	r4, r1
   87192:	4603      	mov	r3, r0
   87194:	6825      	ldr	r5, [r4, #0]
   87196:	3310      	adds	r3, #16
   87198:	f843 5c10 	str.w	r5, [r3, #-16]
   8719c:	6865      	ldr	r5, [r4, #4]
   8719e:	3410      	adds	r4, #16
   871a0:	f843 5c0c 	str.w	r5, [r3, #-12]
   871a4:	f854 5c08 	ldr.w	r5, [r4, #-8]
   871a8:	f843 5c08 	str.w	r5, [r3, #-8]
   871ac:	f854 5c04 	ldr.w	r5, [r4, #-4]
   871b0:	f843 5c04 	str.w	r5, [r3, #-4]
   871b4:	42b3      	cmp	r3, r6
   871b6:	d1ed      	bne.n	87194 <memmove+0x44>
   871b8:	1c7b      	adds	r3, r7, #1
   871ba:	f002 0c0f 	and.w	ip, r2, #15
   871be:	011b      	lsls	r3, r3, #4
   871c0:	f1bc 0f03 	cmp.w	ip, #3
   871c4:	4419      	add	r1, r3
   871c6:	4403      	add	r3, r0
   871c8:	d923      	bls.n	87212 <memmove+0xc2>
   871ca:	460e      	mov	r6, r1
   871cc:	461d      	mov	r5, r3
   871ce:	4664      	mov	r4, ip
   871d0:	f856 7b04 	ldr.w	r7, [r6], #4
   871d4:	3c04      	subs	r4, #4
   871d6:	2c03      	cmp	r4, #3
   871d8:	f845 7b04 	str.w	r7, [r5], #4
   871dc:	d8f8      	bhi.n	871d0 <memmove+0x80>
   871de:	f1ac 0404 	sub.w	r4, ip, #4
   871e2:	f024 0403 	bic.w	r4, r4, #3
   871e6:	3404      	adds	r4, #4
   871e8:	f002 0203 	and.w	r2, r2, #3
   871ec:	4423      	add	r3, r4
   871ee:	4421      	add	r1, r4
   871f0:	2a00      	cmp	r2, #0
   871f2:	d0bf      	beq.n	87174 <memmove+0x24>
   871f4:	441a      	add	r2, r3
   871f6:	f811 4b01 	ldrb.w	r4, [r1], #1
   871fa:	f803 4b01 	strb.w	r4, [r3], #1
   871fe:	4293      	cmp	r3, r2
   87200:	d1f9      	bne.n	871f6 <memmove+0xa6>
   87202:	bcf0      	pop	{r4, r5, r6, r7}
   87204:	4770      	bx	lr
   87206:	4603      	mov	r3, r0
   87208:	2a00      	cmp	r2, #0
   8720a:	d1f3      	bne.n	871f4 <memmove+0xa4>
   8720c:	e7b2      	b.n	87174 <memmove+0x24>
   8720e:	4603      	mov	r3, r0
   87210:	e7f0      	b.n	871f4 <memmove+0xa4>
   87212:	4662      	mov	r2, ip
   87214:	2a00      	cmp	r2, #0
   87216:	d1ed      	bne.n	871f4 <memmove+0xa4>
   87218:	e7ac      	b.n	87174 <memmove+0x24>
   8721a:	bf00      	nop

0008721c <__malloc_lock>:
   8721c:	4770      	bx	lr
   8721e:	bf00      	nop

00087220 <__malloc_unlock>:
   87220:	4770      	bx	lr
   87222:	bf00      	nop

00087224 <_realloc_r>:
   87224:	e92d 4ff0 	stmdb	sp!, {r4, r5, r6, r7, r8, r9, sl, fp, lr}
   87228:	460c      	mov	r4, r1
   8722a:	b083      	sub	sp, #12
   8722c:	4690      	mov	r8, r2
   8722e:	4681      	mov	r9, r0
   87230:	2900      	cmp	r1, #0
   87232:	f000 80ba 	beq.w	873aa <_realloc_r+0x186>
   87236:	f7ff fff1 	bl	8721c <__malloc_lock>
   8723a:	f108 060b 	add.w	r6, r8, #11
   8723e:	f854 3c04 	ldr.w	r3, [r4, #-4]
   87242:	2e16      	cmp	r6, #22
   87244:	f023 0503 	bic.w	r5, r3, #3
   87248:	f1a4 0708 	sub.w	r7, r4, #8
   8724c:	d84b      	bhi.n	872e6 <_realloc_r+0xc2>
   8724e:	2110      	movs	r1, #16
   87250:	460e      	mov	r6, r1
   87252:	45b0      	cmp	r8, r6
   87254:	d84c      	bhi.n	872f0 <_realloc_r+0xcc>
   87256:	428d      	cmp	r5, r1
   87258:	da51      	bge.n	872fe <_realloc_r+0xda>
   8725a:	f8df b384 	ldr.w	fp, [pc, #900]	; 875e0 <_realloc_r+0x3bc>
   8725e:	1978      	adds	r0, r7, r5
   87260:	f8db e008 	ldr.w	lr, [fp, #8]
   87264:	4586      	cmp	lr, r0
   87266:	f000 80a6 	beq.w	873b6 <_realloc_r+0x192>
   8726a:	6842      	ldr	r2, [r0, #4]
   8726c:	f022 0c01 	bic.w	ip, r2, #1
   87270:	4484      	add	ip, r0
   87272:	f8dc c004 	ldr.w	ip, [ip, #4]
   87276:	f01c 0f01 	tst.w	ip, #1
   8727a:	d054      	beq.n	87326 <_realloc_r+0x102>
   8727c:	2200      	movs	r2, #0
   8727e:	4610      	mov	r0, r2
   87280:	07db      	lsls	r3, r3, #31
   87282:	d46f      	bmi.n	87364 <_realloc_r+0x140>
   87284:	f854 3c08 	ldr.w	r3, [r4, #-8]
   87288:	ebc3 0a07 	rsb	sl, r3, r7
   8728c:	f8da 3004 	ldr.w	r3, [sl, #4]
   87290:	f023 0303 	bic.w	r3, r3, #3
   87294:	442b      	add	r3, r5
   87296:	2800      	cmp	r0, #0
   87298:	d062      	beq.n	87360 <_realloc_r+0x13c>
   8729a:	4570      	cmp	r0, lr
   8729c:	f000 80e9 	beq.w	87472 <_realloc_r+0x24e>
   872a0:	eb02 0e03 	add.w	lr, r2, r3
   872a4:	458e      	cmp	lr, r1
   872a6:	db5b      	blt.n	87360 <_realloc_r+0x13c>
   872a8:	68c3      	ldr	r3, [r0, #12]
   872aa:	6882      	ldr	r2, [r0, #8]
   872ac:	46d0      	mov	r8, sl
   872ae:	60d3      	str	r3, [r2, #12]
   872b0:	609a      	str	r2, [r3, #8]
   872b2:	f858 1f08 	ldr.w	r1, [r8, #8]!
   872b6:	f8da 300c 	ldr.w	r3, [sl, #12]
   872ba:	1f2a      	subs	r2, r5, #4
   872bc:	2a24      	cmp	r2, #36	; 0x24
   872be:	60cb      	str	r3, [r1, #12]
   872c0:	6099      	str	r1, [r3, #8]
   872c2:	f200 8123 	bhi.w	8750c <_realloc_r+0x2e8>
   872c6:	2a13      	cmp	r2, #19
   872c8:	f240 80b0 	bls.w	8742c <_realloc_r+0x208>
   872cc:	6823      	ldr	r3, [r4, #0]
   872ce:	2a1b      	cmp	r2, #27
   872d0:	f8ca 3008 	str.w	r3, [sl, #8]
   872d4:	6863      	ldr	r3, [r4, #4]
   872d6:	f8ca 300c 	str.w	r3, [sl, #12]
   872da:	f200 812b 	bhi.w	87534 <_realloc_r+0x310>
   872de:	3408      	adds	r4, #8
   872e0:	f10a 0310 	add.w	r3, sl, #16
   872e4:	e0a3      	b.n	8742e <_realloc_r+0x20a>
   872e6:	f026 0607 	bic.w	r6, r6, #7
   872ea:	2e00      	cmp	r6, #0
   872ec:	4631      	mov	r1, r6
   872ee:	dab0      	bge.n	87252 <_realloc_r+0x2e>
   872f0:	230c      	movs	r3, #12
   872f2:	2000      	movs	r0, #0
   872f4:	f8c9 3000 	str.w	r3, [r9]
   872f8:	b003      	add	sp, #12
   872fa:	e8bd 8ff0 	ldmia.w	sp!, {r4, r5, r6, r7, r8, r9, sl, fp, pc}
   872fe:	46a0      	mov	r8, r4
   87300:	1baa      	subs	r2, r5, r6
   87302:	2a0f      	cmp	r2, #15
   87304:	f003 0301 	and.w	r3, r3, #1
   87308:	d81a      	bhi.n	87340 <_realloc_r+0x11c>
   8730a:	432b      	orrs	r3, r5
   8730c:	607b      	str	r3, [r7, #4]
   8730e:	443d      	add	r5, r7
   87310:	686b      	ldr	r3, [r5, #4]
   87312:	f043 0301 	orr.w	r3, r3, #1
   87316:	606b      	str	r3, [r5, #4]
   87318:	4648      	mov	r0, r9
   8731a:	f7ff ff81 	bl	87220 <__malloc_unlock>
   8731e:	4640      	mov	r0, r8
   87320:	b003      	add	sp, #12
   87322:	e8bd 8ff0 	ldmia.w	sp!, {r4, r5, r6, r7, r8, r9, sl, fp, pc}
   87326:	f022 0203 	bic.w	r2, r2, #3
   8732a:	eb02 0c05 	add.w	ip, r2, r5
   8732e:	458c      	cmp	ip, r1
   87330:	dba6      	blt.n	87280 <_realloc_r+0x5c>
   87332:	68c2      	ldr	r2, [r0, #12]
   87334:	6881      	ldr	r1, [r0, #8]
   87336:	46a0      	mov	r8, r4
   87338:	60ca      	str	r2, [r1, #12]
   8733a:	4665      	mov	r5, ip
   8733c:	6091      	str	r1, [r2, #8]
   8733e:	e7df      	b.n	87300 <_realloc_r+0xdc>
   87340:	19b9      	adds	r1, r7, r6
   87342:	4333      	orrs	r3, r6
   87344:	f042 0001 	orr.w	r0, r2, #1
   87348:	607b      	str	r3, [r7, #4]
   8734a:	440a      	add	r2, r1
   8734c:	6048      	str	r0, [r1, #4]
   8734e:	6853      	ldr	r3, [r2, #4]
   87350:	3108      	adds	r1, #8
   87352:	f043 0301 	orr.w	r3, r3, #1
   87356:	6053      	str	r3, [r2, #4]
   87358:	4648      	mov	r0, r9
   8735a:	f7ff f915 	bl	86588 <_free_r>
   8735e:	e7db      	b.n	87318 <_realloc_r+0xf4>
   87360:	428b      	cmp	r3, r1
   87362:	da33      	bge.n	873cc <_realloc_r+0x1a8>
   87364:	4641      	mov	r1, r8
   87366:	4648      	mov	r0, r9
   87368:	f7ff fc0c 	bl	86b84 <_malloc_r>
   8736c:	4680      	mov	r8, r0
   8736e:	2800      	cmp	r0, #0
   87370:	d0d2      	beq.n	87318 <_realloc_r+0xf4>
   87372:	f854 3c04 	ldr.w	r3, [r4, #-4]
   87376:	f1a0 0108 	sub.w	r1, r0, #8
   8737a:	f023 0201 	bic.w	r2, r3, #1
   8737e:	443a      	add	r2, r7
   87380:	4291      	cmp	r1, r2
   87382:	f000 80bc 	beq.w	874fe <_realloc_r+0x2da>
   87386:	1f2a      	subs	r2, r5, #4
   87388:	2a24      	cmp	r2, #36	; 0x24
   8738a:	d86e      	bhi.n	8746a <_realloc_r+0x246>
   8738c:	2a13      	cmp	r2, #19
   8738e:	d842      	bhi.n	87416 <_realloc_r+0x1f2>
   87390:	4603      	mov	r3, r0
   87392:	4622      	mov	r2, r4
   87394:	6811      	ldr	r1, [r2, #0]
   87396:	6019      	str	r1, [r3, #0]
   87398:	6851      	ldr	r1, [r2, #4]
   8739a:	6059      	str	r1, [r3, #4]
   8739c:	6892      	ldr	r2, [r2, #8]
   8739e:	609a      	str	r2, [r3, #8]
   873a0:	4621      	mov	r1, r4
   873a2:	4648      	mov	r0, r9
   873a4:	f7ff f8f0 	bl	86588 <_free_r>
   873a8:	e7b6      	b.n	87318 <_realloc_r+0xf4>
   873aa:	4611      	mov	r1, r2
   873ac:	b003      	add	sp, #12
   873ae:	e8bd 4ff0 	ldmia.w	sp!, {r4, r5, r6, r7, r8, r9, sl, fp, lr}
   873b2:	f7ff bbe7 	b.w	86b84 <_malloc_r>
   873b6:	f8de 2004 	ldr.w	r2, [lr, #4]
   873ba:	f106 0c10 	add.w	ip, r6, #16
   873be:	f022 0203 	bic.w	r2, r2, #3
   873c2:	1950      	adds	r0, r2, r5
   873c4:	4560      	cmp	r0, ip
   873c6:	da3d      	bge.n	87444 <_realloc_r+0x220>
   873c8:	4670      	mov	r0, lr
   873ca:	e759      	b.n	87280 <_realloc_r+0x5c>
   873cc:	46d0      	mov	r8, sl
   873ce:	f858 0f08 	ldr.w	r0, [r8, #8]!
   873d2:	f8da 100c 	ldr.w	r1, [sl, #12]
   873d6:	1f2a      	subs	r2, r5, #4
   873d8:	2a24      	cmp	r2, #36	; 0x24
   873da:	60c1      	str	r1, [r0, #12]
   873dc:	6088      	str	r0, [r1, #8]
   873de:	f200 80a0 	bhi.w	87522 <_realloc_r+0x2fe>
   873e2:	2a13      	cmp	r2, #19
   873e4:	f240 809b 	bls.w	8751e <_realloc_r+0x2fa>
   873e8:	6821      	ldr	r1, [r4, #0]
   873ea:	2a1b      	cmp	r2, #27
   873ec:	f8ca 1008 	str.w	r1, [sl, #8]
   873f0:	6861      	ldr	r1, [r4, #4]
   873f2:	f8ca 100c 	str.w	r1, [sl, #12]
   873f6:	f200 80b2 	bhi.w	8755e <_realloc_r+0x33a>
   873fa:	3408      	adds	r4, #8
   873fc:	f10a 0210 	add.w	r2, sl, #16
   87400:	6821      	ldr	r1, [r4, #0]
   87402:	461d      	mov	r5, r3
   87404:	6011      	str	r1, [r2, #0]
   87406:	6861      	ldr	r1, [r4, #4]
   87408:	4657      	mov	r7, sl
   8740a:	6051      	str	r1, [r2, #4]
   8740c:	68a3      	ldr	r3, [r4, #8]
   8740e:	6093      	str	r3, [r2, #8]
   87410:	f8da 3004 	ldr.w	r3, [sl, #4]
   87414:	e774      	b.n	87300 <_realloc_r+0xdc>
   87416:	6823      	ldr	r3, [r4, #0]
   87418:	2a1b      	cmp	r2, #27
   8741a:	6003      	str	r3, [r0, #0]
   8741c:	6863      	ldr	r3, [r4, #4]
   8741e:	6043      	str	r3, [r0, #4]
   87420:	d862      	bhi.n	874e8 <_realloc_r+0x2c4>
   87422:	f100 0308 	add.w	r3, r0, #8
   87426:	f104 0208 	add.w	r2, r4, #8
   8742a:	e7b3      	b.n	87394 <_realloc_r+0x170>
   8742c:	4643      	mov	r3, r8
   8742e:	6822      	ldr	r2, [r4, #0]
   87430:	4675      	mov	r5, lr
   87432:	601a      	str	r2, [r3, #0]
   87434:	6862      	ldr	r2, [r4, #4]
   87436:	4657      	mov	r7, sl
   87438:	605a      	str	r2, [r3, #4]
   8743a:	68a2      	ldr	r2, [r4, #8]
   8743c:	609a      	str	r2, [r3, #8]
   8743e:	f8da 3004 	ldr.w	r3, [sl, #4]
   87442:	e75d      	b.n	87300 <_realloc_r+0xdc>
   87444:	1b83      	subs	r3, r0, r6
   87446:	4437      	add	r7, r6
   87448:	f043 0301 	orr.w	r3, r3, #1
   8744c:	f8cb 7008 	str.w	r7, [fp, #8]
   87450:	607b      	str	r3, [r7, #4]
   87452:	f854 3c04 	ldr.w	r3, [r4, #-4]
   87456:	4648      	mov	r0, r9
   87458:	f003 0301 	and.w	r3, r3, #1
   8745c:	431e      	orrs	r6, r3
   8745e:	f844 6c04 	str.w	r6, [r4, #-4]
   87462:	f7ff fedd 	bl	87220 <__malloc_unlock>
   87466:	4620      	mov	r0, r4
   87468:	e75a      	b.n	87320 <_realloc_r+0xfc>
   8746a:	4621      	mov	r1, r4
   8746c:	f7ff fe70 	bl	87150 <memmove>
   87470:	e796      	b.n	873a0 <_realloc_r+0x17c>
   87472:	eb02 0c03 	add.w	ip, r2, r3
   87476:	f106 0210 	add.w	r2, r6, #16
   8747a:	4594      	cmp	ip, r2
   8747c:	f6ff af70 	blt.w	87360 <_realloc_r+0x13c>
   87480:	4657      	mov	r7, sl
   87482:	f857 1f08 	ldr.w	r1, [r7, #8]!
   87486:	f8da 300c 	ldr.w	r3, [sl, #12]
   8748a:	1f2a      	subs	r2, r5, #4
   8748c:	2a24      	cmp	r2, #36	; 0x24
   8748e:	60cb      	str	r3, [r1, #12]
   87490:	6099      	str	r1, [r3, #8]
   87492:	f200 8086 	bhi.w	875a2 <_realloc_r+0x37e>
   87496:	2a13      	cmp	r2, #19
   87498:	d977      	bls.n	8758a <_realloc_r+0x366>
   8749a:	6823      	ldr	r3, [r4, #0]
   8749c:	2a1b      	cmp	r2, #27
   8749e:	f8ca 3008 	str.w	r3, [sl, #8]
   874a2:	6863      	ldr	r3, [r4, #4]
   874a4:	f8ca 300c 	str.w	r3, [sl, #12]
   874a8:	f200 8084 	bhi.w	875b4 <_realloc_r+0x390>
   874ac:	3408      	adds	r4, #8
   874ae:	f10a 0310 	add.w	r3, sl, #16
   874b2:	6822      	ldr	r2, [r4, #0]
   874b4:	601a      	str	r2, [r3, #0]
   874b6:	6862      	ldr	r2, [r4, #4]
   874b8:	605a      	str	r2, [r3, #4]
   874ba:	68a2      	ldr	r2, [r4, #8]
   874bc:	609a      	str	r2, [r3, #8]
   874be:	ebc6 020c 	rsb	r2, r6, ip
   874c2:	eb0a 0306 	add.w	r3, sl, r6
   874c6:	f042 0201 	orr.w	r2, r2, #1
   874ca:	f8cb 3008 	str.w	r3, [fp, #8]
   874ce:	605a      	str	r2, [r3, #4]
   874d0:	f8da 3004 	ldr.w	r3, [sl, #4]
   874d4:	4648      	mov	r0, r9
   874d6:	f003 0301 	and.w	r3, r3, #1
   874da:	431e      	orrs	r6, r3
   874dc:	f8ca 6004 	str.w	r6, [sl, #4]
   874e0:	f7ff fe9e 	bl	87220 <__malloc_unlock>
   874e4:	4638      	mov	r0, r7
   874e6:	e71b      	b.n	87320 <_realloc_r+0xfc>
   874e8:	68a3      	ldr	r3, [r4, #8]
   874ea:	2a24      	cmp	r2, #36	; 0x24
   874ec:	6083      	str	r3, [r0, #8]
   874ee:	68e3      	ldr	r3, [r4, #12]
   874f0:	60c3      	str	r3, [r0, #12]
   874f2:	d02b      	beq.n	8754c <_realloc_r+0x328>
   874f4:	f100 0310 	add.w	r3, r0, #16
   874f8:	f104 0210 	add.w	r2, r4, #16
   874fc:	e74a      	b.n	87394 <_realloc_r+0x170>
   874fe:	f850 2c04 	ldr.w	r2, [r0, #-4]
   87502:	46a0      	mov	r8, r4
   87504:	f022 0203 	bic.w	r2, r2, #3
   87508:	4415      	add	r5, r2
   8750a:	e6f9      	b.n	87300 <_realloc_r+0xdc>
   8750c:	4621      	mov	r1, r4
   8750e:	4640      	mov	r0, r8
   87510:	4675      	mov	r5, lr
   87512:	4657      	mov	r7, sl
   87514:	f7ff fe1c 	bl	87150 <memmove>
   87518:	f8da 3004 	ldr.w	r3, [sl, #4]
   8751c:	e6f0      	b.n	87300 <_realloc_r+0xdc>
   8751e:	4642      	mov	r2, r8
   87520:	e76e      	b.n	87400 <_realloc_r+0x1dc>
   87522:	4621      	mov	r1, r4
   87524:	4640      	mov	r0, r8
   87526:	461d      	mov	r5, r3
   87528:	4657      	mov	r7, sl
   8752a:	f7ff fe11 	bl	87150 <memmove>
   8752e:	f8da 3004 	ldr.w	r3, [sl, #4]
   87532:	e6e5      	b.n	87300 <_realloc_r+0xdc>
   87534:	68a3      	ldr	r3, [r4, #8]
   87536:	2a24      	cmp	r2, #36	; 0x24
   87538:	f8ca 3010 	str.w	r3, [sl, #16]
   8753c:	68e3      	ldr	r3, [r4, #12]
   8753e:	f8ca 3014 	str.w	r3, [sl, #20]
   87542:	d018      	beq.n	87576 <_realloc_r+0x352>
   87544:	3410      	adds	r4, #16
   87546:	f10a 0318 	add.w	r3, sl, #24
   8754a:	e770      	b.n	8742e <_realloc_r+0x20a>
   8754c:	6922      	ldr	r2, [r4, #16]
   8754e:	f100 0318 	add.w	r3, r0, #24
   87552:	6102      	str	r2, [r0, #16]
   87554:	6961      	ldr	r1, [r4, #20]
   87556:	f104 0218 	add.w	r2, r4, #24
   8755a:	6141      	str	r1, [r0, #20]
   8755c:	e71a      	b.n	87394 <_realloc_r+0x170>
   8755e:	68a1      	ldr	r1, [r4, #8]
   87560:	2a24      	cmp	r2, #36	; 0x24
   87562:	f8ca 1010 	str.w	r1, [sl, #16]
   87566:	68e1      	ldr	r1, [r4, #12]
   87568:	f8ca 1014 	str.w	r1, [sl, #20]
   8756c:	d00f      	beq.n	8758e <_realloc_r+0x36a>
   8756e:	3410      	adds	r4, #16
   87570:	f10a 0218 	add.w	r2, sl, #24
   87574:	e744      	b.n	87400 <_realloc_r+0x1dc>
   87576:	6922      	ldr	r2, [r4, #16]
   87578:	f10a 0320 	add.w	r3, sl, #32
   8757c:	f8ca 2018 	str.w	r2, [sl, #24]
   87580:	6962      	ldr	r2, [r4, #20]
   87582:	3418      	adds	r4, #24
   87584:	f8ca 201c 	str.w	r2, [sl, #28]
   87588:	e751      	b.n	8742e <_realloc_r+0x20a>
   8758a:	463b      	mov	r3, r7
   8758c:	e791      	b.n	874b2 <_realloc_r+0x28e>
   8758e:	6921      	ldr	r1, [r4, #16]
   87590:	f10a 0220 	add.w	r2, sl, #32
   87594:	f8ca 1018 	str.w	r1, [sl, #24]
   87598:	6961      	ldr	r1, [r4, #20]
   8759a:	3418      	adds	r4, #24
   8759c:	f8ca 101c 	str.w	r1, [sl, #28]
   875a0:	e72e      	b.n	87400 <_realloc_r+0x1dc>
   875a2:	4621      	mov	r1, r4
   875a4:	4638      	mov	r0, r7
   875a6:	f8cd c004 	str.w	ip, [sp, #4]
   875aa:	f7ff fdd1 	bl	87150 <memmove>
   875ae:	f8dd c004 	ldr.w	ip, [sp, #4]
   875b2:	e784      	b.n	874be <_realloc_r+0x29a>
   875b4:	68a3      	ldr	r3, [r4, #8]
   875b6:	2a24      	cmp	r2, #36	; 0x24
   875b8:	f8ca 3010 	str.w	r3, [sl, #16]
   875bc:	68e3      	ldr	r3, [r4, #12]
   875be:	f8ca 3014 	str.w	r3, [sl, #20]
   875c2:	d003      	beq.n	875cc <_realloc_r+0x3a8>
   875c4:	3410      	adds	r4, #16
   875c6:	f10a 0318 	add.w	r3, sl, #24
   875ca:	e772      	b.n	874b2 <_realloc_r+0x28e>
   875cc:	6922      	ldr	r2, [r4, #16]
   875ce:	f10a 0320 	add.w	r3, sl, #32
   875d2:	f8ca 2018 	str.w	r2, [sl, #24]
   875d6:	6962      	ldr	r2, [r4, #20]
   875d8:	3418      	adds	r4, #24
   875da:	f8ca 201c 	str.w	r2, [sl, #28]
   875de:	e768      	b.n	874b2 <_realloc_r+0x28e>
   875e0:	200705d8 	.word	0x200705d8

000875e4 <_sbrk_r>:
   875e4:	b538      	push	{r3, r4, r5, lr}
   875e6:	4c07      	ldr	r4, [pc, #28]	; (87604 <_sbrk_r+0x20>)
   875e8:	2300      	movs	r3, #0
   875ea:	4605      	mov	r5, r0
   875ec:	4608      	mov	r0, r1
   875ee:	6023      	str	r3, [r4, #0]
   875f0:	f7fc fc78 	bl	83ee4 <_sbrk>
   875f4:	1c43      	adds	r3, r0, #1
   875f6:	d000      	beq.n	875fa <_sbrk_r+0x16>
   875f8:	bd38      	pop	{r3, r4, r5, pc}
   875fa:	6823      	ldr	r3, [r4, #0]
   875fc:	2b00      	cmp	r3, #0
   875fe:	d0fb      	beq.n	875f8 <_sbrk_r+0x14>
   87600:	602b      	str	r3, [r5, #0]
   87602:	bd38      	pop	{r3, r4, r5, pc}
   87604:	20078e08 	.word	0x20078e08

00087608 <__sread>:
   87608:	b510      	push	{r4, lr}
   8760a:	460c      	mov	r4, r1
   8760c:	f9b1 100e 	ldrsh.w	r1, [r1, #14]
   87610:	f000 f9c2 	bl	87998 <_read_r>
   87614:	2800      	cmp	r0, #0
   87616:	db03      	blt.n	87620 <__sread+0x18>
   87618:	6d23      	ldr	r3, [r4, #80]	; 0x50
   8761a:	4403      	add	r3, r0
   8761c:	6523      	str	r3, [r4, #80]	; 0x50
   8761e:	bd10      	pop	{r4, pc}
   87620:	89a3      	ldrh	r3, [r4, #12]
   87622:	f423 5380 	bic.w	r3, r3, #4096	; 0x1000
   87626:	81a3      	strh	r3, [r4, #12]
   87628:	bd10      	pop	{r4, pc}
   8762a:	bf00      	nop

0008762c <__swrite>:
   8762c:	e92d 41f0 	stmdb	sp!, {r4, r5, r6, r7, r8, lr}
   87630:	460c      	mov	r4, r1
   87632:	8989      	ldrh	r1, [r1, #12]
   87634:	461d      	mov	r5, r3
   87636:	05cb      	lsls	r3, r1, #23
   87638:	4616      	mov	r6, r2
   8763a:	4607      	mov	r7, r0
   8763c:	d506      	bpl.n	8764c <__swrite+0x20>
   8763e:	f9b4 100e 	ldrsh.w	r1, [r4, #14]
   87642:	2200      	movs	r2, #0
   87644:	2302      	movs	r3, #2
   87646:	f000 f993 	bl	87970 <_lseek_r>
   8764a:	89a1      	ldrh	r1, [r4, #12]
   8764c:	f421 5180 	bic.w	r1, r1, #4096	; 0x1000
   87650:	81a1      	strh	r1, [r4, #12]
   87652:	4638      	mov	r0, r7
   87654:	f9b4 100e 	ldrsh.w	r1, [r4, #14]
   87658:	4632      	mov	r2, r6
   8765a:	462b      	mov	r3, r5
   8765c:	e8bd 41f0 	ldmia.w	sp!, {r4, r5, r6, r7, r8, lr}
   87660:	f000 b89e 	b.w	877a0 <_write_r>

00087664 <__sseek>:
   87664:	b510      	push	{r4, lr}
   87666:	460c      	mov	r4, r1
   87668:	f9b1 100e 	ldrsh.w	r1, [r1, #14]
   8766c:	f000 f980 	bl	87970 <_lseek_r>
   87670:	89a3      	ldrh	r3, [r4, #12]
   87672:	1c42      	adds	r2, r0, #1
   87674:	bf0e      	itee	eq
   87676:	f423 5380 	biceq.w	r3, r3, #4096	; 0x1000
   8767a:	f443 5380 	orrne.w	r3, r3, #4096	; 0x1000
   8767e:	6520      	strne	r0, [r4, #80]	; 0x50
   87680:	81a3      	strh	r3, [r4, #12]
   87682:	bd10      	pop	{r4, pc}

00087684 <__sclose>:
   87684:	f9b1 100e 	ldrsh.w	r1, [r1, #14]
   87688:	f000 b8f2 	b.w	87870 <_close_r>

0008768c <__swbuf_r>:
   8768c:	b5f8      	push	{r3, r4, r5, r6, r7, lr}
   8768e:	460d      	mov	r5, r1
   87690:	4614      	mov	r4, r2
   87692:	4607      	mov	r7, r0
   87694:	b110      	cbz	r0, 8769c <__swbuf_r+0x10>
   87696:	6b83      	ldr	r3, [r0, #56]	; 0x38
   87698:	2b00      	cmp	r3, #0
   8769a:	d048      	beq.n	8772e <__swbuf_r+0xa2>
   8769c:	89a2      	ldrh	r2, [r4, #12]
   8769e:	69a0      	ldr	r0, [r4, #24]
   876a0:	b293      	uxth	r3, r2
   876a2:	60a0      	str	r0, [r4, #8]
   876a4:	0718      	lsls	r0, r3, #28
   876a6:	d538      	bpl.n	8771a <__swbuf_r+0x8e>
   876a8:	6926      	ldr	r6, [r4, #16]
   876aa:	2e00      	cmp	r6, #0
   876ac:	d035      	beq.n	8771a <__swbuf_r+0x8e>
   876ae:	0499      	lsls	r1, r3, #18
   876b0:	b2ed      	uxtb	r5, r5
   876b2:	d515      	bpl.n	876e0 <__swbuf_r+0x54>
   876b4:	6823      	ldr	r3, [r4, #0]
   876b6:	6962      	ldr	r2, [r4, #20]
   876b8:	1b9e      	subs	r6, r3, r6
   876ba:	4296      	cmp	r6, r2
   876bc:	da1c      	bge.n	876f8 <__swbuf_r+0x6c>
   876be:	3601      	adds	r6, #1
   876c0:	68a2      	ldr	r2, [r4, #8]
   876c2:	1c59      	adds	r1, r3, #1
   876c4:	3a01      	subs	r2, #1
   876c6:	60a2      	str	r2, [r4, #8]
   876c8:	6021      	str	r1, [r4, #0]
   876ca:	701d      	strb	r5, [r3, #0]
   876cc:	6963      	ldr	r3, [r4, #20]
   876ce:	42b3      	cmp	r3, r6
   876d0:	d01a      	beq.n	87708 <__swbuf_r+0x7c>
   876d2:	89a3      	ldrh	r3, [r4, #12]
   876d4:	07db      	lsls	r3, r3, #31
   876d6:	d501      	bpl.n	876dc <__swbuf_r+0x50>
   876d8:	2d0a      	cmp	r5, #10
   876da:	d015      	beq.n	87708 <__swbuf_r+0x7c>
   876dc:	4628      	mov	r0, r5
   876de:	bdf8      	pop	{r3, r4, r5, r6, r7, pc}
   876e0:	6e63      	ldr	r3, [r4, #100]	; 0x64
   876e2:	f442 5200 	orr.w	r2, r2, #8192	; 0x2000
   876e6:	f423 5300 	bic.w	r3, r3, #8192	; 0x2000
   876ea:	6663      	str	r3, [r4, #100]	; 0x64
   876ec:	6823      	ldr	r3, [r4, #0]
   876ee:	81a2      	strh	r2, [r4, #12]
   876f0:	6962      	ldr	r2, [r4, #20]
   876f2:	1b9e      	subs	r6, r3, r6
   876f4:	4296      	cmp	r6, r2
   876f6:	dbe2      	blt.n	876be <__swbuf_r+0x32>
   876f8:	4638      	mov	r0, r7
   876fa:	4621      	mov	r1, r4
   876fc:	f7fe fde4 	bl	862c8 <_fflush_r>
   87700:	b940      	cbnz	r0, 87714 <__swbuf_r+0x88>
   87702:	6823      	ldr	r3, [r4, #0]
   87704:	2601      	movs	r6, #1
   87706:	e7db      	b.n	876c0 <__swbuf_r+0x34>
   87708:	4638      	mov	r0, r7
   8770a:	4621      	mov	r1, r4
   8770c:	f7fe fddc 	bl	862c8 <_fflush_r>
   87710:	2800      	cmp	r0, #0
   87712:	d0e3      	beq.n	876dc <__swbuf_r+0x50>
   87714:	f04f 30ff 	mov.w	r0, #4294967295
   87718:	bdf8      	pop	{r3, r4, r5, r6, r7, pc}
   8771a:	4638      	mov	r0, r7
   8771c:	4621      	mov	r1, r4
   8771e:	f7fe fcbd 	bl	8609c <__swsetup_r>
   87722:	2800      	cmp	r0, #0
   87724:	d1f6      	bne.n	87714 <__swbuf_r+0x88>
   87726:	89a2      	ldrh	r2, [r4, #12]
   87728:	6926      	ldr	r6, [r4, #16]
   8772a:	b293      	uxth	r3, r2
   8772c:	e7bf      	b.n	876ae <__swbuf_r+0x22>
   8772e:	f7fe fde7 	bl	86300 <__sinit>
   87732:	e7b3      	b.n	8769c <__swbuf_r+0x10>

00087734 <_wcrtomb_r>:
   87734:	e92d 41f0 	stmdb	sp!, {r4, r5, r6, r7, r8, lr}
   87738:	461e      	mov	r6, r3
   8773a:	b086      	sub	sp, #24
   8773c:	460c      	mov	r4, r1
   8773e:	4605      	mov	r5, r0
   87740:	4617      	mov	r7, r2
   87742:	4b0f      	ldr	r3, [pc, #60]	; (87780 <_wcrtomb_r+0x4c>)
   87744:	b191      	cbz	r1, 8776c <_wcrtomb_r+0x38>
   87746:	f8d3 8000 	ldr.w	r8, [r3]
   8774a:	f7ff f999 	bl	86a80 <__locale_charset>
   8774e:	9600      	str	r6, [sp, #0]
   87750:	4603      	mov	r3, r0
   87752:	4621      	mov	r1, r4
   87754:	463a      	mov	r2, r7
   87756:	4628      	mov	r0, r5
   87758:	47c0      	blx	r8
   8775a:	1c43      	adds	r3, r0, #1
   8775c:	d103      	bne.n	87766 <_wcrtomb_r+0x32>
   8775e:	2200      	movs	r2, #0
   87760:	238a      	movs	r3, #138	; 0x8a
   87762:	6032      	str	r2, [r6, #0]
   87764:	602b      	str	r3, [r5, #0]
   87766:	b006      	add	sp, #24
   87768:	e8bd 81f0 	ldmia.w	sp!, {r4, r5, r6, r7, r8, pc}
   8776c:	681f      	ldr	r7, [r3, #0]
   8776e:	f7ff f987 	bl	86a80 <__locale_charset>
   87772:	9600      	str	r6, [sp, #0]
   87774:	4603      	mov	r3, r0
   87776:	4622      	mov	r2, r4
   87778:	4628      	mov	r0, r5
   8777a:	a903      	add	r1, sp, #12
   8777c:	47b8      	blx	r7
   8777e:	e7ec      	b.n	8775a <_wcrtomb_r+0x26>
   87780:	200709e8 	.word	0x200709e8

00087784 <__ascii_wctomb>:
   87784:	b121      	cbz	r1, 87790 <__ascii_wctomb+0xc>
   87786:	2aff      	cmp	r2, #255	; 0xff
   87788:	d804      	bhi.n	87794 <__ascii_wctomb+0x10>
   8778a:	700a      	strb	r2, [r1, #0]
   8778c:	2001      	movs	r0, #1
   8778e:	4770      	bx	lr
   87790:	4608      	mov	r0, r1
   87792:	4770      	bx	lr
   87794:	238a      	movs	r3, #138	; 0x8a
   87796:	6003      	str	r3, [r0, #0]
   87798:	f04f 30ff 	mov.w	r0, #4294967295
   8779c:	4770      	bx	lr
   8779e:	bf00      	nop

000877a0 <_write_r>:
   877a0:	b570      	push	{r4, r5, r6, lr}
   877a2:	4c08      	ldr	r4, [pc, #32]	; (877c4 <_write_r+0x24>)
   877a4:	4606      	mov	r6, r0
   877a6:	2500      	movs	r5, #0
   877a8:	4608      	mov	r0, r1
   877aa:	4611      	mov	r1, r2
   877ac:	461a      	mov	r2, r3
   877ae:	6025      	str	r5, [r4, #0]
   877b0:	f7f9 fe5e 	bl	81470 <_write>
   877b4:	1c43      	adds	r3, r0, #1
   877b6:	d000      	beq.n	877ba <_write_r+0x1a>
   877b8:	bd70      	pop	{r4, r5, r6, pc}
   877ba:	6823      	ldr	r3, [r4, #0]
   877bc:	2b00      	cmp	r3, #0
   877be:	d0fb      	beq.n	877b8 <_write_r+0x18>
   877c0:	6033      	str	r3, [r6, #0]
   877c2:	bd70      	pop	{r4, r5, r6, pc}
   877c4:	20078e08 	.word	0x20078e08

000877c8 <__register_exitproc>:
   877c8:	b5f0      	push	{r4, r5, r6, r7, lr}
   877ca:	4c27      	ldr	r4, [pc, #156]	; (87868 <__register_exitproc+0xa0>)
   877cc:	b085      	sub	sp, #20
   877ce:	6826      	ldr	r6, [r4, #0]
   877d0:	4607      	mov	r7, r0
   877d2:	f8d6 4148 	ldr.w	r4, [r6, #328]	; 0x148
   877d6:	2c00      	cmp	r4, #0
   877d8:	d040      	beq.n	8785c <__register_exitproc+0x94>
   877da:	6865      	ldr	r5, [r4, #4]
   877dc:	2d1f      	cmp	r5, #31
   877de:	dd1e      	ble.n	8781e <__register_exitproc+0x56>
   877e0:	4822      	ldr	r0, [pc, #136]	; (8786c <__register_exitproc+0xa4>)
   877e2:	b918      	cbnz	r0, 877ec <__register_exitproc+0x24>
   877e4:	f04f 30ff 	mov.w	r0, #4294967295
   877e8:	b005      	add	sp, #20
   877ea:	bdf0      	pop	{r4, r5, r6, r7, pc}
   877ec:	f44f 70c8 	mov.w	r0, #400	; 0x190
   877f0:	9103      	str	r1, [sp, #12]
   877f2:	9202      	str	r2, [sp, #8]
   877f4:	9301      	str	r3, [sp, #4]
   877f6:	f7ff f9bd 	bl	86b74 <malloc>
   877fa:	9903      	ldr	r1, [sp, #12]
   877fc:	4604      	mov	r4, r0
   877fe:	9a02      	ldr	r2, [sp, #8]
   87800:	9b01      	ldr	r3, [sp, #4]
   87802:	2800      	cmp	r0, #0
   87804:	d0ee      	beq.n	877e4 <__register_exitproc+0x1c>
   87806:	f8d6 5148 	ldr.w	r5, [r6, #328]	; 0x148
   8780a:	2000      	movs	r0, #0
   8780c:	6025      	str	r5, [r4, #0]
   8780e:	6060      	str	r0, [r4, #4]
   87810:	4605      	mov	r5, r0
   87812:	f8c6 4148 	str.w	r4, [r6, #328]	; 0x148
   87816:	f8c4 0188 	str.w	r0, [r4, #392]	; 0x188
   8781a:	f8c4 018c 	str.w	r0, [r4, #396]	; 0x18c
   8781e:	b93f      	cbnz	r7, 87830 <__register_exitproc+0x68>
   87820:	1c6b      	adds	r3, r5, #1
   87822:	2000      	movs	r0, #0
   87824:	3502      	adds	r5, #2
   87826:	6063      	str	r3, [r4, #4]
   87828:	f844 1025 	str.w	r1, [r4, r5, lsl #2]
   8782c:	b005      	add	sp, #20
   8782e:	bdf0      	pop	{r4, r5, r6, r7, pc}
   87830:	2601      	movs	r6, #1
   87832:	40ae      	lsls	r6, r5
   87834:	eb04 0085 	add.w	r0, r4, r5, lsl #2
   87838:	f8c0 2088 	str.w	r2, [r0, #136]	; 0x88
   8783c:	f8d4 2188 	ldr.w	r2, [r4, #392]	; 0x188
   87840:	2f02      	cmp	r7, #2
   87842:	ea42 0206 	orr.w	r2, r2, r6
   87846:	f8c4 2188 	str.w	r2, [r4, #392]	; 0x188
   8784a:	f8c0 3108 	str.w	r3, [r0, #264]	; 0x108
   8784e:	d1e7      	bne.n	87820 <__register_exitproc+0x58>
   87850:	f8d4 318c 	ldr.w	r3, [r4, #396]	; 0x18c
   87854:	431e      	orrs	r6, r3
   87856:	f8c4 618c 	str.w	r6, [r4, #396]	; 0x18c
   8785a:	e7e1      	b.n	87820 <__register_exitproc+0x58>
   8785c:	f506 74a6 	add.w	r4, r6, #332	; 0x14c
   87860:	f8c6 4148 	str.w	r4, [r6, #328]	; 0x148
   87864:	e7b9      	b.n	877da <__register_exitproc+0x12>
   87866:	bf00      	nop
   87868:	0008849c 	.word	0x0008849c
   8786c:	00086b75 	.word	0x00086b75

00087870 <_close_r>:
   87870:	b538      	push	{r3, r4, r5, lr}
   87872:	4c07      	ldr	r4, [pc, #28]	; (87890 <_close_r+0x20>)
   87874:	2300      	movs	r3, #0
   87876:	4605      	mov	r5, r0
   87878:	4608      	mov	r0, r1
   8787a:	6023      	str	r3, [r4, #0]
   8787c:	f7fc fb4c 	bl	83f18 <_close>
   87880:	1c43      	adds	r3, r0, #1
   87882:	d000      	beq.n	87886 <_close_r+0x16>
   87884:	bd38      	pop	{r3, r4, r5, pc}
   87886:	6823      	ldr	r3, [r4, #0]
   87888:	2b00      	cmp	r3, #0
   8788a:	d0fb      	beq.n	87884 <_close_r+0x14>
   8788c:	602b      	str	r3, [r5, #0]
   8788e:	bd38      	pop	{r3, r4, r5, pc}
   87890:	20078e08 	.word	0x20078e08

00087894 <_fclose_r>:
   87894:	b570      	push	{r4, r5, r6, lr}
   87896:	460c      	mov	r4, r1
   87898:	4605      	mov	r5, r0
   8789a:	b131      	cbz	r1, 878aa <_fclose_r+0x16>
   8789c:	b110      	cbz	r0, 878a4 <_fclose_r+0x10>
   8789e:	6b83      	ldr	r3, [r0, #56]	; 0x38
   878a0:	2b00      	cmp	r3, #0
   878a2:	d02f      	beq.n	87904 <_fclose_r+0x70>
   878a4:	f9b4 300c 	ldrsh.w	r3, [r4, #12]
   878a8:	b90b      	cbnz	r3, 878ae <_fclose_r+0x1a>
   878aa:	2000      	movs	r0, #0
   878ac:	bd70      	pop	{r4, r5, r6, pc}
   878ae:	4628      	mov	r0, r5
   878b0:	4621      	mov	r1, r4
   878b2:	f7fe fd09 	bl	862c8 <_fflush_r>
   878b6:	6ae3      	ldr	r3, [r4, #44]	; 0x2c
   878b8:	4606      	mov	r6, r0
   878ba:	b133      	cbz	r3, 878ca <_fclose_r+0x36>
   878bc:	4628      	mov	r0, r5
   878be:	69e1      	ldr	r1, [r4, #28]
   878c0:	4798      	blx	r3
   878c2:	2800      	cmp	r0, #0
   878c4:	bfb8      	it	lt
   878c6:	f04f 36ff 	movlt.w	r6, #4294967295
   878ca:	89a3      	ldrh	r3, [r4, #12]
   878cc:	061b      	lsls	r3, r3, #24
   878ce:	d41c      	bmi.n	8790a <_fclose_r+0x76>
   878d0:	6b21      	ldr	r1, [r4, #48]	; 0x30
   878d2:	b141      	cbz	r1, 878e6 <_fclose_r+0x52>
   878d4:	f104 0340 	add.w	r3, r4, #64	; 0x40
   878d8:	4299      	cmp	r1, r3
   878da:	d002      	beq.n	878e2 <_fclose_r+0x4e>
   878dc:	4628      	mov	r0, r5
   878de:	f7fe fe53 	bl	86588 <_free_r>
   878e2:	2300      	movs	r3, #0
   878e4:	6323      	str	r3, [r4, #48]	; 0x30
   878e6:	6c61      	ldr	r1, [r4, #68]	; 0x44
   878e8:	b121      	cbz	r1, 878f4 <_fclose_r+0x60>
   878ea:	4628      	mov	r0, r5
   878ec:	f7fe fe4c 	bl	86588 <_free_r>
   878f0:	2300      	movs	r3, #0
   878f2:	6463      	str	r3, [r4, #68]	; 0x44
   878f4:	f7fe fd7e 	bl	863f4 <__sfp_lock_acquire>
   878f8:	2300      	movs	r3, #0
   878fa:	81a3      	strh	r3, [r4, #12]
   878fc:	f7fe fd7c 	bl	863f8 <__sfp_lock_release>
   87900:	4630      	mov	r0, r6
   87902:	bd70      	pop	{r4, r5, r6, pc}
   87904:	f7fe fcfc 	bl	86300 <__sinit>
   87908:	e7cc      	b.n	878a4 <_fclose_r+0x10>
   8790a:	4628      	mov	r0, r5
   8790c:	6921      	ldr	r1, [r4, #16]
   8790e:	f7fe fe3b 	bl	86588 <_free_r>
   87912:	e7dd      	b.n	878d0 <_fclose_r+0x3c>

00087914 <fclose>:
   87914:	4b02      	ldr	r3, [pc, #8]	; (87920 <fclose+0xc>)
   87916:	4601      	mov	r1, r0
   87918:	6818      	ldr	r0, [r3, #0]
   8791a:	f7ff bfbb 	b.w	87894 <_fclose_r>
   8791e:	bf00      	nop
   87920:	200705b0 	.word	0x200705b0

00087924 <_fstat_r>:
   87924:	b538      	push	{r3, r4, r5, lr}
   87926:	4c08      	ldr	r4, [pc, #32]	; (87948 <_fstat_r+0x24>)
   87928:	2300      	movs	r3, #0
   8792a:	4605      	mov	r5, r0
   8792c:	4608      	mov	r0, r1
   8792e:	4611      	mov	r1, r2
   87930:	6023      	str	r3, [r4, #0]
   87932:	f7fc faf5 	bl	83f20 <_fstat>
   87936:	1c43      	adds	r3, r0, #1
   87938:	d000      	beq.n	8793c <_fstat_r+0x18>
   8793a:	bd38      	pop	{r3, r4, r5, pc}
   8793c:	6823      	ldr	r3, [r4, #0]
   8793e:	2b00      	cmp	r3, #0
   87940:	d0fb      	beq.n	8793a <_fstat_r+0x16>
   87942:	602b      	str	r3, [r5, #0]
   87944:	bd38      	pop	{r3, r4, r5, pc}
   87946:	bf00      	nop
   87948:	20078e08 	.word	0x20078e08

0008794c <_isatty_r>:
   8794c:	b538      	push	{r3, r4, r5, lr}
   8794e:	4c07      	ldr	r4, [pc, #28]	; (8796c <_isatty_r+0x20>)
   87950:	2300      	movs	r3, #0
   87952:	4605      	mov	r5, r0
   87954:	4608      	mov	r0, r1
   87956:	6023      	str	r3, [r4, #0]
   87958:	f7fc fae8 	bl	83f2c <_isatty>
   8795c:	1c43      	adds	r3, r0, #1
   8795e:	d000      	beq.n	87962 <_isatty_r+0x16>
   87960:	bd38      	pop	{r3, r4, r5, pc}
   87962:	6823      	ldr	r3, [r4, #0]
   87964:	2b00      	cmp	r3, #0
   87966:	d0fb      	beq.n	87960 <_isatty_r+0x14>
   87968:	602b      	str	r3, [r5, #0]
   8796a:	bd38      	pop	{r3, r4, r5, pc}
   8796c:	20078e08 	.word	0x20078e08

00087970 <_lseek_r>:
   87970:	b570      	push	{r4, r5, r6, lr}
   87972:	4c08      	ldr	r4, [pc, #32]	; (87994 <_lseek_r+0x24>)
   87974:	4606      	mov	r6, r0
   87976:	2500      	movs	r5, #0
   87978:	4608      	mov	r0, r1
   8797a:	4611      	mov	r1, r2
   8797c:	461a      	mov	r2, r3
   8797e:	6025      	str	r5, [r4, #0]
   87980:	f7fc fad6 	bl	83f30 <_lseek>
   87984:	1c43      	adds	r3, r0, #1
   87986:	d000      	beq.n	8798a <_lseek_r+0x1a>
   87988:	bd70      	pop	{r4, r5, r6, pc}
   8798a:	6823      	ldr	r3, [r4, #0]
   8798c:	2b00      	cmp	r3, #0
   8798e:	d0fb      	beq.n	87988 <_lseek_r+0x18>
   87990:	6033      	str	r3, [r6, #0]
   87992:	bd70      	pop	{r4, r5, r6, pc}
   87994:	20078e08 	.word	0x20078e08

00087998 <_read_r>:
   87998:	b570      	push	{r4, r5, r6, lr}
   8799a:	4c08      	ldr	r4, [pc, #32]	; (879bc <_read_r+0x24>)
   8799c:	4606      	mov	r6, r0
   8799e:	2500      	movs	r5, #0
   879a0:	4608      	mov	r0, r1
   879a2:	4611      	mov	r1, r2
   879a4:	461a      	mov	r2, r3
   879a6:	6025      	str	r5, [r4, #0]
   879a8:	f7f8 fd98 	bl	804dc <_read>
   879ac:	1c43      	adds	r3, r0, #1
   879ae:	d000      	beq.n	879b2 <_read_r+0x1a>
   879b0:	bd70      	pop	{r4, r5, r6, pc}
   879b2:	6823      	ldr	r3, [r4, #0]
   879b4:	2b00      	cmp	r3, #0
   879b6:	d0fb      	beq.n	879b0 <_read_r+0x18>
   879b8:	6033      	str	r3, [r6, #0]
   879ba:	bd70      	pop	{r4, r5, r6, pc}
   879bc:	20078e08 	.word	0x20078e08

000879c0 <__aeabi_uldivmod>:
   879c0:	b94b      	cbnz	r3, 879d6 <__aeabi_uldivmod+0x16>
   879c2:	b942      	cbnz	r2, 879d6 <__aeabi_uldivmod+0x16>
   879c4:	2900      	cmp	r1, #0
   879c6:	bf08      	it	eq
   879c8:	2800      	cmpeq	r0, #0
   879ca:	d002      	beq.n	879d2 <__aeabi_uldivmod+0x12>
   879cc:	f04f 31ff 	mov.w	r1, #4294967295
   879d0:	4608      	mov	r0, r1
   879d2:	f000 b83b 	b.w	87a4c <__aeabi_idiv0>
   879d6:	b082      	sub	sp, #8
   879d8:	46ec      	mov	ip, sp
   879da:	e92d 5000 	stmdb	sp!, {ip, lr}
   879de:	f000 f81d 	bl	87a1c <__gnu_uldivmod_helper>
   879e2:	f8dd e004 	ldr.w	lr, [sp, #4]
   879e6:	b002      	add	sp, #8
   879e8:	bc0c      	pop	{r2, r3}
   879ea:	4770      	bx	lr

000879ec <__gnu_ldivmod_helper>:
   879ec:	e92d 4f70 	stmdb	sp!, {r4, r5, r6, r8, r9, sl, fp, lr}
   879f0:	9e08      	ldr	r6, [sp, #32]
   879f2:	4614      	mov	r4, r2
   879f4:	461d      	mov	r5, r3
   879f6:	4680      	mov	r8, r0
   879f8:	4689      	mov	r9, r1
   879fa:	f000 f829 	bl	87a50 <__divdi3>
   879fe:	fb04 f301 	mul.w	r3, r4, r1
   87a02:	fba4 ab00 	umull	sl, fp, r4, r0
   87a06:	fb00 3205 	mla	r2, r0, r5, r3
   87a0a:	4493      	add	fp, r2
   87a0c:	ebb8 080a 	subs.w	r8, r8, sl
   87a10:	eb69 090b 	sbc.w	r9, r9, fp
   87a14:	e9c6 8900 	strd	r8, r9, [r6]
   87a18:	e8bd 8f70 	ldmia.w	sp!, {r4, r5, r6, r8, r9, sl, fp, pc}

00087a1c <__gnu_uldivmod_helper>:
   87a1c:	e92d 4f70 	stmdb	sp!, {r4, r5, r6, r8, r9, sl, fp, lr}
   87a20:	9e08      	ldr	r6, [sp, #32]
   87a22:	4614      	mov	r4, r2
   87a24:	461d      	mov	r5, r3
   87a26:	4680      	mov	r8, r0
   87a28:	4689      	mov	r9, r1
   87a2a:	f000 f961 	bl	87cf0 <__udivdi3>
   87a2e:	fb00 f505 	mul.w	r5, r0, r5
   87a32:	fba0 ab04 	umull	sl, fp, r0, r4
   87a36:	fb04 5401 	mla	r4, r4, r1, r5
   87a3a:	44a3      	add	fp, r4
   87a3c:	ebb8 080a 	subs.w	r8, r8, sl
   87a40:	eb69 090b 	sbc.w	r9, r9, fp
   87a44:	e9c6 8900 	strd	r8, r9, [r6]
   87a48:	e8bd 8f70 	ldmia.w	sp!, {r4, r5, r6, r8, r9, sl, fp, pc}

00087a4c <__aeabi_idiv0>:
   87a4c:	4770      	bx	lr
   87a4e:	bf00      	nop

00087a50 <__divdi3>:
   87a50:	2900      	cmp	r1, #0
   87a52:	e92d 0ff0 	stmdb	sp!, {r4, r5, r6, r7, r8, r9, sl, fp}
   87a56:	f2c0 80a1 	blt.w	87b9c <__divdi3+0x14c>
   87a5a:	2400      	movs	r4, #0
   87a5c:	2b00      	cmp	r3, #0
   87a5e:	f2c0 8098 	blt.w	87b92 <__divdi3+0x142>
   87a62:	4615      	mov	r5, r2
   87a64:	4606      	mov	r6, r0
   87a66:	460f      	mov	r7, r1
   87a68:	2b00      	cmp	r3, #0
   87a6a:	d13f      	bne.n	87aec <__divdi3+0x9c>
   87a6c:	428a      	cmp	r2, r1
   87a6e:	d958      	bls.n	87b22 <__divdi3+0xd2>
   87a70:	fab2 f382 	clz	r3, r2
   87a74:	b14b      	cbz	r3, 87a8a <__divdi3+0x3a>
   87a76:	f1c3 0220 	rsb	r2, r3, #32
   87a7a:	fa01 f703 	lsl.w	r7, r1, r3
   87a7e:	fa20 f202 	lsr.w	r2, r0, r2
   87a82:	409d      	lsls	r5, r3
   87a84:	fa00 f603 	lsl.w	r6, r0, r3
   87a88:	4317      	orrs	r7, r2
   87a8a:	0c29      	lsrs	r1, r5, #16
   87a8c:	fbb7 f2f1 	udiv	r2, r7, r1
   87a90:	fb01 7712 	mls	r7, r1, r2, r7
   87a94:	b2a8      	uxth	r0, r5
   87a96:	fb00 f302 	mul.w	r3, r0, r2
   87a9a:	ea4f 4c16 	mov.w	ip, r6, lsr #16
   87a9e:	ea4c 4707 	orr.w	r7, ip, r7, lsl #16
   87aa2:	42bb      	cmp	r3, r7
   87aa4:	d909      	bls.n	87aba <__divdi3+0x6a>
   87aa6:	197f      	adds	r7, r7, r5
   87aa8:	f102 3cff 	add.w	ip, r2, #4294967295
   87aac:	f080 8105 	bcs.w	87cba <__divdi3+0x26a>
   87ab0:	42bb      	cmp	r3, r7
   87ab2:	f240 8102 	bls.w	87cba <__divdi3+0x26a>
   87ab6:	3a02      	subs	r2, #2
   87ab8:	442f      	add	r7, r5
   87aba:	1aff      	subs	r7, r7, r3
   87abc:	fbb7 f3f1 	udiv	r3, r7, r1
   87ac0:	fb01 7113 	mls	r1, r1, r3, r7
   87ac4:	fb00 f003 	mul.w	r0, r0, r3
   87ac8:	b2b6      	uxth	r6, r6
   87aca:	ea46 4101 	orr.w	r1, r6, r1, lsl #16
   87ace:	4288      	cmp	r0, r1
   87ad0:	d908      	bls.n	87ae4 <__divdi3+0x94>
   87ad2:	1949      	adds	r1, r1, r5
   87ad4:	f103 37ff 	add.w	r7, r3, #4294967295
   87ad8:	f080 80f1 	bcs.w	87cbe <__divdi3+0x26e>
   87adc:	4288      	cmp	r0, r1
   87ade:	f240 80ee 	bls.w	87cbe <__divdi3+0x26e>
   87ae2:	3b02      	subs	r3, #2
   87ae4:	ea43 4202 	orr.w	r2, r3, r2, lsl #16
   87ae8:	2300      	movs	r3, #0
   87aea:	e003      	b.n	87af4 <__divdi3+0xa4>
   87aec:	428b      	cmp	r3, r1
   87aee:	d90a      	bls.n	87b06 <__divdi3+0xb6>
   87af0:	2300      	movs	r3, #0
   87af2:	461a      	mov	r2, r3
   87af4:	4610      	mov	r0, r2
   87af6:	4619      	mov	r1, r3
   87af8:	b114      	cbz	r4, 87b00 <__divdi3+0xb0>
   87afa:	4240      	negs	r0, r0
   87afc:	eb61 0141 	sbc.w	r1, r1, r1, lsl #1
   87b00:	e8bd 0ff0 	ldmia.w	sp!, {r4, r5, r6, r7, r8, r9, sl, fp}
   87b04:	4770      	bx	lr
   87b06:	fab3 f883 	clz	r8, r3
   87b0a:	f1b8 0f00 	cmp.w	r8, #0
   87b0e:	f040 8088 	bne.w	87c22 <__divdi3+0x1d2>
   87b12:	428b      	cmp	r3, r1
   87b14:	d302      	bcc.n	87b1c <__divdi3+0xcc>
   87b16:	4282      	cmp	r2, r0
   87b18:	f200 80e2 	bhi.w	87ce0 <__divdi3+0x290>
   87b1c:	2300      	movs	r3, #0
   87b1e:	2201      	movs	r2, #1
   87b20:	e7e8      	b.n	87af4 <__divdi3+0xa4>
   87b22:	b912      	cbnz	r2, 87b2a <__divdi3+0xda>
   87b24:	2301      	movs	r3, #1
   87b26:	fbb3 f5f2 	udiv	r5, r3, r2
   87b2a:	fab5 f285 	clz	r2, r5
   87b2e:	2a00      	cmp	r2, #0
   87b30:	d13a      	bne.n	87ba8 <__divdi3+0x158>
   87b32:	1b7f      	subs	r7, r7, r5
   87b34:	0c28      	lsrs	r0, r5, #16
   87b36:	fa1f fc85 	uxth.w	ip, r5
   87b3a:	2301      	movs	r3, #1
   87b3c:	fbb7 f1f0 	udiv	r1, r7, r0
   87b40:	fb00 7711 	mls	r7, r0, r1, r7
   87b44:	fb0c f201 	mul.w	r2, ip, r1
   87b48:	ea4f 4816 	mov.w	r8, r6, lsr #16
   87b4c:	ea48 4707 	orr.w	r7, r8, r7, lsl #16
   87b50:	42ba      	cmp	r2, r7
   87b52:	d907      	bls.n	87b64 <__divdi3+0x114>
   87b54:	197f      	adds	r7, r7, r5
   87b56:	f101 38ff 	add.w	r8, r1, #4294967295
   87b5a:	d202      	bcs.n	87b62 <__divdi3+0x112>
   87b5c:	42ba      	cmp	r2, r7
   87b5e:	f200 80c4 	bhi.w	87cea <__divdi3+0x29a>
   87b62:	4641      	mov	r1, r8
   87b64:	1abf      	subs	r7, r7, r2
   87b66:	fbb7 f2f0 	udiv	r2, r7, r0
   87b6a:	fb00 7012 	mls	r0, r0, r2, r7
   87b6e:	fb0c fc02 	mul.w	ip, ip, r2
   87b72:	b2b6      	uxth	r6, r6
   87b74:	ea46 4000 	orr.w	r0, r6, r0, lsl #16
   87b78:	4584      	cmp	ip, r0
   87b7a:	d907      	bls.n	87b8c <__divdi3+0x13c>
   87b7c:	1940      	adds	r0, r0, r5
   87b7e:	f102 37ff 	add.w	r7, r2, #4294967295
   87b82:	d202      	bcs.n	87b8a <__divdi3+0x13a>
   87b84:	4584      	cmp	ip, r0
   87b86:	f200 80ae 	bhi.w	87ce6 <__divdi3+0x296>
   87b8a:	463a      	mov	r2, r7
   87b8c:	ea42 4201 	orr.w	r2, r2, r1, lsl #16
   87b90:	e7b0      	b.n	87af4 <__divdi3+0xa4>
   87b92:	43e4      	mvns	r4, r4
   87b94:	4252      	negs	r2, r2
   87b96:	eb63 0343 	sbc.w	r3, r3, r3, lsl #1
   87b9a:	e762      	b.n	87a62 <__divdi3+0x12>
   87b9c:	4240      	negs	r0, r0
   87b9e:	eb61 0141 	sbc.w	r1, r1, r1, lsl #1
   87ba2:	f04f 34ff 	mov.w	r4, #4294967295
   87ba6:	e759      	b.n	87a5c <__divdi3+0xc>
   87ba8:	4095      	lsls	r5, r2
   87baa:	f1c2 0920 	rsb	r9, r2, #32
   87bae:	fa27 f109 	lsr.w	r1, r7, r9
   87bb2:	fa26 f909 	lsr.w	r9, r6, r9
   87bb6:	4097      	lsls	r7, r2
   87bb8:	0c28      	lsrs	r0, r5, #16
   87bba:	fbb1 f8f0 	udiv	r8, r1, r0
   87bbe:	fb00 1118 	mls	r1, r0, r8, r1
   87bc2:	fa1f fc85 	uxth.w	ip, r5
   87bc6:	fb0c f308 	mul.w	r3, ip, r8
   87bca:	ea49 0907 	orr.w	r9, r9, r7
   87bce:	ea4f 4719 	mov.w	r7, r9, lsr #16
   87bd2:	ea47 4101 	orr.w	r1, r7, r1, lsl #16
   87bd6:	428b      	cmp	r3, r1
   87bd8:	fa06 f602 	lsl.w	r6, r6, r2
   87bdc:	d908      	bls.n	87bf0 <__divdi3+0x1a0>
   87bde:	1949      	adds	r1, r1, r5
   87be0:	f108 32ff 	add.w	r2, r8, #4294967295
   87be4:	d27a      	bcs.n	87cdc <__divdi3+0x28c>
   87be6:	428b      	cmp	r3, r1
   87be8:	d978      	bls.n	87cdc <__divdi3+0x28c>
   87bea:	f1a8 0802 	sub.w	r8, r8, #2
   87bee:	4429      	add	r1, r5
   87bf0:	1ac9      	subs	r1, r1, r3
   87bf2:	fbb1 f3f0 	udiv	r3, r1, r0
   87bf6:	fb00 1713 	mls	r7, r0, r3, r1
   87bfa:	fb0c f203 	mul.w	r2, ip, r3
   87bfe:	fa1f f989 	uxth.w	r9, r9
   87c02:	ea49 4707 	orr.w	r7, r9, r7, lsl #16
   87c06:	42ba      	cmp	r2, r7
   87c08:	d907      	bls.n	87c1a <__divdi3+0x1ca>
   87c0a:	197f      	adds	r7, r7, r5
   87c0c:	f103 31ff 	add.w	r1, r3, #4294967295
   87c10:	d260      	bcs.n	87cd4 <__divdi3+0x284>
   87c12:	42ba      	cmp	r2, r7
   87c14:	d95e      	bls.n	87cd4 <__divdi3+0x284>
   87c16:	3b02      	subs	r3, #2
   87c18:	442f      	add	r7, r5
   87c1a:	1abf      	subs	r7, r7, r2
   87c1c:	ea43 4308 	orr.w	r3, r3, r8, lsl #16
   87c20:	e78c      	b.n	87b3c <__divdi3+0xec>
   87c22:	f1c8 0220 	rsb	r2, r8, #32
   87c26:	fa25 f102 	lsr.w	r1, r5, r2
   87c2a:	fa03 fc08 	lsl.w	ip, r3, r8
   87c2e:	fa27 f302 	lsr.w	r3, r7, r2
   87c32:	fa20 f202 	lsr.w	r2, r0, r2
   87c36:	fa07 f708 	lsl.w	r7, r7, r8
   87c3a:	ea41 0c0c 	orr.w	ip, r1, ip
   87c3e:	ea4f 491c 	mov.w	r9, ip, lsr #16
   87c42:	fbb3 f1f9 	udiv	r1, r3, r9
   87c46:	fb09 3311 	mls	r3, r9, r1, r3
   87c4a:	fa1f fa8c 	uxth.w	sl, ip
   87c4e:	fb0a fb01 	mul.w	fp, sl, r1
   87c52:	4317      	orrs	r7, r2
   87c54:	0c3a      	lsrs	r2, r7, #16
   87c56:	ea42 4303 	orr.w	r3, r2, r3, lsl #16
   87c5a:	459b      	cmp	fp, r3
   87c5c:	fa05 f008 	lsl.w	r0, r5, r8
   87c60:	d908      	bls.n	87c74 <__divdi3+0x224>
   87c62:	eb13 030c 	adds.w	r3, r3, ip
   87c66:	f101 32ff 	add.w	r2, r1, #4294967295
   87c6a:	d235      	bcs.n	87cd8 <__divdi3+0x288>
   87c6c:	459b      	cmp	fp, r3
   87c6e:	d933      	bls.n	87cd8 <__divdi3+0x288>
   87c70:	3902      	subs	r1, #2
   87c72:	4463      	add	r3, ip
   87c74:	ebcb 0303 	rsb	r3, fp, r3
   87c78:	fbb3 f2f9 	udiv	r2, r3, r9
   87c7c:	fb09 3312 	mls	r3, r9, r2, r3
   87c80:	fb0a fa02 	mul.w	sl, sl, r2
   87c84:	b2bf      	uxth	r7, r7
   87c86:	ea47 4703 	orr.w	r7, r7, r3, lsl #16
   87c8a:	45ba      	cmp	sl, r7
   87c8c:	d908      	bls.n	87ca0 <__divdi3+0x250>
   87c8e:	eb17 070c 	adds.w	r7, r7, ip
   87c92:	f102 33ff 	add.w	r3, r2, #4294967295
   87c96:	d21b      	bcs.n	87cd0 <__divdi3+0x280>
   87c98:	45ba      	cmp	sl, r7
   87c9a:	d919      	bls.n	87cd0 <__divdi3+0x280>
   87c9c:	3a02      	subs	r2, #2
   87c9e:	4467      	add	r7, ip
   87ca0:	ea42 4501 	orr.w	r5, r2, r1, lsl #16
   87ca4:	fba5 0100 	umull	r0, r1, r5, r0
   87ca8:	ebca 0707 	rsb	r7, sl, r7
   87cac:	428f      	cmp	r7, r1
   87cae:	f04f 0300 	mov.w	r3, #0
   87cb2:	d30a      	bcc.n	87cca <__divdi3+0x27a>
   87cb4:	d005      	beq.n	87cc2 <__divdi3+0x272>
   87cb6:	462a      	mov	r2, r5
   87cb8:	e71c      	b.n	87af4 <__divdi3+0xa4>
   87cba:	4662      	mov	r2, ip
   87cbc:	e6fd      	b.n	87aba <__divdi3+0x6a>
   87cbe:	463b      	mov	r3, r7
   87cc0:	e710      	b.n	87ae4 <__divdi3+0x94>
   87cc2:	fa06 f608 	lsl.w	r6, r6, r8
   87cc6:	4286      	cmp	r6, r0
   87cc8:	d2f5      	bcs.n	87cb6 <__divdi3+0x266>
   87cca:	1e6a      	subs	r2, r5, #1
   87ccc:	2300      	movs	r3, #0
   87cce:	e711      	b.n	87af4 <__divdi3+0xa4>
   87cd0:	461a      	mov	r2, r3
   87cd2:	e7e5      	b.n	87ca0 <__divdi3+0x250>
   87cd4:	460b      	mov	r3, r1
   87cd6:	e7a0      	b.n	87c1a <__divdi3+0x1ca>
   87cd8:	4611      	mov	r1, r2
   87cda:	e7cb      	b.n	87c74 <__divdi3+0x224>
   87cdc:	4690      	mov	r8, r2
   87cde:	e787      	b.n	87bf0 <__divdi3+0x1a0>
   87ce0:	4643      	mov	r3, r8
   87ce2:	4642      	mov	r2, r8
   87ce4:	e706      	b.n	87af4 <__divdi3+0xa4>
   87ce6:	3a02      	subs	r2, #2
   87ce8:	e750      	b.n	87b8c <__divdi3+0x13c>
   87cea:	3902      	subs	r1, #2
   87cec:	442f      	add	r7, r5
   87cee:	e739      	b.n	87b64 <__divdi3+0x114>

00087cf0 <__udivdi3>:
   87cf0:	e92d 0ff0 	stmdb	sp!, {r4, r5, r6, r7, r8, r9, sl, fp}
   87cf4:	4614      	mov	r4, r2
   87cf6:	4605      	mov	r5, r0
   87cf8:	460e      	mov	r6, r1
   87cfa:	2b00      	cmp	r3, #0
   87cfc:	d143      	bne.n	87d86 <__udivdi3+0x96>
   87cfe:	428a      	cmp	r2, r1
   87d00:	d953      	bls.n	87daa <__udivdi3+0xba>
   87d02:	fab2 f782 	clz	r7, r2
   87d06:	b157      	cbz	r7, 87d1e <__udivdi3+0x2e>
   87d08:	f1c7 0620 	rsb	r6, r7, #32
   87d0c:	fa20 f606 	lsr.w	r6, r0, r6
   87d10:	fa01 f307 	lsl.w	r3, r1, r7
   87d14:	fa02 f407 	lsl.w	r4, r2, r7
   87d18:	fa00 f507 	lsl.w	r5, r0, r7
   87d1c:	431e      	orrs	r6, r3
   87d1e:	0c21      	lsrs	r1, r4, #16
   87d20:	fbb6 f2f1 	udiv	r2, r6, r1
   87d24:	fb01 6612 	mls	r6, r1, r2, r6
   87d28:	b2a0      	uxth	r0, r4
   87d2a:	fb00 f302 	mul.w	r3, r0, r2
   87d2e:	0c2f      	lsrs	r7, r5, #16
   87d30:	ea47 4606 	orr.w	r6, r7, r6, lsl #16
   87d34:	42b3      	cmp	r3, r6
   87d36:	d909      	bls.n	87d4c <__udivdi3+0x5c>
   87d38:	1936      	adds	r6, r6, r4
   87d3a:	f102 37ff 	add.w	r7, r2, #4294967295
   87d3e:	f080 80fd 	bcs.w	87f3c <__udivdi3+0x24c>
   87d42:	42b3      	cmp	r3, r6
   87d44:	f240 80fa 	bls.w	87f3c <__udivdi3+0x24c>
   87d48:	3a02      	subs	r2, #2
   87d4a:	4426      	add	r6, r4
   87d4c:	1af6      	subs	r6, r6, r3
   87d4e:	fbb6 f3f1 	udiv	r3, r6, r1
   87d52:	fb01 6113 	mls	r1, r1, r3, r6
   87d56:	fb00 f003 	mul.w	r0, r0, r3
   87d5a:	b2ad      	uxth	r5, r5
   87d5c:	ea45 4101 	orr.w	r1, r5, r1, lsl #16
   87d60:	4288      	cmp	r0, r1
   87d62:	d908      	bls.n	87d76 <__udivdi3+0x86>
   87d64:	1909      	adds	r1, r1, r4
   87d66:	f103 36ff 	add.w	r6, r3, #4294967295
   87d6a:	f080 80e9 	bcs.w	87f40 <__udivdi3+0x250>
   87d6e:	4288      	cmp	r0, r1
   87d70:	f240 80e6 	bls.w	87f40 <__udivdi3+0x250>
   87d74:	3b02      	subs	r3, #2
   87d76:	ea43 4202 	orr.w	r2, r3, r2, lsl #16
   87d7a:	2300      	movs	r3, #0
   87d7c:	4610      	mov	r0, r2
   87d7e:	4619      	mov	r1, r3
   87d80:	e8bd 0ff0 	ldmia.w	sp!, {r4, r5, r6, r7, r8, r9, sl, fp}
   87d84:	4770      	bx	lr
   87d86:	428b      	cmp	r3, r1
   87d88:	d84c      	bhi.n	87e24 <__udivdi3+0x134>
   87d8a:	fab3 f683 	clz	r6, r3
   87d8e:	2e00      	cmp	r6, #0
   87d90:	d14f      	bne.n	87e32 <__udivdi3+0x142>
   87d92:	428b      	cmp	r3, r1
   87d94:	d302      	bcc.n	87d9c <__udivdi3+0xac>
   87d96:	4282      	cmp	r2, r0
   87d98:	f200 80dd 	bhi.w	87f56 <__udivdi3+0x266>
   87d9c:	e8bd 0ff0 	ldmia.w	sp!, {r4, r5, r6, r7, r8, r9, sl, fp}
   87da0:	2300      	movs	r3, #0
   87da2:	2201      	movs	r2, #1
   87da4:	4610      	mov	r0, r2
   87da6:	4619      	mov	r1, r3
   87da8:	4770      	bx	lr
   87daa:	b912      	cbnz	r2, 87db2 <__udivdi3+0xc2>
   87dac:	2401      	movs	r4, #1
   87dae:	fbb4 f4f2 	udiv	r4, r4, r2
   87db2:	fab4 f284 	clz	r2, r4
   87db6:	2a00      	cmp	r2, #0
   87db8:	f040 8082 	bne.w	87ec0 <__udivdi3+0x1d0>
   87dbc:	1b09      	subs	r1, r1, r4
   87dbe:	0c26      	lsrs	r6, r4, #16
   87dc0:	b2a7      	uxth	r7, r4
   87dc2:	2301      	movs	r3, #1
   87dc4:	fbb1 f0f6 	udiv	r0, r1, r6
   87dc8:	fb06 1110 	mls	r1, r6, r0, r1
   87dcc:	fb07 f200 	mul.w	r2, r7, r0
   87dd0:	ea4f 4c15 	mov.w	ip, r5, lsr #16
   87dd4:	ea4c 4101 	orr.w	r1, ip, r1, lsl #16
   87dd8:	428a      	cmp	r2, r1
   87dda:	d907      	bls.n	87dec <__udivdi3+0xfc>
   87ddc:	1909      	adds	r1, r1, r4
   87dde:	f100 3cff 	add.w	ip, r0, #4294967295
   87de2:	d202      	bcs.n	87dea <__udivdi3+0xfa>
   87de4:	428a      	cmp	r2, r1
   87de6:	f200 80c8 	bhi.w	87f7a <__udivdi3+0x28a>
   87dea:	4660      	mov	r0, ip
   87dec:	1a89      	subs	r1, r1, r2
   87dee:	fbb1 f2f6 	udiv	r2, r1, r6
   87df2:	fb06 1112 	mls	r1, r6, r2, r1
   87df6:	fb07 f702 	mul.w	r7, r7, r2
   87dfa:	b2ad      	uxth	r5, r5
   87dfc:	ea45 4501 	orr.w	r5, r5, r1, lsl #16
   87e00:	42af      	cmp	r7, r5
   87e02:	d908      	bls.n	87e16 <__udivdi3+0x126>
   87e04:	192c      	adds	r4, r5, r4
   87e06:	f102 31ff 	add.w	r1, r2, #4294967295
   87e0a:	f080 809b 	bcs.w	87f44 <__udivdi3+0x254>
   87e0e:	42a7      	cmp	r7, r4
   87e10:	f240 8098 	bls.w	87f44 <__udivdi3+0x254>
   87e14:	3a02      	subs	r2, #2
   87e16:	ea42 4200 	orr.w	r2, r2, r0, lsl #16
   87e1a:	4610      	mov	r0, r2
   87e1c:	4619      	mov	r1, r3
   87e1e:	e8bd 0ff0 	ldmia.w	sp!, {r4, r5, r6, r7, r8, r9, sl, fp}
   87e22:	4770      	bx	lr
   87e24:	2300      	movs	r3, #0
   87e26:	461a      	mov	r2, r3
   87e28:	4610      	mov	r0, r2
   87e2a:	4619      	mov	r1, r3
   87e2c:	e8bd 0ff0 	ldmia.w	sp!, {r4, r5, r6, r7, r8, r9, sl, fp}
   87e30:	4770      	bx	lr
   87e32:	f1c6 0520 	rsb	r5, r6, #32
   87e36:	fa22 f705 	lsr.w	r7, r2, r5
   87e3a:	fa03 f406 	lsl.w	r4, r3, r6
   87e3e:	fa21 f305 	lsr.w	r3, r1, r5
   87e42:	fa01 fb06 	lsl.w	fp, r1, r6
   87e46:	fa20 f505 	lsr.w	r5, r0, r5
   87e4a:	433c      	orrs	r4, r7
   87e4c:	ea4f 4814 	mov.w	r8, r4, lsr #16
   87e50:	fbb3 fcf8 	udiv	ip, r3, r8
   87e54:	fb08 331c 	mls	r3, r8, ip, r3
   87e58:	fa1f f984 	uxth.w	r9, r4
   87e5c:	fb09 fa0c 	mul.w	sl, r9, ip
   87e60:	ea45 0b0b 	orr.w	fp, r5, fp
   87e64:	ea4f 451b 	mov.w	r5, fp, lsr #16
   87e68:	ea45 4303 	orr.w	r3, r5, r3, lsl #16
   87e6c:	459a      	cmp	sl, r3
   87e6e:	fa02 f206 	lsl.w	r2, r2, r6
   87e72:	d904      	bls.n	87e7e <__udivdi3+0x18e>
   87e74:	191b      	adds	r3, r3, r4
   87e76:	f10c 35ff 	add.w	r5, ip, #4294967295
   87e7a:	d36f      	bcc.n	87f5c <__udivdi3+0x26c>
   87e7c:	46ac      	mov	ip, r5
   87e7e:	ebca 0303 	rsb	r3, sl, r3
   87e82:	fbb3 f5f8 	udiv	r5, r3, r8
   87e86:	fb08 3315 	mls	r3, r8, r5, r3
   87e8a:	fb09 f905 	mul.w	r9, r9, r5
   87e8e:	fa1f fb8b 	uxth.w	fp, fp
   87e92:	ea4b 4703 	orr.w	r7, fp, r3, lsl #16
   87e96:	45b9      	cmp	r9, r7
   87e98:	d904      	bls.n	87ea4 <__udivdi3+0x1b4>
   87e9a:	193f      	adds	r7, r7, r4
   87e9c:	f105 33ff 	add.w	r3, r5, #4294967295
   87ea0:	d362      	bcc.n	87f68 <__udivdi3+0x278>
   87ea2:	461d      	mov	r5, r3
   87ea4:	ea45 4c0c 	orr.w	ip, r5, ip, lsl #16
   87ea8:	fbac 2302 	umull	r2, r3, ip, r2
   87eac:	ebc9 0707 	rsb	r7, r9, r7
   87eb0:	429f      	cmp	r7, r3
   87eb2:	f04f 0500 	mov.w	r5, #0
   87eb6:	d34a      	bcc.n	87f4e <__udivdi3+0x25e>
   87eb8:	d046      	beq.n	87f48 <__udivdi3+0x258>
   87eba:	4662      	mov	r2, ip
   87ebc:	462b      	mov	r3, r5
   87ebe:	e75d      	b.n	87d7c <__udivdi3+0x8c>
   87ec0:	4094      	lsls	r4, r2
   87ec2:	f1c2 0920 	rsb	r9, r2, #32
   87ec6:	fa21 fc09 	lsr.w	ip, r1, r9
   87eca:	4091      	lsls	r1, r2
   87ecc:	fa20 f909 	lsr.w	r9, r0, r9
   87ed0:	0c26      	lsrs	r6, r4, #16
   87ed2:	fbbc f8f6 	udiv	r8, ip, r6
   87ed6:	fb06 cc18 	mls	ip, r6, r8, ip
   87eda:	b2a7      	uxth	r7, r4
   87edc:	fb07 f308 	mul.w	r3, r7, r8
   87ee0:	ea49 0901 	orr.w	r9, r9, r1
   87ee4:	ea4f 4119 	mov.w	r1, r9, lsr #16
   87ee8:	ea41 4c0c 	orr.w	ip, r1, ip, lsl #16
   87eec:	4563      	cmp	r3, ip
   87eee:	fa00 f502 	lsl.w	r5, r0, r2
   87ef2:	d909      	bls.n	87f08 <__udivdi3+0x218>
   87ef4:	eb1c 0c04 	adds.w	ip, ip, r4
   87ef8:	f108 32ff 	add.w	r2, r8, #4294967295
   87efc:	d23b      	bcs.n	87f76 <__udivdi3+0x286>
   87efe:	4563      	cmp	r3, ip
   87f00:	d939      	bls.n	87f76 <__udivdi3+0x286>
   87f02:	f1a8 0802 	sub.w	r8, r8, #2
   87f06:	44a4      	add	ip, r4
   87f08:	ebc3 0c0c 	rsb	ip, r3, ip
   87f0c:	fbbc f3f6 	udiv	r3, ip, r6
   87f10:	fb06 c113 	mls	r1, r6, r3, ip
   87f14:	fb07 f203 	mul.w	r2, r7, r3
   87f18:	fa1f f989 	uxth.w	r9, r9
   87f1c:	ea49 4101 	orr.w	r1, r9, r1, lsl #16
   87f20:	428a      	cmp	r2, r1
   87f22:	d907      	bls.n	87f34 <__udivdi3+0x244>
   87f24:	1909      	adds	r1, r1, r4
   87f26:	f103 30ff 	add.w	r0, r3, #4294967295
   87f2a:	d222      	bcs.n	87f72 <__udivdi3+0x282>
   87f2c:	428a      	cmp	r2, r1
   87f2e:	d920      	bls.n	87f72 <__udivdi3+0x282>
   87f30:	3b02      	subs	r3, #2
   87f32:	4421      	add	r1, r4
   87f34:	1a89      	subs	r1, r1, r2
   87f36:	ea43 4308 	orr.w	r3, r3, r8, lsl #16
   87f3a:	e743      	b.n	87dc4 <__udivdi3+0xd4>
   87f3c:	463a      	mov	r2, r7
   87f3e:	e705      	b.n	87d4c <__udivdi3+0x5c>
   87f40:	4633      	mov	r3, r6
   87f42:	e718      	b.n	87d76 <__udivdi3+0x86>
   87f44:	460a      	mov	r2, r1
   87f46:	e766      	b.n	87e16 <__udivdi3+0x126>
   87f48:	40b0      	lsls	r0, r6
   87f4a:	4290      	cmp	r0, r2
   87f4c:	d2b5      	bcs.n	87eba <__udivdi3+0x1ca>
   87f4e:	f10c 32ff 	add.w	r2, ip, #4294967295
   87f52:	2300      	movs	r3, #0
   87f54:	e712      	b.n	87d7c <__udivdi3+0x8c>
   87f56:	4633      	mov	r3, r6
   87f58:	4632      	mov	r2, r6
   87f5a:	e70f      	b.n	87d7c <__udivdi3+0x8c>
   87f5c:	459a      	cmp	sl, r3
   87f5e:	d98d      	bls.n	87e7c <__udivdi3+0x18c>
   87f60:	f1ac 0c02 	sub.w	ip, ip, #2
   87f64:	4423      	add	r3, r4
   87f66:	e78a      	b.n	87e7e <__udivdi3+0x18e>
   87f68:	45b9      	cmp	r9, r7
   87f6a:	d99a      	bls.n	87ea2 <__udivdi3+0x1b2>
   87f6c:	3d02      	subs	r5, #2
   87f6e:	4427      	add	r7, r4
   87f70:	e798      	b.n	87ea4 <__udivdi3+0x1b4>
   87f72:	4603      	mov	r3, r0
   87f74:	e7de      	b.n	87f34 <__udivdi3+0x244>
   87f76:	4690      	mov	r8, r2
   87f78:	e7c6      	b.n	87f08 <__udivdi3+0x218>
   87f7a:	3802      	subs	r0, #2
   87f7c:	4421      	add	r1, r4
   87f7e:	e735      	b.n	87dec <__udivdi3+0xfc>
   87f80:	206d7241 	.word	0x206d7241
   87f84:	74696e69 	.word	0x74696e69
   87f88:	696c6169 	.word	0x696c6169
   87f8c:	3f64657a 	.word	0x3f64657a
   87f90:	00000a0d 	.word	0x00000a0d
   87f94:	6b636950 	.word	0x6b636950
   87f98:	20707520 	.word	0x20707520
   87f9c:	74617473 	.word	0x74617473
   87fa0:	203a7375 	.word	0x203a7375
   87fa4:	0a0d6425 	.word	0x0a0d6425
   87fa8:	00000000 	.word	0x00000000
   87fac:	69736f50 	.word	0x69736f50
   87fb0:	6e6f6974 	.word	0x6e6f6974
   87fb4:	726f6620 	.word	0x726f6620
   87fb8:	636f7320 	.word	0x636f7320
   87fbc:	25203a6b 	.word	0x25203a6b
   87fc0:	25202c64 	.word	0x25202c64
   87fc4:	000a0d64 	.word	0x000a0d64
   87fc8:	69736f50 	.word	0x69736f50
   87fcc:	6e6f6974 	.word	0x6e6f6974
   87fd0:	726f6620 	.word	0x726f6620
   87fd4:	62756320 	.word	0x62756320
   87fd8:	25203a65 	.word	0x25203a65
   87fdc:	25202c64 	.word	0x25202c64
   87fe0:	000a0d64 	.word	0x000a0d64
   87fe4:	69736f50 	.word	0x69736f50
   87fe8:	6e6f6974 	.word	0x6e6f6974
   87fec:	726f6620 	.word	0x726f6620
   87ff0:	616c6720 	.word	0x616c6720
   87ff4:	203a7373 	.word	0x203a7373
   87ff8:	202c6425 	.word	0x202c6425
   87ffc:	0a0d6425 	.word	0x0a0d6425
   88000:	00000000 	.word	0x00000000
   88004:	69736f50 	.word	0x69736f50
   88008:	6e6f6974 	.word	0x6e6f6974
   8800c:	726f6620 	.word	0x726f6620
   88010:	786f6220 	.word	0x786f6220
   88014:	6425203a 	.word	0x6425203a
   88018:	6425202c 	.word	0x6425202c
   8801c:	00000a0d 	.word	0x00000a0d
   88020:	706f7244 	.word	0x706f7244
   88024:	66666f20 	.word	0x66666f20
   88028:	61747320 	.word	0x61747320
   8802c:	3a737574 	.word	0x3a737574
   88030:	0d642520 	.word	0x0d642520
   88034:	0000000a 	.word	0x0000000a
   88038:	00000001 	.word	0x00000001
   8803c:	00000002 	.word	0x00000002
   88040:	00000004 	.word	0x00000004
   88044:	00000008 	.word	0x00000008
   88048:	00000010 	.word	0x00000010
   8804c:	00000020 	.word	0x00000020
   88050:	00000040 	.word	0x00000040
   88054:	00000080 	.word	0x00000080
   88058:	00000100 	.word	0x00000100
   8805c:	00000200 	.word	0x00000200
   88060:	00000400 	.word	0x00000400
   88064:	7473614d 	.word	0x7473614d
   88068:	69207265 	.word	0x69207265
   8806c:	6974696e 	.word	0x6974696e
   88070:	7a696c61 	.word	0x7a696c61
   88074:	0a0d6465 	.word	0x0a0d6465
   88078:	00000000 	.word	0x00000000
   8807c:	646e6553 	.word	0x646e6553
   88080:	3a676e69 	.word	0x3a676e69
   88084:	2c782520 	.word	0x2c782520
   88088:	2c782520 	.word	0x2c782520
   8808c:	0d782520 	.word	0x0d782520
   88090:	0000000a 	.word	0x0000000a
   88094:	65636552 	.word	0x65636552
   88098:	6e697669 	.word	0x6e697669
   8809c:	25203a67 	.word	0x25203a67
   880a0:	25202c78 	.word	0x25202c78
   880a4:	25202c78 	.word	0x25202c78
   880a8:	000a0d78 	.word	0x000a0d78
   880ac:	6f6c7241 	.word	0x6f6c7241
   880b0:	6e616320 	.word	0x6e616320
   880b4:	63697020 	.word	0x63697020
   880b8:	7075206b 	.word	0x7075206b
   880bc:	6c6c6120 	.word	0x6c6c6120
   880c0:	6a626f20 	.word	0x6a626f20
   880c4:	73746365 	.word	0x73746365
   880c8:	74697720 	.word	0x74697720
   880cc:	74756f68 	.word	0x74756f68
   880d0:	696f6720 	.word	0x696f6720
   880d4:	7420676e 	.word	0x7420676e
   880d8:	6f62206f 	.word	0x6f62206f
   880dc:	6e692078 	.word	0x6e692078
   880e0:	7465622d 	.word	0x7465622d
   880e4:	6e656577 	.word	0x6e656577
   880e8:	63697020 	.word	0x63697020
   880ec:	70752d6b 	.word	0x70752d6b
   880f0:	0a0d2173 	.word	0x0a0d2173
   880f4:	00000000 	.word	0x00000000
   880f8:	6f6c7241 	.word	0x6f6c7241
   880fc:	6e616320 	.word	0x6e616320
   88100:	20746f6e 	.word	0x20746f6e
   88104:	6b636970 	.word	0x6b636970
   88108:	20707520 	.word	0x20707520
   8810c:	206c6c61 	.word	0x206c6c61
   88110:	656a626f 	.word	0x656a626f
   88114:	20737463 	.word	0x20737463
   88118:	68746977 	.word	0x68746977
   8811c:	2074756f 	.word	0x2074756f
   88120:	6e696f67 	.word	0x6e696f67
   88124:	6f742067 	.word	0x6f742067
   88128:	786f6220 	.word	0x786f6220
   8812c:	2d6e6920 	.word	0x2d6e6920
   88130:	77746562 	.word	0x77746562
   88134:	206e6565 	.word	0x206e6565
   88138:	6b636970 	.word	0x6b636970
   8813c:	7370752d 	.word	0x7370752d
   88140:	000a0d21 	.word	0x000a0d21
   88144:	4b434950 	.word	0x4b434950
   88148:	5f50555f 	.word	0x5f50555f
   8814c:	52415453 	.word	0x52415453
   88150:	000a0d54 	.word	0x000a0d54
   88154:	4b434950 	.word	0x4b434950
   88158:	5f50555f 	.word	0x5f50555f
   8815c:	0a0d4f44 	.word	0x0a0d4f44
   88160:	00000000 	.word	0x00000000
   88164:	4b434950 	.word	0x4b434950
   88168:	5f50555f 	.word	0x5f50555f
   8816c:	4c494146 	.word	0x4c494146
   88170:	0a0d4445 	.word	0x0a0d4445
   88174:	00000000 	.word	0x00000000
   88178:	4b434950 	.word	0x4b434950
   8817c:	5f50555f 	.word	0x5f50555f
   88180:	57524f46 	.word	0x57524f46
   88184:	0d445241 	.word	0x0d445241
   88188:	0000000a 	.word	0x0000000a
   8818c:	4b434950 	.word	0x4b434950
   88190:	5f50555f 	.word	0x5f50555f
   88194:	4b434142 	.word	0x4b434142
   88198:	44524157 	.word	0x44524157
   8819c:	00000a0d 	.word	0x00000a0d
   881a0:	4b434950 	.word	0x4b434950
   881a4:	5f50555f 	.word	0x5f50555f
   881a8:	454e4f44 	.word	0x454e4f44
   881ac:	00000a0d 	.word	0x00000a0d
   881b0:	6c616b53 	.word	0x6c616b53
   881b4:	e46c206c 	.word	0xe46c206c
   881b8:	20616e6d 	.word	0x20616e6d
   881bc:	746c6c61 	.word	0x746c6c61
   881c0:	21756e20 	.word	0x21756e20
   881c4:	21212121 	.word	0x21212121
   881c8:	21212121 	.word	0x21212121
   881cc:	21212121 	.word	0x21212121
   881d0:	000a0d21 	.word	0x000a0d21
   881d4:	c4c4c44e 	.word	0xc4c4c44e
   881d8:	c4c4c4c4 	.word	0xc4c4c4c4
   881dc:	5453c4c4 	.word	0x5453c4c4
   881e0:	54545454 	.word	0x54545454
   881e4:	54545454 	.word	0x54545454
   881e8:	41545454 	.word	0x41545454
   881ec:	41414141 	.word	0x41414141
   881f0:	21414141 	.word	0x21414141
   881f4:	21212121 	.word	0x21212121
   881f8:	21212121 	.word	0x21212121
   881fc:	21212121 	.word	0x21212121
   88200:	000a0d21 	.word	0x000a0d21
   88204:	6970200a 	.word	0x6970200a
   88208:	755f6b63 	.word	0x755f6b63
   8820c:	72705f70 	.word	0x72705f70
   88210:	7365636f 	.word	0x7365636f
   88214:	69665f73 	.word	0x69665f73
   88218:	6873696e 	.word	0x6873696e
   8821c:	743d6465 	.word	0x743d6465
   88220:	0d657572 	.word	0x0d657572
   88224:	0000000a 	.word	0x0000000a
   88228:	504f5244 	.word	0x504f5244
   8822c:	46464f20 	.word	0x46464f20
   88230:	53414320 	.word	0x53414320
   88234:	000a0d45 	.word	0x000a0d45
   88238:	706f7244 	.word	0x706f7244
   8823c:	66666f20 	.word	0x66666f20
   88240:	6f727020 	.word	0x6f727020
   88244:	73736563 	.word	0x73736563
   88248:	6e696620 	.word	0x6e696620
   8824c:	65687369 	.word	0x65687369
   88250:	000a0d64 	.word	0x000a0d64
   88254:	4956414e 	.word	0x4956414e
   88258:	00000000 	.word	0x00000000
   8825c:	41206425 	.word	0x41206425
   88260:	454c474e 	.word	0x454c474e
   88264:	00000a0d 	.word	0x00000a0d
   88268:	44206425 	.word	0x44206425
   8826c:	61747369 	.word	0x61747369
   88270:	0d65636e 	.word	0x0d65636e
   88274:	0000000a 	.word	0x0000000a
   88278:	76697244 	.word	0x76697244
   8827c:	20676e69 	.word	0x20676e69
   88280:	73206f74 	.word	0x73206f74
   88284:	216b636f 	.word	0x216b636f
   88288:	00000a0d 	.word	0x00000a0d
   8828c:	76697244 	.word	0x76697244
   88290:	20676e69 	.word	0x20676e69
   88294:	63206f74 	.word	0x63206f74
   88298:	21656275 	.word	0x21656275
   8829c:	00000a0d 	.word	0x00000a0d
   882a0:	76697244 	.word	0x76697244
   882a4:	20676e69 	.word	0x20676e69
   882a8:	67206f74 	.word	0x67206f74
   882ac:	7373616c 	.word	0x7373616c
   882b0:	000a0d21 	.word	0x000a0d21
   882b4:	76697244 	.word	0x76697244
   882b8:	20676e69 	.word	0x20676e69
   882bc:	62206f74 	.word	0x62206f74
   882c0:	0d21786f 	.word	0x0d21786f
   882c4:	0000000a 	.word	0x0000000a
   882c8:	6f632049 	.word	0x6f632049
   882cc:	65746e75 	.word	0x65746e75
   882d0:	64252072 	.word	0x64252072
   882d4:	000a0d20 	.word	0x000a0d20
   882d8:	6a624f0a 	.word	0x6a624f0a
   882dc:	20746365 	.word	0x20746365
   882e0:	6e756f63 	.word	0x6e756f63
   882e4:	20726574 	.word	0x20726574
   882e8:	7373614c 	.word	0x7373614c
   882ec:	25203a65 	.word	0x25203a65
   882f0:	000a0d64 	.word	0x000a0d64
   882f4:	69766f4d 	.word	0x69766f4d
   882f8:	6920676e 	.word	0x6920676e
   882fc:	6c65206e 	.word	0x6c65206e
   88300:	73206573 	.word	0x73206573
   88304:	65746174 	.word	0x65746174
   88308:	00000a0d 	.word	0x00000a0d
   8830c:	45564f4d 	.word	0x45564f4d
   88310:	00000000 	.word	0x00000000
   88314:	4f464542 	.word	0x4f464542
   88318:	52204552 	.word	0x52204552
   8831c:	5441544f 	.word	0x5441544f
   88320:	00000045 	.word	0x00000045
   88324:	41544f52 	.word	0x41544f52
   88328:	00004554 	.word	0x00004554
   8832c:	534f4c43 	.word	0x534f4c43
   88330:	00000045 	.word	0x00000045
   88334:	6b636950 	.word	0x6b636950
   88338:	20707520 	.word	0x20707520
   8833c:	636f7270 	.word	0x636f7270
   88340:	20737365 	.word	0x20737365
   88344:	696e6966 	.word	0x696e6966
   88348:	64656873 	.word	0x64656873
   8834c:	00000a0d 	.word	0x00000a0d
   88350:	494e4946 	.word	0x494e4946
   88354:	44454853 	.word	0x44454853
   88358:	21212121 	.word	0x21212121
   8835c:	21212121 	.word	0x21212121
   88360:	0d212121 	.word	0x0d212121
   88364:	0000000a 	.word	0x0000000a
   88368:	09097325 	.word	0x09097325
   8836c:	25096325 	.word	0x25096325
   88370:	75250975 	.word	0x75250975
   88374:	0d752509 	.word	0x0d752509
   88378:	0000000a 	.word	0x0000000a
   8837c:	454c4449 	.word	0x454c4449
   88380:	00000000 	.word	0x00000000
   88384:	20726d54 	.word	0x20726d54
   88388:	00637653 	.word	0x00637653
   8838c:	25202d2d 	.word	0x25202d2d
   88390:	000d0a73 	.word	0x000d0a73
   88394:	75647241 	.word	0x75647241
   88398:	206f6e69 	.word	0x206f6e69
   8839c:	2f657544 	.word	0x2f657544
   883a0:	00000058 	.word	0x00000058
   883a4:	43202d2d 	.word	0x43202d2d
   883a8:	69706d6f 	.word	0x69706d6f
   883ac:	3a64656c 	.word	0x3a64656c
   883b0:	20732520 	.word	0x20732520
   883b4:	2d207325 	.word	0x2d207325
   883b8:	000d0a2d 	.word	0x000d0a2d
   883bc:	2079614d 	.word	0x2079614d
   883c0:	32203232 	.word	0x32203232
   883c4:	00373130 	.word	0x00373130
   883c8:	313a3931 	.word	0x313a3931
   883cc:	39313a38 	.word	0x39313a38
   883d0:	00000000 	.word	0x00000000
   883d4:	65766f4d 	.word	0x65766f4d
   883d8:	00000000 	.word	0x00000000
   883dc:	6c696146 	.word	0x6c696146
   883e0:	74206465 	.word	0x74206465
   883e4:	6574206f 	.word	0x6574206f
   883e8:	74207473 	.word	0x74207473
   883ec:	5f6b7361 	.word	0x5f6b7361
   883f0:	65766f4d 	.word	0x65766f4d
   883f4:	73617420 	.word	0x73617420
   883f8:	000a0d6b 	.word	0x000a0d6b
   883fc:	746547a8 	.word	0x746547a8
   88400:	00000000 	.word	0x00000000
   88404:	6c696146 	.word	0x6c696146
   88408:	74206465 	.word	0x74206465
   8840c:	6574206f 	.word	0x6574206f
   88410:	47207473 	.word	0x47207473
   88414:	6f437465 	.word	0x6f437465
   88418:	6e696472 	.word	0x6e696472
   8841c:	73657461 	.word	0x73657461
   88420:	73617420 	.word	0x73617420
   88424:	000a0d6b 	.word	0x000a0d6b
   88428:	004f4e55 	.word	0x004f4e55
   8842c:	6c696146 	.word	0x6c696146
   88430:	74206465 	.word	0x74206465
   88434:	6574206f 	.word	0x6574206f
   88438:	55207473 	.word	0x55207473
   8843c:	6f436f6e 	.word	0x6f436f6e
   88440:	74206d6d 	.word	0x74206d6d
   88444:	0d6b7361 	.word	0x0d6b7361
   88448:	0000000a 	.word	0x0000000a
   8844c:	00000000 	.word	0x00000000

00088450 <atanlo>:
   88450:	222f65e2 3c7a2b7f 33145c07 3c81a626     .e/".+z<.\.3&..<
   88460:	7af0cbbd 3c700788 33145c07 3c91a626     ...z..p<.\.3&..<

00088470 <atanhi>:
   88470:	0561bb4f 3fddac67 54442d18 3fe921fb     O.a.g..?.-DT.!.?
   88480:	d281f69b 3fef730b 54442d18 3ff921fb     .....s.?.-DT.!.?
   88490:	74727173 00000000 00000043              sqrt....C...

0008849c <_global_impure_ptr>:
   8849c:	20070188 33323130 37363534 42413938     ... 0123456789AB
   884ac:	46454443 00000000 33323130 37363534     CDEF....01234567
   884bc:	62613938 66656463 00000000 6c756e28     89abcdef....(nul
   884cc:	0000296c                                l)..

000884d0 <zeroes.6721>:
   884d0:	30303030 30303030 30303030 30303030     0000000000000000

000884e0 <blanks.6720>:
   884e0:	20202020 20202020 20202020 20202020                     

000884f0 <_init>:
   884f0:	b5f8      	push	{r3, r4, r5, r6, r7, lr}
   884f2:	bf00      	nop
   884f4:	bcf8      	pop	{r3, r4, r5, r6, r7}
   884f6:	bc08      	pop	{r3}
   884f8:	469e      	mov	lr, r3
   884fa:	4770      	bx	lr

000884fc <__init_array_start>:
   884fc:	00086161 	.word	0x00086161

00088500 <__frame_dummy_init_array_entry>:
   88500:	00080119                                ....

00088504 <_fini>:
   88504:	b5f8      	push	{r3, r4, r5, r6, r7, lr}
   88506:	bf00      	nop
   88508:	bcf8      	pop	{r3, r4, r5, r6, r7}
   8850a:	bc08      	pop	{r3}
   8850c:	469e      	mov	lr, r3
   8850e:	4770      	bx	lr

00088510 <__fini_array_start>:
   88510:	000800f5 	.word	0x000800f5

Disassembly of section .relocate:

20070000 <portable_delay_cycles>:
RAMFUNC
void portable_delay_cycles(unsigned long n)
{
	UNUSED(n);

	__asm (
20070000:	f3bf 8f5f 	dmb	sy
20070004:	3801      	subs	r0, #1
20070006:	d1fb      	bne.n	20070000 <portable_delay_cycles>
20070008:	4770      	bx	lr
2007000a:	bf00      	nop

2007000c <SystemInit>:
__no_inline
RAMFUNC
void SystemInit(void)
{
	/* Set FWS according to SYS_BOARD_MCKR configuration */
	EFC0->EEFC_FMR = EEFC_FMR_FWS(4);
2007000c:	f44f 6380 	mov.w	r3, #1024	; 0x400
20070010:	4a20      	ldr	r2, [pc, #128]	; (20070094 <SystemInit+0x88>)
20070012:	6013      	str	r3, [r2, #0]
	EFC1->EEFC_FMR = EEFC_FMR_FWS(4);
20070014:	f502 7200 	add.w	r2, r2, #512	; 0x200
20070018:	6013      	str	r3, [r2, #0]

	/* Initialize main oscillator */
	if (!(PMC->CKGR_MOR & CKGR_MOR_MOSCSEL)) {
2007001a:	4b1f      	ldr	r3, [pc, #124]	; (20070098 <SystemInit+0x8c>)
2007001c:	6a1b      	ldr	r3, [r3, #32]
2007001e:	f013 7f80 	tst.w	r3, #16777216	; 0x1000000
20070022:	d107      	bne.n	20070034 <SystemInit+0x28>
		PMC->CKGR_MOR = SYS_CKGR_MOR_KEY_VALUE | SYS_BOARD_OSCOUNT | 
20070024:	4a1d      	ldr	r2, [pc, #116]	; (2007009c <SystemInit+0x90>)
20070026:	4b1c      	ldr	r3, [pc, #112]	; (20070098 <SystemInit+0x8c>)
20070028:	621a      	str	r2, [r3, #32]
			                     CKGR_MOR_MOSCRCEN | CKGR_MOR_MOSCXTEN;
		while (!(PMC->PMC_SR & PMC_SR_MOSCXTS)) {
2007002a:	461a      	mov	r2, r3
2007002c:	6e93      	ldr	r3, [r2, #104]	; 0x68
2007002e:	f013 0f01 	tst.w	r3, #1
20070032:	d0fb      	beq.n	2007002c <SystemInit+0x20>
		}
	}

	/* Switch to 3-20MHz Xtal oscillator */
	PMC->CKGR_MOR = SYS_CKGR_MOR_KEY_VALUE | SYS_BOARD_OSCOUNT | 
20070034:	4a1a      	ldr	r2, [pc, #104]	; (200700a0 <SystemInit+0x94>)
20070036:	4b18      	ldr	r3, [pc, #96]	; (20070098 <SystemInit+0x8c>)
20070038:	621a      	str	r2, [r3, #32]
	                           CKGR_MOR_MOSCRCEN | CKGR_MOR_MOSCXTEN | CKGR_MOR_MOSCSEL;

	while (!(PMC->PMC_SR & PMC_SR_MOSCSELS)) {
2007003a:	461a      	mov	r2, r3
2007003c:	6e93      	ldr	r3, [r2, #104]	; 0x68
2007003e:	f413 3f80 	tst.w	r3, #65536	; 0x10000
20070042:	d0fb      	beq.n	2007003c <SystemInit+0x30>
	}
 	PMC->PMC_MCKR = (PMC->PMC_MCKR & ~(uint32_t)PMC_MCKR_CSS_Msk) | 
20070044:	4b14      	ldr	r3, [pc, #80]	; (20070098 <SystemInit+0x8c>)
20070046:	6b1a      	ldr	r2, [r3, #48]	; 0x30
20070048:	f022 0203 	bic.w	r2, r2, #3
2007004c:	f042 0201 	orr.w	r2, r2, #1
20070050:	631a      	str	r2, [r3, #48]	; 0x30
		                     PMC_MCKR_CSS_MAIN_CLK;
	while (!(PMC->PMC_SR & PMC_SR_MCKRDY)) {
20070052:	461a      	mov	r2, r3
20070054:	6e93      	ldr	r3, [r2, #104]	; 0x68
20070056:	f013 0f08 	tst.w	r3, #8
2007005a:	d0fb      	beq.n	20070054 <SystemInit+0x48>
	}

	/* Initialize PLLA */
	PMC->CKGR_PLLAR = SYS_BOARD_PLLAR;
2007005c:	4a11      	ldr	r2, [pc, #68]	; (200700a4 <SystemInit+0x98>)
2007005e:	4b0e      	ldr	r3, [pc, #56]	; (20070098 <SystemInit+0x8c>)
20070060:	629a      	str	r2, [r3, #40]	; 0x28
	while (!(PMC->PMC_SR & PMC_SR_LOCKA)) {
20070062:	461a      	mov	r2, r3
20070064:	6e93      	ldr	r3, [r2, #104]	; 0x68
20070066:	f013 0f02 	tst.w	r3, #2
2007006a:	d0fb      	beq.n	20070064 <SystemInit+0x58>
	}

	/* Switch to main clock */
	PMC->PMC_MCKR = (SYS_BOARD_MCKR & ~PMC_MCKR_CSS_Msk) | PMC_MCKR_CSS_MAIN_CLK;
2007006c:	2211      	movs	r2, #17
2007006e:	4b0a      	ldr	r3, [pc, #40]	; (20070098 <SystemInit+0x8c>)
20070070:	631a      	str	r2, [r3, #48]	; 0x30
	while (!(PMC->PMC_SR & PMC_SR_MCKRDY)) {
20070072:	461a      	mov	r2, r3
20070074:	6e93      	ldr	r3, [r2, #104]	; 0x68
20070076:	f013 0f08 	tst.w	r3, #8
2007007a:	d0fb      	beq.n	20070074 <SystemInit+0x68>
	}

	/* Switch to PLLA */
	PMC->PMC_MCKR = SYS_BOARD_MCKR;
2007007c:	2212      	movs	r2, #18
2007007e:	4b06      	ldr	r3, [pc, #24]	; (20070098 <SystemInit+0x8c>)
20070080:	631a      	str	r2, [r3, #48]	; 0x30
	while (!(PMC->PMC_SR & PMC_SR_MCKRDY)) {
20070082:	461a      	mov	r2, r3
20070084:	6e93      	ldr	r3, [r2, #104]	; 0x68
20070086:	f013 0f08 	tst.w	r3, #8
2007008a:	d0fb      	beq.n	20070084 <SystemInit+0x78>
	}

	SystemCoreClock = CHIP_FREQ_CPU_MAX;
2007008c:	4a06      	ldr	r2, [pc, #24]	; (200700a8 <SystemInit+0x9c>)
2007008e:	4b07      	ldr	r3, [pc, #28]	; (200700ac <SystemInit+0xa0>)
20070090:	601a      	str	r2, [r3, #0]
20070092:	4770      	bx	lr
20070094:	400e0a00 	.word	0x400e0a00
20070098:	400e0600 	.word	0x400e0600
2007009c:	00370809 	.word	0x00370809
200700a0:	01370809 	.word	0x01370809
200700a4:	200d3f01 	.word	0x200d3f01
200700a8:	0501bd00 	.word	0x0501bd00
200700ac:	2007017c 	.word	0x2007017c

200700b0 <system_init_flash>:
__no_inline
RAMFUNC
void system_init_flash(uint32_t ul_clk)
{
	/* Set FWS for embedded Flash access according to operating frequency */
	if (ul_clk < CHIP_FREQ_FWS_0) {
200700b0:	4b1b      	ldr	r3, [pc, #108]	; (20070120 <system_init_flash+0x70>)
200700b2:	4298      	cmp	r0, r3
200700b4:	d806      	bhi.n	200700c4 <system_init_flash+0x14>
		EFC0->EEFC_FMR = EEFC_FMR_FWS(0);
200700b6:	2300      	movs	r3, #0
200700b8:	4a1a      	ldr	r2, [pc, #104]	; (20070124 <system_init_flash+0x74>)
200700ba:	6013      	str	r3, [r2, #0]
		EFC1->EEFC_FMR = EEFC_FMR_FWS(0);
200700bc:	f502 7200 	add.w	r2, r2, #512	; 0x200
200700c0:	6013      	str	r3, [r2, #0]
200700c2:	4770      	bx	lr
	} else if (ul_clk < CHIP_FREQ_FWS_1) {
200700c4:	4b18      	ldr	r3, [pc, #96]	; (20070128 <system_init_flash+0x78>)
200700c6:	4298      	cmp	r0, r3
200700c8:	d807      	bhi.n	200700da <system_init_flash+0x2a>
		EFC0->EEFC_FMR = EEFC_FMR_FWS(1);
200700ca:	f44f 7380 	mov.w	r3, #256	; 0x100
200700ce:	4a15      	ldr	r2, [pc, #84]	; (20070124 <system_init_flash+0x74>)
200700d0:	6013      	str	r3, [r2, #0]
		EFC1->EEFC_FMR = EEFC_FMR_FWS(1);
200700d2:	f502 7200 	add.w	r2, r2, #512	; 0x200
200700d6:	6013      	str	r3, [r2, #0]
200700d8:	4770      	bx	lr
	} else if (ul_clk < CHIP_FREQ_FWS_2) {
200700da:	4b14      	ldr	r3, [pc, #80]	; (2007012c <system_init_flash+0x7c>)
200700dc:	4298      	cmp	r0, r3
200700de:	d807      	bhi.n	200700f0 <system_init_flash+0x40>
		EFC0->EEFC_FMR = EEFC_FMR_FWS(2);
200700e0:	f44f 7300 	mov.w	r3, #512	; 0x200
200700e4:	4a0f      	ldr	r2, [pc, #60]	; (20070124 <system_init_flash+0x74>)
200700e6:	6013      	str	r3, [r2, #0]
		EFC1->EEFC_FMR = EEFC_FMR_FWS(2);
200700e8:	f502 7200 	add.w	r2, r2, #512	; 0x200
200700ec:	6013      	str	r3, [r2, #0]
200700ee:	4770      	bx	lr
	} else if (ul_clk < CHIP_FREQ_FWS_3) {
200700f0:	4b0f      	ldr	r3, [pc, #60]	; (20070130 <system_init_flash+0x80>)
200700f2:	4298      	cmp	r0, r3
200700f4:	d807      	bhi.n	20070106 <system_init_flash+0x56>
		EFC0->EEFC_FMR = EEFC_FMR_FWS(3);
200700f6:	f44f 7340 	mov.w	r3, #768	; 0x300
200700fa:	4a0a      	ldr	r2, [pc, #40]	; (20070124 <system_init_flash+0x74>)
200700fc:	6013      	str	r3, [r2, #0]
		EFC1->EEFC_FMR = EEFC_FMR_FWS(3);
200700fe:	f502 7200 	add.w	r2, r2, #512	; 0x200
20070102:	6013      	str	r3, [r2, #0]
20070104:	4770      	bx	lr
	} else if (ul_clk < CHIP_FREQ_FWS_4) {
20070106:	4b0b      	ldr	r3, [pc, #44]	; (20070134 <system_init_flash+0x84>)
20070108:	4298      	cmp	r0, r3
		EFC0->EEFC_FMR = EEFC_FMR_FWS(4);
2007010a:	bf94      	ite	ls
2007010c:	f44f 6380 	movls.w	r3, #1024	; 0x400
		EFC1->EEFC_FMR = EEFC_FMR_FWS(4);	
	} else {
		EFC0->EEFC_FMR = EEFC_FMR_FWS(5);
20070110:	f44f 63a0 	movhi.w	r3, #1280	; 0x500
20070114:	4a03      	ldr	r2, [pc, #12]	; (20070124 <system_init_flash+0x74>)
20070116:	6013      	str	r3, [r2, #0]
		EFC1->EEFC_FMR = EEFC_FMR_FWS(5);
20070118:	f502 7200 	add.w	r2, r2, #512	; 0x200
2007011c:	6013      	str	r3, [r2, #0]
2007011e:	4770      	bx	lr
20070120:	0121eabf 	.word	0x0121eabf
20070124:	400e0a00 	.word	0x400e0a00
20070128:	02faf07f 	.word	0x02faf07f
2007012c:	03d08fff 	.word	0x03d08fff
20070130:	04c4b3ff 	.word	0x04c4b3ff
20070134:	055d4a7f 	.word	0x055d4a7f

20070138 <arlo_collect_status>:
20070138:	00010301                                         .

20070139 <objects_left>:
20070139:	00000103                                         .

2007013a <object_counter>:
2007013a:	00000001 41890000                                ......

20070140 <Td>:
20070140:	e5604189 3fab22d0                       .A`..".?

20070148 <Ti>:
20070148:	b851eb85 3fcb851e                       ..Q....?

20070150 <direction>:
20070150:	00000001                                ....

20070154 <rotationSpeed>:
20070154:	0000005a                                Z...

20070158 <dT>:
20070158:	9999999a 3fb99999                       .......?

20070160 <speed>:
20070160:	000000c8 00000000                       ........

20070168 <K>:
20070168:	00000000 40040000                       .......@

20070170 <uxCriticalNesting>:
20070170:	aaaaaaaa                                ....

20070174 <xFreeBytesRemaining>:
20070174:	00008000                                ....

20070178 <xNextTaskUnblockTime>:
20070178:	0000ffff                                ....

2007017c <SystemCoreClock>:
2007017c:	003d0900                                ..=.

20070180 <__fdlib_version>:
20070180:	00000001 00000000                       ........

20070188 <impure_data>:
20070188:	00000000 20070474 200704dc 20070544     ....t.. ... D.. 
	...
200701bc:	00088498 00000000 00000000 00000000     ................
	...
20070230:	00000001 00000000 abcd330e e66d1234     .........3..4.m.
20070240:	0005deec 0000000b 00000000 00000000     ................
	...

200705b0 <_impure_ptr>:
200705b0:	20070188                                ... 

200705b4 <lc_ctype_charset>:
200705b4:	49435341 00000049 00000000 00000000     ASCII...........
	...

200705d4 <__mb_cur_max>:
200705d4:	00000001                                ....

200705d8 <__malloc_av_>:
	...
200705e0:	200705d8 200705d8 200705e0 200705e0     ... ... ... ... 
200705f0:	200705e8 200705e8 200705f0 200705f0     ... ... ... ... 
20070600:	200705f8 200705f8 20070600 20070600     ... ... ... ... 
20070610:	20070608 20070608 20070610 20070610     ... ... ... ... 
20070620:	20070618 20070618 20070620 20070620     ... ...  ..  .. 
20070630:	20070628 20070628 20070630 20070630     (.. (.. 0.. 0.. 
20070640:	20070638 20070638 20070640 20070640     8.. 8.. @.. @.. 
20070650:	20070648 20070648 20070650 20070650     H.. H.. P.. P.. 
20070660:	20070658 20070658 20070660 20070660     X.. X.. `.. `.. 
20070670:	20070668 20070668 20070670 20070670     h.. h.. p.. p.. 
20070680:	20070678 20070678 20070680 20070680     x.. x.. ... ... 
20070690:	20070688 20070688 20070690 20070690     ... ... ... ... 
200706a0:	20070698 20070698 200706a0 200706a0     ... ... ... ... 
200706b0:	200706a8 200706a8 200706b0 200706b0     ... ... ... ... 
200706c0:	200706b8 200706b8 200706c0 200706c0     ... ... ... ... 
200706d0:	200706c8 200706c8 200706d0 200706d0     ... ... ... ... 
200706e0:	200706d8 200706d8 200706e0 200706e0     ... ... ... ... 
200706f0:	200706e8 200706e8 200706f0 200706f0     ... ... ... ... 
20070700:	200706f8 200706f8 20070700 20070700     ... ... ... ... 
20070710:	20070708 20070708 20070710 20070710     ... ... ... ... 
20070720:	20070718 20070718 20070720 20070720     ... ...  ..  .. 
20070730:	20070728 20070728 20070730 20070730     (.. (.. 0.. 0.. 
20070740:	20070738 20070738 20070740 20070740     8.. 8.. @.. @.. 
20070750:	20070748 20070748 20070750 20070750     H.. H.. P.. P.. 
20070760:	20070758 20070758 20070760 20070760     X.. X.. `.. `.. 
20070770:	20070768 20070768 20070770 20070770     h.. h.. p.. p.. 
20070780:	20070778 20070778 20070780 20070780     x.. x.. ... ... 
20070790:	20070788 20070788 20070790 20070790     ... ... ... ... 
200707a0:	20070798 20070798 200707a0 200707a0     ... ... ... ... 
200707b0:	200707a8 200707a8 200707b0 200707b0     ... ... ... ... 
200707c0:	200707b8 200707b8 200707c0 200707c0     ... ... ... ... 
200707d0:	200707c8 200707c8 200707d0 200707d0     ... ... ... ... 
200707e0:	200707d8 200707d8 200707e0 200707e0     ... ... ... ... 
200707f0:	200707e8 200707e8 200707f0 200707f0     ... ... ... ... 
20070800:	200707f8 200707f8 20070800 20070800     ... ... ... ... 
20070810:	20070808 20070808 20070810 20070810     ... ... ... ... 
20070820:	20070818 20070818 20070820 20070820     ... ...  ..  .. 
20070830:	20070828 20070828 20070830 20070830     (.. (.. 0.. 0.. 
20070840:	20070838 20070838 20070840 20070840     8.. 8.. @.. @.. 
20070850:	20070848 20070848 20070850 20070850     H.. H.. P.. P.. 
20070860:	20070858 20070858 20070860 20070860     X.. X.. `.. `.. 
20070870:	20070868 20070868 20070870 20070870     h.. h.. p.. p.. 
20070880:	20070878 20070878 20070880 20070880     x.. x.. ... ... 
20070890:	20070888 20070888 20070890 20070890     ... ... ... ... 
200708a0:	20070898 20070898 200708a0 200708a0     ... ... ... ... 
200708b0:	200708a8 200708a8 200708b0 200708b0     ... ... ... ... 
200708c0:	200708b8 200708b8 200708c0 200708c0     ... ... ... ... 
200708d0:	200708c8 200708c8 200708d0 200708d0     ... ... ... ... 
200708e0:	200708d8 200708d8 200708e0 200708e0     ... ... ... ... 
200708f0:	200708e8 200708e8 200708f0 200708f0     ... ... ... ... 
20070900:	200708f8 200708f8 20070900 20070900     ... ... ... ... 
20070910:	20070908 20070908 20070910 20070910     ... ... ... ... 
20070920:	20070918 20070918 20070920 20070920     ... ...  ..  .. 
20070930:	20070928 20070928 20070930 20070930     (.. (.. 0.. 0.. 
20070940:	20070938 20070938 20070940 20070940     8.. 8.. @.. @.. 
20070950:	20070948 20070948 20070950 20070950     H.. H.. P.. P.. 
20070960:	20070958 20070958 20070960 20070960     X.. X.. `.. `.. 
20070970:	20070968 20070968 20070970 20070970     h.. h.. p.. p.. 
20070980:	20070978 20070978 20070980 20070980     x.. x.. ... ... 
20070990:	20070988 20070988 20070990 20070990     ... ... ... ... 
200709a0:	20070998 20070998 200709a0 200709a0     ... ... ... ... 
200709b0:	200709a8 200709a8 200709b0 200709b0     ... ... ... ... 
200709c0:	200709b8 200709b8 200709c0 200709c0     ... ... ... ... 
200709d0:	200709c8 200709c8 200709d0 200709d0     ... ... ... ... 

200709e0 <__malloc_trim_threshold>:
200709e0:	00020000                                ....

200709e4 <__malloc_sbrk_base>:
200709e4:	ffffffff                                ....

200709e8 <__wctomb>:
200709e8:	00087785                                .w..
