
TestSchema1.elf:     file format elf32-littlearm

Sections:
Idx Name          Size      VMA       LMA       File off  Algn
  0 .text         00007bbc  00080000  00080000  00008000  2**3
                  CONTENTS, ALLOC, LOAD, READONLY, CODE
  1 .ARM.exidx    00000008  00087bbc  00087bbc  0000fbbc  2**2
                  CONTENTS, ALLOC, LOAD, READONLY, DATA
  2 .relocate     000009dc  20070000  00087bc4  00010000  2**3
                  CONTENTS, ALLOC, LOAD, CODE
  3 .bss          00008404  200709e0  000885a8  000109e0  2**3
                  ALLOC
  4 .stack        00002004  20078de4  000909ac  000109e0  2**0
                  ALLOC
  5 .ARM.attributes 00000029  00000000  00000000  000109dc  2**0
                  CONTENTS, READONLY
  6 .comment      0000005b  00000000  00000000  00010a05  2**0
                  CONTENTS, READONLY
  7 .debug_info   00016860  00000000  00000000  00010a60  2**0
                  CONTENTS, READONLY, DEBUGGING
  8 .debug_abbrev 00003ef5  00000000  00000000  000272c0  2**0
                  CONTENTS, READONLY, DEBUGGING
  9 .debug_loc    000095d8  00000000  00000000  0002b1b5  2**0
                  CONTENTS, READONLY, DEBUGGING
 10 .debug_aranges 00001060  00000000  00000000  0003478d  2**0
                  CONTENTS, READONLY, DEBUGGING
 11 .debug_ranges 00000f10  00000000  00000000  000357ed  2**0
                  CONTENTS, READONLY, DEBUGGING
 12 .debug_macro  0001c970  00000000  00000000  000366fd  2**0
                  CONTENTS, READONLY, DEBUGGING
 13 .debug_line   00018535  00000000  00000000  0005306d  2**0
                  CONTENTS, READONLY, DEBUGGING
 14 .debug_str    0006a177  00000000  00000000  0006b5a2  2**0
                  CONTENTS, READONLY, DEBUGGING
 15 .debug_frame  000030dc  00000000  00000000  000d571c  2**2
                  CONTENTS, READONLY, DEBUGGING

Disassembly of section .text:

00080000 <_sfixed>:
   80000:	2007ade8 	.word	0x2007ade8
   80004:	00083709 	.word	0x00083709
   80008:	00083705 	.word	0x00083705
   8000c:	00083705 	.word	0x00083705
   80010:	00083705 	.word	0x00083705
   80014:	00083705 	.word	0x00083705
   80018:	00083705 	.word	0x00083705
	...
   8002c:	00081b09 	.word	0x00081b09
   80030:	00083705 	.word	0x00083705
   80034:	00000000 	.word	0x00000000
   80038:	00081b85 	.word	0x00081b85
   8003c:	00081bc1 	.word	0x00081bc1
   80040:	00083705 	.word	0x00083705
   80044:	00083705 	.word	0x00083705
   80048:	00083705 	.word	0x00083705
   8004c:	00083705 	.word	0x00083705
   80050:	00083705 	.word	0x00083705
   80054:	00083705 	.word	0x00083705
   80058:	00083705 	.word	0x00083705
   8005c:	00083705 	.word	0x00083705
   80060:	00083705 	.word	0x00083705
   80064:	00083705 	.word	0x00083705
   80068:	00000000 	.word	0x00000000
   8006c:	00083575 	.word	0x00083575
   80070:	00083589 	.word	0x00083589
   80074:	0008359d 	.word	0x0008359d
   80078:	000835b1 	.word	0x000835b1
	...
   80084:	00083705 	.word	0x00083705
   80088:	00083705 	.word	0x00083705
   8008c:	00083705 	.word	0x00083705
   80090:	00083705 	.word	0x00083705
   80094:	00083705 	.word	0x00083705
   80098:	00083705 	.word	0x00083705
   8009c:	00083705 	.word	0x00083705
   800a0:	00083705 	.word	0x00083705
   800a4:	00000000 	.word	0x00000000
   800a8:	00083705 	.word	0x00083705
   800ac:	00083705 	.word	0x00083705
   800b0:	00083705 	.word	0x00083705
   800b4:	00083705 	.word	0x00083705
   800b8:	00083705 	.word	0x00083705
   800bc:	00083705 	.word	0x00083705
   800c0:	00083705 	.word	0x00083705
   800c4:	00083705 	.word	0x00083705
   800c8:	00083705 	.word	0x00083705
   800cc:	00083705 	.word	0x00083705
   800d0:	00083705 	.word	0x00083705
   800d4:	00083705 	.word	0x00083705
   800d8:	00083705 	.word	0x00083705
   800dc:	00083705 	.word	0x00083705
   800e0:	00083705 	.word	0x00083705
   800e4:	00083705 	.word	0x00083705
   800e8:	00083705 	.word	0x00083705
   800ec:	00083705 	.word	0x00083705
   800f0:	00083705 	.word	0x00083705

000800f4 <__do_global_dtors_aux>:
   800f4:	b510      	push	{r4, lr}
   800f6:	4c05      	ldr	r4, [pc, #20]	; (8010c <__do_global_dtors_aux+0x18>)
   800f8:	7823      	ldrb	r3, [r4, #0]
   800fa:	b933      	cbnz	r3, 8010a <__do_global_dtors_aux+0x16>
   800fc:	4b04      	ldr	r3, [pc, #16]	; (80110 <__do_global_dtors_aux+0x1c>)
   800fe:	b113      	cbz	r3, 80106 <__do_global_dtors_aux+0x12>
   80100:	4804      	ldr	r0, [pc, #16]	; (80114 <__do_global_dtors_aux+0x20>)
   80102:	f3af 8000 	nop.w
   80106:	2301      	movs	r3, #1
   80108:	7023      	strb	r3, [r4, #0]
   8010a:	bd10      	pop	{r4, pc}
   8010c:	200709e0 	.word	0x200709e0
   80110:	00000000 	.word	0x00000000
   80114:	00087bc4 	.word	0x00087bc4

00080118 <frame_dummy>:
   80118:	b508      	push	{r3, lr}
   8011a:	4b06      	ldr	r3, [pc, #24]	; (80134 <frame_dummy+0x1c>)
   8011c:	b11b      	cbz	r3, 80126 <frame_dummy+0xe>
   8011e:	4806      	ldr	r0, [pc, #24]	; (80138 <frame_dummy+0x20>)
   80120:	4906      	ldr	r1, [pc, #24]	; (8013c <frame_dummy+0x24>)
   80122:	f3af 8000 	nop.w
   80126:	4806      	ldr	r0, [pc, #24]	; (80140 <frame_dummy+0x28>)
   80128:	6803      	ldr	r3, [r0, #0]
   8012a:	b113      	cbz	r3, 80132 <frame_dummy+0x1a>
   8012c:	4b05      	ldr	r3, [pc, #20]	; (80144 <frame_dummy+0x2c>)
   8012e:	b103      	cbz	r3, 80132 <frame_dummy+0x1a>
   80130:	4798      	blx	r3
   80132:	bd08      	pop	{r3, pc}
   80134:	00000000 	.word	0x00000000
   80138:	00087bc4 	.word	0x00087bc4
   8013c:	200709e4 	.word	0x200709e4
   80140:	00087bc4 	.word	0x00087bc4
   80144:	00000000 	.word	0x00000000

00080148 <arlo_arm_init>:
	/* Initializes nav-system */
	arlo_nav_init();
}

void arlo_arm_init()
{
   80148:	b570      	push	{r4, r5, r6, lr}
	printf("Arm initialized?\r\n");
   8014a:	480c      	ldr	r0, [pc, #48]	; (8017c <arlo_arm_init+0x34>)
   8014c:	4b0c      	ldr	r3, [pc, #48]	; (80180 <arlo_arm_init+0x38>)
   8014e:	4798      	blx	r3
	
	tx_arm_buffer[0] = TWI_CMD_ARM_INIT;
   80150:	4c0c      	ldr	r4, [pc, #48]	; (80184 <arlo_arm_init+0x3c>)
   80152:	2320      	movs	r3, #32
   80154:	7023      	strb	r3, [r4, #0]
	tx_arm_buffer[1] = TWI_NO_DATA;
   80156:	2378      	movs	r3, #120	; 0x78
   80158:	7063      	strb	r3, [r4, #1]
	tx_arm_buffer[2] = TWI_NO_DATA;
   8015a:	70a3      	strb	r3, [r4, #2]
	
	twi_arm_init(TWI_CMD_ARM_REQ_BOX_INFO, tx_arm_buffer, rx_arm_buffer);
   8015c:	4e0a      	ldr	r6, [pc, #40]	; (80188 <arlo_arm_init+0x40>)
   8015e:	2002      	movs	r0, #2
   80160:	4621      	mov	r1, r4
   80162:	4632      	mov	r2, r6
   80164:	4d09      	ldr	r5, [pc, #36]	; (8018c <arlo_arm_init+0x44>)
   80166:	47a8      	blx	r5
	// Do something with rx_arm_buffer
	
	twi_arm_init(TWI_CMD_ARM_REQ_OBJ_INFO, tx_arm_buffer, rx_arm_buffer);
   80168:	2003      	movs	r0, #3
   8016a:	4621      	mov	r1, r4
   8016c:	4632      	mov	r2, r6
   8016e:	47a8      	blx	r5
	// Do something with rx_arm_buffer
	
	twi_arm_init(TWI_CMD_ARM_REQ_COLLECT_INFO, tx_arm_buffer, rx_arm_buffer);
   80170:	2004      	movs	r0, #4
   80172:	4621      	mov	r1, r4
   80174:	4632      	mov	r2, r6
   80176:	47a8      	blx	r5
   80178:	bd70      	pop	{r4, r5, r6, pc}
   8017a:	bf00      	nop
   8017c:	00087960 	.word	0x00087960
   80180:	000849b9 	.word	0x000849b9
   80184:	20070a0c 	.word	0x20070a0c
   80188:	200709fc 	.word	0x200709fc
   8018c:	0008070d 	.word	0x0008070d

00080190 <arlo_nav_init>:
	// Do something with rx_arm_buffer
}

void arlo_nav_init()
{
   80190:	b570      	push	{r4, r5, r6, lr}
	/* Get coordinate for sock */
	twi_nav_init(0x52, tx_nav_buffer, rx_nav_buffer);
   80192:	4e08      	ldr	r6, [pc, #32]	; (801b4 <arlo_nav_init+0x24>)
   80194:	4d08      	ldr	r5, [pc, #32]	; (801b8 <arlo_nav_init+0x28>)
   80196:	2052      	movs	r0, #82	; 0x52
   80198:	4631      	mov	r1, r6
   8019a:	462a      	mov	r2, r5
   8019c:	4c07      	ldr	r4, [pc, #28]	; (801bc <arlo_nav_init+0x2c>)
   8019e:	47a0      	blx	r4
	
	/* Get coordinate for cube */
	twi_nav_init(0x53, tx_nav_buffer, rx_nav_buffer);
   801a0:	2053      	movs	r0, #83	; 0x53
   801a2:	4631      	mov	r1, r6
   801a4:	462a      	mov	r2, r5
   801a6:	47a0      	blx	r4
	
	/* Get coordinate for glass */
	twi_nav_init(0x54, tx_nav_buffer, rx_nav_buffer);
   801a8:	2054      	movs	r0, #84	; 0x54
   801aa:	4631      	mov	r1, r6
   801ac:	462a      	mov	r2, r5
   801ae:	47a0      	blx	r4
   801b0:	bd70      	pop	{r4, r5, r6, pc}
   801b2:	bf00      	nop
   801b4:	20070a00 	.word	0x20070a00
   801b8:	20070a04 	.word	0x20070a04
   801bc:	0008074d 	.word	0x0008074d

000801c0 <arlo_init>:

uint8_t tx_nav_buffer[TX_NAV_LENGTH] = {0};
uint8_t rx_nav_buffer[RX_NAV_LENGTH] = {0};

void arlo_init()
{
   801c0:	b508      	push	{r3, lr}
	// ioport_init();
	twi_init();
   801c2:	4b03      	ldr	r3, [pc, #12]	; (801d0 <arlo_init+0x10>)
   801c4:	4798      	blx	r3
	
	/* Initializes arm */
	arlo_arm_init();
   801c6:	4b03      	ldr	r3, [pc, #12]	; (801d4 <arlo_init+0x14>)
   801c8:	4798      	blx	r3
	
	/* Initializes nav-system */
	arlo_nav_init();
   801ca:	4b03      	ldr	r3, [pc, #12]	; (801d8 <arlo_init+0x18>)
   801cc:	4798      	blx	r3
   801ce:	bd08      	pop	{r3, pc}
   801d0:	00080635 	.word	0x00080635
   801d4:	00080149 	.word	0x00080149
   801d8:	00080191 	.word	0x00080191

000801dc <arlo_lift_object>:
	/* Convert uint8_t to uint16_t */
	position_buffer[1] = (uint16_t) ((rx_nav_buffer[3] << 8) | (rx_nav_buffer[4] << 0));
}

void arlo_lift_object(Object object_t)
{
   801dc:	b508      	push	{r3, lr}
	tx_arm_buffer[0] = TWI_CMD_PICK_UP_START;
   801de:	4b05      	ldr	r3, [pc, #20]	; (801f4 <arlo_lift_object+0x18>)
   801e0:	2222      	movs	r2, #34	; 0x22
   801e2:	701a      	strb	r2, [r3, #0]
	tx_arm_buffer[1] = object_t;
   801e4:	7058      	strb	r0, [r3, #1]
	tx_arm_buffer[2] = TWI_NO_DATA;
   801e6:	2278      	movs	r2, #120	; 0x78
   801e8:	709a      	strb	r2, [r3, #2]
	
	twi_control_arm(tx_arm_buffer, rx_arm_buffer);
   801ea:	4618      	mov	r0, r3
   801ec:	4902      	ldr	r1, [pc, #8]	; (801f8 <arlo_lift_object+0x1c>)
   801ee:	4b03      	ldr	r3, [pc, #12]	; (801fc <arlo_lift_object+0x20>)
   801f0:	4798      	blx	r3
   801f2:	bd08      	pop	{r3, pc}
   801f4:	20070a0c 	.word	0x20070a0c
   801f8:	200709fc 	.word	0x200709fc
   801fc:	000807d5 	.word	0x000807d5

00080200 <_read>:
   80200:	e92d 41f0 	stmdb	sp!, {r4, r5, r6, r7, r8, lr}
   80204:	460c      	mov	r4, r1
   80206:	4690      	mov	r8, r2
   80208:	b960      	cbnz	r0, 80224 <_read+0x24>
   8020a:	2a00      	cmp	r2, #0
   8020c:	dd0e      	ble.n	8022c <_read+0x2c>
   8020e:	188f      	adds	r7, r1, r2
   80210:	4e09      	ldr	r6, [pc, #36]	; (80238 <_read+0x38>)
   80212:	4d0a      	ldr	r5, [pc, #40]	; (8023c <_read+0x3c>)
   80214:	6830      	ldr	r0, [r6, #0]
   80216:	4621      	mov	r1, r4
   80218:	682b      	ldr	r3, [r5, #0]
   8021a:	4798      	blx	r3
   8021c:	3401      	adds	r4, #1
   8021e:	42bc      	cmp	r4, r7
   80220:	d1f8      	bne.n	80214 <_read+0x14>
   80222:	e006      	b.n	80232 <_read+0x32>
   80224:	f04f 30ff 	mov.w	r0, #4294967295
   80228:	e8bd 81f0 	ldmia.w	sp!, {r4, r5, r6, r7, r8, pc}
   8022c:	2000      	movs	r0, #0
   8022e:	e8bd 81f0 	ldmia.w	sp!, {r4, r5, r6, r7, r8, pc}
   80232:	4640      	mov	r0, r8
   80234:	e8bd 81f0 	ldmia.w	sp!, {r4, r5, r6, r7, r8, pc}
   80238:	20078d5c 	.word	0x20078d5c
   8023c:	20078cd8 	.word	0x20078cd8

00080240 <pwm_clocks_generate>:
   80240:	b4f0      	push	{r4, r5, r6, r7}
   80242:	b08c      	sub	sp, #48	; 0x30
   80244:	4607      	mov	r7, r0
   80246:	460e      	mov	r6, r1
   80248:	ac01      	add	r4, sp, #4
   8024a:	4d12      	ldr	r5, [pc, #72]	; (80294 <pwm_clocks_generate+0x54>)
   8024c:	cd0f      	ldmia	r5!, {r0, r1, r2, r3}
   8024e:	c40f      	stmia	r4!, {r0, r1, r2, r3}
   80250:	cd0f      	ldmia	r5!, {r0, r1, r2, r3}
   80252:	c40f      	stmia	r4!, {r0, r1, r2, r3}
   80254:	e895 0007 	ldmia.w	r5, {r0, r1, r2}
   80258:	e884 0007 	stmia.w	r4, {r0, r1, r2}
   8025c:	466a      	mov	r2, sp
   8025e:	2300      	movs	r3, #0
   80260:	f852 4f04 	ldr.w	r4, [r2, #4]!
   80264:	fbb6 f4f4 	udiv	r4, r6, r4
   80268:	fbb4 f4f7 	udiv	r4, r4, r7
   8026c:	f5b4 7f80 	cmp.w	r4, #256	; 0x100
   80270:	d903      	bls.n	8027a <pwm_clocks_generate+0x3a>
   80272:	3301      	adds	r3, #1
   80274:	2b0b      	cmp	r3, #11
   80276:	d1f3      	bne.n	80260 <pwm_clocks_generate+0x20>
   80278:	e004      	b.n	80284 <pwm_clocks_generate+0x44>
   8027a:	2b0a      	cmp	r3, #10
   8027c:	d805      	bhi.n	8028a <pwm_clocks_generate+0x4a>
   8027e:	ea44 2003 	orr.w	r0, r4, r3, lsl #8
   80282:	e004      	b.n	8028e <pwm_clocks_generate+0x4e>
   80284:	f64f 70ff 	movw	r0, #65535	; 0xffff
   80288:	e001      	b.n	8028e <pwm_clocks_generate+0x4e>
   8028a:	f64f 70ff 	movw	r0, #65535	; 0xffff
   8028e:	b00c      	add	sp, #48	; 0x30
   80290:	bcf0      	pop	{r4, r5, r6, r7}
   80292:	4770      	bx	lr
   80294:	00087974 	.word	0x00087974

00080298 <pwm_init>:
   80298:	b570      	push	{r4, r5, r6, lr}
   8029a:	4606      	mov	r6, r0
   8029c:	460c      	mov	r4, r1
   8029e:	6808      	ldr	r0, [r1, #0]
   802a0:	b140      	cbz	r0, 802b4 <pwm_init+0x1c>
   802a2:	6889      	ldr	r1, [r1, #8]
   802a4:	4b0b      	ldr	r3, [pc, #44]	; (802d4 <pwm_init+0x3c>)
   802a6:	4798      	blx	r3
   802a8:	4605      	mov	r5, r0
   802aa:	f64f 73ff 	movw	r3, #65535	; 0xffff
   802ae:	4298      	cmp	r0, r3
   802b0:	d101      	bne.n	802b6 <pwm_init+0x1e>
   802b2:	e00e      	b.n	802d2 <pwm_init+0x3a>
   802b4:	2500      	movs	r5, #0
   802b6:	6860      	ldr	r0, [r4, #4]
   802b8:	b140      	cbz	r0, 802cc <pwm_init+0x34>
   802ba:	68a1      	ldr	r1, [r4, #8]
   802bc:	4b05      	ldr	r3, [pc, #20]	; (802d4 <pwm_init+0x3c>)
   802be:	4798      	blx	r3
   802c0:	f64f 73ff 	movw	r3, #65535	; 0xffff
   802c4:	4298      	cmp	r0, r3
   802c6:	d004      	beq.n	802d2 <pwm_init+0x3a>
   802c8:	ea45 4500 	orr.w	r5, r5, r0, lsl #16
   802cc:	6035      	str	r5, [r6, #0]
   802ce:	2000      	movs	r0, #0
   802d0:	bd70      	pop	{r4, r5, r6, pc}
   802d2:	bd70      	pop	{r4, r5, r6, pc}
   802d4:	00080241 	.word	0x00080241

000802d8 <pwm_channel_init>:
   802d8:	b470      	push	{r4, r5, r6}
   802da:	680b      	ldr	r3, [r1, #0]
   802dc:	8a8c      	ldrh	r4, [r1, #20]
   802de:	684a      	ldr	r2, [r1, #4]
   802e0:	f002 020f 	and.w	r2, r2, #15
   802e4:	4314      	orrs	r4, r2
   802e6:	890d      	ldrh	r5, [r1, #8]
   802e8:	432c      	orrs	r4, r5
   802ea:	7a8a      	ldrb	r2, [r1, #10]
   802ec:	ea44 2442 	orr.w	r4, r4, r2, lsl #9
   802f0:	7d8a      	ldrb	r2, [r1, #22]
   802f2:	ea44 4402 	orr.w	r4, r4, r2, lsl #16
   802f6:	7dca      	ldrb	r2, [r1, #23]
   802f8:	ea44 4442 	orr.w	r4, r4, r2, lsl #17
   802fc:	7e0a      	ldrb	r2, [r1, #24]
   802fe:	ea44 4482 	orr.w	r4, r4, r2, lsl #18
   80302:	eb00 1243 	add.w	r2, r0, r3, lsl #5
   80306:	f8c2 4200 	str.w	r4, [r2, #512]	; 0x200
   8030a:	68cc      	ldr	r4, [r1, #12]
   8030c:	f8c2 4204 	str.w	r4, [r2, #516]	; 0x204
   80310:	690c      	ldr	r4, [r1, #16]
   80312:	f8c2 420c 	str.w	r4, [r2, #524]	; 0x20c
   80316:	7d8a      	ldrb	r2, [r1, #22]
   80318:	b13a      	cbz	r2, 8032a <pwm_channel_init+0x52>
   8031a:	8b8c      	ldrh	r4, [r1, #28]
   8031c:	8b4a      	ldrh	r2, [r1, #26]
   8031e:	ea42 4404 	orr.w	r4, r2, r4, lsl #16
   80322:	eb00 1243 	add.w	r2, r0, r3, lsl #5
   80326:	f8c2 4218 	str.w	r4, [r2, #536]	; 0x218
   8032a:	6c85      	ldr	r5, [r0, #72]	; 0x48
   8032c:	f04f 1201 	mov.w	r2, #65537	; 0x10001
   80330:	409a      	lsls	r2, r3
   80332:	43d2      	mvns	r2, r2
   80334:	4015      	ands	r5, r2
   80336:	7fce      	ldrb	r6, [r1, #31]
   80338:	409e      	lsls	r6, r3
   8033a:	7f8c      	ldrb	r4, [r1, #30]
   8033c:	409c      	lsls	r4, r3
   8033e:	ea44 4406 	orr.w	r4, r4, r6, lsl #16
   80342:	432c      	orrs	r4, r5
   80344:	6484      	str	r4, [r0, #72]	; 0x48
   80346:	6c44      	ldr	r4, [r0, #68]	; 0x44
   80348:	4022      	ands	r2, r4
   8034a:	f891 5021 	ldrb.w	r5, [r1, #33]	; 0x21
   8034e:	409d      	lsls	r5, r3
   80350:	f891 4020 	ldrb.w	r4, [r1, #32]
   80354:	409c      	lsls	r4, r3
   80356:	ea44 4405 	orr.w	r4, r4, r5, lsl #16
   8035a:	4322      	orrs	r2, r4
   8035c:	6442      	str	r2, [r0, #68]	; 0x44
   8035e:	2201      	movs	r2, #1
   80360:	409a      	lsls	r2, r3
   80362:	f891 4022 	ldrb.w	r4, [r1, #34]	; 0x22
   80366:	b11c      	cbz	r4, 80370 <pwm_channel_init+0x98>
   80368:	6a04      	ldr	r4, [r0, #32]
   8036a:	4314      	orrs	r4, r2
   8036c:	6204      	str	r4, [r0, #32]
   8036e:	e003      	b.n	80378 <pwm_channel_init+0xa0>
   80370:	6a04      	ldr	r4, [r0, #32]
   80372:	ea24 0402 	bic.w	r4, r4, r2
   80376:	6204      	str	r4, [r0, #32]
   80378:	f891 4024 	ldrb.w	r4, [r1, #36]	; 0x24
   8037c:	2c01      	cmp	r4, #1
   8037e:	6e84      	ldr	r4, [r0, #104]	; 0x68
   80380:	bf0c      	ite	eq
   80382:	4314      	orreq	r4, r2
   80384:	4394      	bicne	r4, r2
   80386:	6684      	str	r4, [r0, #104]	; 0x68
   80388:	f891 4025 	ldrb.w	r4, [r1, #37]	; 0x25
   8038c:	2c01      	cmp	r4, #1
   8038e:	6e84      	ldr	r4, [r0, #104]	; 0x68
   80390:	bf0c      	ite	eq
   80392:	ea44 4202 	orreq.w	r2, r4, r2, lsl #16
   80396:	ea24 4202 	bicne.w	r2, r4, r2, lsl #16
   8039a:	6682      	str	r2, [r0, #104]	; 0x68
   8039c:	2b03      	cmp	r3, #3
   8039e:	d80c      	bhi.n	803ba <pwm_channel_init+0xe2>
   803a0:	6ec4      	ldr	r4, [r0, #108]	; 0x6c
   803a2:	00db      	lsls	r3, r3, #3
   803a4:	22ff      	movs	r2, #255	; 0xff
   803a6:	409a      	lsls	r2, r3
   803a8:	ea24 0202 	bic.w	r2, r4, r2
   803ac:	f891 1023 	ldrb.w	r1, [r1, #35]	; 0x23
   803b0:	fa01 f303 	lsl.w	r3, r1, r3
   803b4:	4313      	orrs	r3, r2
   803b6:	66c3      	str	r3, [r0, #108]	; 0x6c
   803b8:	e00c      	b.n	803d4 <pwm_channel_init+0xfc>
   803ba:	3b04      	subs	r3, #4
   803bc:	6f04      	ldr	r4, [r0, #112]	; 0x70
   803be:	00db      	lsls	r3, r3, #3
   803c0:	22ff      	movs	r2, #255	; 0xff
   803c2:	409a      	lsls	r2, r3
   803c4:	ea24 0202 	bic.w	r2, r4, r2
   803c8:	f891 1023 	ldrb.w	r1, [r1, #35]	; 0x23
   803cc:	fa01 f303 	lsl.w	r3, r1, r3
   803d0:	4313      	orrs	r3, r2
   803d2:	6703      	str	r3, [r0, #112]	; 0x70
   803d4:	2000      	movs	r0, #0
   803d6:	bc70      	pop	{r4, r5, r6}
   803d8:	4770      	bx	lr
   803da:	bf00      	nop

000803dc <pwm_channel_update_duty>:
   803dc:	b410      	push	{r4}
   803de:	680c      	ldr	r4, [r1, #0]
   803e0:	690b      	ldr	r3, [r1, #16]
   803e2:	4293      	cmp	r3, r2
   803e4:	d306      	bcc.n	803f4 <pwm_channel_update_duty+0x18>
   803e6:	60ca      	str	r2, [r1, #12]
   803e8:	eb00 1044 	add.w	r0, r0, r4, lsl #5
   803ec:	f8c0 2208 	str.w	r2, [r0, #520]	; 0x208
   803f0:	2000      	movs	r0, #0
   803f2:	e001      	b.n	803f8 <pwm_channel_update_duty+0x1c>
   803f4:	f64f 70ff 	movw	r0, #65535	; 0xffff
   803f8:	f85d 4b04 	ldr.w	r4, [sp], #4
   803fc:	4770      	bx	lr
   803fe:	bf00      	nop

00080400 <pwm_channel_enable>:
   80400:	2301      	movs	r3, #1
   80402:	fa03 f101 	lsl.w	r1, r3, r1
   80406:	6041      	str	r1, [r0, #4]
   80408:	4770      	bx	lr
   8040a:	bf00      	nop

0008040c <pwm_channel_disable>:
   8040c:	2301      	movs	r3, #1
   8040e:	fa03 f101 	lsl.w	r1, r3, r1
   80412:	6081      	str	r1, [r0, #8]
   80414:	4770      	bx	lr
   80416:	bf00      	nop

00080418 <twi_set_speed>:
uint32_t twi_set_speed(Twi *p_twi, uint32_t ul_speed, uint32_t ul_mck)
{
	uint32_t ckdiv = 0;
	uint32_t c_lh_div;

	if (ul_speed > I2C_FAST_MODE_SPEED) {
   80418:	4b0f      	ldr	r3, [pc, #60]	; (80458 <twi_set_speed+0x40>)
   8041a:	4299      	cmp	r1, r3
   8041c:	d819      	bhi.n	80452 <twi_set_speed+0x3a>
		return FAIL;
	}

	c_lh_div = ul_mck / (ul_speed * TWI_CLK_DIVIDER) - TWI_CLK_CALC_ARGU;
   8041e:	0049      	lsls	r1, r1, #1
   80420:	fbb2 f2f1 	udiv	r2, r2, r1
   80424:	3a04      	subs	r2, #4

	/* cldiv must fit in 8 bits, ckdiv must fit in 3 bits */
	while ((c_lh_div > TWI_CLK_DIV_MAX) && (ckdiv < TWI_CLK_DIV_MIN)) {
   80426:	2aff      	cmp	r2, #255	; 0xff
   80428:	d907      	bls.n	8043a <twi_set_speed+0x22>
 * \retval PASS New speed setting is accepted.
 * \retval FAIL New speed setting is rejected.
 */
uint32_t twi_set_speed(Twi *p_twi, uint32_t ul_speed, uint32_t ul_mck)
{
	uint32_t ckdiv = 0;
   8042a:	2300      	movs	r3, #0
	c_lh_div = ul_mck / (ul_speed * TWI_CLK_DIVIDER) - TWI_CLK_CALC_ARGU;

	/* cldiv must fit in 8 bits, ckdiv must fit in 3 bits */
	while ((c_lh_div > TWI_CLK_DIV_MAX) && (ckdiv < TWI_CLK_DIV_MIN)) {
		/* Increase clock divider */
		ckdiv++;
   8042c:	3301      	adds	r3, #1
		/* Divide cldiv value */
		c_lh_div /= TWI_CLK_DIVIDER;
   8042e:	0852      	lsrs	r2, r2, #1
	}

	c_lh_div = ul_mck / (ul_speed * TWI_CLK_DIVIDER) - TWI_CLK_CALC_ARGU;

	/* cldiv must fit in 8 bits, ckdiv must fit in 3 bits */
	while ((c_lh_div > TWI_CLK_DIV_MAX) && (ckdiv < TWI_CLK_DIV_MIN)) {
   80430:	2aff      	cmp	r2, #255	; 0xff
   80432:	d903      	bls.n	8043c <twi_set_speed+0x24>
   80434:	2b07      	cmp	r3, #7
   80436:	d1f9      	bne.n	8042c <twi_set_speed+0x14>
   80438:	e000      	b.n	8043c <twi_set_speed+0x24>
 * \retval PASS New speed setting is accepted.
 * \retval FAIL New speed setting is rejected.
 */
uint32_t twi_set_speed(Twi *p_twi, uint32_t ul_speed, uint32_t ul_mck)
{
	uint32_t ckdiv = 0;
   8043a:	2300      	movs	r3, #0
		c_lh_div /= TWI_CLK_DIVIDER;
	}

	/* set clock waveform generator register */
	p_twi->TWI_CWGR =
			TWI_CWGR_CLDIV(c_lh_div) | TWI_CWGR_CHDIV(c_lh_div) |
   8043c:	0211      	lsls	r1, r2, #8
   8043e:	b289      	uxth	r1, r1
			TWI_CWGR_CKDIV(ckdiv);
   80440:	041b      	lsls	r3, r3, #16
   80442:	f403 23e0 	and.w	r3, r3, #458752	; 0x70000
		c_lh_div /= TWI_CLK_DIVIDER;
	}

	/* set clock waveform generator register */
	p_twi->TWI_CWGR =
			TWI_CWGR_CLDIV(c_lh_div) | TWI_CWGR_CHDIV(c_lh_div) |
   80446:	430b      	orrs	r3, r1
   80448:	b2d2      	uxtb	r2, r2
   8044a:	431a      	orrs	r2, r3
		/* Divide cldiv value */
		c_lh_div /= TWI_CLK_DIVIDER;
	}

	/* set clock waveform generator register */
	p_twi->TWI_CWGR =
   8044c:	6102      	str	r2, [r0, #16]
			TWI_CWGR_CLDIV(c_lh_div) | TWI_CWGR_CHDIV(c_lh_div) |
			TWI_CWGR_CKDIV(ckdiv);

	return PASS;
   8044e:	2000      	movs	r0, #0
   80450:	4770      	bx	lr
{
	uint32_t ckdiv = 0;
	uint32_t c_lh_div;

	if (ul_speed > I2C_FAST_MODE_SPEED) {
		return FAIL;
   80452:	2001      	movs	r0, #1
	p_twi->TWI_CWGR =
			TWI_CWGR_CLDIV(c_lh_div) | TWI_CWGR_CHDIV(c_lh_div) |
			TWI_CWGR_CKDIV(ckdiv);

	return PASS;
}
   80454:	4770      	bx	lr
   80456:	bf00      	nop
   80458:	00061a80 	.word	0x00061a80

0008045c <twi_master_init>:
 * \param p_opt Options for initializing the TWI module (see \ref twi_options_t).
 *
 * \return TWI_SUCCESS if initialization is complete, error code otherwise.
 */
uint32_t twi_master_init(Twi *p_twi, const twi_options_t *p_opt)
{
   8045c:	b538      	push	{r3, r4, r5, lr}
   8045e:	4604      	mov	r4, r0
   80460:	460d      	mov	r5, r1
	uint32_t status = TWI_SUCCESS;

	/* Disable TWI interrupts */
	p_twi->TWI_IDR = ~0UL;
   80462:	f04f 33ff 	mov.w	r3, #4294967295
   80466:	6283      	str	r3, [r0, #40]	; 0x28

	/* Dummy read in status register */
	p_twi->TWI_SR;
   80468:	6a03      	ldr	r3, [r0, #32]
 * \param p_twi Pointer to a TWI instance.
 */
void twi_reset(Twi *p_twi)
{
	/* Set SWRST bit to reset TWI peripheral */
	p_twi->TWI_CR = TWI_CR_SWRST;
   8046a:	2380      	movs	r3, #128	; 0x80
   8046c:	6003      	str	r3, [r0, #0]
	p_twi->TWI_RHR;
   8046e:	6b03      	ldr	r3, [r0, #48]	; 0x30
 * \param p_twi Pointer to a TWI instance.
 */
void twi_enable_master_mode(Twi *p_twi)
{
	/* Set Master Disable bit and Slave Disable bit */
	p_twi->TWI_CR = TWI_CR_MSDIS;
   80470:	2308      	movs	r3, #8
   80472:	6003      	str	r3, [r0, #0]
	p_twi->TWI_CR = TWI_CR_SVDIS;
   80474:	2320      	movs	r3, #32
   80476:	6003      	str	r3, [r0, #0]

	/* Set Master Enable bit */
	p_twi->TWI_CR = TWI_CR_MSEN;
   80478:	2304      	movs	r3, #4
   8047a:	6003      	str	r3, [r0, #0]
	twi_reset(p_twi);

	twi_enable_master_mode(p_twi);

	/* Select the speed */
	if (twi_set_speed(p_twi, p_opt->speed, p_opt->master_clk) == FAIL) {
   8047c:	6849      	ldr	r1, [r1, #4]
   8047e:	682a      	ldr	r2, [r5, #0]
   80480:	4b05      	ldr	r3, [pc, #20]	; (80498 <twi_master_init+0x3c>)
   80482:	4798      	blx	r3
   80484:	2801      	cmp	r0, #1
   80486:	bf14      	ite	ne
   80488:	2000      	movne	r0, #0
   8048a:	2001      	moveq	r0, #1
		/* The desired speed setting is rejected */
		status = TWI_INVALID_ARGUMENT;
	}

	if (p_opt->smbus == 1) {
   8048c:	7a6b      	ldrb	r3, [r5, #9]
   8048e:	2b01      	cmp	r3, #1
		p_twi->TWI_CR = TWI_CR_QUICK;
   80490:	bf04      	itt	eq
   80492:	2340      	moveq	r3, #64	; 0x40
   80494:	6023      	streq	r3, [r4, #0]
	}

	return status;
}
   80496:	bd38      	pop	{r3, r4, r5, pc}
   80498:	00080419 	.word	0x00080419

0008049c <twi_master_read>:
 * \param p_packet Packet information and data (see \ref twi_packet_t).
 *
 * \return TWI_SUCCESS if all bytes were read, error code otherwise.
 */
uint32_t twi_master_read(Twi *p_twi, twi_packet_t *p_packet)
{
   8049c:	e92d 03f0 	stmdb	sp!, {r4, r5, r6, r7, r8, r9}
   804a0:	4604      	mov	r4, r0
	uint32_t status;
	uint32_t cnt = p_packet->length;
   804a2:	68cb      	ldr	r3, [r1, #12]
	uint8_t *buffer = p_packet->buffer;
   804a4:	688e      	ldr	r6, [r1, #8]
	uint8_t stop_sent = 0;
	uint32_t timeout = TWI_TIMEOUT;;
	
	/* Check argument */
	if (cnt == 0) {
   804a6:	2b00      	cmp	r3, #0
   804a8:	d049      	beq.n	8053e <twi_master_read+0xa2>
		return TWI_INVALID_ARGUMENT;
	}

	/* Set read mode, slave address and 3 internal address byte lengths */
	p_twi->TWI_MMR = 0;
   804aa:	2200      	movs	r2, #0
   804ac:	6042      	str	r2, [r0, #4]
	p_twi->TWI_MMR = TWI_MMR_MREAD | TWI_MMR_DADR(p_packet->chip) |
			((p_packet->addr_length << TWI_MMR_IADRSZ_Pos) &
   804ae:	6848      	ldr	r0, [r1, #4]
   804b0:	0200      	lsls	r0, r0, #8
   804b2:	f400 7040 	and.w	r0, r0, #768	; 0x300
		return TWI_INVALID_ARGUMENT;
	}

	/* Set read mode, slave address and 3 internal address byte lengths */
	p_twi->TWI_MMR = 0;
	p_twi->TWI_MMR = TWI_MMR_MREAD | TWI_MMR_DADR(p_packet->chip) |
   804b6:	f440 5080 	orr.w	r0, r0, #4096	; 0x1000
   804ba:	7c0d      	ldrb	r5, [r1, #16]
   804bc:	042d      	lsls	r5, r5, #16
   804be:	f405 05fe 	and.w	r5, r5, #8323072	; 0x7f0000
   804c2:	4328      	orrs	r0, r5
   804c4:	6060      	str	r0, [r4, #4]
			((p_packet->addr_length << TWI_MMR_IADRSZ_Pos) &
			TWI_MMR_IADRSZ_Msk);

	/* Set internal address for remote chip */
	p_twi->TWI_IADR = 0;
   804c6:	60e2      	str	r2, [r4, #12]
	p_twi->TWI_IADR = twi_mk_addr(p_packet->addr, p_packet->addr_length);
   804c8:	684a      	ldr	r2, [r1, #4]
 */
static uint32_t twi_mk_addr(const uint8_t *addr, int len)
{
	uint32_t val;

	if (len == 0)
   804ca:	b15a      	cbz	r2, 804e4 <twi_master_read+0x48>
		return 0;

	val = addr[0];
   804cc:	7808      	ldrb	r0, [r1, #0]
	if (len > 1) {
   804ce:	2a01      	cmp	r2, #1
		val <<= 8;
		val |= addr[1];
   804d0:	bfc4      	itt	gt
   804d2:	784d      	ldrbgt	r5, [r1, #1]
   804d4:	ea45 2000 	orrgt.w	r0, r5, r0, lsl #8
	}
	if (len > 2) {
   804d8:	2a02      	cmp	r2, #2
   804da:	dd04      	ble.n	804e6 <twi_master_read+0x4a>
		val <<= 8;
		val |= addr[2];
   804dc:	788a      	ldrb	r2, [r1, #2]
   804de:	ea42 2000 	orr.w	r0, r2, r0, lsl #8
   804e2:	e000      	b.n	804e6 <twi_master_read+0x4a>
static uint32_t twi_mk_addr(const uint8_t *addr, int len)
{
	uint32_t val;

	if (len == 0)
		return 0;
   804e4:	2000      	movs	r0, #0
			((p_packet->addr_length << TWI_MMR_IADRSZ_Pos) &
			TWI_MMR_IADRSZ_Msk);

	/* Set internal address for remote chip */
	p_twi->TWI_IADR = 0;
	p_twi->TWI_IADR = twi_mk_addr(p_packet->addr, p_packet->addr_length);
   804e6:	60e0      	str	r0, [r4, #12]

	/* Send a START condition */
	if (cnt == 1) {
   804e8:	2b01      	cmp	r3, #1
   804ea:	d104      	bne.n	804f6 <twi_master_read+0x5a>
		p_twi->TWI_CR = TWI_CR_START | TWI_CR_STOP;
   804ec:	2203      	movs	r2, #3
   804ee:	6022      	str	r2, [r4, #0]
		stop_sent = 1;
   804f0:	f04f 0c01 	mov.w	ip, #1
   804f4:	e02b      	b.n	8054e <twi_master_read+0xb2>
	} else {
		p_twi->TWI_CR = TWI_CR_START;
   804f6:	2201      	movs	r2, #1
   804f8:	6022      	str	r2, [r4, #0]
		stop_sent = 0;
   804fa:	f04f 0c00 	mov.w	ip, #0
   804fe:	e026      	b.n	8054e <twi_master_read+0xb2>
	}

	while (cnt > 0) {
		status = p_twi->TWI_SR;
   80500:	6a21      	ldr	r1, [r4, #32]
		if (status & TWI_SR_NACK) {
   80502:	f411 7f80 	tst.w	r1, #256	; 0x100
   80506:	d11c      	bne.n	80542 <twi_master_read+0xa6>
			return TWI_RECEIVE_NACK;
		}

		if (!timeout--) {
   80508:	1e55      	subs	r5, r2, #1
   8050a:	b1e2      	cbz	r2, 80546 <twi_master_read+0xaa>
   8050c:	462a      	mov	r2, r5
			return TWI_ERROR_TIMEOUT;
		}
				
		/* Last byte ? */
		if (cnt == 1  && !stop_sent) {
   8050e:	2b01      	cmp	r3, #1
   80510:	d105      	bne.n	8051e <twi_master_read+0x82>
   80512:	f1bc 0f00 	cmp.w	ip, #0
   80516:	d102      	bne.n	8051e <twi_master_read+0x82>
			p_twi->TWI_CR = TWI_CR_STOP;
   80518:	f8c4 9000 	str.w	r9, [r4]
			stop_sent = 1;
   8051c:	46c4      	mov	ip, r8
		}

		if (!(status & TWI_SR_RXRDY)) {
   8051e:	f011 0f02 	tst.w	r1, #2
   80522:	d004      	beq.n	8052e <twi_master_read+0x92>
			continue;
		}
		*buffer++ = p_twi->TWI_RHR;
   80524:	6b22      	ldr	r2, [r4, #48]	; 0x30
   80526:	7032      	strb	r2, [r6, #0]

		cnt--;
   80528:	3b01      	subs	r3, #1
		}

		if (!(status & TWI_SR_RXRDY)) {
			continue;
		}
		*buffer++ = p_twi->TWI_RHR;
   8052a:	3601      	adds	r6, #1

		cnt--;
		timeout = TWI_TIMEOUT;
   8052c:	463a      	mov	r2, r7
	} else {
		p_twi->TWI_CR = TWI_CR_START;
		stop_sent = 0;
	}

	while (cnt > 0) {
   8052e:	2b00      	cmp	r3, #0
   80530:	d1e6      	bne.n	80500 <twi_master_read+0x64>

		cnt--;
		timeout = TWI_TIMEOUT;
	}

	while (!(p_twi->TWI_SR & TWI_SR_TXCOMP)) {
   80532:	6a23      	ldr	r3, [r4, #32]
   80534:	f013 0f01 	tst.w	r3, #1
   80538:	d0fb      	beq.n	80532 <twi_master_read+0x96>
	}

	p_twi->TWI_SR;
   8053a:	6a23      	ldr	r3, [r4, #32]

	return TWI_SUCCESS;
   8053c:	e014      	b.n	80568 <twi_master_read+0xcc>
	uint8_t stop_sent = 0;
	uint32_t timeout = TWI_TIMEOUT;;
	
	/* Check argument */
	if (cnt == 0) {
		return TWI_INVALID_ARGUMENT;
   8053e:	2001      	movs	r0, #1
   80540:	e012      	b.n	80568 <twi_master_read+0xcc>
	}

	while (cnt > 0) {
		status = p_twi->TWI_SR;
		if (status & TWI_SR_NACK) {
			return TWI_RECEIVE_NACK;
   80542:	2005      	movs	r0, #5
   80544:	e010      	b.n	80568 <twi_master_read+0xcc>
		}

		if (!timeout--) {
			return TWI_ERROR_TIMEOUT;
   80546:	2009      	movs	r0, #9
   80548:	e00e      	b.n	80568 <twi_master_read+0xcc>
	}

	while (cnt > 0) {
		status = p_twi->TWI_SR;
		if (status & TWI_SR_NACK) {
			return TWI_RECEIVE_NACK;
   8054a:	2005      	movs	r0, #5
   8054c:	e00c      	b.n	80568 <twi_master_read+0xcc>
		p_twi->TWI_CR = TWI_CR_START;
		stop_sent = 0;
	}

	while (cnt > 0) {
		status = p_twi->TWI_SR;
   8054e:	6a21      	ldr	r1, [r4, #32]
		if (status & TWI_SR_NACK) {
   80550:	f411 7080 	ands.w	r0, r1, #256	; 0x100
   80554:	d1f9      	bne.n	8054a <twi_master_read+0xae>
			return TWI_RECEIVE_NACK;
		}

		if (!timeout--) {
   80556:	f643 2297 	movw	r2, #14999	; 0x3a97
			return TWI_ERROR_TIMEOUT;
		}
				
		/* Last byte ? */
		if (cnt == 1  && !stop_sent) {
			p_twi->TWI_CR = TWI_CR_STOP;
   8055a:	f04f 0902 	mov.w	r9, #2
			stop_sent = 1;
   8055e:	f04f 0801 	mov.w	r8, #1
			continue;
		}
		*buffer++ = p_twi->TWI_RHR;

		cnt--;
		timeout = TWI_TIMEOUT;
   80562:	f643 2798 	movw	r7, #15000	; 0x3a98
   80566:	e7d2      	b.n	8050e <twi_master_read+0x72>
	}

	p_twi->TWI_SR;

	return TWI_SUCCESS;
}
   80568:	e8bd 03f0 	ldmia.w	sp!, {r4, r5, r6, r7, r8, r9}
   8056c:	4770      	bx	lr
   8056e:	bf00      	nop

00080570 <twi_master_write>:
 * \param p_packet Packet information and data (see \ref twi_packet_t).
 *
 * \return TWI_SUCCESS if all bytes were written, error code otherwise.
 */
uint32_t twi_master_write(Twi *p_twi, twi_packet_t *p_packet)
{	
   80570:	b5f8      	push	{r3, r4, r5, r6, r7, lr}
   80572:	4604      	mov	r4, r0
	uint32_t status;
	uint32_t cnt = p_packet->length;
   80574:	68cb      	ldr	r3, [r1, #12]
	uint8_t *buffer = p_packet->buffer;
   80576:	6888      	ldr	r0, [r1, #8]

	/* Check argument */
	if (cnt == 0) {
   80578:	2b00      	cmp	r3, #0
   8057a:	d04c      	beq.n	80616 <twi_master_write+0xa6>
		return TWI_INVALID_ARGUMENT;
	}
	
	/* Set write mode, slave address and 3 internal address byte lengths */
	p_twi->TWI_MMR = 0;
   8057c:	2200      	movs	r2, #0
   8057e:	6062      	str	r2, [r4, #4]
	p_twi->TWI_MMR = TWI_MMR_DADR(p_packet->chip) |
   80580:	7c0e      	ldrb	r6, [r1, #16]
   80582:	0436      	lsls	r6, r6, #16
   80584:	f406 06fe 	and.w	r6, r6, #8323072	; 0x7f0000
			((p_packet->addr_length << TWI_MMR_IADRSZ_Pos) &
   80588:	684d      	ldr	r5, [r1, #4]
   8058a:	022d      	lsls	r5, r5, #8
   8058c:	f405 7540 	and.w	r5, r5, #768	; 0x300
		return TWI_INVALID_ARGUMENT;
	}
	
	/* Set write mode, slave address and 3 internal address byte lengths */
	p_twi->TWI_MMR = 0;
	p_twi->TWI_MMR = TWI_MMR_DADR(p_packet->chip) |
   80590:	4335      	orrs	r5, r6
   80592:	6065      	str	r5, [r4, #4]
			((p_packet->addr_length << TWI_MMR_IADRSZ_Pos) &
			TWI_MMR_IADRSZ_Msk);

	/* Set internal address for remote chip */
	p_twi->TWI_IADR = 0;
   80594:	60e2      	str	r2, [r4, #12]
	p_twi->TWI_IADR = twi_mk_addr(p_packet->addr, p_packet->addr_length);
   80596:	684a      	ldr	r2, [r1, #4]
 */
static uint32_t twi_mk_addr(const uint8_t *addr, int len)
{
	uint32_t val;

	if (len == 0)
   80598:	b15a      	cbz	r2, 805b2 <twi_master_write+0x42>
		return 0;

	val = addr[0];
   8059a:	780d      	ldrb	r5, [r1, #0]
	if (len > 1) {
   8059c:	2a01      	cmp	r2, #1
		val <<= 8;
		val |= addr[1];
   8059e:	bfc4      	itt	gt
   805a0:	784e      	ldrbgt	r6, [r1, #1]
   805a2:	ea46 2505 	orrgt.w	r5, r6, r5, lsl #8
	}
	if (len > 2) {
   805a6:	2a02      	cmp	r2, #2
   805a8:	dd04      	ble.n	805b4 <twi_master_write+0x44>
		val <<= 8;
		val |= addr[2];
   805aa:	788a      	ldrb	r2, [r1, #2]
   805ac:	ea42 2505 	orr.w	r5, r2, r5, lsl #8
   805b0:	e000      	b.n	805b4 <twi_master_write+0x44>
static uint32_t twi_mk_addr(const uint8_t *addr, int len)
{
	uint32_t val;

	if (len == 0)
		return 0;
   805b2:	2500      	movs	r5, #0
			((p_packet->addr_length << TWI_MMR_IADRSZ_Pos) &
			TWI_MMR_IADRSZ_Msk);

	/* Set internal address for remote chip */
	p_twi->TWI_IADR = 0;
	p_twi->TWI_IADR = twi_mk_addr(p_packet->addr, p_packet->addr_length);
   805b4:	60e5      	str	r5, [r4, #12]
   805b6:	e00b      	b.n	805d0 <twi_master_write+0x60>
		
	/* Send all bytes */
	while (cnt > 0) {
		status = p_twi->TWI_SR;
   805b8:	6a22      	ldr	r2, [r4, #32]
		if (status & TWI_SR_NACK) {
   805ba:	f412 7f80 	tst.w	r2, #256	; 0x100
   805be:	d12c      	bne.n	8061a <twi_master_write+0xaa>
			return TWI_RECEIVE_NACK;
		}

		if (!(status & TWI_SR_TXRDY)) {
   805c0:	f012 0f04 	tst.w	r2, #4
   805c4:	d0f8      	beq.n	805b8 <twi_master_write+0x48>
			continue;
		}
		p_twi->TWI_THR = *buffer++;
   805c6:	f810 2b01 	ldrb.w	r2, [r0], #1
   805ca:	6362      	str	r2, [r4, #52]	; 0x34
	/* Set internal address for remote chip */
	p_twi->TWI_IADR = 0;
	p_twi->TWI_IADR = twi_mk_addr(p_packet->addr, p_packet->addr_length);
		
	/* Send all bytes */
	while (cnt > 0) {
   805cc:	3b01      	subs	r3, #1
   805ce:	d007      	beq.n	805e0 <twi_master_write+0x70>
		status = p_twi->TWI_SR;
   805d0:	6a22      	ldr	r2, [r4, #32]
		if (status & TWI_SR_NACK) {
   805d2:	f412 7f80 	tst.w	r2, #256	; 0x100
   805d6:	d122      	bne.n	8061e <twi_master_write+0xae>
			return TWI_RECEIVE_NACK;
		}

		if (!(status & TWI_SR_TXRDY)) {
   805d8:	f012 0f04 	tst.w	r2, #4
   805dc:	d1f3      	bne.n	805c6 <twi_master_write+0x56>
   805de:	e7eb      	b.n	805b8 <twi_master_write+0x48>

		cnt--;
	}

	while (1) {
		status = p_twi->TWI_SR;
   805e0:	6a23      	ldr	r3, [r4, #32]
		if (status & TWI_SR_NACK) {
   805e2:	f413 7780 	ands.w	r7, r3, #256	; 0x100
   805e6:	d11c      	bne.n	80622 <twi_master_write+0xb2>
			return TWI_RECEIVE_NACK;
		}

		if (status & TWI_SR_TXRDY) {
   805e8:	f013 0f04 	tst.w	r3, #4
   805ec:	d10c      	bne.n	80608 <twi_master_write+0x98>
			break;
		}
		printf("2\r\n");
   805ee:	4e0f      	ldr	r6, [pc, #60]	; (8062c <twi_master_write+0xbc>)
   805f0:	4d0f      	ldr	r5, [pc, #60]	; (80630 <twi_master_write+0xc0>)
   805f2:	e002      	b.n	805fa <twi_master_write+0x8a>
		status = p_twi->TWI_SR;
		if (status & TWI_SR_NACK) {
			return TWI_RECEIVE_NACK;
		}

		if (status & TWI_SR_TXRDY) {
   805f4:	f013 0f04 	tst.w	r3, #4
   805f8:	d106      	bne.n	80608 <twi_master_write+0x98>
			break;
		}
		printf("2\r\n");
   805fa:	4630      	mov	r0, r6
   805fc:	47a8      	blx	r5

		cnt--;
	}

	while (1) {
		status = p_twi->TWI_SR;
   805fe:	6a23      	ldr	r3, [r4, #32]
		if (status & TWI_SR_NACK) {
   80600:	f413 7f80 	tst.w	r3, #256	; 0x100
   80604:	d0f6      	beq.n	805f4 <twi_master_write+0x84>
   80606:	e00e      	b.n	80626 <twi_master_write+0xb6>
			break;
		}
		printf("2\r\n");
	}

	p_twi->TWI_CR = TWI_CR_STOP;
   80608:	2302      	movs	r3, #2
   8060a:	6023      	str	r3, [r4, #0]

	while (!(p_twi->TWI_SR & TWI_SR_TXCOMP)) {
   8060c:	6a23      	ldr	r3, [r4, #32]
   8060e:	f013 0f01 	tst.w	r3, #1
   80612:	d0fb      	beq.n	8060c <twi_master_write+0x9c>
   80614:	e008      	b.n	80628 <twi_master_write+0xb8>
	uint32_t cnt = p_packet->length;
	uint8_t *buffer = p_packet->buffer;

	/* Check argument */
	if (cnt == 0) {
		return TWI_INVALID_ARGUMENT;
   80616:	2701      	movs	r7, #1
   80618:	e006      	b.n	80628 <twi_master_write+0xb8>
		
	/* Send all bytes */
	while (cnt > 0) {
		status = p_twi->TWI_SR;
		if (status & TWI_SR_NACK) {
			return TWI_RECEIVE_NACK;
   8061a:	2705      	movs	r7, #5
   8061c:	e004      	b.n	80628 <twi_master_write+0xb8>
   8061e:	2705      	movs	r7, #5
   80620:	e002      	b.n	80628 <twi_master_write+0xb8>
	}

	while (1) {
		status = p_twi->TWI_SR;
		if (status & TWI_SR_NACK) {
			return TWI_RECEIVE_NACK;
   80622:	2705      	movs	r7, #5
   80624:	e000      	b.n	80628 <twi_master_write+0xb8>
   80626:	2705      	movs	r7, #5

	while (!(p_twi->TWI_SR & TWI_SR_TXCOMP)) {
	}

	return TWI_SUCCESS;
}
   80628:	4638      	mov	r0, r7
   8062a:	bdf8      	pop	{r3, r4, r5, r6, r7, pc}
   8062c:	000879a0 	.word	0x000879a0
   80630:	000849b9 	.word	0x000849b9

00080634 <twi_init>:

twi_package_t tx_packet;
twi_package_t rx_packet;

void twi_init()
{
   80634:	b500      	push	{lr}
   80636:	b085      	sub	sp, #20
	/* Initializes TWI master options */
	twi_master_options_t opt;
	opt.speed = TWI_SPEED;
   80638:	4b0a      	ldr	r3, [pc, #40]	; (80664 <twi_init+0x30>)
   8063a:	9302      	str	r3, [sp, #8]
typedef twi_packet_t twi_package_t;

static inline uint32_t twi_master_setup(twi_master_t p_twi,
		twi_master_options_t *p_opt)
{
	p_opt->master_clk = sysclk_get_cpu_hz();
   8063c:	4b0a      	ldr	r3, [pc, #40]	; (80668 <twi_init+0x34>)
   8063e:	9301      	str	r3, [sp, #4]
	p_opt->smbus      = 0;
   80640:	2300      	movs	r3, #0
   80642:	f88d 300d 	strb.w	r3, [sp, #13]
 *
 * \param ul_id Id (number) of the peripheral clock.
 */
static inline void sysclk_enable_peripheral_clock(uint32_t ul_id)
{
	pmc_enable_periph_clk(ul_id);
   80646:	2016      	movs	r0, #22
   80648:	4b08      	ldr	r3, [pc, #32]	; (8066c <twi_init+0x38>)
   8064a:	4798      	blx	r3
	} else {
		// Do Nothing
	}
#endif

	return (twi_master_init(p_twi, p_opt));
   8064c:	4808      	ldr	r0, [pc, #32]	; (80670 <twi_init+0x3c>)
   8064e:	a901      	add	r1, sp, #4
   80650:	4b08      	ldr	r3, [pc, #32]	; (80674 <twi_init+0x40>)
   80652:	4798      	blx	r3
	
	/* Initializes the TWI master driver */
	if (twi_master_setup(TWI_PORT, &opt) == TWI_SUCCESS)
   80654:	b910      	cbnz	r0, 8065c <twi_init+0x28>
	{
		printf("Master initialized\r\n");
   80656:	4808      	ldr	r0, [pc, #32]	; (80678 <twi_init+0x44>)
   80658:	4b08      	ldr	r3, [pc, #32]	; (8067c <twi_init+0x48>)
   8065a:	4798      	blx	r3
	}
}
   8065c:	b005      	add	sp, #20
   8065e:	f85d fb04 	ldr.w	pc, [sp], #4
   80662:	bf00      	nop
   80664:	000186a0 	.word	0x000186a0
   80668:	0501bd00 	.word	0x0501bd00
   8066c:	000836ad 	.word	0x000836ad
   80670:	4008c000 	.word	0x4008c000
   80674:	0008045d 	.word	0x0008045d
   80678:	000879a4 	.word	0x000879a4
   8067c:	000849b9 	.word	0x000849b9

00080680 <twi_send_packet>:

void twi_send_packet(uint8_t *tx_buffer, uint8_t recipient_addr)
{
   80680:	b570      	push	{r4, r5, r6, lr}
   80682:	4604      	mov	r4, r0
   80684:	460d      	mov	r5, r1
	printf("Sending: %d, %d, %d\r\n", tx_buffer[0], tx_buffer[1], tx_buffer[2]);
   80686:	480d      	ldr	r0, [pc, #52]	; (806bc <twi_send_packet+0x3c>)
   80688:	7821      	ldrb	r1, [r4, #0]
   8068a:	7862      	ldrb	r2, [r4, #1]
   8068c:	78a3      	ldrb	r3, [r4, #2]
   8068e:	4e0c      	ldr	r6, [pc, #48]	; (806c0 <twi_send_packet+0x40>)
   80690:	47b0      	blx	r6
	
	uint8_t data_length = 0;
	if (recipient_addr == SLAVE_ADDR_ARM)
	{
		data_length = TX_ARM_LENGTH;
   80692:	2d02      	cmp	r5, #2
   80694:	bf14      	ite	ne
   80696:	2101      	movne	r1, #1
   80698:	2103      	moveq	r1, #3
	else
	{
		data_length = TX_NAV_LENGTH;
	}
	
	tx_packet.addr[0] = 0;							// TWI slave memory address data MSB
   8069a:	4b0a      	ldr	r3, [pc, #40]	; (806c4 <twi_send_packet+0x44>)
   8069c:	2200      	movs	r2, #0
   8069e:	701a      	strb	r2, [r3, #0]
	tx_packet.addr[1] = 0;							// TWI slave memory address data LSB
   806a0:	705a      	strb	r2, [r3, #1]
	tx_packet.addr_length = 0;						// TWI slave memory address data size
   806a2:	605a      	str	r2, [r3, #4]
	tx_packet.chip = recipient_addr;				// TWI slave bus address
   806a4:	741d      	strb	r5, [r3, #16]
	tx_packet.buffer = (void*) tx_buffer;			// transfer data source buffer
   806a6:	609c      	str	r4, [r3, #8]
	tx_packet.length = data_length;					// transfer data size (bytes)
   806a8:	60d9      	str	r1, [r3, #12]

	/* Performs a multi-byte write access then checks the result */
	uint32_t status = twi_master_write(TWI_PORT, &tx_packet);
   806aa:	4807      	ldr	r0, [pc, #28]	; (806c8 <twi_send_packet+0x48>)
   806ac:	4619      	mov	r1, r3
   806ae:	4b07      	ldr	r3, [pc, #28]	; (806cc <twi_send_packet+0x4c>)
   806b0:	4798      	blx	r3
   806b2:	4601      	mov	r1, r0
	printf("Status: %d\r\n", (int) status);
   806b4:	4806      	ldr	r0, [pc, #24]	; (806d0 <twi_send_packet+0x50>)
   806b6:	47b0      	blx	r6
   806b8:	bd70      	pop	{r4, r5, r6, pc}
   806ba:	bf00      	nop
   806bc:	000879bc 	.word	0x000879bc
   806c0:	000849b9 	.word	0x000849b9
   806c4:	20078cdc 	.word	0x20078cdc
   806c8:	4008c000 	.word	0x4008c000
   806cc:	00080571 	.word	0x00080571
   806d0:	000879d4 	.word	0x000879d4

000806d4 <twi_request_packet>:
}

void twi_request_packet(uint8_t *rx_buffer, uint8_t recipient_addr)
{
   806d4:	b570      	push	{r4, r5, r6, lr}
	uint8_t data_length = 0;
	if (recipient_addr == SLAVE_ADDR_ARM)
	{
		data_length = RX_ARM_LENGTH;
   806d6:	2902      	cmp	r1, #2
   806d8:	bf14      	ite	ne
   806da:	2405      	movne	r4, #5
   806dc:	2403      	moveq	r4, #3
	else 
	{
		data_length = RX_NAV_LENGTH;
	}
	
	rx_packet.addr[0] = 0;							// TWI slave memory address data MSB
   806de:	4b08      	ldr	r3, [pc, #32]	; (80700 <twi_request_packet+0x2c>)
   806e0:	2200      	movs	r2, #0
   806e2:	701a      	strb	r2, [r3, #0]
	rx_packet.addr[1] = 0;							// TWI slave memory address data LSB
   806e4:	705a      	strb	r2, [r3, #1]
	rx_packet.addr_length = 0;						// TWI slave memory address data size
   806e6:	605a      	str	r2, [r3, #4]
	rx_packet.chip = recipient_addr;				// TWI slave bus address
   806e8:	7419      	strb	r1, [r3, #16]
	rx_packet.buffer = (void*) rx_buffer;			// transfer data source buffer
   806ea:	6098      	str	r0, [r3, #8]
	rx_packet.length = data_length;					// transfer data size (bytes)
   806ec:	60dc      	str	r4, [r3, #12]
	
	/* Performs a multi-byte read access then checks the result */
	while (twi_master_read(TWI_PORT, &rx_packet) != TWI_SUCCESS);
   806ee:	4e05      	ldr	r6, [pc, #20]	; (80704 <twi_request_packet+0x30>)
   806f0:	461d      	mov	r5, r3
   806f2:	4c05      	ldr	r4, [pc, #20]	; (80708 <twi_request_packet+0x34>)
   806f4:	4630      	mov	r0, r6
   806f6:	4629      	mov	r1, r5
   806f8:	47a0      	blx	r4
   806fa:	2800      	cmp	r0, #0
   806fc:	d1fa      	bne.n	806f4 <twi_request_packet+0x20>
	// indicate();
}
   806fe:	bd70      	pop	{r4, r5, r6, pc}
   80700:	20078cf0 	.word	0x20078cf0
   80704:	4008c000 	.word	0x4008c000
   80708:	0008049d 	.word	0x0008049d

0008070c <twi_arm_init>:

void twi_arm_init(TWI_CMD_Init_Req twi_cmd_init_req_t, uint8_t *tx_buffer, uint8_t *rx_buffer)
{
   8070c:	b510      	push	{r4, lr}
   8070e:	4614      	mov	r4, r2
	tx_buffer[0] = TWI_CMD_ARM_INIT;
   80710:	2220      	movs	r2, #32
   80712:	700a      	strb	r2, [r1, #0]
	tx_buffer[1] = twi_cmd_init_req_t;
   80714:	7048      	strb	r0, [r1, #1]
	
	if (twi_cmd_init_req_t == TWI_CMD_ARM_REQ_BOX_INFO)
   80716:	2802      	cmp	r0, #2
   80718:	d102      	bne.n	80720 <twi_arm_init+0x14>
	{
		/* 0x50 = random value */
		tx_buffer[2] = 0x50;
   8071a:	2350      	movs	r3, #80	; 0x50
   8071c:	708b      	strb	r3, [r1, #2]
   8071e:	e008      	b.n	80732 <twi_arm_init+0x26>
	}
	else if (twi_cmd_init_req_t == TWI_CMD_ARM_REQ_OBJ_INFO)
   80720:	2803      	cmp	r0, #3
   80722:	d102      	bne.n	8072a <twi_arm_init+0x1e>
	{
		/* 0x50 = random value */
		tx_buffer[2] = 0x50;
   80724:	2350      	movs	r3, #80	; 0x50
   80726:	708b      	strb	r3, [r1, #2]
   80728:	e003      	b.n	80732 <twi_arm_init+0x26>
	}
	else if (twi_cmd_init_req_t == TWI_CMD_ARM_REQ_COLLECT_INFO)
   8072a:	2804      	cmp	r0, #4
	{
		/* 1 = arlo can obtain objects without going to box for drop off*/
		tx_buffer[2] = 1;
   8072c:	bf04      	itt	eq
   8072e:	2301      	moveq	r3, #1
   80730:	708b      	strbeq	r3, [r1, #2]
	}
	else
	{
		// Something went wrong..
	}
	twi_send_packet(tx_buffer, SLAVE_ADDR_ARM);
   80732:	4608      	mov	r0, r1
   80734:	2102      	movs	r1, #2
   80736:	4b03      	ldr	r3, [pc, #12]	; (80744 <twi_arm_init+0x38>)
   80738:	4798      	blx	r3
	twi_request_packet(rx_buffer, SLAVE_ADDR_ARM);
   8073a:	4620      	mov	r0, r4
   8073c:	2102      	movs	r1, #2
   8073e:	4b02      	ldr	r3, [pc, #8]	; (80748 <twi_arm_init+0x3c>)
   80740:	4798      	blx	r3
   80742:	bd10      	pop	{r4, pc}
   80744:	00080681 	.word	0x00080681
   80748:	000806d5 	.word	0x000806d5

0008074c <twi_nav_init>:
}

void twi_nav_init(uint8_t object_id, uint8_t *tx_nav_buffer, uint8_t *rx_nav_buffer)
{
   8074c:	b510      	push	{r4, lr}
   8074e:	4614      	mov	r4, r2
	tx_nav_buffer[0] = object_id;
   80750:	7008      	strb	r0, [r1, #0]

	twi_send_packet(tx_nav_buffer, SLAVE_ADDR_NAV);
   80752:	4608      	mov	r0, r1
   80754:	2103      	movs	r1, #3
   80756:	4b03      	ldr	r3, [pc, #12]	; (80764 <twi_nav_init+0x18>)
   80758:	4798      	blx	r3
	twi_request_packet(rx_nav_buffer, SLAVE_ADDR_NAV);
   8075a:	4620      	mov	r0, r4
   8075c:	2103      	movs	r1, #3
   8075e:	4b02      	ldr	r3, [pc, #8]	; (80768 <twi_nav_init+0x1c>)
   80760:	4798      	blx	r3
   80762:	bd10      	pop	{r4, pc}
   80764:	00080681 	.word	0x00080681
   80768:	000806d5 	.word	0x000806d5

0008076c <twi_start_pick_up>:
		delay_ms(100);
	}
}

void twi_start_pick_up(uint8_t *tx_buffer, uint8_t *rx_buffer)
{
   8076c:	b508      	push	{r3, lr}
	tx_buffer[0] = TWI_CMD_PICK_UP_START;
   8076e:	2322      	movs	r3, #34	; 0x22
   80770:	7003      	strb	r3, [r0, #0]
	
	twi_send_packet(tx_buffer, SLAVE_ADDR_ARM);
   80772:	2102      	movs	r1, #2
   80774:	4b01      	ldr	r3, [pc, #4]	; (8077c <twi_start_pick_up+0x10>)
   80776:	4798      	blx	r3
   80778:	bd08      	pop	{r3, pc}
   8077a:	bf00      	nop
   8077c:	00080681 	.word	0x00080681

00080780 <twi_start_drop_off>:
	/* No need to get data back */
}

void twi_start_drop_off(uint8_t *tx_buffer, uint8_t *rx_buffer)
{
   80780:	b508      	push	{r3, lr}
	tx_buffer[0] = TWI_CMD_DROP_OFF_START;
   80782:	2321      	movs	r3, #33	; 0x21
   80784:	7003      	strb	r3, [r0, #0]
	
	twi_send_packet(tx_buffer, SLAVE_ADDR_ARM);
   80786:	2102      	movs	r1, #2
   80788:	4b01      	ldr	r3, [pc, #4]	; (80790 <twi_start_drop_off+0x10>)
   8078a:	4798      	blx	r3
   8078c:	bd08      	pop	{r3, pc}
   8078e:	bf00      	nop
   80790:	00080681 	.word	0x00080681

00080794 <twi_check_pick_up_status>:
	/* Re-initialize arm */
	arlo_arm_init();
}

void twi_check_pick_up_status(uint8_t *tx_buffer, uint8_t *rx_buffer)
{
   80794:	b510      	push	{r4, lr}
   80796:	460c      	mov	r4, r1
	tx_buffer[0] = TWI_CMD_PICK_UP_STATUS;
   80798:	2324      	movs	r3, #36	; 0x24
   8079a:	7003      	strb	r3, [r0, #0]
	
	twi_send_packet(tx_buffer, SLAVE_ADDR_ARM);
   8079c:	2102      	movs	r1, #2
   8079e:	4b03      	ldr	r3, [pc, #12]	; (807ac <twi_check_pick_up_status+0x18>)
   807a0:	4798      	blx	r3
	twi_request_packet(rx_buffer, SLAVE_ADDR_ARM);
   807a2:	4620      	mov	r0, r4
   807a4:	2102      	movs	r1, #2
   807a6:	4b02      	ldr	r3, [pc, #8]	; (807b0 <twi_check_pick_up_status+0x1c>)
   807a8:	4798      	blx	r3
   807aa:	bd10      	pop	{r4, pc}
   807ac:	00080681 	.word	0x00080681
   807b0:	000806d5 	.word	0x000806d5

000807b4 <twi_check_drop_off_status>:
	
	/* Do something with the received data */
}

void twi_check_drop_off_status(uint8_t *tx_buffer, uint8_t *rx_buffer)
{
   807b4:	b510      	push	{r4, lr}
   807b6:	460c      	mov	r4, r1
	tx_buffer[0] = TWI_CMD_DROP_OFF_STATUS;
   807b8:	2323      	movs	r3, #35	; 0x23
   807ba:	7003      	strb	r3, [r0, #0]
	
	twi_send_packet(tx_buffer, SLAVE_ADDR_ARM);
   807bc:	2102      	movs	r1, #2
   807be:	4b03      	ldr	r3, [pc, #12]	; (807cc <twi_check_drop_off_status+0x18>)
   807c0:	4798      	blx	r3
	twi_request_packet(rx_buffer, SLAVE_ADDR_ARM);
   807c2:	4620      	mov	r0, r4
   807c4:	2102      	movs	r1, #2
   807c6:	4b02      	ldr	r3, [pc, #8]	; (807d0 <twi_check_drop_off_status+0x1c>)
   807c8:	4798      	blx	r3
   807ca:	bd10      	pop	{r4, pc}
   807cc:	00080681 	.word	0x00080681
   807d0:	000806d5 	.word	0x000806d5

000807d4 <twi_control_arm>:
	twi_send_packet(tx_nav_buffer, SLAVE_ADDR_NAV);
	twi_request_packet(rx_nav_buffer, SLAVE_ADDR_NAV);
}

void twi_control_arm(uint8_t *tx_buffer, uint8_t *rx_buffer)
{
   807d4:	b508      	push	{r3, lr}
	TWI_CMD twi_cmd_t = tx_buffer[0]; 
	switch (twi_cmd_t)
   807d6:	7803      	ldrb	r3, [r0, #0]
   807d8:	3b21      	subs	r3, #33	; 0x21
   807da:	2b04      	cmp	r3, #4
   807dc:	d812      	bhi.n	80804 <twi_control_arm+0x30>
   807de:	e8df f003 	tbb	[pc, r3]
   807e2:	0603      	.short	0x0603
   807e4:	0c09      	.short	0x0c09
   807e6:	0f          	.byte	0x0f
   807e7:	00          	.byte	0x00
	{
		case TWI_CMD_DROP_OFF_START:
		twi_start_drop_off(tx_buffer, rx_buffer);
   807e8:	4b07      	ldr	r3, [pc, #28]	; (80808 <twi_control_arm+0x34>)
   807ea:	4798      	blx	r3
		break;
   807ec:	bd08      	pop	{r3, pc}
		case TWI_CMD_PICK_UP_START:
		twi_start_pick_up(tx_buffer, rx_buffer);
   807ee:	4b07      	ldr	r3, [pc, #28]	; (8080c <twi_control_arm+0x38>)
   807f0:	4798      	blx	r3
		break;
   807f2:	bd08      	pop	{r3, pc}
		case TWI_CMD_DROP_OFF_STATUS:
		twi_check_drop_off_status(tx_buffer, rx_buffer);
   807f4:	4b06      	ldr	r3, [pc, #24]	; (80810 <twi_control_arm+0x3c>)
   807f6:	4798      	blx	r3
		break;
   807f8:	bd08      	pop	{r3, pc}
		case TWI_CMD_PICK_UP_STATUS:
		twi_check_pick_up_status(tx_buffer, rx_buffer);
   807fa:	4b06      	ldr	r3, [pc, #24]	; (80814 <twi_control_arm+0x40>)
   807fc:	4798      	blx	r3
		break;
   807fe:	bd08      	pop	{r3, pc}
}

void twi_reset_arm(uint8_t *tx_buffer, uint8_t *rx_buffer)
{
	/* Re-initialize arm */
	arlo_arm_init();
   80800:	4b05      	ldr	r3, [pc, #20]	; (80818 <twi_control_arm+0x44>)
   80802:	4798      	blx	r3
   80804:	bd08      	pop	{r3, pc}
   80806:	bf00      	nop
   80808:	00080781 	.word	0x00080781
   8080c:	0008076d 	.word	0x0008076d
   80810:	000807b5 	.word	0x000807b5
   80814:	00080795 	.word	0x00080795
   80818:	00080149 	.word	0x00080149

0008081c <usart_serial_getchar>:
 * \param p_usart   Base address of the USART instance.
 * \param data   Data to read
 *
 */
static inline void usart_serial_getchar(usart_if p_usart, uint8_t *data)
{
   8081c:	b5f0      	push	{r4, r5, r6, r7, lr}
   8081e:	b083      	sub	sp, #12
   80820:	4604      	mov	r4, r0
   80822:	460d      	mov	r5, r1
	uint32_t val = 0;
   80824:	2300      	movs	r3, #0
   80826:	9301      	str	r3, [sp, #4]

	/* Avoid Cppcheck Warning */
	UNUSED(val);

#ifdef UART
	if (UART == (Uart*)p_usart) {
   80828:	4b1f      	ldr	r3, [pc, #124]	; (808a8 <usart_serial_getchar+0x8c>)
   8082a:	4298      	cmp	r0, r3
   8082c:	d107      	bne.n	8083e <usart_serial_getchar+0x22>
		while (uart_read((Uart*)p_usart, data));
   8082e:	461f      	mov	r7, r3
   80830:	4e1e      	ldr	r6, [pc, #120]	; (808ac <usart_serial_getchar+0x90>)
   80832:	4638      	mov	r0, r7
   80834:	4629      	mov	r1, r5
   80836:	47b0      	blx	r6
   80838:	2800      	cmp	r0, #0
   8083a:	d1fa      	bne.n	80832 <usart_serial_getchar+0x16>
   8083c:	e019      	b.n	80872 <usart_serial_getchar+0x56>
		while (usart_read(p_usart, &val));
		*data = (uint8_t)(val & 0xFF);
	}
#else
# ifdef USART0
	if (USART0 == p_usart) {
   8083e:	4b1c      	ldr	r3, [pc, #112]	; (808b0 <usart_serial_getchar+0x94>)
   80840:	4298      	cmp	r0, r3
   80842:	d109      	bne.n	80858 <usart_serial_getchar+0x3c>
		while (usart_read(p_usart, &val));
   80844:	461f      	mov	r7, r3
   80846:	4e1b      	ldr	r6, [pc, #108]	; (808b4 <usart_serial_getchar+0x98>)
   80848:	4638      	mov	r0, r7
   8084a:	a901      	add	r1, sp, #4
   8084c:	47b0      	blx	r6
   8084e:	2800      	cmp	r0, #0
   80850:	d1fa      	bne.n	80848 <usart_serial_getchar+0x2c>
		*data = (uint8_t)(val & 0xFF);
   80852:	9b01      	ldr	r3, [sp, #4]
   80854:	702b      	strb	r3, [r5, #0]
   80856:	e019      	b.n	8088c <usart_serial_getchar+0x70>
	}
# endif
# ifdef USART1
	if (USART1 == p_usart) {
   80858:	4b17      	ldr	r3, [pc, #92]	; (808b8 <usart_serial_getchar+0x9c>)
   8085a:	4298      	cmp	r0, r3
   8085c:	d109      	bne.n	80872 <usart_serial_getchar+0x56>
		while (usart_read(p_usart, &val));
   8085e:	461e      	mov	r6, r3
   80860:	4c14      	ldr	r4, [pc, #80]	; (808b4 <usart_serial_getchar+0x98>)
   80862:	4630      	mov	r0, r6
   80864:	a901      	add	r1, sp, #4
   80866:	47a0      	blx	r4
   80868:	2800      	cmp	r0, #0
   8086a:	d1fa      	bne.n	80862 <usart_serial_getchar+0x46>
		*data = (uint8_t)(val & 0xFF);
   8086c:	9b01      	ldr	r3, [sp, #4]
   8086e:	702b      	strb	r3, [r5, #0]
   80870:	e018      	b.n	808a4 <usart_serial_getchar+0x88>
	}
# endif
# ifdef USART2
	if (USART2 == p_usart) {
   80872:	4b12      	ldr	r3, [pc, #72]	; (808bc <usart_serial_getchar+0xa0>)
   80874:	429c      	cmp	r4, r3
   80876:	d109      	bne.n	8088c <usart_serial_getchar+0x70>
		while (usart_read(p_usart, &val));
   80878:	461e      	mov	r6, r3
   8087a:	4c0e      	ldr	r4, [pc, #56]	; (808b4 <usart_serial_getchar+0x98>)
   8087c:	4630      	mov	r0, r6
   8087e:	a901      	add	r1, sp, #4
   80880:	47a0      	blx	r4
   80882:	2800      	cmp	r0, #0
   80884:	d1fa      	bne.n	8087c <usart_serial_getchar+0x60>
		*data = (uint8_t)(val & 0xFF);
   80886:	9b01      	ldr	r3, [sp, #4]
   80888:	702b      	strb	r3, [r5, #0]
   8088a:	e00b      	b.n	808a4 <usart_serial_getchar+0x88>
	}
# endif
# ifdef USART3
	if (USART3 == p_usart) {
   8088c:	4b0c      	ldr	r3, [pc, #48]	; (808c0 <usart_serial_getchar+0xa4>)
   8088e:	429c      	cmp	r4, r3
   80890:	d108      	bne.n	808a4 <usart_serial_getchar+0x88>
		while (usart_read(p_usart, &val));
   80892:	461e      	mov	r6, r3
   80894:	4c07      	ldr	r4, [pc, #28]	; (808b4 <usart_serial_getchar+0x98>)
   80896:	4630      	mov	r0, r6
   80898:	a901      	add	r1, sp, #4
   8089a:	47a0      	blx	r4
   8089c:	2800      	cmp	r0, #0
   8089e:	d1fa      	bne.n	80896 <usart_serial_getchar+0x7a>
		*data = (uint8_t)(val & 0xFF);
   808a0:	9b01      	ldr	r3, [sp, #4]
   808a2:	702b      	strb	r3, [r5, #0]
		*data = (uint8_t)(val & 0xFF);
	}
# endif
#endif /* ifdef USART */

}
   808a4:	b003      	add	sp, #12
   808a6:	bdf0      	pop	{r4, r5, r6, r7, pc}
   808a8:	400e0800 	.word	0x400e0800
   808ac:	0008105d 	.word	0x0008105d
   808b0:	40098000 	.word	0x40098000
   808b4:	00080fa9 	.word	0x00080fa9
   808b8:	4009c000 	.word	0x4009c000
   808bc:	400a0000 	.word	0x400a0000
   808c0:	400a4000 	.word	0x400a4000

000808c4 <usart_serial_putchar>:
 *   \retval 1  The character was written.
 *   \retval 0  The function timed out before the USART transmitter became
 * ready to send.
 */
static inline int usart_serial_putchar(usart_if p_usart, const uint8_t c)
{
   808c4:	b570      	push	{r4, r5, r6, lr}
   808c6:	460c      	mov	r4, r1
#ifdef UART
	if (UART == (Uart*)p_usart) {
   808c8:	4b21      	ldr	r3, [pc, #132]	; (80950 <usart_serial_putchar+0x8c>)
   808ca:	4298      	cmp	r0, r3
   808cc:	d107      	bne.n	808de <usart_serial_putchar+0x1a>
		while (uart_write((Uart*)p_usart, c)!=0);
   808ce:	461e      	mov	r6, r3
   808d0:	4d20      	ldr	r5, [pc, #128]	; (80954 <usart_serial_putchar+0x90>)
   808d2:	4630      	mov	r0, r6
   808d4:	4621      	mov	r1, r4
   808d6:	47a8      	blx	r5
   808d8:	2800      	cmp	r0, #0
   808da:	d1fa      	bne.n	808d2 <usart_serial_putchar+0xe>
   808dc:	e02b      	b.n	80936 <usart_serial_putchar+0x72>
		while (usart_write(p_usart, c)!=0);
		return 1;
	}
#else
# ifdef USART0
	if (USART0 == p_usart) {
   808de:	4b1e      	ldr	r3, [pc, #120]	; (80958 <usart_serial_putchar+0x94>)
   808e0:	4298      	cmp	r0, r3
   808e2:	d107      	bne.n	808f4 <usart_serial_putchar+0x30>
		while (usart_write(p_usart, c)!=0);
   808e4:	461e      	mov	r6, r3
   808e6:	4d1d      	ldr	r5, [pc, #116]	; (8095c <usart_serial_putchar+0x98>)
   808e8:	4630      	mov	r0, r6
   808ea:	4621      	mov	r1, r4
   808ec:	47a8      	blx	r5
   808ee:	2800      	cmp	r0, #0
   808f0:	d1fa      	bne.n	808e8 <usart_serial_putchar+0x24>
   808f2:	e022      	b.n	8093a <usart_serial_putchar+0x76>
		return 1;
	}
# endif
# ifdef USART1
	if (USART1 == p_usart) {
   808f4:	4b1a      	ldr	r3, [pc, #104]	; (80960 <usart_serial_putchar+0x9c>)
   808f6:	4298      	cmp	r0, r3
   808f8:	d107      	bne.n	8090a <usart_serial_putchar+0x46>
		while (usart_write(p_usart, c)!=0);
   808fa:	461e      	mov	r6, r3
   808fc:	4d17      	ldr	r5, [pc, #92]	; (8095c <usart_serial_putchar+0x98>)
   808fe:	4630      	mov	r0, r6
   80900:	4621      	mov	r1, r4
   80902:	47a8      	blx	r5
   80904:	2800      	cmp	r0, #0
   80906:	d1fa      	bne.n	808fe <usart_serial_putchar+0x3a>
   80908:	e019      	b.n	8093e <usart_serial_putchar+0x7a>
		return 1;
	}
# endif
# ifdef USART2
	if (USART2 == p_usart) {
   8090a:	4b16      	ldr	r3, [pc, #88]	; (80964 <usart_serial_putchar+0xa0>)
   8090c:	4298      	cmp	r0, r3
   8090e:	d107      	bne.n	80920 <usart_serial_putchar+0x5c>
		while (usart_write(p_usart, c)!=0);
   80910:	461e      	mov	r6, r3
   80912:	4d12      	ldr	r5, [pc, #72]	; (8095c <usart_serial_putchar+0x98>)
   80914:	4630      	mov	r0, r6
   80916:	4621      	mov	r1, r4
   80918:	47a8      	blx	r5
   8091a:	2800      	cmp	r0, #0
   8091c:	d1fa      	bne.n	80914 <usart_serial_putchar+0x50>
   8091e:	e010      	b.n	80942 <usart_serial_putchar+0x7e>
		return 1;
	}
# endif
# ifdef USART3
	if (USART3 == p_usart) {
   80920:	4b11      	ldr	r3, [pc, #68]	; (80968 <usart_serial_putchar+0xa4>)
   80922:	4298      	cmp	r0, r3
   80924:	d10f      	bne.n	80946 <usart_serial_putchar+0x82>
		while (usart_write(p_usart, c)!=0);
   80926:	461e      	mov	r6, r3
   80928:	4d0c      	ldr	r5, [pc, #48]	; (8095c <usart_serial_putchar+0x98>)
   8092a:	4630      	mov	r0, r6
   8092c:	4621      	mov	r1, r4
   8092e:	47a8      	blx	r5
   80930:	2800      	cmp	r0, #0
   80932:	d1fa      	bne.n	8092a <usart_serial_putchar+0x66>
   80934:	e009      	b.n	8094a <usart_serial_putchar+0x86>
static inline int usart_serial_putchar(usart_if p_usart, const uint8_t c)
{
#ifdef UART
	if (UART == (Uart*)p_usart) {
		while (uart_write((Uart*)p_usart, c)!=0);
		return 1;
   80936:	2001      	movs	r0, #1
   80938:	bd70      	pop	{r4, r5, r6, pc}
	}
#else
# ifdef USART0
	if (USART0 == p_usart) {
		while (usart_write(p_usart, c)!=0);
		return 1;
   8093a:	2001      	movs	r0, #1
   8093c:	bd70      	pop	{r4, r5, r6, pc}
	}
# endif
# ifdef USART1
	if (USART1 == p_usart) {
		while (usart_write(p_usart, c)!=0);
		return 1;
   8093e:	2001      	movs	r0, #1
   80940:	bd70      	pop	{r4, r5, r6, pc}
	}
# endif
# ifdef USART2
	if (USART2 == p_usart) {
		while (usart_write(p_usart, c)!=0);
		return 1;
   80942:	2001      	movs	r0, #1
   80944:	bd70      	pop	{r4, r5, r6, pc}
		return 1;
	}
# endif
#endif /* ifdef USART */

	return 0;
   80946:	2000      	movs	r0, #0
   80948:	bd70      	pop	{r4, r5, r6, pc}
	}
# endif
# ifdef USART3
	if (USART3 == p_usart) {
		while (usart_write(p_usart, c)!=0);
		return 1;
   8094a:	2001      	movs	r0, #1
	}
# endif
#endif /* ifdef USART */

	return 0;
}
   8094c:	bd70      	pop	{r4, r5, r6, pc}
   8094e:	bf00      	nop
   80950:	400e0800 	.word	0x400e0800
   80954:	0008104d 	.word	0x0008104d
   80958:	40098000 	.word	0x40098000
   8095c:	00080f95 	.word	0x00080f95
   80960:	4009c000 	.word	0x4009c000
   80964:	400a0000 	.word	0x400a0000
   80968:	400a4000 	.word	0x400a4000

0008096c <configureConsole>:
#include "conf_board.h"
#include "consoleFunctions.h"

void configureConsole(void)
/* Enables feedback through the USB-cable back to terminal within Atmel Studio */
{
   8096c:	b530      	push	{r4, r5, lr}
   8096e:	b085      	sub	sp, #20
   80970:	2008      	movs	r0, #8
   80972:	4d12      	ldr	r5, [pc, #72]	; (809bc <configureConsole+0x50>)
   80974:	47a8      	blx	r5
 * \param opt         Options needed to set up RS232 communication (see \ref usart_options_t).
 *
 */
static inline void stdio_serial_init(volatile void *usart, const usart_serial_options_t *opt)
{
	stdio_base = (void *)usart;
   80976:	4c12      	ldr	r4, [pc, #72]	; (809c0 <configureConsole+0x54>)
   80978:	4b12      	ldr	r3, [pc, #72]	; (809c4 <configureConsole+0x58>)
   8097a:	601c      	str	r4, [r3, #0]
	ptr_put = (int (*)(void volatile*,char))&usart_serial_putchar;
   8097c:	4a12      	ldr	r2, [pc, #72]	; (809c8 <configureConsole+0x5c>)
   8097e:	4b13      	ldr	r3, [pc, #76]	; (809cc <configureConsole+0x60>)
   80980:	601a      	str	r2, [r3, #0]
	ptr_get = (void (*)(void volatile*,char*))&usart_serial_getchar;
   80982:	4a13      	ldr	r2, [pc, #76]	; (809d0 <configureConsole+0x64>)
   80984:	4b13      	ldr	r3, [pc, #76]	; (809d4 <configureConsole+0x68>)
   80986:	601a      	str	r2, [r3, #0]
static inline void usart_serial_init(usart_if p_usart,
		usart_serial_options_t *opt)
{
#if ((!SAM4L) && (!SAMG55))
	sam_uart_opt_t uart_settings;
	uart_settings.ul_mck = sysclk_get_peripheral_hz();
   80988:	4b13      	ldr	r3, [pc, #76]	; (809d8 <configureConsole+0x6c>)
   8098a:	9301      	str	r3, [sp, #4]
	uart_settings.ul_baudrate = opt->baudrate;
   8098c:	f44f 33e1 	mov.w	r3, #115200	; 0x1c200
   80990:	9302      	str	r3, [sp, #8]
	uart_settings.ul_mode = opt->paritytype;
   80992:	f44f 6300 	mov.w	r3, #2048	; 0x800
   80996:	9303      	str	r3, [sp, #12]
   80998:	2008      	movs	r0, #8
   8099a:	47a8      	blx	r5
	
#ifdef UART
	if (UART == (Uart*)p_usart) {
		sysclk_enable_peripheral_clock(ID_UART);
		/* Configure UART */
		uart_init((Uart*)p_usart, &uart_settings);
   8099c:	4620      	mov	r0, r4
   8099e:	a901      	add	r1, sp, #4
   809a0:	4b0e      	ldr	r3, [pc, #56]	; (809dc <configureConsole+0x70>)
   809a2:	4798      	blx	r3
	fdevopen((int (*)(char, FILE*))(_write),(int (*)(FILE*))(_read));
#  endif
#  if UC3 || SAM
	// For AVR32 and SAM GCC
	// Specify that stdout and stdin should not be buffered.
	setbuf(stdout, NULL);
   809a4:	4d0e      	ldr	r5, [pc, #56]	; (809e0 <configureConsole+0x74>)
   809a6:	682b      	ldr	r3, [r5, #0]
   809a8:	6898      	ldr	r0, [r3, #8]
   809aa:	2100      	movs	r1, #0
   809ac:	4c0d      	ldr	r4, [pc, #52]	; (809e4 <configureConsole+0x78>)
   809ae:	47a0      	blx	r4
	setbuf(stdin, NULL);
   809b0:	682b      	ldr	r3, [r5, #0]
   809b2:	6858      	ldr	r0, [r3, #4]
   809b4:	2100      	movs	r1, #0
   809b6:	47a0      	blx	r4

	/* Configure console UART. */
	sysclk_enable_peripheral_clock(CONSOLE_UART_ID);
	stdio_serial_init(CONF_UART, &uart_serial_options);
	
   809b8:	b005      	add	sp, #20
   809ba:	bd30      	pop	{r4, r5, pc}
   809bc:	000836ad 	.word	0x000836ad
   809c0:	400e0800 	.word	0x400e0800
   809c4:	20078d5c 	.word	0x20078d5c
   809c8:	000808c5 	.word	0x000808c5
   809cc:	20078d58 	.word	0x20078d58
   809d0:	0008081d 	.word	0x0008081d
   809d4:	20078cd8 	.word	0x20078cd8
   809d8:	0501bd00 	.word	0x0501bd00
   809dc:	00081015 	.word	0x00081015
   809e0:	200705a0 	.word	0x200705a0
   809e4:	00084b61 	.word	0x00084b61

000809e8 <calculateDistance>:
   809e8:	e92d 4ff8 	stmdb	sp!, {r3, r4, r5, r6, r7, r8, r9, sl, fp, lr}
   809ec:	4606      	mov	r6, r0
   809ee:	460f      	mov	r7, r1
   809f0:	4614      	mov	r4, r2
   809f2:	461d      	mov	r5, r3
   809f4:	f8df a054 	ldr.w	sl, [pc, #84]	; 80a4c <calculateDistance+0x64>
   809f8:	e9dd 010a 	ldrd	r0, r1, [sp, #40]	; 0x28
   809fc:	4632      	mov	r2, r6
   809fe:	463b      	mov	r3, r7
   80a00:	47d0      	blx	sl
   80a02:	4680      	mov	r8, r0
   80a04:	4689      	mov	r9, r1
   80a06:	e9dd 010c 	ldrd	r0, r1, [sp, #48]	; 0x30
   80a0a:	4622      	mov	r2, r4
   80a0c:	462b      	mov	r3, r5
   80a0e:	47d0      	blx	sl
   80a10:	4604      	mov	r4, r0
   80a12:	460d      	mov	r5, r1
   80a14:	f8df a038 	ldr.w	sl, [pc, #56]	; 80a50 <calculateDistance+0x68>
   80a18:	f8df b038 	ldr.w	fp, [pc, #56]	; 80a54 <calculateDistance+0x6c>
   80a1c:	4640      	mov	r0, r8
   80a1e:	4649      	mov	r1, r9
   80a20:	4642      	mov	r2, r8
   80a22:	464b      	mov	r3, r9
   80a24:	47d0      	blx	sl
   80a26:	4606      	mov	r6, r0
   80a28:	460f      	mov	r7, r1
   80a2a:	4620      	mov	r0, r4
   80a2c:	4629      	mov	r1, r5
   80a2e:	4622      	mov	r2, r4
   80a30:	462b      	mov	r3, r5
   80a32:	47d0      	blx	sl
   80a34:	4602      	mov	r2, r0
   80a36:	460b      	mov	r3, r1
   80a38:	4630      	mov	r0, r6
   80a3a:	4639      	mov	r1, r7
   80a3c:	47d8      	blx	fp
   80a3e:	4b02      	ldr	r3, [pc, #8]	; (80a48 <calculateDistance+0x60>)
   80a40:	4798      	blx	r3
   80a42:	e8bd 8ff8 	ldmia.w	sp!, {r3, r4, r5, r6, r7, r8, r9, sl, fp, pc}
   80a46:	bf00      	nop
   80a48:	00083da9 	.word	0x00083da9
   80a4c:	00084031 	.word	0x00084031
   80a50:	00084399 	.word	0x00084399
   80a54:	00084035 	.word	0x00084035

00080a58 <calculateAzimuthAngle>:
   80a58:	e92d 41f0 	stmdb	sp!, {r4, r5, r6, r7, r8, lr}
   80a5c:	4604      	mov	r4, r0
   80a5e:	460d      	mov	r5, r1
   80a60:	4616      	mov	r6, r2
   80a62:	461f      	mov	r7, r3
   80a64:	f8df 81f4 	ldr.w	r8, [pc, #500]	; 80c5c <calculateAzimuthAngle+0x204>
   80a68:	e9dd 0106 	ldrd	r0, r1, [sp, #24]
   80a6c:	4622      	mov	r2, r4
   80a6e:	462b      	mov	r3, r5
   80a70:	47c0      	blx	r8
   80a72:	4604      	mov	r4, r0
   80a74:	460d      	mov	r5, r1
   80a76:	e9dd 0108 	ldrd	r0, r1, [sp, #32]
   80a7a:	4632      	mov	r2, r6
   80a7c:	463b      	mov	r3, r7
   80a7e:	47c0      	blx	r8
   80a80:	4606      	mov	r6, r0
   80a82:	460f      	mov	r7, r1
   80a84:	4620      	mov	r0, r4
   80a86:	4629      	mov	r1, r5
   80a88:	2200      	movs	r2, #0
   80a8a:	2300      	movs	r3, #0
   80a8c:	f8df c1a8 	ldr.w	ip, [pc, #424]	; 80c38 <calculateAzimuthAngle+0x1e0>
   80a90:	47e0      	blx	ip
   80a92:	b1a8      	cbz	r0, 80ac0 <calculateAzimuthAngle+0x68>
   80a94:	4630      	mov	r0, r6
   80a96:	4639      	mov	r1, r7
   80a98:	2200      	movs	r2, #0
   80a9a:	2300      	movs	r3, #0
   80a9c:	4c66      	ldr	r4, [pc, #408]	; (80c38 <calculateAzimuthAngle+0x1e0>)
   80a9e:	47a0      	blx	r4
   80aa0:	2800      	cmp	r0, #0
   80aa2:	f040 80aa 	bne.w	80bfa <calculateAzimuthAngle+0x1a2>
   80aa6:	4630      	mov	r0, r6
   80aa8:	4639      	mov	r1, r7
   80aaa:	2200      	movs	r2, #0
   80aac:	2300      	movs	r3, #0
   80aae:	4c63      	ldr	r4, [pc, #396]	; (80c3c <calculateAzimuthAngle+0x1e4>)
   80ab0:	47a0      	blx	r4
   80ab2:	2800      	cmp	r0, #0
   80ab4:	f000 80a5 	beq.w	80c02 <calculateAzimuthAngle+0x1aa>
   80ab8:	2000      	movs	r0, #0
   80aba:	2100      	movs	r1, #0
   80abc:	e8bd 81f0 	ldmia.w	sp!, {r4, r5, r6, r7, r8, pc}
   80ac0:	4630      	mov	r0, r6
   80ac2:	4639      	mov	r1, r7
   80ac4:	2200      	movs	r2, #0
   80ac6:	2300      	movs	r3, #0
   80ac8:	f8df c16c 	ldr.w	ip, [pc, #364]	; 80c38 <calculateAzimuthAngle+0x1e0>
   80acc:	47e0      	blx	ip
   80ace:	b160      	cbz	r0, 80aea <calculateAzimuthAngle+0x92>
   80ad0:	4620      	mov	r0, r4
   80ad2:	4629      	mov	r1, r5
   80ad4:	2200      	movs	r2, #0
   80ad6:	2300      	movs	r3, #0
   80ad8:	4c58      	ldr	r4, [pc, #352]	; (80c3c <calculateAzimuthAngle+0x1e4>)
   80ada:	47a0      	blx	r4
   80adc:	2800      	cmp	r0, #0
   80ade:	f000 8094 	beq.w	80c0a <calculateAzimuthAngle+0x1b2>
   80ae2:	2000      	movs	r0, #0
   80ae4:	4956      	ldr	r1, [pc, #344]	; (80c40 <calculateAzimuthAngle+0x1e8>)
   80ae6:	e8bd 81f0 	ldmia.w	sp!, {r4, r5, r6, r7, r8, pc}
   80aea:	4620      	mov	r0, r4
   80aec:	4629      	mov	r1, r5
   80aee:	2200      	movs	r2, #0
   80af0:	2300      	movs	r3, #0
   80af2:	f8df c148 	ldr.w	ip, [pc, #328]	; 80c3c <calculateAzimuthAngle+0x1e4>
   80af6:	47e0      	blx	ip
   80af8:	b1b0      	cbz	r0, 80b28 <calculateAzimuthAngle+0xd0>
   80afa:	4630      	mov	r0, r6
   80afc:	4639      	mov	r1, r7
   80afe:	2200      	movs	r2, #0
   80b00:	2300      	movs	r3, #0
   80b02:	f8df c138 	ldr.w	ip, [pc, #312]	; 80c3c <calculateAzimuthAngle+0x1e4>
   80b06:	47e0      	blx	ip
   80b08:	b1b0      	cbz	r0, 80b38 <calculateAzimuthAngle+0xe0>
   80b0a:	4620      	mov	r0, r4
   80b0c:	4629      	mov	r1, r5
   80b0e:	4632      	mov	r2, r6
   80b10:	463b      	mov	r3, r7
   80b12:	4c4c      	ldr	r4, [pc, #304]	; (80c44 <calculateAzimuthAngle+0x1ec>)
   80b14:	47a0      	blx	r4
   80b16:	4b4c      	ldr	r3, [pc, #304]	; (80c48 <calculateAzimuthAngle+0x1f0>)
   80b18:	4798      	blx	r3
   80b1a:	a343      	add	r3, pc, #268	; (adr r3, 80c28 <calculateAzimuthAngle+0x1d0>)
   80b1c:	e9d3 2300 	ldrd	r2, r3, [r3]
   80b20:	4c4a      	ldr	r4, [pc, #296]	; (80c4c <calculateAzimuthAngle+0x1f4>)
   80b22:	47a0      	blx	r4
   80b24:	e8bd 81f0 	ldmia.w	sp!, {r4, r5, r6, r7, r8, pc}
   80b28:	4620      	mov	r0, r4
   80b2a:	4629      	mov	r1, r5
   80b2c:	2200      	movs	r2, #0
   80b2e:	2300      	movs	r3, #0
   80b30:	f8df c108 	ldr.w	ip, [pc, #264]	; 80c3c <calculateAzimuthAngle+0x1e4>
   80b34:	47e0      	blx	ip
   80b36:	b1d0      	cbz	r0, 80b6e <calculateAzimuthAngle+0x116>
   80b38:	4630      	mov	r0, r6
   80b3a:	4639      	mov	r1, r7
   80b3c:	2200      	movs	r2, #0
   80b3e:	2300      	movs	r3, #0
   80b40:	f8df c11c 	ldr.w	ip, [pc, #284]	; 80c60 <calculateAzimuthAngle+0x208>
   80b44:	47e0      	blx	ip
   80b46:	b190      	cbz	r0, 80b6e <calculateAzimuthAngle+0x116>
   80b48:	4620      	mov	r0, r4
   80b4a:	4629      	mov	r1, r5
   80b4c:	4632      	mov	r2, r6
   80b4e:	463b      	mov	r3, r7
   80b50:	4c3c      	ldr	r4, [pc, #240]	; (80c44 <calculateAzimuthAngle+0x1ec>)
   80b52:	47a0      	blx	r4
   80b54:	4b3c      	ldr	r3, [pc, #240]	; (80c48 <calculateAzimuthAngle+0x1f0>)
   80b56:	4798      	blx	r3
   80b58:	a333      	add	r3, pc, #204	; (adr r3, 80c28 <calculateAzimuthAngle+0x1d0>)
   80b5a:	e9d3 2300 	ldrd	r2, r3, [r3]
   80b5e:	4c3b      	ldr	r4, [pc, #236]	; (80c4c <calculateAzimuthAngle+0x1f4>)
   80b60:	47a0      	blx	r4
   80b62:	2200      	movs	r2, #0
   80b64:	4b3a      	ldr	r3, [pc, #232]	; (80c50 <calculateAzimuthAngle+0x1f8>)
   80b66:	4c3b      	ldr	r4, [pc, #236]	; (80c54 <calculateAzimuthAngle+0x1fc>)
   80b68:	47a0      	blx	r4
   80b6a:	e8bd 81f0 	ldmia.w	sp!, {r4, r5, r6, r7, r8, pc}
   80b6e:	4620      	mov	r0, r4
   80b70:	4629      	mov	r1, r5
   80b72:	2200      	movs	r2, #0
   80b74:	2300      	movs	r3, #0
   80b76:	f8df c0e8 	ldr.w	ip, [pc, #232]	; 80c60 <calculateAzimuthAngle+0x208>
   80b7a:	47e0      	blx	ip
   80b7c:	b1d0      	cbz	r0, 80bb4 <calculateAzimuthAngle+0x15c>
   80b7e:	4630      	mov	r0, r6
   80b80:	4639      	mov	r1, r7
   80b82:	2200      	movs	r2, #0
   80b84:	2300      	movs	r3, #0
   80b86:	f8df c0d8 	ldr.w	ip, [pc, #216]	; 80c60 <calculateAzimuthAngle+0x208>
   80b8a:	47e0      	blx	ip
   80b8c:	b1d0      	cbz	r0, 80bc4 <calculateAzimuthAngle+0x16c>
   80b8e:	4620      	mov	r0, r4
   80b90:	4629      	mov	r1, r5
   80b92:	4632      	mov	r2, r6
   80b94:	463b      	mov	r3, r7
   80b96:	4c2b      	ldr	r4, [pc, #172]	; (80c44 <calculateAzimuthAngle+0x1ec>)
   80b98:	47a0      	blx	r4
   80b9a:	4b2b      	ldr	r3, [pc, #172]	; (80c48 <calculateAzimuthAngle+0x1f0>)
   80b9c:	4798      	blx	r3
   80b9e:	a322      	add	r3, pc, #136	; (adr r3, 80c28 <calculateAzimuthAngle+0x1d0>)
   80ba0:	e9d3 2300 	ldrd	r2, r3, [r3]
   80ba4:	4c29      	ldr	r4, [pc, #164]	; (80c4c <calculateAzimuthAngle+0x1f4>)
   80ba6:	47a0      	blx	r4
   80ba8:	2200      	movs	r2, #0
   80baa:	4b29      	ldr	r3, [pc, #164]	; (80c50 <calculateAzimuthAngle+0x1f8>)
   80bac:	4c29      	ldr	r4, [pc, #164]	; (80c54 <calculateAzimuthAngle+0x1fc>)
   80bae:	47a0      	blx	r4
   80bb0:	e8bd 81f0 	ldmia.w	sp!, {r4, r5, r6, r7, r8, pc}
   80bb4:	4620      	mov	r0, r4
   80bb6:	4629      	mov	r1, r5
   80bb8:	2200      	movs	r2, #0
   80bba:	2300      	movs	r3, #0
   80bbc:	f8df c0a0 	ldr.w	ip, [pc, #160]	; 80c60 <calculateAzimuthAngle+0x208>
   80bc0:	47e0      	blx	ip
   80bc2:	b338      	cbz	r0, 80c14 <calculateAzimuthAngle+0x1bc>
   80bc4:	4630      	mov	r0, r6
   80bc6:	4639      	mov	r1, r7
   80bc8:	2200      	movs	r2, #0
   80bca:	2300      	movs	r3, #0
   80bcc:	f8df c06c 	ldr.w	ip, [pc, #108]	; 80c3c <calculateAzimuthAngle+0x1e4>
   80bd0:	47e0      	blx	ip
   80bd2:	b318      	cbz	r0, 80c1c <calculateAzimuthAngle+0x1c4>
   80bd4:	4620      	mov	r0, r4
   80bd6:	4629      	mov	r1, r5
   80bd8:	4632      	mov	r2, r6
   80bda:	463b      	mov	r3, r7
   80bdc:	4c19      	ldr	r4, [pc, #100]	; (80c44 <calculateAzimuthAngle+0x1ec>)
   80bde:	47a0      	blx	r4
   80be0:	4b19      	ldr	r3, [pc, #100]	; (80c48 <calculateAzimuthAngle+0x1f0>)
   80be2:	4798      	blx	r3
   80be4:	a310      	add	r3, pc, #64	; (adr r3, 80c28 <calculateAzimuthAngle+0x1d0>)
   80be6:	e9d3 2300 	ldrd	r2, r3, [r3]
   80bea:	4c18      	ldr	r4, [pc, #96]	; (80c4c <calculateAzimuthAngle+0x1f4>)
   80bec:	47a0      	blx	r4
   80bee:	2200      	movs	r2, #0
   80bf0:	4b19      	ldr	r3, [pc, #100]	; (80c58 <calculateAzimuthAngle+0x200>)
   80bf2:	4c18      	ldr	r4, [pc, #96]	; (80c54 <calculateAzimuthAngle+0x1fc>)
   80bf4:	47a0      	blx	r4
   80bf6:	e8bd 81f0 	ldmia.w	sp!, {r4, r5, r6, r7, r8, pc}
   80bfa:	2000      	movs	r0, #0
   80bfc:	2100      	movs	r1, #0
   80bfe:	e8bd 81f0 	ldmia.w	sp!, {r4, r5, r6, r7, r8, pc}
   80c02:	2000      	movs	r0, #0
   80c04:	4912      	ldr	r1, [pc, #72]	; (80c50 <calculateAzimuthAngle+0x1f8>)
   80c06:	e8bd 81f0 	ldmia.w	sp!, {r4, r5, r6, r7, r8, pc}
   80c0a:	a109      	add	r1, pc, #36	; (adr r1, 80c30 <calculateAzimuthAngle+0x1d8>)
   80c0c:	e9d1 0100 	ldrd	r0, r1, [r1]
   80c10:	e8bd 81f0 	ldmia.w	sp!, {r4, r5, r6, r7, r8, pc}
   80c14:	2000      	movs	r0, #0
   80c16:	2100      	movs	r1, #0
   80c18:	e8bd 81f0 	ldmia.w	sp!, {r4, r5, r6, r7, r8, pc}
   80c1c:	2000      	movs	r0, #0
   80c1e:	2100      	movs	r1, #0
   80c20:	e8bd 81f0 	ldmia.w	sp!, {r4, r5, r6, r7, r8, pc}
   80c24:	f3af 8000 	nop.w
   80c28:	1a63c1f8 	.word	0x1a63c1f8
   80c2c:	404ca5dc 	.word	0x404ca5dc
   80c30:	00000000 	.word	0x00000000
   80c34:	4070e000 	.word	0x4070e000
   80c38:	00084869 	.word	0x00084869
   80c3c:	000848b9 	.word	0x000848b9
   80c40:	40568000 	.word	0x40568000
   80c44:	000845ed 	.word	0x000845ed
   80c48:	00083a51 	.word	0x00083a51
   80c4c:	00084399 	.word	0x00084399
   80c50:	40668000 	.word	0x40668000
   80c54:	00084035 	.word	0x00084035
   80c58:	40768000 	.word	0x40768000
   80c5c:	00084031 	.word	0x00084031
   80c60:	0008487d 	.word	0x0008487d
   80c64:	f3af 8000 	nop.w

00080c68 <calcluteRotationAngle>:
   80c68:	e92d 47f0 	stmdb	sp!, {r4, r5, r6, r7, r8, r9, sl, lr}
   80c6c:	b084      	sub	sp, #16
   80c6e:	e9dd 450c 	ldrd	r4, r5, [sp, #48]	; 0x30
   80c72:	e9dd 890e 	ldrd	r8, r9, [sp, #56]	; 0x38
   80c76:	e9cd 4500 	strd	r4, r5, [sp]
   80c7a:	e9cd 8902 	strd	r8, r9, [sp, #8]
   80c7e:	f8df a08c 	ldr.w	sl, [pc, #140]	; 80d0c <calcluteRotationAngle+0xa4>
   80c82:	47d0      	blx	sl
   80c84:	4606      	mov	r6, r0
   80c86:	460f      	mov	r7, r1
   80c88:	e9dd 2310 	ldrd	r2, r3, [sp, #64]	; 0x40
   80c8c:	e9cd 2300 	strd	r2, r3, [sp]
   80c90:	e9dd 2312 	ldrd	r2, r3, [sp, #72]	; 0x48
   80c94:	e9cd 2302 	strd	r2, r3, [sp, #8]
   80c98:	4620      	mov	r0, r4
   80c9a:	4629      	mov	r1, r5
   80c9c:	4642      	mov	r2, r8
   80c9e:	464b      	mov	r3, r9
   80ca0:	47d0      	blx	sl
   80ca2:	4632      	mov	r2, r6
   80ca4:	463b      	mov	r3, r7
   80ca6:	4c12      	ldr	r4, [pc, #72]	; (80cf0 <calcluteRotationAngle+0x88>)
   80ca8:	47a0      	blx	r4
   80caa:	4604      	mov	r4, r0
   80cac:	460d      	mov	r5, r1
   80cae:	2200      	movs	r2, #0
   80cb0:	4b10      	ldr	r3, [pc, #64]	; (80cf4 <calcluteRotationAngle+0x8c>)
   80cb2:	4e11      	ldr	r6, [pc, #68]	; (80cf8 <calcluteRotationAngle+0x90>)
   80cb4:	47b0      	blx	r6
   80cb6:	b138      	cbz	r0, 80cc8 <calcluteRotationAngle+0x60>
   80cb8:	4620      	mov	r0, r4
   80cba:	4629      	mov	r1, r5
   80cbc:	2200      	movs	r2, #0
   80cbe:	4b0f      	ldr	r3, [pc, #60]	; (80cfc <calcluteRotationAngle+0x94>)
   80cc0:	4c0b      	ldr	r4, [pc, #44]	; (80cf0 <calcluteRotationAngle+0x88>)
   80cc2:	47a0      	blx	r4
   80cc4:	4604      	mov	r4, r0
   80cc6:	460d      	mov	r5, r1
   80cc8:	4620      	mov	r0, r4
   80cca:	4629      	mov	r1, r5
   80ccc:	2200      	movs	r2, #0
   80cce:	4b0c      	ldr	r3, [pc, #48]	; (80d00 <calcluteRotationAngle+0x98>)
   80cd0:	4e0c      	ldr	r6, [pc, #48]	; (80d04 <calcluteRotationAngle+0x9c>)
   80cd2:	47b0      	blx	r6
   80cd4:	b138      	cbz	r0, 80ce6 <calcluteRotationAngle+0x7e>
   80cd6:	4620      	mov	r0, r4
   80cd8:	4629      	mov	r1, r5
   80cda:	2200      	movs	r2, #0
   80cdc:	4b07      	ldr	r3, [pc, #28]	; (80cfc <calcluteRotationAngle+0x94>)
   80cde:	4c0a      	ldr	r4, [pc, #40]	; (80d08 <calcluteRotationAngle+0xa0>)
   80ce0:	47a0      	blx	r4
   80ce2:	4604      	mov	r4, r0
   80ce4:	460d      	mov	r5, r1
   80ce6:	4620      	mov	r0, r4
   80ce8:	4629      	mov	r1, r5
   80cea:	b004      	add	sp, #16
   80cec:	e8bd 87f0 	ldmia.w	sp!, {r4, r5, r6, r7, r8, r9, sl, pc}
   80cf0:	00084031 	.word	0x00084031
   80cf4:	40668000 	.word	0x40668000
   80cf8:	000848b9 	.word	0x000848b9
   80cfc:	40768000 	.word	0x40768000
   80d00:	c0668000 	.word	0xc0668000
   80d04:	0008487d 	.word	0x0008487d
   80d08:	00084035 	.word	0x00084035
   80d0c:	00080a59 	.word	0x00080a59

00080d10 <initPin21>:
	
}

/* This method initialize channel instance and configure PWM channel 4 for pin 9,
selecting clock A as its source clock, setting the period at 8 ms and setting the duty cycle at 0% */
void initPin21(void){
   80d10:	b538      	push	{r3, r4, r5, lr}
	
	pio_configure_pin(PIN_21, PIO_TYPE_PIO_PERIPH_B);
   80d12:	2055      	movs	r0, #85	; 0x55
   80d14:	f04f 5180 	mov.w	r1, #268435456	; 0x10000000
   80d18:	4b0b      	ldr	r3, [pc, #44]	; (80d48 <initPin21+0x38>)
   80d1a:	4798      	blx	r3
	/*Pwm channel configuration such as channel, alignments, period, duty etc...*/
	PWM_pin_21.channel = PWM_CHANNEL_4;
   80d1c:	4b0b      	ldr	r3, [pc, #44]	; (80d4c <initPin21+0x3c>)
   80d1e:	2404      	movs	r4, #4
   80d20:	601c      	str	r4, [r3, #0]
	PWM_pin_21.ul_prescaler = PWM_CMR_CPRE_CLKA;
   80d22:	220b      	movs	r2, #11
   80d24:	605a      	str	r2, [r3, #4]
	PWM_pin_21.polarity = PWM_LOW;
   80d26:	2200      	movs	r2, #0
   80d28:	729a      	strb	r2, [r3, #10]
	PWM_pin_21.alignment = PWM_ALIGN_LEFT;
   80d2a:	811a      	strh	r2, [r3, #8]
	PWM_pin_21.ul_period = 7500;
   80d2c:	f641 514c 	movw	r1, #7500	; 0x1d4c
   80d30:	6119      	str	r1, [r3, #16]
	PWM_pin_21.ul_duty = 0;
   80d32:	60da      	str	r2, [r3, #12]
	
	/*Initializing channel after setting things up*/
	pwm_channel_init(PWM, &PWM_pin_21);
   80d34:	4d06      	ldr	r5, [pc, #24]	; (80d50 <initPin21+0x40>)
   80d36:	4628      	mov	r0, r5
   80d38:	4619      	mov	r1, r3
   80d3a:	4b06      	ldr	r3, [pc, #24]	; (80d54 <initPin21+0x44>)
   80d3c:	4798      	blx	r3
	
	/*Enabling pwm channel after initializing everything correct*/
	pwm_channel_enable(PWM, PWM_CHANNEL_4);
   80d3e:	4628      	mov	r0, r5
   80d40:	4621      	mov	r1, r4
   80d42:	4b05      	ldr	r3, [pc, #20]	; (80d58 <initPin21+0x48>)
   80d44:	4798      	blx	r3
   80d46:	bd38      	pop	{r3, r4, r5, pc}
   80d48:	0008336d 	.word	0x0008336d
   80d4c:	20078d2c 	.word	0x20078d2c
   80d50:	40094000 	.word	0x40094000
   80d54:	000802d9 	.word	0x000802d9
   80d58:	00080401 	.word	0x00080401

00080d5c <initPin22>:
}

/* This method initialize channel instance and configure PWM channel 5 for pin 8,
selecting clock A as its source clock, setting the period at 8 ms and setting the duty cycle at 0% */
void initPin22(void){
   80d5c:	b538      	push	{r3, r4, r5, lr}
	
	pio_configure_pin(PIN_22, PIO_TYPE_PIO_PERIPH_B);
   80d5e:	2056      	movs	r0, #86	; 0x56
   80d60:	f04f 5180 	mov.w	r1, #268435456	; 0x10000000
   80d64:	4b0b      	ldr	r3, [pc, #44]	; (80d94 <initPin22+0x38>)
   80d66:	4798      	blx	r3
	/*Pwm channel configuration such as channel, alignments, period, duty etc...*/
	PWM_pin_22.channel = PWM_CHANNEL_5;
   80d68:	4b0b      	ldr	r3, [pc, #44]	; (80d98 <initPin22+0x3c>)
   80d6a:	2405      	movs	r4, #5
   80d6c:	601c      	str	r4, [r3, #0]
	PWM_pin_22.ul_prescaler = PWM_CMR_CPRE_CLKA;
   80d6e:	220b      	movs	r2, #11
   80d70:	605a      	str	r2, [r3, #4]
	PWM_pin_22.polarity = PWM_LOW;
   80d72:	2200      	movs	r2, #0
   80d74:	729a      	strb	r2, [r3, #10]
	PWM_pin_22.alignment = PWM_ALIGN_LEFT;
   80d76:	811a      	strh	r2, [r3, #8]
	PWM_pin_22.ul_period = 7500;
   80d78:	f641 514c 	movw	r1, #7500	; 0x1d4c
   80d7c:	6119      	str	r1, [r3, #16]
	PWM_pin_22.ul_duty = 0;
   80d7e:	60da      	str	r2, [r3, #12]
	
	/*Initializing channel after setting things up*/
	pwm_channel_init(PWM, &PWM_pin_22);
   80d80:	4d06      	ldr	r5, [pc, #24]	; (80d9c <initPin22+0x40>)
   80d82:	4628      	mov	r0, r5
   80d84:	4619      	mov	r1, r3
   80d86:	4b06      	ldr	r3, [pc, #24]	; (80da0 <initPin22+0x44>)
   80d88:	4798      	blx	r3
	
	/*Enabling pwm channel after initializing everything correct*/
	pwm_channel_enable(PWM, PWM_CHANNEL_5);
   80d8a:	4628      	mov	r0, r5
   80d8c:	4621      	mov	r1, r4
   80d8e:	4b05      	ldr	r3, [pc, #20]	; (80da4 <initPin22+0x48>)
   80d90:	4798      	blx	r3
   80d92:	bd38      	pop	{r3, r4, r5, pc}
   80d94:	0008336d 	.word	0x0008336d
   80d98:	20078d04 	.word	0x20078d04
   80d9c:	40094000 	.word	0x40094000
   80da0:	000802d9 	.word	0x000802d9
   80da4:	00080401 	.word	0x00080401

00080da8 <PWM_init>:
pwm_channel_t PWM_pin_21;
pwm_channel_t PWM_pin_22;


/* This method configure PWM clock   */
void PWM_init(void){
   80da8:	b530      	push	{r4, r5, lr}
   80daa:	b085      	sub	sp, #20
	
	//Enable the module clock for the PWM peripheral
	pmc_enable_periph_clk(ID_PWM);
   80dac:	2024      	movs	r0, #36	; 0x24
   80dae:	4b0d      	ldr	r3, [pc, #52]	; (80de4 <PWM_init+0x3c>)
   80db0:	4798      	blx	r3
	
	/*Disable PWM channels for appropriate configuration*/
	pwm_channel_disable(PWM,PWM_CHANNEL_4);
   80db2:	4c0d      	ldr	r4, [pc, #52]	; (80de8 <PWM_init+0x40>)
   80db4:	4620      	mov	r0, r4
   80db6:	2104      	movs	r1, #4
   80db8:	4d0c      	ldr	r5, [pc, #48]	; (80dec <PWM_init+0x44>)
   80dba:	47a8      	blx	r5
	pwm_channel_disable(PWM,PWM_CHANNEL_5);
   80dbc:	4620      	mov	r0, r4
   80dbe:	2105      	movs	r1, #5
   80dc0:	47a8      	blx	r5
	
	/*Setup clock for PWM module*/
	pwm_clock_t PWMDAC_clock_config = {
   80dc2:	4b0b      	ldr	r3, [pc, #44]	; (80df0 <PWM_init+0x48>)
   80dc4:	9301      	str	r3, [sp, #4]
   80dc6:	2300      	movs	r3, #0
   80dc8:	9302      	str	r3, [sp, #8]
   80dca:	4b0a      	ldr	r3, [pc, #40]	; (80df4 <PWM_init+0x4c>)
   80dcc:	9303      	str	r3, [sp, #12]
		.ul_clka = 1000000,
		.ul_clkb = 0,
		.ul_mck = sysclk_get_cpu_hz()
	};
	pwm_init(PWM, &PWMDAC_clock_config);
   80dce:	4620      	mov	r0, r4
   80dd0:	a901      	add	r1, sp, #4
   80dd2:	4b09      	ldr	r3, [pc, #36]	; (80df8 <PWM_init+0x50>)
   80dd4:	4798      	blx	r3
	
	//Methods for initializing PWM for pin 8 and 9
	initPin21();
   80dd6:	4b09      	ldr	r3, [pc, #36]	; (80dfc <PWM_init+0x54>)
   80dd8:	4798      	blx	r3
	initPin22();
   80dda:	4b09      	ldr	r3, [pc, #36]	; (80e00 <PWM_init+0x58>)
   80ddc:	4798      	blx	r3
	
}
   80dde:	b005      	add	sp, #20
   80de0:	bd30      	pop	{r4, r5, pc}
   80de2:	bf00      	nop
   80de4:	000836ad 	.word	0x000836ad
   80de8:	40094000 	.word	0x40094000
   80dec:	0008040d 	.word	0x0008040d
   80df0:	000f4240 	.word	0x000f4240
   80df4:	0501bd00 	.word	0x0501bd00
   80df8:	00080299 	.word	0x00080299
   80dfc:	00080d11 	.word	0x00080d11
   80e00:	00080d5d 	.word	0x00080d5d

00080e04 <leftWheel>:
	
	/*Enabling pwm channel after initializing everything correct*/
	pwm_channel_enable(PWM, PWM_CHANNEL_5);
}
/* This method changes the duty cycle of PWM signal on pin 9. The duty cycle is limited between 0.8 ms and 2.2 ms  */
void leftWheel(uint32_t duty){
   80e04:	b508      	push	{r3, lr}
	if(duty<800){
   80e06:	f5b0 7f48 	cmp.w	r0, #800	; 0x320
   80e0a:	d305      	bcc.n	80e18 <leftWheel+0x14>
   80e0c:	f640 0298 	movw	r2, #2200	; 0x898
   80e10:	4290      	cmp	r0, r2
   80e12:	bf38      	it	cc
   80e14:	4602      	movcc	r2, r0
   80e16:	e001      	b.n	80e1c <leftWheel+0x18>
		duty=800;
   80e18:	f44f 7248 	mov.w	r2, #800	; 0x320
	}
	else if(duty>2200){
		duty=2200;
	}
	// Change the duty cycle of the PWM channel
	pwm_channel_update_duty(PWM, &PWM_pin_21, duty );
   80e1c:	4802      	ldr	r0, [pc, #8]	; (80e28 <leftWheel+0x24>)
   80e1e:	4903      	ldr	r1, [pc, #12]	; (80e2c <leftWheel+0x28>)
   80e20:	4b03      	ldr	r3, [pc, #12]	; (80e30 <leftWheel+0x2c>)
   80e22:	4798      	blx	r3
   80e24:	bd08      	pop	{r3, pc}
   80e26:	bf00      	nop
   80e28:	40094000 	.word	0x40094000
   80e2c:	20078d2c 	.word	0x20078d2c
   80e30:	000803dd 	.word	0x000803dd

00080e34 <rightWheel>:
}

/* This method changes the duty cycle of PWM signal on pin 8. The duty cycle is limited between 0.8 ms and 2.2 ms  */
void rightWheel(uint32_t duty){
   80e34:	b508      	push	{r3, lr}
	
	if(duty<800){
   80e36:	f5b0 7f48 	cmp.w	r0, #800	; 0x320
   80e3a:	d305      	bcc.n	80e48 <rightWheel+0x14>
   80e3c:	f640 0298 	movw	r2, #2200	; 0x898
   80e40:	4290      	cmp	r0, r2
   80e42:	bf38      	it	cc
   80e44:	4602      	movcc	r2, r0
   80e46:	e001      	b.n	80e4c <rightWheel+0x18>
		duty=800;
   80e48:	f44f 7248 	mov.w	r2, #800	; 0x320
	}
	else if(duty>2200){
		duty=2200;
	}
	// Change the duty cycle of the PWM channel
	pwm_channel_update_duty(PWM, &PWM_pin_22, duty );
   80e4c:	4802      	ldr	r0, [pc, #8]	; (80e58 <rightWheel+0x24>)
   80e4e:	4903      	ldr	r1, [pc, #12]	; (80e5c <rightWheel+0x28>)
   80e50:	4b03      	ldr	r3, [pc, #12]	; (80e60 <rightWheel+0x2c>)
   80e52:	4798      	blx	r3
   80e54:	bd08      	pop	{r3, pc}
   80e56:	bf00      	nop
   80e58:	40094000 	.word	0x40094000
   80e5c:	20078d04 	.word	0x20078d04
   80e60:	000803dd 	.word	0x000803dd

00080e64 <pin12_edge_handler>:
   80e64:	b508      	push	{r3, lr}
   80e66:	4806      	ldr	r0, [pc, #24]	; (80e80 <pin12_edge_handler+0x1c>)
   80e68:	f04f 5120 	mov.w	r1, #671088640	; 0x28000000
   80e6c:	f44f 5280 	mov.w	r2, #4096	; 0x1000
   80e70:	4b04      	ldr	r3, [pc, #16]	; (80e84 <pin12_edge_handler+0x20>)
   80e72:	4798      	blx	r3
   80e74:	b118      	cbz	r0, 80e7e <pin12_edge_handler+0x1a>
   80e76:	4b04      	ldr	r3, [pc, #16]	; (80e88 <pin12_edge_handler+0x24>)
   80e78:	881a      	ldrh	r2, [r3, #0]
   80e7a:	3201      	adds	r2, #1
   80e7c:	801a      	strh	r2, [r3, #0]
   80e7e:	bd08      	pop	{r3, pc}
   80e80:	400e1200 	.word	0x400e1200
   80e84:	00083279 	.word	0x00083279
   80e88:	20078d54 	.word	0x20078d54

00080e8c <pin14_edge_handler>:
   80e8c:	b508      	push	{r3, lr}
   80e8e:	4806      	ldr	r0, [pc, #24]	; (80ea8 <pin14_edge_handler+0x1c>)
   80e90:	f04f 5120 	mov.w	r1, #671088640	; 0x28000000
   80e94:	f44f 4280 	mov.w	r2, #16384	; 0x4000
   80e98:	4b04      	ldr	r3, [pc, #16]	; (80eac <pin14_edge_handler+0x20>)
   80e9a:	4798      	blx	r3
   80e9c:	b118      	cbz	r0, 80ea6 <pin14_edge_handler+0x1a>
   80e9e:	4b04      	ldr	r3, [pc, #16]	; (80eb0 <pin14_edge_handler+0x24>)
   80ea0:	881a      	ldrh	r2, [r3, #0]
   80ea2:	3201      	adds	r2, #1
   80ea4:	801a      	strh	r2, [r3, #0]
   80ea6:	bd08      	pop	{r3, pc}
   80ea8:	400e1000 	.word	0x400e1000
   80eac:	00083279 	.word	0x00083279
   80eb0:	20078d56 	.word	0x20078d56

00080eb4 <attach_interupt>:
   80eb4:	b570      	push	{r4, r5, r6, lr}
   80eb6:	b082      	sub	sp, #8
   80eb8:	200c      	movs	r0, #12
   80eba:	4c1a      	ldr	r4, [pc, #104]	; (80f24 <attach_interupt+0x70>)
   80ebc:	47a0      	blx	r4
   80ebe:	200d      	movs	r0, #13
   80ec0:	47a0      	blx	r4
   80ec2:	4d19      	ldr	r5, [pc, #100]	; (80f28 <attach_interupt+0x74>)
   80ec4:	4628      	mov	r0, r5
   80ec6:	f44f 5180 	mov.w	r1, #4096	; 0x1000
   80eca:	2201      	movs	r2, #1
   80ecc:	4e17      	ldr	r6, [pc, #92]	; (80f2c <attach_interupt+0x78>)
   80ece:	47b0      	blx	r6
   80ed0:	4c17      	ldr	r4, [pc, #92]	; (80f30 <attach_interupt+0x7c>)
   80ed2:	4620      	mov	r0, r4
   80ed4:	f44f 4180 	mov.w	r1, #16384	; 0x4000
   80ed8:	2201      	movs	r2, #1
   80eda:	47b0      	blx	r6
   80edc:	4b15      	ldr	r3, [pc, #84]	; (80f34 <attach_interupt+0x80>)
   80ede:	9300      	str	r3, [sp, #0]
   80ee0:	4628      	mov	r0, r5
   80ee2:	210d      	movs	r1, #13
   80ee4:	f44f 5280 	mov.w	r2, #4096	; 0x1000
   80ee8:	2370      	movs	r3, #112	; 0x70
   80eea:	4e13      	ldr	r6, [pc, #76]	; (80f38 <attach_interupt+0x84>)
   80eec:	47b0      	blx	r6
   80eee:	4b13      	ldr	r3, [pc, #76]	; (80f3c <attach_interupt+0x88>)
   80ef0:	9300      	str	r3, [sp, #0]
   80ef2:	4620      	mov	r0, r4
   80ef4:	210c      	movs	r1, #12
   80ef6:	f44f 4280 	mov.w	r2, #16384	; 0x4000
   80efa:	2370      	movs	r3, #112	; 0x70
   80efc:	47b0      	blx	r6
   80efe:	4628      	mov	r0, r5
   80f00:	f44f 5180 	mov.w	r1, #4096	; 0x1000
   80f04:	4d0e      	ldr	r5, [pc, #56]	; (80f40 <attach_interupt+0x8c>)
   80f06:	47a8      	blx	r5
   80f08:	4620      	mov	r0, r4
   80f0a:	f44f 4180 	mov.w	r1, #16384	; 0x4000
   80f0e:	47a8      	blx	r5
   80f10:	4b0c      	ldr	r3, [pc, #48]	; (80f44 <attach_interupt+0x90>)
   80f12:	f44f 5200 	mov.w	r2, #8192	; 0x2000
   80f16:	601a      	str	r2, [r3, #0]
   80f18:	f44f 5280 	mov.w	r2, #4096	; 0x1000
   80f1c:	601a      	str	r2, [r3, #0]
   80f1e:	b002      	add	sp, #8
   80f20:	bd70      	pop	{r4, r5, r6, pc}
   80f22:	bf00      	nop
   80f24:	000836ad 	.word	0x000836ad
   80f28:	400e1200 	.word	0x400e1200
   80f2c:	000832d1 	.word	0x000832d1
   80f30:	400e1000 	.word	0x400e1000
   80f34:	00080e65 	.word	0x00080e65
   80f38:	00083539 	.word	0x00083539
   80f3c:	00080e8d 	.word	0x00080e8d
   80f40:	0008335d 	.word	0x0008335d
   80f44:	e000e100 	.word	0xe000e100

00080f48 <reset_Counter>:
   80f48:	2300      	movs	r3, #0
   80f4a:	4a02      	ldr	r2, [pc, #8]	; (80f54 <reset_Counter+0xc>)
   80f4c:	8013      	strh	r3, [r2, #0]
   80f4e:	4a02      	ldr	r2, [pc, #8]	; (80f58 <reset_Counter+0x10>)
   80f50:	8013      	strh	r3, [r2, #0]
   80f52:	4770      	bx	lr
   80f54:	20078d56 	.word	0x20078d56
   80f58:	20078d54 	.word	0x20078d54

00080f5c <task_unoComm>:
   80f5c:	b5f0      	push	{r4, r5, r6, r7, lr}
   80f5e:	b083      	sub	sp, #12
   80f60:	4b08      	ldr	r3, [pc, #32]	; (80f84 <task_unoComm+0x28>)
   80f62:	4798      	blx	r3
   80f64:	f8ad 0006 	strh.w	r0, [sp, #6]
   80f68:	4f07      	ldr	r7, [pc, #28]	; (80f88 <task_unoComm+0x2c>)
   80f6a:	f04f 0601 	mov.w	r6, #1
   80f6e:	4d07      	ldr	r5, [pc, #28]	; (80f8c <task_unoComm+0x30>)
   80f70:	4c07      	ldr	r4, [pc, #28]	; (80f90 <task_unoComm+0x34>)
   80f72:	703e      	strb	r6, [r7, #0]
   80f74:	2003      	movs	r0, #3
   80f76:	47a8      	blx	r5
   80f78:	f10d 0006 	add.w	r0, sp, #6
   80f7c:	f44f 717a 	mov.w	r1, #1000	; 0x3e8
   80f80:	47a0      	blx	r4
   80f82:	e7f6      	b.n	80f72 <task_unoComm+0x16>
   80f84:	00082681 	.word	0x00082681
   80f88:	20070a71 	.word	0x20070a71
   80f8c:	000801dd 	.word	0x000801dd
   80f90:	000828d5 	.word	0x000828d5

00080f94 <usart_write>:
   80f94:	6943      	ldr	r3, [r0, #20]
   80f96:	f013 0f02 	tst.w	r3, #2
   80f9a:	bf1d      	ittte	ne
   80f9c:	f3c1 0108 	ubfxne	r1, r1, #0, #9
   80fa0:	61c1      	strne	r1, [r0, #28]
   80fa2:	2000      	movne	r0, #0
   80fa4:	2001      	moveq	r0, #1
   80fa6:	4770      	bx	lr

00080fa8 <usart_read>:
   80fa8:	6943      	ldr	r3, [r0, #20]
   80faa:	f013 0f01 	tst.w	r3, #1
   80fae:	d005      	beq.n	80fbc <usart_read+0x14>
   80fb0:	6983      	ldr	r3, [r0, #24]
   80fb2:	f3c3 0308 	ubfx	r3, r3, #0, #9
   80fb6:	600b      	str	r3, [r1, #0]
   80fb8:	2000      	movs	r0, #0
   80fba:	4770      	bx	lr
   80fbc:	2001      	movs	r0, #1
   80fbe:	4770      	bx	lr

00080fc0 <_write>:
   80fc0:	e92d 41f0 	stmdb	sp!, {r4, r5, r6, r7, r8, lr}
   80fc4:	460e      	mov	r6, r1
   80fc6:	4615      	mov	r5, r2
   80fc8:	3801      	subs	r0, #1
   80fca:	2802      	cmp	r0, #2
   80fcc:	d80f      	bhi.n	80fee <_write+0x2e>
   80fce:	b192      	cbz	r2, 80ff6 <_write+0x36>
   80fd0:	2400      	movs	r4, #0
   80fd2:	f8df 803c 	ldr.w	r8, [pc, #60]	; 81010 <_write+0x50>
   80fd6:	4f0d      	ldr	r7, [pc, #52]	; (8100c <_write+0x4c>)
   80fd8:	f8d8 0000 	ldr.w	r0, [r8]
   80fdc:	5d31      	ldrb	r1, [r6, r4]
   80fde:	683b      	ldr	r3, [r7, #0]
   80fe0:	4798      	blx	r3
   80fe2:	2800      	cmp	r0, #0
   80fe4:	db0a      	blt.n	80ffc <_write+0x3c>
   80fe6:	3401      	adds	r4, #1
   80fe8:	42a5      	cmp	r5, r4
   80fea:	d1f5      	bne.n	80fd8 <_write+0x18>
   80fec:	e00a      	b.n	81004 <_write+0x44>
   80fee:	f04f 30ff 	mov.w	r0, #4294967295
   80ff2:	e8bd 81f0 	ldmia.w	sp!, {r4, r5, r6, r7, r8, pc}
   80ff6:	2000      	movs	r0, #0
   80ff8:	e8bd 81f0 	ldmia.w	sp!, {r4, r5, r6, r7, r8, pc}
   80ffc:	f04f 30ff 	mov.w	r0, #4294967295
   81000:	e8bd 81f0 	ldmia.w	sp!, {r4, r5, r6, r7, r8, pc}
   81004:	4620      	mov	r0, r4
   81006:	e8bd 81f0 	ldmia.w	sp!, {r4, r5, r6, r7, r8, pc}
   8100a:	bf00      	nop
   8100c:	20078d58 	.word	0x20078d58
   81010:	20078d5c 	.word	0x20078d5c

00081014 <uart_init>:
   81014:	b410      	push	{r4}
   81016:	23ac      	movs	r3, #172	; 0xac
   81018:	6003      	str	r3, [r0, #0]
   8101a:	680a      	ldr	r2, [r1, #0]
   8101c:	684b      	ldr	r3, [r1, #4]
   8101e:	fbb2 f3f3 	udiv	r3, r2, r3
   81022:	091b      	lsrs	r3, r3, #4
   81024:	1e5c      	subs	r4, r3, #1
   81026:	f64f 72fe 	movw	r2, #65534	; 0xfffe
   8102a:	4294      	cmp	r4, r2
   8102c:	d80a      	bhi.n	81044 <uart_init+0x30>
   8102e:	6203      	str	r3, [r0, #32]
   81030:	688b      	ldr	r3, [r1, #8]
   81032:	6043      	str	r3, [r0, #4]
   81034:	f240 2302 	movw	r3, #514	; 0x202
   81038:	f8c0 3120 	str.w	r3, [r0, #288]	; 0x120
   8103c:	2350      	movs	r3, #80	; 0x50
   8103e:	6003      	str	r3, [r0, #0]
   81040:	2000      	movs	r0, #0
   81042:	e000      	b.n	81046 <uart_init+0x32>
   81044:	2001      	movs	r0, #1
   81046:	f85d 4b04 	ldr.w	r4, [sp], #4
   8104a:	4770      	bx	lr

0008104c <uart_write>:
   8104c:	6943      	ldr	r3, [r0, #20]
   8104e:	f013 0f02 	tst.w	r3, #2
   81052:	bf1a      	itte	ne
   81054:	61c1      	strne	r1, [r0, #28]
   81056:	2000      	movne	r0, #0
   81058:	2001      	moveq	r0, #1
   8105a:	4770      	bx	lr

0008105c <uart_read>:
   8105c:	6943      	ldr	r3, [r0, #20]
   8105e:	f013 0f01 	tst.w	r3, #1
   81062:	bf1d      	ittte	ne
   81064:	6983      	ldrne	r3, [r0, #24]
   81066:	700b      	strbne	r3, [r1, #0]
   81068:	2000      	movne	r0, #0
   8106a:	2001      	moveq	r0, #1
   8106c:	4770      	bx	lr
   8106e:	bf00      	nop

00081070 <task_getCordinates>:
   81070:	b570      	push	{r4, r5, r6, lr}
   81072:	b082      	sub	sp, #8
   81074:	4b05      	ldr	r3, [pc, #20]	; (8108c <task_getCordinates+0x1c>)
   81076:	4798      	blx	r3
   81078:	ac02      	add	r4, sp, #8
   8107a:	f824 0d02 	strh.w	r0, [r4, #-2]!
   8107e:	2632      	movs	r6, #50	; 0x32
   81080:	4d03      	ldr	r5, [pc, #12]	; (81090 <task_getCordinates+0x20>)
   81082:	4620      	mov	r0, r4
   81084:	4631      	mov	r1, r6
   81086:	47a8      	blx	r5
   81088:	e7fb      	b.n	81082 <task_getCordinates+0x12>
   8108a:	bf00      	nop
   8108c:	00082681 	.word	0x00082681
   81090:	000828d5 	.word	0x000828d5
   81094:	00000000 	.word	0x00000000

00081098 <move>:
   81098:	e92d 4ff0 	stmdb	sp!, {r4, r5, r6, r7, r8, r9, sl, fp, lr}
   8109c:	b089      	sub	sp, #36	; 0x24
   8109e:	4b84      	ldr	r3, [pc, #528]	; (812b0 <move+0x218>)
   810a0:	681b      	ldr	r3, [r3, #0]
   810a2:	2b00      	cmp	r3, #0
   810a4:	bfb4      	ite	lt
   810a6:	f04f 32ff 	movlt.w	r2, #4294967295
   810aa:	2201      	movge	r2, #1
   810ac:	4b81      	ldr	r3, [pc, #516]	; (812b4 <move+0x21c>)
   810ae:	601a      	str	r2, [r3, #0]
   810b0:	4b81      	ldr	r3, [pc, #516]	; (812b8 <move+0x220>)
   810b2:	881d      	ldrh	r5, [r3, #0]
   810b4:	4b81      	ldr	r3, [pc, #516]	; (812bc <move+0x224>)
   810b6:	881e      	ldrh	r6, [r3, #0]
   810b8:	eb05 0806 	add.w	r8, r5, r6
   810bc:	ea4f 0868 	mov.w	r8, r8, asr #1
   810c0:	4c7f      	ldr	r4, [pc, #508]	; (812c0 <move+0x228>)
   810c2:	4640      	mov	r0, r8
   810c4:	47a0      	blx	r4
   810c6:	e9cd 0100 	strd	r0, r1, [sp]
   810ca:	4b7e      	ldr	r3, [pc, #504]	; (812c4 <move+0x22c>)
   810cc:	e9c3 0100 	strd	r0, r1, [r3]
   810d0:	1b70      	subs	r0, r6, r5
   810d2:	47a0      	blx	r4
   810d4:	4602      	mov	r2, r0
   810d6:	460b      	mov	r3, r1
   810d8:	497b      	ldr	r1, [pc, #492]	; (812c8 <move+0x230>)
   810da:	e9c1 2300 	strd	r2, r3, [r1]
   810de:	497b      	ldr	r1, [pc, #492]	; (812cc <move+0x234>)
   810e0:	e9d1 4500 	ldrd	r4, r5, [r1]
   810e4:	4620      	mov	r0, r4
   810e6:	4629      	mov	r1, r5
   810e8:	4e79      	ldr	r6, [pc, #484]	; (812d0 <move+0x238>)
   810ea:	47b0      	blx	r6
   810ec:	4606      	mov	r6, r0
   810ee:	460f      	mov	r7, r1
   810f0:	4b78      	ldr	r3, [pc, #480]	; (812d4 <move+0x23c>)
   810f2:	e9c3 6700 	strd	r6, r7, [r3]
   810f6:	4620      	mov	r0, r4
   810f8:	4629      	mov	r1, r5
   810fa:	2200      	movs	r2, #0
   810fc:	2300      	movs	r3, #0
   810fe:	4c76      	ldr	r4, [pc, #472]	; (812d8 <move+0x240>)
   81100:	47a0      	blx	r4
   81102:	b1e0      	cbz	r0, 8113e <move+0xa6>
   81104:	4630      	mov	r0, r6
   81106:	4639      	mov	r1, r7
   81108:	2200      	movs	r2, #0
   8110a:	2300      	movs	r3, #0
   8110c:	4c73      	ldr	r4, [pc, #460]	; (812dc <move+0x244>)
   8110e:	47a0      	blx	r4
   81110:	b1a8      	cbz	r0, 8113e <move+0xa6>
   81112:	2200      	movs	r2, #0
   81114:	2300      	movs	r3, #0
   81116:	496d      	ldr	r1, [pc, #436]	; (812cc <move+0x234>)
   81118:	e9c1 2300 	strd	r2, r3, [r1]
   8111c:	496d      	ldr	r1, [pc, #436]	; (812d4 <move+0x23c>)
   8111e:	e9c1 2300 	strd	r2, r3, [r1]
   81122:	2000      	movs	r0, #0
   81124:	496e      	ldr	r1, [pc, #440]	; (812e0 <move+0x248>)
   81126:	6008      	str	r0, [r1, #0]
   81128:	496e      	ldr	r1, [pc, #440]	; (812e4 <move+0x24c>)
   8112a:	e9c1 2300 	strd	r2, r3, [r1]
   8112e:	fa1f f888 	uxth.w	r8, r8
   81132:	4b61      	ldr	r3, [pc, #388]	; (812b8 <move+0x220>)
   81134:	f8a3 8000 	strh.w	r8, [r3]
   81138:	4b60      	ldr	r3, [pc, #384]	; (812bc <move+0x224>)
   8113a:	f8a3 8000 	strh.w	r8, [r3]
   8113e:	4b63      	ldr	r3, [pc, #396]	; (812cc <move+0x234>)
   81140:	e9d3 0100 	ldrd	r0, r1, [r3]
   81144:	2200      	movs	r2, #0
   81146:	2300      	movs	r3, #0
   81148:	4c64      	ldr	r4, [pc, #400]	; (812dc <move+0x244>)
   8114a:	47a0      	blx	r4
   8114c:	b1e8      	cbz	r0, 8118a <move+0xf2>
   8114e:	4b61      	ldr	r3, [pc, #388]	; (812d4 <move+0x23c>)
   81150:	e9d3 0100 	ldrd	r0, r1, [r3]
   81154:	2200      	movs	r2, #0
   81156:	2300      	movs	r3, #0
   81158:	4c5f      	ldr	r4, [pc, #380]	; (812d8 <move+0x240>)
   8115a:	47a0      	blx	r4
   8115c:	b1a8      	cbz	r0, 8118a <move+0xf2>
   8115e:	2200      	movs	r2, #0
   81160:	2300      	movs	r3, #0
   81162:	495a      	ldr	r1, [pc, #360]	; (812cc <move+0x234>)
   81164:	e9c1 2300 	strd	r2, r3, [r1]
   81168:	495a      	ldr	r1, [pc, #360]	; (812d4 <move+0x23c>)
   8116a:	e9c1 2300 	strd	r2, r3, [r1]
   8116e:	2000      	movs	r0, #0
   81170:	495b      	ldr	r1, [pc, #364]	; (812e0 <move+0x248>)
   81172:	6008      	str	r0, [r1, #0]
   81174:	495b      	ldr	r1, [pc, #364]	; (812e4 <move+0x24c>)
   81176:	e9c1 2300 	strd	r2, r3, [r1]
   8117a:	494f      	ldr	r1, [pc, #316]	; (812b8 <move+0x220>)
   8117c:	8808      	ldrh	r0, [r1, #0]
   8117e:	4b4f      	ldr	r3, [pc, #316]	; (812bc <move+0x224>)
   81180:	881a      	ldrh	r2, [r3, #0]
   81182:	4402      	add	r2, r0
   81184:	0852      	lsrs	r2, r2, #1
   81186:	800a      	strh	r2, [r1, #0]
   81188:	801a      	strh	r2, [r3, #0]
   8118a:	f8df 9158 	ldr.w	r9, [pc, #344]	; 812e4 <move+0x24c>
   8118e:	e9d9 6700 	ldrd	r6, r7, [r9]
   81192:	e9cd 6702 	strd	r6, r7, [sp, #8]
   81196:	4d52      	ldr	r5, [pc, #328]	; (812e0 <move+0x248>)
   81198:	4c49      	ldr	r4, [pc, #292]	; (812c0 <move+0x228>)
   8119a:	6828      	ldr	r0, [r5, #0]
   8119c:	47a0      	blx	r4
   8119e:	f8df 8180 	ldr.w	r8, [pc, #384]	; 81320 <move+0x288>
   811a2:	e9dd 2302 	ldrd	r2, r3, [sp, #8]
   811a6:	47c0      	blx	r8
   811a8:	4b4f      	ldr	r3, [pc, #316]	; (812e8 <move+0x250>)
   811aa:	4798      	blx	r3
   811ac:	6028      	str	r0, [r5, #0]
   811ae:	4b4f      	ldr	r3, [pc, #316]	; (812ec <move+0x254>)
   811b0:	e9d3 6700 	ldrd	r6, r7, [r3]
   811b4:	e9cd 6704 	strd	r6, r7, [sp, #16]
   811b8:	47a0      	blx	r4
   811ba:	4604      	mov	r4, r0
   811bc:	460d      	mov	r5, r1
   811be:	4e4c      	ldr	r6, [pc, #304]	; (812f0 <move+0x258>)
   811c0:	e9dd 0104 	ldrd	r0, r1, [sp, #16]
   811c4:	4b4b      	ldr	r3, [pc, #300]	; (812f4 <move+0x25c>)
   811c6:	e9d3 2300 	ldrd	r2, r3, [r3]
   811ca:	47b0      	blx	r6
   811cc:	4602      	mov	r2, r0
   811ce:	460b      	mov	r3, r1
   811d0:	4f49      	ldr	r7, [pc, #292]	; (812f8 <move+0x260>)
   811d2:	4620      	mov	r0, r4
   811d4:	4629      	mov	r1, r5
   811d6:	47b8      	blx	r7
   811d8:	e9cd 0106 	strd	r0, r1, [sp, #24]
   811dc:	4b47      	ldr	r3, [pc, #284]	; (812fc <move+0x264>)
   811de:	e9c3 0100 	strd	r0, r1, [r3]
   811e2:	4b3c      	ldr	r3, [pc, #240]	; (812d4 <move+0x23c>)
   811e4:	e9d3 ab00 	ldrd	sl, fp, [r3]
   811e8:	4b45      	ldr	r3, [pc, #276]	; (81300 <move+0x268>)
   811ea:	e9d3 0100 	ldrd	r0, r1, [r3]
   811ee:	e9dd 2304 	ldrd	r2, r3, [sp, #16]
   811f2:	47b0      	blx	r6
   811f4:	4604      	mov	r4, r0
   811f6:	460d      	mov	r5, r1
   811f8:	4650      	mov	r0, sl
   811fa:	4659      	mov	r1, fp
   811fc:	e9dd 2302 	ldrd	r2, r3, [sp, #8]
   81200:	f8df c0cc 	ldr.w	ip, [pc, #204]	; 812d0 <move+0x238>
   81204:	47e0      	blx	ip
   81206:	4602      	mov	r2, r0
   81208:	460b      	mov	r3, r1
   8120a:	4620      	mov	r0, r4
   8120c:	4629      	mov	r1, r5
   8120e:	47b8      	blx	r7
   81210:	4604      	mov	r4, r0
   81212:	460d      	mov	r5, r1
   81214:	4b3b      	ldr	r3, [pc, #236]	; (81304 <move+0x26c>)
   81216:	e9c3 4500 	strd	r4, r5, [r3]
   8121a:	e9dd 0106 	ldrd	r0, r1, [sp, #24]
   8121e:	4652      	mov	r2, sl
   81220:	465b      	mov	r3, fp
   81222:	47c0      	blx	r8
   81224:	4602      	mov	r2, r0
   81226:	460b      	mov	r3, r1
   81228:	4620      	mov	r0, r4
   8122a:	4629      	mov	r1, r5
   8122c:	47c0      	blx	r8
   8122e:	4b36      	ldr	r3, [pc, #216]	; (81308 <move+0x270>)
   81230:	e9d3 2300 	ldrd	r2, r3, [r3]
   81234:	47b8      	blx	r7
   81236:	4604      	mov	r4, r0
   81238:	460d      	mov	r5, r1
   8123a:	4b34      	ldr	r3, [pc, #208]	; (8130c <move+0x274>)
   8123c:	e9c3 4500 	strd	r4, r5, [r3]
   81240:	e9c9 ab00 	strd	sl, fp, [r9]
   81244:	e9dd 0100 	ldrd	r0, r1, [sp]
   81248:	4b31      	ldr	r3, [pc, #196]	; (81310 <move+0x278>)
   8124a:	e9d3 2300 	ldrd	r2, r3, [r3]
   8124e:	47b0      	blx	r6
   81250:	4606      	mov	r6, r0
   81252:	460f      	mov	r7, r1
   81254:	a312      	add	r3, pc, #72	; (adr r3, 812a0 <move+0x208>)
   81256:	e9d3 2300 	ldrd	r2, r3, [r3]
   8125a:	f8df c0c8 	ldr.w	ip, [pc, #200]	; 81324 <move+0x28c>
   8125e:	47e0      	blx	ip
   81260:	b938      	cbnz	r0, 81272 <move+0x1da>
   81262:	4630      	mov	r0, r6
   81264:	4639      	mov	r1, r7
   81266:	a310      	add	r3, pc, #64	; (adr r3, 812a8 <move+0x210>)
   81268:	e9d3 2300 	ldrd	r2, r3, [r3]
   8126c:	4e29      	ldr	r6, [pc, #164]	; (81314 <move+0x27c>)
   8126e:	47b0      	blx	r6
   81270:	b118      	cbz	r0, 8127a <move+0x1e2>
   81272:	2282      	movs	r2, #130	; 0x82
   81274:	4b28      	ldr	r3, [pc, #160]	; (81318 <move+0x280>)
   81276:	801a      	strh	r2, [r3, #0]
   81278:	e002      	b.n	81280 <move+0x1e8>
   8127a:	22c8      	movs	r2, #200	; 0xc8
   8127c:	4b26      	ldr	r3, [pc, #152]	; (81318 <move+0x280>)
   8127e:	801a      	strh	r2, [r3, #0]
   81280:	4620      	mov	r0, r4
   81282:	4629      	mov	r1, r5
   81284:	2200      	movs	r2, #0
   81286:	4b25      	ldr	r3, [pc, #148]	; (8131c <move+0x284>)
   81288:	4e13      	ldr	r6, [pc, #76]	; (812d8 <move+0x240>)
   8128a:	47b0      	blx	r6
   8128c:	2800      	cmp	r0, #0
   8128e:	d04b      	beq.n	81328 <move+0x290>
   81290:	2200      	movs	r2, #0
   81292:	4b22      	ldr	r3, [pc, #136]	; (8131c <move+0x284>)
   81294:	491d      	ldr	r1, [pc, #116]	; (8130c <move+0x274>)
   81296:	e9c1 2300 	strd	r2, r3, [r1]
   8129a:	e051      	b.n	81340 <move+0x2a8>
   8129c:	f3af 8000 	nop.w
   812a0:	cccccccd 	.word	0xcccccccd
   812a4:	3feccccc 	.word	0x3feccccc
   812a8:	9999999a 	.word	0x9999999a
   812ac:	3fa99999 	.word	0x3fa99999
   812b0:	20070a50 	.word	0x20070a50
   812b4:	20070140 	.word	0x20070140
   812b8:	20078d56 	.word	0x20078d56
   812bc:	20078d54 	.word	0x20078d54
   812c0:	000842cd 	.word	0x000842cd
   812c4:	20070a48 	.word	0x20070a48
   812c8:	20070a20 	.word	0x20070a20
   812cc:	20070a58 	.word	0x20070a58
   812d0:	00084031 	.word	0x00084031
   812d4:	20070a38 	.word	0x20070a38
   812d8:	000848b9 	.word	0x000848b9
   812dc:	0008487d 	.word	0x0008487d
   812e0:	20070a60 	.word	0x20070a60
   812e4:	20070a40 	.word	0x20070a40
   812e8:	000848cd 	.word	0x000848cd
   812ec:	20070148 	.word	0x20070148
   812f0:	000845ed 	.word	0x000845ed
   812f4:	20070138 	.word	0x20070138
   812f8:	00084399 	.word	0x00084399
   812fc:	20070a68 	.word	0x20070a68
   81300:	20070130 	.word	0x20070130
   81304:	20070a30 	.word	0x20070a30
   81308:	20070158 	.word	0x20070158
   8130c:	20070a10 	.word	0x20070a10
   81310:	20078dd0 	.word	0x20078dd0
   81314:	00084891 	.word	0x00084891
   81318:	20070150 	.word	0x20070150
   8131c:	40518000 	.word	0x40518000
   81320:	00084035 	.word	0x00084035
   81324:	000848a5 	.word	0x000848a5
   81328:	4620      	mov	r0, r4
   8132a:	4629      	mov	r1, r5
   8132c:	2200      	movs	r2, #0
   8132e:	4b26      	ldr	r3, [pc, #152]	; (813c8 <move+0x330>)
   81330:	4c26      	ldr	r4, [pc, #152]	; (813cc <move+0x334>)
   81332:	47a0      	blx	r4
   81334:	b120      	cbz	r0, 81340 <move+0x2a8>
   81336:	2200      	movs	r2, #0
   81338:	4b23      	ldr	r3, [pc, #140]	; (813c8 <move+0x330>)
   8133a:	4925      	ldr	r1, [pc, #148]	; (813d0 <move+0x338>)
   8133c:	e9c1 2300 	strd	r2, r3, [r1]
   81340:	f8df b0a8 	ldr.w	fp, [pc, #168]	; 813ec <move+0x354>
   81344:	4e23      	ldr	r6, [pc, #140]	; (813d4 <move+0x33c>)
   81346:	f8bb 0000 	ldrh.w	r0, [fp]
   8134a:	47b0      	blx	r6
   8134c:	f8df a080 	ldr.w	sl, [pc, #128]	; 813d0 <move+0x338>
   81350:	4f21      	ldr	r7, [pc, #132]	; (813d8 <move+0x340>)
   81352:	e9da 2300 	ldrd	r2, r3, [sl]
   81356:	47b8      	blx	r7
   81358:	4604      	mov	r4, r0
   8135a:	460d      	mov	r5, r1
   8135c:	f8df 9090 	ldr.w	r9, [pc, #144]	; 813f0 <move+0x358>
   81360:	f8d9 0000 	ldr.w	r0, [r9]
   81364:	47b0      	blx	r6
   81366:	4602      	mov	r2, r0
   81368:	460b      	mov	r3, r1
   8136a:	f8df 8088 	ldr.w	r8, [pc, #136]	; 813f4 <move+0x35c>
   8136e:	4620      	mov	r0, r4
   81370:	4629      	mov	r1, r5
   81372:	47c0      	blx	r8
   81374:	a312      	add	r3, pc, #72	; (adr r3, 813c0 <move+0x328>)
   81376:	e9d3 2300 	ldrd	r2, r3, [r3]
   8137a:	47b8      	blx	r7
   8137c:	4c17      	ldr	r4, [pc, #92]	; (813dc <move+0x344>)
   8137e:	47a0      	blx	r4
   81380:	4b17      	ldr	r3, [pc, #92]	; (813e0 <move+0x348>)
   81382:	4798      	blx	r3
   81384:	f8bb 0000 	ldrh.w	r0, [fp]
   81388:	47b0      	blx	r6
   8138a:	e9da 2300 	ldrd	r2, r3, [sl]
   8138e:	4d15      	ldr	r5, [pc, #84]	; (813e4 <move+0x34c>)
   81390:	47a8      	blx	r5
   81392:	4682      	mov	sl, r0
   81394:	468b      	mov	fp, r1
   81396:	f8d9 0000 	ldr.w	r0, [r9]
   8139a:	47b0      	blx	r6
   8139c:	4602      	mov	r2, r0
   8139e:	460b      	mov	r3, r1
   813a0:	4650      	mov	r0, sl
   813a2:	4659      	mov	r1, fp
   813a4:	47c0      	blx	r8
   813a6:	a306      	add	r3, pc, #24	; (adr r3, 813c0 <move+0x328>)
   813a8:	e9d3 2300 	ldrd	r2, r3, [r3]
   813ac:	47b8      	blx	r7
   813ae:	47a0      	blx	r4
   813b0:	4b0d      	ldr	r3, [pc, #52]	; (813e8 <move+0x350>)
   813b2:	4798      	blx	r3
   813b4:	b009      	add	sp, #36	; 0x24
   813b6:	e8bd 8ff0 	ldmia.w	sp!, {r4, r5, r6, r7, r8, r9, sl, fp, pc}
   813ba:	bf00      	nop
   813bc:	f3af 8000 	nop.w
   813c0:	00000000 	.word	0x00000000
   813c4:	40977000 	.word	0x40977000
   813c8:	c0518000 	.word	0xc0518000
   813cc:	0008487d 	.word	0x0008487d
   813d0:	20070a10 	.word	0x20070a10
   813d4:	000842cd 	.word	0x000842cd
   813d8:	00084035 	.word	0x00084035
   813dc:	0008491d 	.word	0x0008491d
   813e0:	00080e35 	.word	0x00080e35
   813e4:	00084031 	.word	0x00084031
   813e8:	00080e05 	.word	0x00080e05
   813ec:	20070150 	.word	0x20070150
   813f0:	20070140 	.word	0x20070140
   813f4:	00084399 	.word	0x00084399

000813f8 <coordinatesInit>:
   813f8:	b470      	push	{r4, r5, r6}
   813fa:	4606      	mov	r6, r0
   813fc:	4916      	ldr	r1, [pc, #88]	; (81458 <coordinatesInit+0x60>)
   813fe:	2200      	movs	r2, #0
   81400:	2300      	movs	r3, #0
   81402:	e9c1 2300 	strd	r2, r3, [r1]
   81406:	e9c1 2302 	strd	r2, r3, [r1, #8]
   8140a:	e9c1 2304 	strd	r2, r3, [r1, #16]
   8140e:	2400      	movs	r4, #0
   81410:	4d12      	ldr	r5, [pc, #72]	; (8145c <coordinatesInit+0x64>)
   81412:	e9c1 4506 	strd	r4, r5, [r1, #24]
   81416:	e9c1 230c 	strd	r2, r3, [r1, #48]	; 0x30
   8141a:	2400      	movs	r4, #0
   8141c:	4d10      	ldr	r5, [pc, #64]	; (81460 <coordinatesInit+0x68>)
   8141e:	e9c1 450e 	strd	r4, r5, [r1, #56]	; 0x38
   81422:	e9c1 4510 	strd	r4, r5, [r1, #64]	; 0x40
   81426:	2400      	movs	r4, #0
   81428:	4d0e      	ldr	r5, [pc, #56]	; (81464 <coordinatesInit+0x6c>)
   8142a:	e9c1 4512 	strd	r4, r5, [r1, #72]	; 0x48
   8142e:	e9c1 2314 	strd	r2, r3, [r1, #80]	; 0x50
   81432:	a507      	add	r5, pc, #28	; (adr r5, 81450 <coordinatesInit+0x58>)
   81434:	e9d5 4500 	ldrd	r4, r5, [r5]
   81438:	e9c1 4516 	strd	r4, r5, [r1, #88]	; 0x58
   8143c:	e9c1 2318 	strd	r2, r3, [r1, #96]	; 0x60
   81440:	e9c1 231a 	strd	r2, r3, [r1, #104]	; 0x68
   81444:	4630      	mov	r0, r6
   81446:	bc70      	pop	{r4, r5, r6}
   81448:	4770      	bx	lr
   8144a:	bf00      	nop
   8144c:	f3af 8000 	nop.w
   81450:	00000000 	.word	0x00000000
   81454:	4072c000 	.word	0x4072c000
   81458:	20078d60 	.word	0x20078d60
   8145c:	c0590000 	.word	0xc0590000
   81460:	40590000 	.word	0x40590000
   81464:	40690000 	.word	0x40690000

00081468 <updateLastPresent>:
   81468:	4904      	ldr	r1, [pc, #16]	; (8147c <updateLastPresent+0x14>)
   8146a:	e9d1 2300 	ldrd	r2, r3, [r1]
   8146e:	e9c1 2304 	strd	r2, r3, [r1, #16]
   81472:	e9d1 2302 	ldrd	r2, r3, [r1, #8]
   81476:	e9c1 2306 	strd	r2, r3, [r1, #24]
   8147a:	4770      	bx	lr
   8147c:	20078d60 	.word	0x20078d60

00081480 <calculateAngleDistance>:
   81480:	e92d 43f0 	stmdb	sp!, {r4, r5, r6, r7, r8, r9, lr}
   81484:	b089      	sub	sp, #36	; 0x24
   81486:	481d      	ldr	r0, [pc, #116]	; (814fc <calculateAngleDistance+0x7c>)
   81488:	4f1d      	ldr	r7, [pc, #116]	; (81500 <calculateAngleDistance+0x80>)
   8148a:	47b8      	blx	r7
   8148c:	4e1d      	ldr	r6, [pc, #116]	; (81504 <calculateAngleDistance+0x84>)
   8148e:	e9d6 0104 	ldrd	r0, r1, [r6, #16]
   81492:	e9d6 2306 	ldrd	r2, r3, [r6, #24]
   81496:	e9d6 4500 	ldrd	r4, r5, [r6]
   8149a:	e9cd 4500 	strd	r4, r5, [sp]
   8149e:	e9d6 4502 	ldrd	r4, r5, [r6, #8]
   814a2:	e9cd 4502 	strd	r4, r5, [sp, #8]
   814a6:	e9d6 4508 	ldrd	r4, r5, [r6, #32]
   814aa:	e9cd 4504 	strd	r4, r5, [sp, #16]
   814ae:	e9d6 450a 	ldrd	r4, r5, [r6, #40]	; 0x28
   814b2:	e9cd 4506 	strd	r4, r5, [sp, #24]
   814b6:	4c14      	ldr	r4, [pc, #80]	; (81508 <calculateAngleDistance+0x88>)
   814b8:	47a0      	blx	r4
   814ba:	f8df 905c 	ldr.w	r9, [pc, #92]	; 81518 <calculateAngleDistance+0x98>
   814be:	47c8      	blx	r9
   814c0:	4601      	mov	r1, r0
   814c2:	4b12      	ldr	r3, [pc, #72]	; (8150c <calculateAngleDistance+0x8c>)
   814c4:	6018      	str	r0, [r3, #0]
   814c6:	f8df 8054 	ldr.w	r8, [pc, #84]	; 8151c <calculateAngleDistance+0x9c>
   814ca:	4640      	mov	r0, r8
   814cc:	47b8      	blx	r7
   814ce:	e9d6 0100 	ldrd	r0, r1, [r6]
   814d2:	e9d6 2302 	ldrd	r2, r3, [r6, #8]
   814d6:	e9d6 4508 	ldrd	r4, r5, [r6, #32]
   814da:	e9cd 4500 	strd	r4, r5, [sp]
   814de:	e9d6 450a 	ldrd	r4, r5, [r6, #40]	; 0x28
   814e2:	e9cd 4502 	strd	r4, r5, [sp, #8]
   814e6:	4c0a      	ldr	r4, [pc, #40]	; (81510 <calculateAngleDistance+0x90>)
   814e8:	47a0      	blx	r4
   814ea:	47c8      	blx	r9
   814ec:	4601      	mov	r1, r0
   814ee:	4b09      	ldr	r3, [pc, #36]	; (81514 <calculateAngleDistance+0x94>)
   814f0:	6018      	str	r0, [r3, #0]
   814f2:	4640      	mov	r0, r8
   814f4:	47b8      	blx	r7
   814f6:	b009      	add	sp, #36	; 0x24
   814f8:	e8bd 83f0 	ldmia.w	sp!, {r4, r5, r6, r7, r8, r9, pc}
   814fc:	000879e4 	.word	0x000879e4
   81500:	000849b9 	.word	0x000849b9
   81504:	20078d60 	.word	0x20078d60
   81508:	00080c69 	.word	0x00080c69
   8150c:	20070a2c 	.word	0x20070a2c
   81510:	000809e9 	.word	0x000809e9
   81514:	20070a50 	.word	0x20070a50
   81518:	000848cd 	.word	0x000848cd
   8151c:	000879ec 	.word	0x000879ec

00081520 <updateNextPosGL>:
   81520:	b508      	push	{r3, lr}
   81522:	4b2e      	ldr	r3, [pc, #184]	; (815dc <updateNextPosGL+0xbc>)
   81524:	781b      	ldrb	r3, [r3, #0]
   81526:	2b01      	cmp	r3, #1
   81528:	d10b      	bne.n	81542 <updateNextPosGL+0x22>
   8152a:	492d      	ldr	r1, [pc, #180]	; (815e0 <updateNextPosGL+0xc0>)
   8152c:	e9d1 230c 	ldrd	r2, r3, [r1, #48]	; 0x30
   81530:	e9c1 2308 	strd	r2, r3, [r1, #32]
   81534:	e9d1 230e 	ldrd	r2, r3, [r1, #56]	; 0x38
   81538:	e9c1 230a 	strd	r2, r3, [r1, #40]	; 0x28
   8153c:	4b29      	ldr	r3, [pc, #164]	; (815e4 <updateNextPosGL+0xc4>)
   8153e:	4798      	blx	r3
   81540:	e046      	b.n	815d0 <updateNextPosGL+0xb0>
   81542:	2b02      	cmp	r3, #2
   81544:	d115      	bne.n	81572 <updateNextPosGL+0x52>
   81546:	4b28      	ldr	r3, [pc, #160]	; (815e8 <updateNextPosGL+0xc8>)
   81548:	4798      	blx	r3
   8154a:	4925      	ldr	r1, [pc, #148]	; (815e0 <updateNextPosGL+0xc0>)
   8154c:	e9d1 230c 	ldrd	r2, r3, [r1, #48]	; 0x30
   81550:	e9c1 2300 	strd	r2, r3, [r1]
   81554:	e9d1 230e 	ldrd	r2, r3, [r1, #56]	; 0x38
   81558:	e9c1 2302 	strd	r2, r3, [r1, #8]
   8155c:	e9d1 2310 	ldrd	r2, r3, [r1, #64]	; 0x40
   81560:	e9c1 2308 	strd	r2, r3, [r1, #32]
   81564:	e9d1 2312 	ldrd	r2, r3, [r1, #72]	; 0x48
   81568:	e9c1 230a 	strd	r2, r3, [r1, #40]	; 0x28
   8156c:	4b1d      	ldr	r3, [pc, #116]	; (815e4 <updateNextPosGL+0xc4>)
   8156e:	4798      	blx	r3
   81570:	e02e      	b.n	815d0 <updateNextPosGL+0xb0>
   81572:	2b03      	cmp	r3, #3
   81574:	d115      	bne.n	815a2 <updateNextPosGL+0x82>
   81576:	4b1c      	ldr	r3, [pc, #112]	; (815e8 <updateNextPosGL+0xc8>)
   81578:	4798      	blx	r3
   8157a:	4919      	ldr	r1, [pc, #100]	; (815e0 <updateNextPosGL+0xc0>)
   8157c:	e9d1 2310 	ldrd	r2, r3, [r1, #64]	; 0x40
   81580:	e9c1 2300 	strd	r2, r3, [r1]
   81584:	e9d1 2312 	ldrd	r2, r3, [r1, #72]	; 0x48
   81588:	e9c1 2302 	strd	r2, r3, [r1, #8]
   8158c:	e9d1 2314 	ldrd	r2, r3, [r1, #80]	; 0x50
   81590:	e9c1 2308 	strd	r2, r3, [r1, #32]
   81594:	e9d1 2316 	ldrd	r2, r3, [r1, #88]	; 0x58
   81598:	e9c1 230a 	strd	r2, r3, [r1, #40]	; 0x28
   8159c:	4b11      	ldr	r3, [pc, #68]	; (815e4 <updateNextPosGL+0xc4>)
   8159e:	4798      	blx	r3
   815a0:	e016      	b.n	815d0 <updateNextPosGL+0xb0>
   815a2:	2b04      	cmp	r3, #4
   815a4:	d114      	bne.n	815d0 <updateNextPosGL+0xb0>
   815a6:	4b10      	ldr	r3, [pc, #64]	; (815e8 <updateNextPosGL+0xc8>)
   815a8:	4798      	blx	r3
   815aa:	490d      	ldr	r1, [pc, #52]	; (815e0 <updateNextPosGL+0xc0>)
   815ac:	e9d1 2314 	ldrd	r2, r3, [r1, #80]	; 0x50
   815b0:	e9c1 2300 	strd	r2, r3, [r1]
   815b4:	e9d1 2316 	ldrd	r2, r3, [r1, #88]	; 0x58
   815b8:	e9c1 2302 	strd	r2, r3, [r1, #8]
   815bc:	e9d1 2318 	ldrd	r2, r3, [r1, #96]	; 0x60
   815c0:	e9c1 2308 	strd	r2, r3, [r1, #32]
   815c4:	e9d1 231a 	ldrd	r2, r3, [r1, #104]	; 0x68
   815c8:	e9c1 230a 	strd	r2, r3, [r1, #40]	; 0x28
   815cc:	4b05      	ldr	r3, [pc, #20]	; (815e4 <updateNextPosGL+0xc4>)
   815ce:	4798      	blx	r3
   815d0:	4b02      	ldr	r3, [pc, #8]	; (815dc <updateNextPosGL+0xbc>)
   815d2:	781a      	ldrb	r2, [r3, #0]
   815d4:	3201      	adds	r2, #1
   815d6:	701a      	strb	r2, [r3, #0]
   815d8:	bd08      	pop	{r3, pc}
   815da:	bf00      	nop
   815dc:	20070153 	.word	0x20070153
   815e0:	20078d60 	.word	0x20078d60
   815e4:	00081481 	.word	0x00081481
   815e8:	00081469 	.word	0x00081469

000815ec <updateNextPosLasse>:
   815ec:	b508      	push	{r3, lr}
   815ee:	4b46      	ldr	r3, [pc, #280]	; (81708 <updateNextPosLasse+0x11c>)
   815f0:	781b      	ldrb	r3, [r3, #0]
   815f2:	2b01      	cmp	r3, #1
   815f4:	d10b      	bne.n	8160e <updateNextPosLasse+0x22>
   815f6:	4945      	ldr	r1, [pc, #276]	; (8170c <updateNextPosLasse+0x120>)
   815f8:	e9d1 230c 	ldrd	r2, r3, [r1, #48]	; 0x30
   815fc:	e9c1 2308 	strd	r2, r3, [r1, #32]
   81600:	e9d1 230e 	ldrd	r2, r3, [r1, #56]	; 0x38
   81604:	e9c1 230a 	strd	r2, r3, [r1, #40]	; 0x28
   81608:	4b41      	ldr	r3, [pc, #260]	; (81710 <updateNextPosLasse+0x124>)
   8160a:	4798      	blx	r3
   8160c:	e076      	b.n	816fc <updateNextPosLasse+0x110>
   8160e:	2b02      	cmp	r3, #2
   81610:	d115      	bne.n	8163e <updateNextPosLasse+0x52>
   81612:	4b40      	ldr	r3, [pc, #256]	; (81714 <updateNextPosLasse+0x128>)
   81614:	4798      	blx	r3
   81616:	493d      	ldr	r1, [pc, #244]	; (8170c <updateNextPosLasse+0x120>)
   81618:	e9d1 230c 	ldrd	r2, r3, [r1, #48]	; 0x30
   8161c:	e9c1 2300 	strd	r2, r3, [r1]
   81620:	e9d1 230e 	ldrd	r2, r3, [r1, #56]	; 0x38
   81624:	e9c1 2302 	strd	r2, r3, [r1, #8]
   81628:	e9d1 2318 	ldrd	r2, r3, [r1, #96]	; 0x60
   8162c:	e9c1 2308 	strd	r2, r3, [r1, #32]
   81630:	e9d1 231a 	ldrd	r2, r3, [r1, #104]	; 0x68
   81634:	e9c1 230a 	strd	r2, r3, [r1, #40]	; 0x28
   81638:	4b35      	ldr	r3, [pc, #212]	; (81710 <updateNextPosLasse+0x124>)
   8163a:	4798      	blx	r3
   8163c:	e05e      	b.n	816fc <updateNextPosLasse+0x110>
   8163e:	2b03      	cmp	r3, #3
   81640:	d115      	bne.n	8166e <updateNextPosLasse+0x82>
   81642:	4b34      	ldr	r3, [pc, #208]	; (81714 <updateNextPosLasse+0x128>)
   81644:	4798      	blx	r3
   81646:	4931      	ldr	r1, [pc, #196]	; (8170c <updateNextPosLasse+0x120>)
   81648:	e9d1 2318 	ldrd	r2, r3, [r1, #96]	; 0x60
   8164c:	e9c1 2300 	strd	r2, r3, [r1]
   81650:	e9d1 231a 	ldrd	r2, r3, [r1, #104]	; 0x68
   81654:	e9c1 2302 	strd	r2, r3, [r1, #8]
   81658:	e9d1 2310 	ldrd	r2, r3, [r1, #64]	; 0x40
   8165c:	e9c1 2308 	strd	r2, r3, [r1, #32]
   81660:	e9d1 2312 	ldrd	r2, r3, [r1, #72]	; 0x48
   81664:	e9c1 230a 	strd	r2, r3, [r1, #40]	; 0x28
   81668:	4b29      	ldr	r3, [pc, #164]	; (81710 <updateNextPosLasse+0x124>)
   8166a:	4798      	blx	r3
   8166c:	e046      	b.n	816fc <updateNextPosLasse+0x110>
   8166e:	2b04      	cmp	r3, #4
   81670:	d115      	bne.n	8169e <updateNextPosLasse+0xb2>
   81672:	4b28      	ldr	r3, [pc, #160]	; (81714 <updateNextPosLasse+0x128>)
   81674:	4798      	blx	r3
   81676:	4925      	ldr	r1, [pc, #148]	; (8170c <updateNextPosLasse+0x120>)
   81678:	e9d1 2310 	ldrd	r2, r3, [r1, #64]	; 0x40
   8167c:	e9c1 2300 	strd	r2, r3, [r1]
   81680:	e9d1 2312 	ldrd	r2, r3, [r1, #72]	; 0x48
   81684:	e9c1 2302 	strd	r2, r3, [r1, #8]
   81688:	e9d1 2318 	ldrd	r2, r3, [r1, #96]	; 0x60
   8168c:	e9c1 2308 	strd	r2, r3, [r1, #32]
   81690:	e9d1 231a 	ldrd	r2, r3, [r1, #104]	; 0x68
   81694:	e9c1 230a 	strd	r2, r3, [r1, #40]	; 0x28
   81698:	4b1d      	ldr	r3, [pc, #116]	; (81710 <updateNextPosLasse+0x124>)
   8169a:	4798      	blx	r3
   8169c:	e02e      	b.n	816fc <updateNextPosLasse+0x110>
   8169e:	2b05      	cmp	r3, #5
   816a0:	d115      	bne.n	816ce <updateNextPosLasse+0xe2>
   816a2:	4b1c      	ldr	r3, [pc, #112]	; (81714 <updateNextPosLasse+0x128>)
   816a4:	4798      	blx	r3
   816a6:	4919      	ldr	r1, [pc, #100]	; (8170c <updateNextPosLasse+0x120>)
   816a8:	e9d1 2318 	ldrd	r2, r3, [r1, #96]	; 0x60
   816ac:	e9c1 2300 	strd	r2, r3, [r1]
   816b0:	e9d1 231a 	ldrd	r2, r3, [r1, #104]	; 0x68
   816b4:	e9c1 2302 	strd	r2, r3, [r1, #8]
   816b8:	e9d1 2314 	ldrd	r2, r3, [r1, #80]	; 0x50
   816bc:	e9c1 2308 	strd	r2, r3, [r1, #32]
   816c0:	e9d1 2316 	ldrd	r2, r3, [r1, #88]	; 0x58
   816c4:	e9c1 230a 	strd	r2, r3, [r1, #40]	; 0x28
   816c8:	4b11      	ldr	r3, [pc, #68]	; (81710 <updateNextPosLasse+0x124>)
   816ca:	4798      	blx	r3
   816cc:	e016      	b.n	816fc <updateNextPosLasse+0x110>
   816ce:	2b06      	cmp	r3, #6
   816d0:	d114      	bne.n	816fc <updateNextPosLasse+0x110>
   816d2:	4b10      	ldr	r3, [pc, #64]	; (81714 <updateNextPosLasse+0x128>)
   816d4:	4798      	blx	r3
   816d6:	490d      	ldr	r1, [pc, #52]	; (8170c <updateNextPosLasse+0x120>)
   816d8:	e9d1 2314 	ldrd	r2, r3, [r1, #80]	; 0x50
   816dc:	e9c1 2300 	strd	r2, r3, [r1]
   816e0:	e9d1 2316 	ldrd	r2, r3, [r1, #88]	; 0x58
   816e4:	e9c1 2302 	strd	r2, r3, [r1, #8]
   816e8:	e9d1 2318 	ldrd	r2, r3, [r1, #96]	; 0x60
   816ec:	e9c1 2308 	strd	r2, r3, [r1, #32]
   816f0:	e9d1 231a 	ldrd	r2, r3, [r1, #104]	; 0x68
   816f4:	e9c1 230a 	strd	r2, r3, [r1, #40]	; 0x28
   816f8:	4b05      	ldr	r3, [pc, #20]	; (81710 <updateNextPosLasse+0x124>)
   816fa:	4798      	blx	r3
   816fc:	4b02      	ldr	r3, [pc, #8]	; (81708 <updateNextPosLasse+0x11c>)
   816fe:	781a      	ldrb	r2, [r3, #0]
   81700:	3201      	adds	r2, #1
   81702:	701a      	strb	r2, [r3, #0]
   81704:	bd08      	pop	{r3, pc}
   81706:	bf00      	nop
   81708:	20070152 	.word	0x20070152
   8170c:	20078d60 	.word	0x20078d60
   81710:	00081481 	.word	0x00081481
   81714:	00081469 	.word	0x00081469

00081718 <task_move>:
   81718:	e92d 47f0 	stmdb	sp!, {r4, r5, r6, r7, r8, r9, sl, lr}
   8171c:	b082      	sub	sp, #8
   8171e:	4b98      	ldr	r3, [pc, #608]	; (81980 <task_move+0x268>)
   81720:	4798      	blx	r3
   81722:	f8ad 0006 	strh.w	r0, [sp, #6]
   81726:	f8df a2f0 	ldr.w	sl, [pc, #752]	; 81a18 <task_move+0x300>
   8172a:	2400      	movs	r4, #0
   8172c:	2500      	movs	r5, #0
   8172e:	a792      	add	r7, pc, #584	; (adr r7, 81978 <task_move+0x260>)
   81730:	e9d7 6700 	ldrd	r6, r7, [r7]
   81734:	f10d 0006 	add.w	r0, sp, #6
   81738:	2164      	movs	r1, #100	; 0x64
   8173a:	47d0      	blx	sl
   8173c:	4b91      	ldr	r3, [pc, #580]	; (81984 <task_move+0x26c>)
   8173e:	781b      	ldrb	r3, [r3, #0]
   81740:	2b06      	cmp	r3, #6
   81742:	f200 8112 	bhi.w	8196a <task_move+0x252>
   81746:	e8df f013 	tbh	[pc, r3, lsl #1]
   8174a:	0007      	.short	0x0007
   8174c:	0099000d 	.word	0x0099000d
   81750:	004500c1 	.word	0x004500c1
   81754:	00130106 	.word	0x00130106
   81758:	4b8b      	ldr	r3, [pc, #556]	; (81988 <task_move+0x270>)
   8175a:	4798      	blx	r3
   8175c:	2202      	movs	r2, #2
   8175e:	4b8b      	ldr	r3, [pc, #556]	; (8198c <task_move+0x274>)
   81760:	701a      	strb	r2, [r3, #0]
   81762:	e102      	b.n	8196a <task_move+0x252>
   81764:	4b8a      	ldr	r3, [pc, #552]	; (81990 <task_move+0x278>)
   81766:	4798      	blx	r3
   81768:	2202      	movs	r2, #2
   8176a:	4b88      	ldr	r3, [pc, #544]	; (8198c <task_move+0x274>)
   8176c:	701a      	strb	r2, [r3, #0]
   8176e:	e0fc      	b.n	8196a <task_move+0x252>
   81770:	4b88      	ldr	r3, [pc, #544]	; (81994 <task_move+0x27c>)
   81772:	e9d3 0100 	ldrd	r0, r1, [r3]
   81776:	2200      	movs	r2, #0
   81778:	4b87      	ldr	r3, [pc, #540]	; (81998 <task_move+0x280>)
   8177a:	f8df c2a0 	ldr.w	ip, [pc, #672]	; 81a1c <task_move+0x304>
   8177e:	47e0      	blx	ip
   81780:	2200      	movs	r2, #0
   81782:	4b86      	ldr	r3, [pc, #536]	; (8199c <task_move+0x284>)
   81784:	f8df c298 	ldr.w	ip, [pc, #664]	; 81a20 <task_move+0x308>
   81788:	47e0      	blx	ip
   8178a:	b118      	cbz	r0, 81794 <task_move+0x7c>
   8178c:	4b84      	ldr	r3, [pc, #528]	; (819a0 <task_move+0x288>)
   8178e:	6818      	ldr	r0, [r3, #0]
   81790:	4b84      	ldr	r3, [pc, #528]	; (819a4 <task_move+0x28c>)
   81792:	4798      	blx	r3
   81794:	4b84      	ldr	r3, [pc, #528]	; (819a8 <task_move+0x290>)
   81796:	781b      	ldrb	r3, [r3, #0]
   81798:	b153      	cbz	r3, 817b0 <task_move+0x98>
   8179a:	4b81      	ldr	r3, [pc, #516]	; (819a0 <task_move+0x288>)
   8179c:	6818      	ldr	r0, [r3, #0]
   8179e:	4b83      	ldr	r3, [pc, #524]	; (819ac <task_move+0x294>)
   817a0:	4798      	blx	r3
   817a2:	4b83      	ldr	r3, [pc, #524]	; (819b0 <task_move+0x298>)
   817a4:	4798      	blx	r3
   817a6:	4b83      	ldr	r3, [pc, #524]	; (819b4 <task_move+0x29c>)
   817a8:	4798      	blx	r3
   817aa:	2204      	movs	r2, #4
   817ac:	4b77      	ldr	r3, [pc, #476]	; (8198c <task_move+0x274>)
   817ae:	701a      	strb	r2, [r3, #0]
   817b0:	4b81      	ldr	r3, [pc, #516]	; (819b8 <task_move+0x2a0>)
   817b2:	781b      	ldrb	r3, [r3, #0]
   817b4:	b153      	cbz	r3, 817cc <task_move+0xb4>
   817b6:	4b81      	ldr	r3, [pc, #516]	; (819bc <task_move+0x2a4>)
   817b8:	6818      	ldr	r0, [r3, #0]
   817ba:	4b7a      	ldr	r3, [pc, #488]	; (819a4 <task_move+0x28c>)
   817bc:	4798      	blx	r3
   817be:	2200      	movs	r2, #0
   817c0:	4b7d      	ldr	r3, [pc, #500]	; (819b8 <task_move+0x2a0>)
   817c2:	701a      	strb	r2, [r3, #0]
   817c4:	2205      	movs	r2, #5
   817c6:	4b71      	ldr	r3, [pc, #452]	; (8198c <task_move+0x274>)
   817c8:	701a      	strb	r2, [r3, #0]
   817ca:	e0ce      	b.n	8196a <task_move+0x252>
   817cc:	2204      	movs	r2, #4
   817ce:	4b6f      	ldr	r3, [pc, #444]	; (8198c <task_move+0x274>)
   817d0:	701a      	strb	r2, [r3, #0]
   817d2:	e0ca      	b.n	8196a <task_move+0x252>
   817d4:	487a      	ldr	r0, [pc, #488]	; (819c0 <task_move+0x2a8>)
   817d6:	4b7b      	ldr	r3, [pc, #492]	; (819c4 <task_move+0x2ac>)
   817d8:	4798      	blx	r3
   817da:	4b7b      	ldr	r3, [pc, #492]	; (819c8 <task_move+0x2b0>)
   817dc:	681b      	ldr	r3, [r3, #0]
   817de:	4a7b      	ldr	r2, [pc, #492]	; (819cc <task_move+0x2b4>)
   817e0:	6810      	ldr	r0, [r2, #0]
   817e2:	fb00 f003 	mul.w	r0, r0, r3
   817e6:	4b7a      	ldr	r3, [pc, #488]	; (819d0 <task_move+0x2b8>)
   817e8:	4798      	blx	r3
   817ea:	4632      	mov	r2, r6
   817ec:	463b      	mov	r3, r7
   817ee:	f8df c22c 	ldr.w	ip, [pc, #556]	; 81a1c <task_move+0x304>
   817f2:	47e0      	blx	ip
   817f4:	4680      	mov	r8, r0
   817f6:	4689      	mov	r9, r1
   817f8:	4b76      	ldr	r3, [pc, #472]	; (819d4 <task_move+0x2bc>)
   817fa:	e9c3 8900 	strd	r8, r9, [r3]
   817fe:	4b65      	ldr	r3, [pc, #404]	; (81994 <task_move+0x27c>)
   81800:	e9d3 0100 	ldrd	r0, r1, [r3]
   81804:	2200      	movs	r2, #0
   81806:	f04f 4380 	mov.w	r3, #1073741824	; 0x40000000
   8180a:	f8df c218 	ldr.w	ip, [pc, #536]	; 81a24 <task_move+0x30c>
   8180e:	47e0      	blx	ip
   81810:	4602      	mov	r2, r0
   81812:	460b      	mov	r3, r1
   81814:	4640      	mov	r0, r8
   81816:	4649      	mov	r1, r9
   81818:	f8df c20c 	ldr.w	ip, [pc, #524]	; 81a28 <task_move+0x310>
   8181c:	47e0      	blx	ip
   8181e:	2800      	cmp	r0, #0
   81820:	d026      	beq.n	81870 <task_move+0x158>
   81822:	f240 50dc 	movw	r0, #1500	; 0x5dc
   81826:	4b6c      	ldr	r3, [pc, #432]	; (819d8 <task_move+0x2c0>)
   81828:	4798      	blx	r3
   8182a:	f240 50dc 	movw	r0, #1500	; 0x5dc
   8182e:	4b6b      	ldr	r3, [pc, #428]	; (819dc <task_move+0x2c4>)
   81830:	4798      	blx	r3
   81832:	4b6b      	ldr	r3, [pc, #428]	; (819e0 <task_move+0x2c8>)
   81834:	e9c3 4500 	strd	r4, r5, [r3]
   81838:	4b6a      	ldr	r3, [pc, #424]	; (819e4 <task_move+0x2cc>)
   8183a:	e9c3 4500 	strd	r4, r5, [r3]
   8183e:	4b55      	ldr	r3, [pc, #340]	; (81994 <task_move+0x27c>)
   81840:	e9c3 4500 	strd	r4, r5, [r3]
   81844:	4b68      	ldr	r3, [pc, #416]	; (819e8 <task_move+0x2d0>)
   81846:	e9c3 4500 	strd	r4, r5, [r3]
   8184a:	2300      	movs	r3, #0
   8184c:	4a67      	ldr	r2, [pc, #412]	; (819ec <task_move+0x2d4>)
   8184e:	6013      	str	r3, [r2, #0]
   81850:	4a67      	ldr	r2, [pc, #412]	; (819f0 <task_move+0x2d8>)
   81852:	6013      	str	r3, [r2, #0]
   81854:	21c8      	movs	r1, #200	; 0xc8
   81856:	4a67      	ldr	r2, [pc, #412]	; (819f4 <task_move+0x2dc>)
   81858:	8011      	strh	r1, [r2, #0]
   8185a:	4a5b      	ldr	r2, [pc, #364]	; (819c8 <task_move+0x2b0>)
   8185c:	6013      	str	r3, [r2, #0]
   8185e:	4b66      	ldr	r3, [pc, #408]	; (819f8 <task_move+0x2e0>)
   81860:	4798      	blx	r3
   81862:	2201      	movs	r2, #1
   81864:	4b54      	ldr	r3, [pc, #336]	; (819b8 <task_move+0x2a0>)
   81866:	701a      	strb	r2, [r3, #0]
   81868:	2206      	movs	r2, #6
   8186a:	4b48      	ldr	r3, [pc, #288]	; (8198c <task_move+0x274>)
   8186c:	701a      	strb	r2, [r3, #0]
   8186e:	e07c      	b.n	8196a <task_move+0x252>
   81870:	4b62      	ldr	r3, [pc, #392]	; (819fc <task_move+0x2e4>)
   81872:	4798      	blx	r3
   81874:	2206      	movs	r2, #6
   81876:	4b45      	ldr	r3, [pc, #276]	; (8198c <task_move+0x274>)
   81878:	701a      	strb	r2, [r3, #0]
   8187a:	e076      	b.n	8196a <task_move+0x252>
   8187c:	4860      	ldr	r0, [pc, #384]	; (81a00 <task_move+0x2e8>)
   8187e:	4b51      	ldr	r3, [pc, #324]	; (819c4 <task_move+0x2ac>)
   81880:	4798      	blx	r3
   81882:	2201      	movs	r2, #1
   81884:	4b5f      	ldr	r3, [pc, #380]	; (81a04 <task_move+0x2ec>)
   81886:	601a      	str	r2, [r3, #0]
   81888:	4b58      	ldr	r3, [pc, #352]	; (819ec <task_move+0x2d4>)
   8188a:	681b      	ldr	r3, [r3, #0]
   8188c:	2b00      	cmp	r3, #0
   8188e:	da03      	bge.n	81898 <task_move+0x180>
   81890:	f04f 31ff 	mov.w	r1, #4294967295
   81894:	4a5b      	ldr	r2, [pc, #364]	; (81a04 <task_move+0x2ec>)
   81896:	6011      	str	r1, [r2, #0]
   81898:	4a5a      	ldr	r2, [pc, #360]	; (81a04 <task_move+0x2ec>)
   8189a:	6812      	ldr	r2, [r2, #0]
   8189c:	fb02 f303 	mul.w	r3, r2, r3
   818a0:	eb03 70d3 	add.w	r0, r3, r3, lsr #31
   818a4:	1040      	asrs	r0, r0, #1
   818a6:	4b4a      	ldr	r3, [pc, #296]	; (819d0 <task_move+0x2b8>)
   818a8:	4798      	blx	r3
   818aa:	4b4a      	ldr	r3, [pc, #296]	; (819d4 <task_move+0x2bc>)
   818ac:	e9c3 0100 	strd	r0, r1, [r3]
   818b0:	f240 50dc 	movw	r0, #1500	; 0x5dc
   818b4:	4b48      	ldr	r3, [pc, #288]	; (819d8 <task_move+0x2c0>)
   818b6:	4798      	blx	r3
   818b8:	f240 50dc 	movw	r0, #1500	; 0x5dc
   818bc:	4b47      	ldr	r3, [pc, #284]	; (819dc <task_move+0x2c4>)
   818be:	4798      	blx	r3
   818c0:	4b4d      	ldr	r3, [pc, #308]	; (819f8 <task_move+0x2e0>)
   818c2:	4798      	blx	r3
   818c4:	2203      	movs	r2, #3
   818c6:	4b31      	ldr	r3, [pc, #196]	; (8198c <task_move+0x274>)
   818c8:	701a      	strb	r2, [r3, #0]
   818ca:	e04e      	b.n	8196a <task_move+0x252>
   818cc:	484e      	ldr	r0, [pc, #312]	; (81a08 <task_move+0x2f0>)
   818ce:	4b3d      	ldr	r3, [pc, #244]	; (819c4 <task_move+0x2ac>)
   818d0:	4798      	blx	r3
   818d2:	4b4e      	ldr	r3, [pc, #312]	; (81a0c <task_move+0x2f4>)
   818d4:	8818      	ldrh	r0, [r3, #0]
   818d6:	4b4e      	ldr	r3, [pc, #312]	; (81a10 <task_move+0x2f8>)
   818d8:	881b      	ldrh	r3, [r3, #0]
   818da:	4418      	add	r0, r3
   818dc:	3001      	adds	r0, #1
   818de:	4b3c      	ldr	r3, [pc, #240]	; (819d0 <task_move+0x2b8>)
   818e0:	4798      	blx	r3
   818e2:	4b3c      	ldr	r3, [pc, #240]	; (819d4 <task_move+0x2bc>)
   818e4:	e9d3 2300 	ldrd	r2, r3, [r3]
   818e8:	f8df c134 	ldr.w	ip, [pc, #308]	; 81a20 <task_move+0x308>
   818ec:	47e0      	blx	ip
   818ee:	b1b0      	cbz	r0, 8191e <task_move+0x206>
   818f0:	f240 50dc 	movw	r0, #1500	; 0x5dc
   818f4:	4b38      	ldr	r3, [pc, #224]	; (819d8 <task_move+0x2c0>)
   818f6:	4798      	blx	r3
   818f8:	f240 50dc 	movw	r0, #1500	; 0x5dc
   818fc:	4b37      	ldr	r3, [pc, #220]	; (819dc <task_move+0x2c4>)
   818fe:	4798      	blx	r3
   81900:	4b3d      	ldr	r3, [pc, #244]	; (819f8 <task_move+0x2e0>)
   81902:	4798      	blx	r3
   81904:	2200      	movs	r2, #0
   81906:	4b39      	ldr	r3, [pc, #228]	; (819ec <task_move+0x2d4>)
   81908:	601a      	str	r2, [r3, #0]
   8190a:	4b32      	ldr	r3, [pc, #200]	; (819d4 <task_move+0x2bc>)
   8190c:	e9c3 4500 	strd	r4, r5, [r3]
   81910:	4b20      	ldr	r3, [pc, #128]	; (81994 <task_move+0x27c>)
   81912:	e9c3 4500 	strd	r4, r5, [r3]
   81916:	2206      	movs	r2, #6
   81918:	4b1c      	ldr	r3, [pc, #112]	; (8198c <task_move+0x274>)
   8191a:	701a      	strb	r2, [r3, #0]
   8191c:	e025      	b.n	8196a <task_move+0x252>
   8191e:	f8df 910c 	ldr.w	r9, [pc, #268]	; 81a2c <task_move+0x314>
   81922:	f8df 80e0 	ldr.w	r8, [pc, #224]	; 81a04 <task_move+0x2ec>
   81926:	f8d9 3000 	ldr.w	r3, [r9]
   8192a:	f8d8 2000 	ldr.w	r2, [r8]
   8192e:	fb02 f003 	mul.w	r0, r2, r3
   81932:	f200 50dc 	addw	r0, r0, #1500	; 0x5dc
   81936:	4b29      	ldr	r3, [pc, #164]	; (819dc <task_move+0x2c4>)
   81938:	4798      	blx	r3
   8193a:	f8d9 3000 	ldr.w	r3, [r9]
   8193e:	f8d8 2000 	ldr.w	r2, [r8]
   81942:	f240 50dc 	movw	r0, #1500	; 0x5dc
   81946:	fb02 0013 	mls	r0, r2, r3, r0
   8194a:	4b23      	ldr	r3, [pc, #140]	; (819d8 <task_move+0x2c0>)
   8194c:	4798      	blx	r3
   8194e:	2203      	movs	r2, #3
   81950:	4b0e      	ldr	r3, [pc, #56]	; (8198c <task_move+0x274>)
   81952:	701a      	strb	r2, [r3, #0]
   81954:	e009      	b.n	8196a <task_move+0x252>
   81956:	4b2f      	ldr	r3, [pc, #188]	; (81a14 <task_move+0x2fc>)
   81958:	781b      	ldrb	r3, [r3, #0]
   8195a:	b11b      	cbz	r3, 81964 <task_move+0x24c>
   8195c:	2200      	movs	r2, #0
   8195e:	4b0b      	ldr	r3, [pc, #44]	; (8198c <task_move+0x274>)
   81960:	701a      	strb	r2, [r3, #0]
   81962:	e002      	b.n	8196a <task_move+0x252>
   81964:	2205      	movs	r2, #5
   81966:	4b09      	ldr	r3, [pc, #36]	; (8198c <task_move+0x274>)
   81968:	701a      	strb	r2, [r3, #0]
   8196a:	4b08      	ldr	r3, [pc, #32]	; (8198c <task_move+0x274>)
   8196c:	781a      	ldrb	r2, [r3, #0]
   8196e:	4b05      	ldr	r3, [pc, #20]	; (81984 <task_move+0x26c>)
   81970:	701a      	strb	r2, [r3, #0]
   81972:	e6df      	b.n	81734 <task_move+0x1c>
   81974:	f3af 8000 	nop.w
   81978:	33333333 	.word	0x33333333
   8197c:	3ff73333 	.word	0x3ff73333
   81980:	00082681 	.word	0x00082681
   81984:	20070a18 	.word	0x20070a18
   81988:	00081521 	.word	0x00081521
   8198c:	20078dd8 	.word	0x20078dd8
   81990:	000815ed 	.word	0x000815ed
   81994:	20070a48 	.word	0x20070a48
   81998:	40340000 	.word	0x40340000
   8199c:	3ff00000 	.word	0x3ff00000
   819a0:	20078c98 	.word	0x20078c98
   819a4:	0008257d 	.word	0x0008257d
   819a8:	20070a70 	.word	0x20070a70
   819ac:	00082a81 	.word	0x00082a81
   819b0:	00081469 	.word	0x00081469
   819b4:	00081481 	.word	0x00081481
   819b8:	20070a28 	.word	0x20070a28
   819bc:	20078c9c 	.word	0x20078c9c
   819c0:	000879f0 	.word	0x000879f0
   819c4:	000849b9 	.word	0x000849b9
   819c8:	20070a50 	.word	0x20070a50
   819cc:	20070140 	.word	0x20070140
   819d0:	000842cd 	.word	0x000842cd
   819d4:	20078dd0 	.word	0x20078dd0
   819d8:	00080e35 	.word	0x00080e35
   819dc:	00080e05 	.word	0x00080e05
   819e0:	20070a10 	.word	0x20070a10
   819e4:	20070a20 	.word	0x20070a20
   819e8:	20070a38 	.word	0x20070a38
   819ec:	20070a2c 	.word	0x20070a2c
   819f0:	20070a60 	.word	0x20070a60
   819f4:	20070150 	.word	0x20070150
   819f8:	00080f49 	.word	0x00080f49
   819fc:	00081099 	.word	0x00081099
   81a00:	000879f8 	.word	0x000879f8
   81a04:	20078ddc 	.word	0x20078ddc
   81a08:	00087a08 	.word	0x00087a08
   81a0c:	20078d56 	.word	0x20078d56
   81a10:	20078d54 	.word	0x20078d54
   81a14:	20070a71 	.word	0x20070a71
   81a18:	000828d5 	.word	0x000828d5
   81a1c:	000845ed 	.word	0x000845ed
   81a20:	000848a5 	.word	0x000848a5
   81a24:	00084035 	.word	0x00084035
   81a28:	00084891 	.word	0x00084891
   81a2c:	20070144 	.word	0x20070144

00081a30 <vListInitialise>:
   81a30:	f100 0308 	add.w	r3, r0, #8
   81a34:	6043      	str	r3, [r0, #4]
   81a36:	f64f 72ff 	movw	r2, #65535	; 0xffff
   81a3a:	8102      	strh	r2, [r0, #8]
   81a3c:	60c3      	str	r3, [r0, #12]
   81a3e:	6103      	str	r3, [r0, #16]
   81a40:	2300      	movs	r3, #0
   81a42:	6003      	str	r3, [r0, #0]
   81a44:	4770      	bx	lr
   81a46:	bf00      	nop

00081a48 <vListInitialiseItem>:
   81a48:	2300      	movs	r3, #0
   81a4a:	6103      	str	r3, [r0, #16]
   81a4c:	4770      	bx	lr
   81a4e:	bf00      	nop

00081a50 <vListInsertEnd>:
   81a50:	6843      	ldr	r3, [r0, #4]
   81a52:	685a      	ldr	r2, [r3, #4]
   81a54:	604a      	str	r2, [r1, #4]
   81a56:	6842      	ldr	r2, [r0, #4]
   81a58:	608a      	str	r2, [r1, #8]
   81a5a:	685a      	ldr	r2, [r3, #4]
   81a5c:	6091      	str	r1, [r2, #8]
   81a5e:	6059      	str	r1, [r3, #4]
   81a60:	6041      	str	r1, [r0, #4]
   81a62:	6108      	str	r0, [r1, #16]
   81a64:	6803      	ldr	r3, [r0, #0]
   81a66:	3301      	adds	r3, #1
   81a68:	6003      	str	r3, [r0, #0]
   81a6a:	4770      	bx	lr

00081a6c <vListInsert>:
   81a6c:	b410      	push	{r4}
   81a6e:	880c      	ldrh	r4, [r1, #0]
   81a70:	f64f 73ff 	movw	r3, #65535	; 0xffff
   81a74:	429c      	cmp	r4, r3
   81a76:	d101      	bne.n	81a7c <vListInsert+0x10>
   81a78:	6903      	ldr	r3, [r0, #16]
   81a7a:	e00c      	b.n	81a96 <vListInsert+0x2a>
   81a7c:	f100 0308 	add.w	r3, r0, #8
   81a80:	68c2      	ldr	r2, [r0, #12]
   81a82:	8812      	ldrh	r2, [r2, #0]
   81a84:	b292      	uxth	r2, r2
   81a86:	4294      	cmp	r4, r2
   81a88:	d305      	bcc.n	81a96 <vListInsert+0x2a>
   81a8a:	685b      	ldr	r3, [r3, #4]
   81a8c:	685a      	ldr	r2, [r3, #4]
   81a8e:	8812      	ldrh	r2, [r2, #0]
   81a90:	b292      	uxth	r2, r2
   81a92:	4294      	cmp	r4, r2
   81a94:	d2f9      	bcs.n	81a8a <vListInsert+0x1e>
   81a96:	685a      	ldr	r2, [r3, #4]
   81a98:	604a      	str	r2, [r1, #4]
   81a9a:	6091      	str	r1, [r2, #8]
   81a9c:	608b      	str	r3, [r1, #8]
   81a9e:	6059      	str	r1, [r3, #4]
   81aa0:	6108      	str	r0, [r1, #16]
   81aa2:	6803      	ldr	r3, [r0, #0]
   81aa4:	3301      	adds	r3, #1
   81aa6:	6003      	str	r3, [r0, #0]
   81aa8:	f85d 4b04 	ldr.w	r4, [sp], #4
   81aac:	4770      	bx	lr
   81aae:	bf00      	nop

00081ab0 <uxListRemove>:
   81ab0:	6843      	ldr	r3, [r0, #4]
   81ab2:	6882      	ldr	r2, [r0, #8]
   81ab4:	609a      	str	r2, [r3, #8]
   81ab6:	6883      	ldr	r3, [r0, #8]
   81ab8:	6842      	ldr	r2, [r0, #4]
   81aba:	605a      	str	r2, [r3, #4]
   81abc:	6903      	ldr	r3, [r0, #16]
   81abe:	685a      	ldr	r2, [r3, #4]
   81ac0:	4282      	cmp	r2, r0
   81ac2:	bf04      	itt	eq
   81ac4:	6882      	ldreq	r2, [r0, #8]
   81ac6:	605a      	streq	r2, [r3, #4]
   81ac8:	2200      	movs	r2, #0
   81aca:	6102      	str	r2, [r0, #16]
   81acc:	681a      	ldr	r2, [r3, #0]
   81ace:	3a01      	subs	r2, #1
   81ad0:	601a      	str	r2, [r3, #0]
   81ad2:	6818      	ldr	r0, [r3, #0]
   81ad4:	4770      	bx	lr
   81ad6:	bf00      	nop

00081ad8 <prvPortStartFirstTask>:
   81ad8:	4803      	ldr	r0, [pc, #12]	; (81ae8 <prvPortStartFirstTask+0x10>)
   81ada:	6800      	ldr	r0, [r0, #0]
   81adc:	6800      	ldr	r0, [r0, #0]
   81ade:	f380 8808 	msr	MSP, r0
   81ae2:	b662      	cpsie	i
   81ae4:	df00      	svc	0
   81ae6:	bf00      	nop
   81ae8:	e000ed08 	.word	0xe000ed08

00081aec <pxPortInitialiseStack>:
   81aec:	f04f 7380 	mov.w	r3, #16777216	; 0x1000000
   81af0:	f840 3c04 	str.w	r3, [r0, #-4]
   81af4:	f840 1c08 	str.w	r1, [r0, #-8]
   81af8:	2300      	movs	r3, #0
   81afa:	f840 3c0c 	str.w	r3, [r0, #-12]
   81afe:	f840 2c20 	str.w	r2, [r0, #-32]
   81b02:	3840      	subs	r0, #64	; 0x40
   81b04:	4770      	bx	lr
   81b06:	bf00      	nop

00081b08 <SVC_Handler>:
   81b08:	4b06      	ldr	r3, [pc, #24]	; (81b24 <pxCurrentTCBConst2>)
   81b0a:	6819      	ldr	r1, [r3, #0]
   81b0c:	6808      	ldr	r0, [r1, #0]
   81b0e:	e8b0 0ff0 	ldmia.w	r0!, {r4, r5, r6, r7, r8, r9, sl, fp}
   81b12:	f380 8809 	msr	PSP, r0
   81b16:	f04f 0000 	mov.w	r0, #0
   81b1a:	f380 8811 	msr	BASEPRI, r0
   81b1e:	f04e 0e0d 	orr.w	lr, lr, #13
   81b22:	4770      	bx	lr

00081b24 <pxCurrentTCBConst2>:
   81b24:	20078ba0 	.word	0x20078ba0

00081b28 <vPortYieldFromISR>:
   81b28:	f04f 5280 	mov.w	r2, #268435456	; 0x10000000
   81b2c:	4b01      	ldr	r3, [pc, #4]	; (81b34 <vPortYieldFromISR+0xc>)
   81b2e:	601a      	str	r2, [r3, #0]
   81b30:	4770      	bx	lr
   81b32:	bf00      	nop
   81b34:	e000ed04 	.word	0xe000ed04

00081b38 <ulPortSetInterruptMask>:
   81b38:	f3ef 8011 	mrs	r0, BASEPRI
   81b3c:	f04f 01a0 	mov.w	r1, #160	; 0xa0
   81b40:	f381 8811 	msr	BASEPRI, r1
   81b44:	4770      	bx	lr
   81b46:	2000      	movs	r0, #0

00081b48 <vPortEnterCritical>:
   81b48:	b508      	push	{r3, lr}
   81b4a:	4b03      	ldr	r3, [pc, #12]	; (81b58 <vPortEnterCritical+0x10>)
   81b4c:	4798      	blx	r3
   81b4e:	4b03      	ldr	r3, [pc, #12]	; (81b5c <vPortEnterCritical+0x14>)
   81b50:	681a      	ldr	r2, [r3, #0]
   81b52:	3201      	adds	r2, #1
   81b54:	601a      	str	r2, [r3, #0]
   81b56:	bd08      	pop	{r3, pc}
   81b58:	00081b39 	.word	0x00081b39
   81b5c:	20070160 	.word	0x20070160

00081b60 <vPortClearInterruptMask>:
   81b60:	f380 8811 	msr	BASEPRI, r0
   81b64:	4770      	bx	lr
   81b66:	bf00      	nop

00081b68 <vPortExitCritical>:
   81b68:	b508      	push	{r3, lr}
   81b6a:	4a04      	ldr	r2, [pc, #16]	; (81b7c <vPortExitCritical+0x14>)
   81b6c:	6813      	ldr	r3, [r2, #0]
   81b6e:	3b01      	subs	r3, #1
   81b70:	6013      	str	r3, [r2, #0]
   81b72:	b913      	cbnz	r3, 81b7a <vPortExitCritical+0x12>
   81b74:	2000      	movs	r0, #0
   81b76:	4b02      	ldr	r3, [pc, #8]	; (81b80 <vPortExitCritical+0x18>)
   81b78:	4798      	blx	r3
   81b7a:	bd08      	pop	{r3, pc}
   81b7c:	20070160 	.word	0x20070160
   81b80:	00081b61 	.word	0x00081b61

00081b84 <PendSV_Handler>:
   81b84:	f3ef 8009 	mrs	r0, PSP
   81b88:	4b0c      	ldr	r3, [pc, #48]	; (81bbc <pxCurrentTCBConst>)
   81b8a:	681a      	ldr	r2, [r3, #0]
   81b8c:	e920 0ff0 	stmdb	r0!, {r4, r5, r6, r7, r8, r9, sl, fp}
   81b90:	6010      	str	r0, [r2, #0]
   81b92:	e92d 4008 	stmdb	sp!, {r3, lr}
   81b96:	f04f 00a0 	mov.w	r0, #160	; 0xa0
   81b9a:	f380 8811 	msr	BASEPRI, r0
   81b9e:	f000 ff27 	bl	829f0 <vTaskSwitchContext>
   81ba2:	f04f 0000 	mov.w	r0, #0
   81ba6:	f380 8811 	msr	BASEPRI, r0
   81baa:	e8bd 4008 	ldmia.w	sp!, {r3, lr}
   81bae:	6819      	ldr	r1, [r3, #0]
   81bb0:	6808      	ldr	r0, [r1, #0]
   81bb2:	e8b0 0ff0 	ldmia.w	r0!, {r4, r5, r6, r7, r8, r9, sl, fp}
   81bb6:	f380 8809 	msr	PSP, r0
   81bba:	4770      	bx	lr

00081bbc <pxCurrentTCBConst>:
   81bbc:	20078ba0 	.word	0x20078ba0

00081bc0 <SysTick_Handler>:
   81bc0:	b508      	push	{r3, lr}
   81bc2:	f04f 5280 	mov.w	r2, #268435456	; 0x10000000
   81bc6:	4b05      	ldr	r3, [pc, #20]	; (81bdc <SysTick_Handler+0x1c>)
   81bc8:	601a      	str	r2, [r3, #0]
   81bca:	4b05      	ldr	r3, [pc, #20]	; (81be0 <SysTick_Handler+0x20>)
   81bcc:	4798      	blx	r3
   81bce:	4b05      	ldr	r3, [pc, #20]	; (81be4 <SysTick_Handler+0x24>)
   81bd0:	4798      	blx	r3
   81bd2:	2000      	movs	r0, #0
   81bd4:	4b04      	ldr	r3, [pc, #16]	; (81be8 <SysTick_Handler+0x28>)
   81bd6:	4798      	blx	r3
   81bd8:	bd08      	pop	{r3, pc}
   81bda:	bf00      	nop
   81bdc:	e000ed04 	.word	0xe000ed04
   81be0:	00081b39 	.word	0x00081b39
   81be4:	000826a1 	.word	0x000826a1
   81be8:	00081b61 	.word	0x00081b61

00081bec <vPortSetupTimerInterrupt>:
   81bec:	4a03      	ldr	r2, [pc, #12]	; (81bfc <vPortSetupTimerInterrupt+0x10>)
   81bee:	4b04      	ldr	r3, [pc, #16]	; (81c00 <vPortSetupTimerInterrupt+0x14>)
   81bf0:	601a      	str	r2, [r3, #0]
   81bf2:	2207      	movs	r2, #7
   81bf4:	3b04      	subs	r3, #4
   81bf6:	601a      	str	r2, [r3, #0]
   81bf8:	4770      	bx	lr
   81bfa:	bf00      	nop
   81bfc:	0001481f 	.word	0x0001481f
   81c00:	e000e014 	.word	0xe000e014

00081c04 <xPortStartScheduler>:
   81c04:	b510      	push	{r4, lr}
   81c06:	4b09      	ldr	r3, [pc, #36]	; (81c2c <xPortStartScheduler+0x28>)
   81c08:	681a      	ldr	r2, [r3, #0]
   81c0a:	f442 0270 	orr.w	r2, r2, #15728640	; 0xf00000
   81c0e:	601a      	str	r2, [r3, #0]
   81c10:	681a      	ldr	r2, [r3, #0]
   81c12:	f042 4270 	orr.w	r2, r2, #4026531840	; 0xf0000000
   81c16:	601a      	str	r2, [r3, #0]
   81c18:	4b05      	ldr	r3, [pc, #20]	; (81c30 <xPortStartScheduler+0x2c>)
   81c1a:	4798      	blx	r3
   81c1c:	2400      	movs	r4, #0
   81c1e:	4b05      	ldr	r3, [pc, #20]	; (81c34 <xPortStartScheduler+0x30>)
   81c20:	601c      	str	r4, [r3, #0]
   81c22:	4b05      	ldr	r3, [pc, #20]	; (81c38 <xPortStartScheduler+0x34>)
   81c24:	4798      	blx	r3
   81c26:	4620      	mov	r0, r4
   81c28:	bd10      	pop	{r4, pc}
   81c2a:	bf00      	nop
   81c2c:	e000ed20 	.word	0xe000ed20
   81c30:	00081bed 	.word	0x00081bed
   81c34:	20070160 	.word	0x20070160
   81c38:	00081ad9 	.word	0x00081ad9

00081c3c <prvInsertBlockIntoFreeList>:
   81c3c:	b430      	push	{r4, r5}
   81c3e:	4a13      	ldr	r2, [pc, #76]	; (81c8c <prvInsertBlockIntoFreeList+0x50>)
   81c40:	6813      	ldr	r3, [r2, #0]
   81c42:	4283      	cmp	r3, r0
   81c44:	d201      	bcs.n	81c4a <prvInsertBlockIntoFreeList+0xe>
   81c46:	461a      	mov	r2, r3
   81c48:	e7fa      	b.n	81c40 <prvInsertBlockIntoFreeList+0x4>
   81c4a:	4611      	mov	r1, r2
   81c4c:	6854      	ldr	r4, [r2, #4]
   81c4e:	1915      	adds	r5, r2, r4
   81c50:	4285      	cmp	r5, r0
   81c52:	d103      	bne.n	81c5c <prvInsertBlockIntoFreeList+0x20>
   81c54:	6868      	ldr	r0, [r5, #4]
   81c56:	4404      	add	r4, r0
   81c58:	6054      	str	r4, [r2, #4]
   81c5a:	4610      	mov	r0, r2
   81c5c:	6842      	ldr	r2, [r0, #4]
   81c5e:	1884      	adds	r4, r0, r2
   81c60:	42a3      	cmp	r3, r4
   81c62:	d10c      	bne.n	81c7e <prvInsertBlockIntoFreeList+0x42>
   81c64:	4c0a      	ldr	r4, [pc, #40]	; (81c90 <prvInsertBlockIntoFreeList+0x54>)
   81c66:	6824      	ldr	r4, [r4, #0]
   81c68:	429c      	cmp	r4, r3
   81c6a:	d006      	beq.n	81c7a <prvInsertBlockIntoFreeList+0x3e>
   81c6c:	685b      	ldr	r3, [r3, #4]
   81c6e:	441a      	add	r2, r3
   81c70:	6042      	str	r2, [r0, #4]
   81c72:	680b      	ldr	r3, [r1, #0]
   81c74:	681b      	ldr	r3, [r3, #0]
   81c76:	6003      	str	r3, [r0, #0]
   81c78:	e002      	b.n	81c80 <prvInsertBlockIntoFreeList+0x44>
   81c7a:	6003      	str	r3, [r0, #0]
   81c7c:	e000      	b.n	81c80 <prvInsertBlockIntoFreeList+0x44>
   81c7e:	6003      	str	r3, [r0, #0]
   81c80:	4281      	cmp	r1, r0
   81c82:	bf18      	it	ne
   81c84:	6008      	strne	r0, [r1, #0]
   81c86:	bc30      	pop	{r4, r5}
   81c88:	4770      	bx	lr
   81c8a:	bf00      	nop
   81c8c:	20078a7c 	.word	0x20078a7c
   81c90:	20078a78 	.word	0x20078a78

00081c94 <pvPortMalloc>:
   81c94:	b538      	push	{r3, r4, r5, lr}
   81c96:	4604      	mov	r4, r0
   81c98:	4b28      	ldr	r3, [pc, #160]	; (81d3c <pvPortMalloc+0xa8>)
   81c9a:	4798      	blx	r3
   81c9c:	4b28      	ldr	r3, [pc, #160]	; (81d40 <pvPortMalloc+0xac>)
   81c9e:	681b      	ldr	r3, [r3, #0]
   81ca0:	b99b      	cbnz	r3, 81cca <pvPortMalloc+0x36>
   81ca2:	4a28      	ldr	r2, [pc, #160]	; (81d44 <pvPortMalloc+0xb0>)
   81ca4:	4b28      	ldr	r3, [pc, #160]	; (81d48 <pvPortMalloc+0xb4>)
   81ca6:	6013      	str	r3, [r2, #0]
   81ca8:	2100      	movs	r1, #0
   81caa:	6051      	str	r1, [r2, #4]
   81cac:	f647 72f0 	movw	r2, #32752	; 0x7ff0
   81cb0:	1898      	adds	r0, r3, r2
   81cb2:	4d23      	ldr	r5, [pc, #140]	; (81d40 <pvPortMalloc+0xac>)
   81cb4:	6028      	str	r0, [r5, #0]
   81cb6:	f647 75f4 	movw	r5, #32756	; 0x7ff4
   81cba:	5159      	str	r1, [r3, r5]
   81cbc:	5099      	str	r1, [r3, r2]
   81cbe:	605a      	str	r2, [r3, #4]
   81cc0:	6018      	str	r0, [r3, #0]
   81cc2:	4b22      	ldr	r3, [pc, #136]	; (81d4c <pvPortMalloc+0xb8>)
   81cc4:	681a      	ldr	r2, [r3, #0]
   81cc6:	3a10      	subs	r2, #16
   81cc8:	601a      	str	r2, [r3, #0]
   81cca:	2c00      	cmp	r4, #0
   81ccc:	d02d      	beq.n	81d2a <pvPortMalloc+0x96>
   81cce:	f104 0210 	add.w	r2, r4, #16
   81cd2:	f012 0f07 	tst.w	r2, #7
   81cd6:	bf1c      	itt	ne
   81cd8:	f022 0207 	bicne.w	r2, r2, #7
   81cdc:	3208      	addne	r2, #8
   81cde:	1e51      	subs	r1, r2, #1
   81ce0:	f647 73fe 	movw	r3, #32766	; 0x7ffe
   81ce4:	4299      	cmp	r1, r3
   81ce6:	d822      	bhi.n	81d2e <pvPortMalloc+0x9a>
   81ce8:	4916      	ldr	r1, [pc, #88]	; (81d44 <pvPortMalloc+0xb0>)
   81cea:	680c      	ldr	r4, [r1, #0]
   81cec:	6863      	ldr	r3, [r4, #4]
   81cee:	429a      	cmp	r2, r3
   81cf0:	d904      	bls.n	81cfc <pvPortMalloc+0x68>
   81cf2:	6823      	ldr	r3, [r4, #0]
   81cf4:	b113      	cbz	r3, 81cfc <pvPortMalloc+0x68>
   81cf6:	4621      	mov	r1, r4
   81cf8:	461c      	mov	r4, r3
   81cfa:	e7f7      	b.n	81cec <pvPortMalloc+0x58>
   81cfc:	4b10      	ldr	r3, [pc, #64]	; (81d40 <pvPortMalloc+0xac>)
   81cfe:	681b      	ldr	r3, [r3, #0]
   81d00:	429c      	cmp	r4, r3
   81d02:	d016      	beq.n	81d32 <pvPortMalloc+0x9e>
   81d04:	680d      	ldr	r5, [r1, #0]
   81d06:	3510      	adds	r5, #16
   81d08:	6823      	ldr	r3, [r4, #0]
   81d0a:	600b      	str	r3, [r1, #0]
   81d0c:	6863      	ldr	r3, [r4, #4]
   81d0e:	1a9b      	subs	r3, r3, r2
   81d10:	2b20      	cmp	r3, #32
   81d12:	d904      	bls.n	81d1e <pvPortMalloc+0x8a>
   81d14:	18a0      	adds	r0, r4, r2
   81d16:	6043      	str	r3, [r0, #4]
   81d18:	6062      	str	r2, [r4, #4]
   81d1a:	4b0d      	ldr	r3, [pc, #52]	; (81d50 <pvPortMalloc+0xbc>)
   81d1c:	4798      	blx	r3
   81d1e:	4b0b      	ldr	r3, [pc, #44]	; (81d4c <pvPortMalloc+0xb8>)
   81d20:	681a      	ldr	r2, [r3, #0]
   81d22:	6861      	ldr	r1, [r4, #4]
   81d24:	1a52      	subs	r2, r2, r1
   81d26:	601a      	str	r2, [r3, #0]
   81d28:	e004      	b.n	81d34 <pvPortMalloc+0xa0>
   81d2a:	2500      	movs	r5, #0
   81d2c:	e002      	b.n	81d34 <pvPortMalloc+0xa0>
   81d2e:	2500      	movs	r5, #0
   81d30:	e000      	b.n	81d34 <pvPortMalloc+0xa0>
   81d32:	2500      	movs	r5, #0
   81d34:	4b07      	ldr	r3, [pc, #28]	; (81d54 <pvPortMalloc+0xc0>)
   81d36:	4798      	blx	r3
   81d38:	4628      	mov	r0, r5
   81d3a:	bd38      	pop	{r3, r4, r5, pc}
   81d3c:	00082671 	.word	0x00082671
   81d40:	20078a78 	.word	0x20078a78
   81d44:	20078a7c 	.word	0x20078a7c
   81d48:	20070a78 	.word	0x20070a78
   81d4c:	20070164 	.word	0x20070164
   81d50:	00081c3d 	.word	0x00081c3d
   81d54:	000827cd 	.word	0x000827cd

00081d58 <vPortFree>:
   81d58:	b510      	push	{r4, lr}
   81d5a:	4604      	mov	r4, r0
   81d5c:	b168      	cbz	r0, 81d7a <vPortFree+0x22>
   81d5e:	4b07      	ldr	r3, [pc, #28]	; (81d7c <vPortFree+0x24>)
   81d60:	4798      	blx	r3
   81d62:	4b07      	ldr	r3, [pc, #28]	; (81d80 <vPortFree+0x28>)
   81d64:	6819      	ldr	r1, [r3, #0]
   81d66:	f854 2c0c 	ldr.w	r2, [r4, #-12]
   81d6a:	440a      	add	r2, r1
   81d6c:	601a      	str	r2, [r3, #0]
   81d6e:	f1a4 0010 	sub.w	r0, r4, #16
   81d72:	4b04      	ldr	r3, [pc, #16]	; (81d84 <vPortFree+0x2c>)
   81d74:	4798      	blx	r3
   81d76:	4b04      	ldr	r3, [pc, #16]	; (81d88 <vPortFree+0x30>)
   81d78:	4798      	blx	r3
   81d7a:	bd10      	pop	{r4, pc}
   81d7c:	00082671 	.word	0x00082671
   81d80:	20070164 	.word	0x20070164
   81d84:	00081c3d 	.word	0x00081c3d
   81d88:	000827cd 	.word	0x000827cd

00081d8c <prvCopyDataToQueue>:
   81d8c:	b510      	push	{r4, lr}
   81d8e:	4604      	mov	r4, r0
   81d90:	6c03      	ldr	r3, [r0, #64]	; 0x40
   81d92:	b93b      	cbnz	r3, 81da4 <prvCopyDataToQueue+0x18>
   81d94:	6803      	ldr	r3, [r0, #0]
   81d96:	bb1b      	cbnz	r3, 81de0 <prvCopyDataToQueue+0x54>
   81d98:	6840      	ldr	r0, [r0, #4]
   81d9a:	4b13      	ldr	r3, [pc, #76]	; (81de8 <prvCopyDataToQueue+0x5c>)
   81d9c:	4798      	blx	r3
   81d9e:	2300      	movs	r3, #0
   81da0:	6063      	str	r3, [r4, #4]
   81da2:	e01d      	b.n	81de0 <prvCopyDataToQueue+0x54>
   81da4:	b96a      	cbnz	r2, 81dc2 <prvCopyDataToQueue+0x36>
   81da6:	6880      	ldr	r0, [r0, #8]
   81da8:	461a      	mov	r2, r3
   81daa:	4b10      	ldr	r3, [pc, #64]	; (81dec <prvCopyDataToQueue+0x60>)
   81dac:	4798      	blx	r3
   81dae:	68a2      	ldr	r2, [r4, #8]
   81db0:	6c23      	ldr	r3, [r4, #64]	; 0x40
   81db2:	4413      	add	r3, r2
   81db4:	60a3      	str	r3, [r4, #8]
   81db6:	6862      	ldr	r2, [r4, #4]
   81db8:	4293      	cmp	r3, r2
   81dba:	d311      	bcc.n	81de0 <prvCopyDataToQueue+0x54>
   81dbc:	6823      	ldr	r3, [r4, #0]
   81dbe:	60a3      	str	r3, [r4, #8]
   81dc0:	e00e      	b.n	81de0 <prvCopyDataToQueue+0x54>
   81dc2:	68c0      	ldr	r0, [r0, #12]
   81dc4:	461a      	mov	r2, r3
   81dc6:	4b09      	ldr	r3, [pc, #36]	; (81dec <prvCopyDataToQueue+0x60>)
   81dc8:	4798      	blx	r3
   81dca:	6c22      	ldr	r2, [r4, #64]	; 0x40
   81dcc:	4252      	negs	r2, r2
   81dce:	68e3      	ldr	r3, [r4, #12]
   81dd0:	4413      	add	r3, r2
   81dd2:	60e3      	str	r3, [r4, #12]
   81dd4:	6821      	ldr	r1, [r4, #0]
   81dd6:	428b      	cmp	r3, r1
   81dd8:	d202      	bcs.n	81de0 <prvCopyDataToQueue+0x54>
   81dda:	6863      	ldr	r3, [r4, #4]
   81ddc:	441a      	add	r2, r3
   81dde:	60e2      	str	r2, [r4, #12]
   81de0:	6ba3      	ldr	r3, [r4, #56]	; 0x38
   81de2:	3301      	adds	r3, #1
   81de4:	63a3      	str	r3, [r4, #56]	; 0x38
   81de6:	bd10      	pop	{r4, pc}
   81de8:	00082da9 	.word	0x00082da9
   81dec:	000849e1 	.word	0x000849e1

00081df0 <prvCopyDataFromQueue>:
   81df0:	b538      	push	{r3, r4, r5, lr}
   81df2:	4603      	mov	r3, r0
   81df4:	6805      	ldr	r5, [r0, #0]
   81df6:	b15d      	cbz	r5, 81e10 <prvCopyDataFromQueue+0x20>
   81df8:	6c02      	ldr	r2, [r0, #64]	; 0x40
   81dfa:	68c4      	ldr	r4, [r0, #12]
   81dfc:	4414      	add	r4, r2
   81dfe:	60c4      	str	r4, [r0, #12]
   81e00:	6840      	ldr	r0, [r0, #4]
   81e02:	4284      	cmp	r4, r0
   81e04:	bf28      	it	cs
   81e06:	60dd      	strcs	r5, [r3, #12]
   81e08:	4608      	mov	r0, r1
   81e0a:	68d9      	ldr	r1, [r3, #12]
   81e0c:	4b01      	ldr	r3, [pc, #4]	; (81e14 <prvCopyDataFromQueue+0x24>)
   81e0e:	4798      	blx	r3
   81e10:	bd38      	pop	{r3, r4, r5, pc}
   81e12:	bf00      	nop
   81e14:	000849e1 	.word	0x000849e1

00081e18 <prvUnlockQueue>:
   81e18:	b5f8      	push	{r3, r4, r5, r6, r7, lr}
   81e1a:	4604      	mov	r4, r0
   81e1c:	4b1d      	ldr	r3, [pc, #116]	; (81e94 <prvUnlockQueue+0x7c>)
   81e1e:	4798      	blx	r3
   81e20:	6ca3      	ldr	r3, [r4, #72]	; 0x48
   81e22:	2b00      	cmp	r3, #0
   81e24:	dd12      	ble.n	81e4c <prvUnlockQueue+0x34>
   81e26:	6a63      	ldr	r3, [r4, #36]	; 0x24
   81e28:	b183      	cbz	r3, 81e4c <prvUnlockQueue+0x34>
   81e2a:	f104 0624 	add.w	r6, r4, #36	; 0x24
   81e2e:	4d1a      	ldr	r5, [pc, #104]	; (81e98 <prvUnlockQueue+0x80>)
   81e30:	4f1a      	ldr	r7, [pc, #104]	; (81e9c <prvUnlockQueue+0x84>)
   81e32:	e001      	b.n	81e38 <prvUnlockQueue+0x20>
   81e34:	6a63      	ldr	r3, [r4, #36]	; 0x24
   81e36:	b14b      	cbz	r3, 81e4c <prvUnlockQueue+0x34>
   81e38:	4630      	mov	r0, r6
   81e3a:	47a8      	blx	r5
   81e3c:	b100      	cbz	r0, 81e40 <prvUnlockQueue+0x28>
   81e3e:	47b8      	blx	r7
   81e40:	6ca3      	ldr	r3, [r4, #72]	; 0x48
   81e42:	3b01      	subs	r3, #1
   81e44:	64a3      	str	r3, [r4, #72]	; 0x48
   81e46:	6ca3      	ldr	r3, [r4, #72]	; 0x48
   81e48:	2b00      	cmp	r3, #0
   81e4a:	dcf3      	bgt.n	81e34 <prvUnlockQueue+0x1c>
   81e4c:	f04f 33ff 	mov.w	r3, #4294967295
   81e50:	64a3      	str	r3, [r4, #72]	; 0x48
   81e52:	4b13      	ldr	r3, [pc, #76]	; (81ea0 <prvUnlockQueue+0x88>)
   81e54:	4798      	blx	r3
   81e56:	4b0f      	ldr	r3, [pc, #60]	; (81e94 <prvUnlockQueue+0x7c>)
   81e58:	4798      	blx	r3
   81e5a:	6c63      	ldr	r3, [r4, #68]	; 0x44
   81e5c:	2b00      	cmp	r3, #0
   81e5e:	dd12      	ble.n	81e86 <prvUnlockQueue+0x6e>
   81e60:	6923      	ldr	r3, [r4, #16]
   81e62:	b183      	cbz	r3, 81e86 <prvUnlockQueue+0x6e>
   81e64:	f104 0610 	add.w	r6, r4, #16
   81e68:	4d0b      	ldr	r5, [pc, #44]	; (81e98 <prvUnlockQueue+0x80>)
   81e6a:	4f0c      	ldr	r7, [pc, #48]	; (81e9c <prvUnlockQueue+0x84>)
   81e6c:	e001      	b.n	81e72 <prvUnlockQueue+0x5a>
   81e6e:	6923      	ldr	r3, [r4, #16]
   81e70:	b14b      	cbz	r3, 81e86 <prvUnlockQueue+0x6e>
   81e72:	4630      	mov	r0, r6
   81e74:	47a8      	blx	r5
   81e76:	b100      	cbz	r0, 81e7a <prvUnlockQueue+0x62>
   81e78:	47b8      	blx	r7
   81e7a:	6c63      	ldr	r3, [r4, #68]	; 0x44
   81e7c:	3b01      	subs	r3, #1
   81e7e:	6463      	str	r3, [r4, #68]	; 0x44
   81e80:	6c63      	ldr	r3, [r4, #68]	; 0x44
   81e82:	2b00      	cmp	r3, #0
   81e84:	dcf3      	bgt.n	81e6e <prvUnlockQueue+0x56>
   81e86:	f04f 33ff 	mov.w	r3, #4294967295
   81e8a:	6463      	str	r3, [r4, #68]	; 0x44
   81e8c:	4b04      	ldr	r3, [pc, #16]	; (81ea0 <prvUnlockQueue+0x88>)
   81e8e:	4798      	blx	r3
   81e90:	bdf8      	pop	{r3, r4, r5, r6, r7, pc}
   81e92:	bf00      	nop
   81e94:	00081b49 	.word	0x00081b49
   81e98:	00082bbd 	.word	0x00082bbd
   81e9c:	00082cf5 	.word	0x00082cf5
   81ea0:	00081b69 	.word	0x00081b69

00081ea4 <xQueueGenericReset>:
   81ea4:	b538      	push	{r3, r4, r5, lr}
   81ea6:	460d      	mov	r5, r1
   81ea8:	4604      	mov	r4, r0
   81eaa:	b918      	cbnz	r0, 81eb4 <xQueueGenericReset+0x10>
   81eac:	4b16      	ldr	r3, [pc, #88]	; (81f08 <xQueueGenericReset+0x64>)
   81eae:	4798      	blx	r3
   81eb0:	bf00      	nop
   81eb2:	e7fd      	b.n	81eb0 <xQueueGenericReset+0xc>
   81eb4:	4b15      	ldr	r3, [pc, #84]	; (81f0c <xQueueGenericReset+0x68>)
   81eb6:	4798      	blx	r3
   81eb8:	6823      	ldr	r3, [r4, #0]
   81eba:	6c22      	ldr	r2, [r4, #64]	; 0x40
   81ebc:	6be0      	ldr	r0, [r4, #60]	; 0x3c
   81ebe:	fb00 f002 	mul.w	r0, r0, r2
   81ec2:	1819      	adds	r1, r3, r0
   81ec4:	6061      	str	r1, [r4, #4]
   81ec6:	2100      	movs	r1, #0
   81ec8:	63a1      	str	r1, [r4, #56]	; 0x38
   81eca:	60a3      	str	r3, [r4, #8]
   81ecc:	1a82      	subs	r2, r0, r2
   81ece:	4413      	add	r3, r2
   81ed0:	60e3      	str	r3, [r4, #12]
   81ed2:	f04f 33ff 	mov.w	r3, #4294967295
   81ed6:	6463      	str	r3, [r4, #68]	; 0x44
   81ed8:	64a3      	str	r3, [r4, #72]	; 0x48
   81eda:	b955      	cbnz	r5, 81ef2 <xQueueGenericReset+0x4e>
   81edc:	6923      	ldr	r3, [r4, #16]
   81ede:	b17b      	cbz	r3, 81f00 <xQueueGenericReset+0x5c>
   81ee0:	f104 0010 	add.w	r0, r4, #16
   81ee4:	4b0a      	ldr	r3, [pc, #40]	; (81f10 <xQueueGenericReset+0x6c>)
   81ee6:	4798      	blx	r3
   81ee8:	2801      	cmp	r0, #1
   81eea:	d109      	bne.n	81f00 <xQueueGenericReset+0x5c>
   81eec:	4b09      	ldr	r3, [pc, #36]	; (81f14 <xQueueGenericReset+0x70>)
   81eee:	4798      	blx	r3
   81ef0:	e006      	b.n	81f00 <xQueueGenericReset+0x5c>
   81ef2:	f104 0010 	add.w	r0, r4, #16
   81ef6:	4d08      	ldr	r5, [pc, #32]	; (81f18 <xQueueGenericReset+0x74>)
   81ef8:	47a8      	blx	r5
   81efa:	f104 0024 	add.w	r0, r4, #36	; 0x24
   81efe:	47a8      	blx	r5
   81f00:	4b06      	ldr	r3, [pc, #24]	; (81f1c <xQueueGenericReset+0x78>)
   81f02:	4798      	blx	r3
   81f04:	2001      	movs	r0, #1
   81f06:	bd38      	pop	{r3, r4, r5, pc}
   81f08:	00081b39 	.word	0x00081b39
   81f0c:	00081b49 	.word	0x00081b49
   81f10:	00082bbd 	.word	0x00082bbd
   81f14:	00081b29 	.word	0x00081b29
   81f18:	00081a31 	.word	0x00081a31
   81f1c:	00081b69 	.word	0x00081b69

00081f20 <xQueueGenericCreate>:
   81f20:	b5f8      	push	{r3, r4, r5, r6, r7, lr}
   81f22:	460d      	mov	r5, r1
   81f24:	4617      	mov	r7, r2
   81f26:	4606      	mov	r6, r0
   81f28:	b188      	cbz	r0, 81f4e <xQueueGenericCreate+0x2e>
   81f2a:	2050      	movs	r0, #80	; 0x50
   81f2c:	4b0e      	ldr	r3, [pc, #56]	; (81f68 <xQueueGenericCreate+0x48>)
   81f2e:	4798      	blx	r3
   81f30:	4604      	mov	r4, r0
   81f32:	b160      	cbz	r0, 81f4e <xQueueGenericCreate+0x2e>
   81f34:	fb05 f006 	mul.w	r0, r5, r6
   81f38:	3001      	adds	r0, #1
   81f3a:	4b0b      	ldr	r3, [pc, #44]	; (81f68 <xQueueGenericCreate+0x48>)
   81f3c:	4798      	blx	r3
   81f3e:	6020      	str	r0, [r4, #0]
   81f40:	b940      	cbnz	r0, 81f54 <xQueueGenericCreate+0x34>
   81f42:	4620      	mov	r0, r4
   81f44:	4b09      	ldr	r3, [pc, #36]	; (81f6c <xQueueGenericCreate+0x4c>)
   81f46:	4798      	blx	r3
   81f48:	e001      	b.n	81f4e <xQueueGenericCreate+0x2e>
   81f4a:	bf00      	nop
   81f4c:	e7fd      	b.n	81f4a <xQueueGenericCreate+0x2a>
   81f4e:	4b08      	ldr	r3, [pc, #32]	; (81f70 <xQueueGenericCreate+0x50>)
   81f50:	4798      	blx	r3
   81f52:	e7fa      	b.n	81f4a <xQueueGenericCreate+0x2a>
   81f54:	63e6      	str	r6, [r4, #60]	; 0x3c
   81f56:	6425      	str	r5, [r4, #64]	; 0x40
   81f58:	4620      	mov	r0, r4
   81f5a:	2101      	movs	r1, #1
   81f5c:	4b05      	ldr	r3, [pc, #20]	; (81f74 <xQueueGenericCreate+0x54>)
   81f5e:	4798      	blx	r3
   81f60:	f884 704d 	strb.w	r7, [r4, #77]	; 0x4d
   81f64:	4620      	mov	r0, r4
   81f66:	bdf8      	pop	{r3, r4, r5, r6, r7, pc}
   81f68:	00081c95 	.word	0x00081c95
   81f6c:	00081d59 	.word	0x00081d59
   81f70:	00081b39 	.word	0x00081b39
   81f74:	00081ea5 	.word	0x00081ea5

00081f78 <xQueueGenericSend>:
   81f78:	e92d 4ff0 	stmdb	sp!, {r4, r5, r6, r7, r8, r9, sl, fp, lr}
   81f7c:	b085      	sub	sp, #20
   81f7e:	468a      	mov	sl, r1
   81f80:	469b      	mov	fp, r3
   81f82:	f8ad 2006 	strh.w	r2, [sp, #6]
   81f86:	4604      	mov	r4, r0
   81f88:	b918      	cbnz	r0, 81f92 <xQueueGenericSend+0x1a>
   81f8a:	4b38      	ldr	r3, [pc, #224]	; (8206c <xQueueGenericSend+0xf4>)
   81f8c:	4798      	blx	r3
   81f8e:	bf00      	nop
   81f90:	e7fd      	b.n	81f8e <xQueueGenericSend+0x16>
   81f92:	b909      	cbnz	r1, 81f98 <xQueueGenericSend+0x20>
   81f94:	6c03      	ldr	r3, [r0, #64]	; 0x40
   81f96:	b91b      	cbnz	r3, 81fa0 <xQueueGenericSend+0x28>
   81f98:	2700      	movs	r7, #0
   81f9a:	4e35      	ldr	r6, [pc, #212]	; (82070 <xQueueGenericSend+0xf8>)
   81f9c:	4d35      	ldr	r5, [pc, #212]	; (82074 <xQueueGenericSend+0xfc>)
   81f9e:	e003      	b.n	81fa8 <xQueueGenericSend+0x30>
   81fa0:	4b32      	ldr	r3, [pc, #200]	; (8206c <xQueueGenericSend+0xf4>)
   81fa2:	4798      	blx	r3
   81fa4:	bf00      	nop
   81fa6:	e7fd      	b.n	81fa4 <xQueueGenericSend+0x2c>
   81fa8:	47b0      	blx	r6
   81faa:	6ba2      	ldr	r2, [r4, #56]	; 0x38
   81fac:	6be3      	ldr	r3, [r4, #60]	; 0x3c
   81fae:	429a      	cmp	r2, r3
   81fb0:	d212      	bcs.n	81fd8 <xQueueGenericSend+0x60>
   81fb2:	4620      	mov	r0, r4
   81fb4:	4651      	mov	r1, sl
   81fb6:	465a      	mov	r2, fp
   81fb8:	4b2f      	ldr	r3, [pc, #188]	; (82078 <xQueueGenericSend+0x100>)
   81fba:	4798      	blx	r3
   81fbc:	6a63      	ldr	r3, [r4, #36]	; 0x24
   81fbe:	b13b      	cbz	r3, 81fd0 <xQueueGenericSend+0x58>
   81fc0:	f104 0024 	add.w	r0, r4, #36	; 0x24
   81fc4:	4b2d      	ldr	r3, [pc, #180]	; (8207c <xQueueGenericSend+0x104>)
   81fc6:	4798      	blx	r3
   81fc8:	2801      	cmp	r0, #1
   81fca:	d101      	bne.n	81fd0 <xQueueGenericSend+0x58>
   81fcc:	4b2c      	ldr	r3, [pc, #176]	; (82080 <xQueueGenericSend+0x108>)
   81fce:	4798      	blx	r3
   81fd0:	4b28      	ldr	r3, [pc, #160]	; (82074 <xQueueGenericSend+0xfc>)
   81fd2:	4798      	blx	r3
   81fd4:	2001      	movs	r0, #1
   81fd6:	e046      	b.n	82066 <xQueueGenericSend+0xee>
   81fd8:	f8bd 3006 	ldrh.w	r3, [sp, #6]
   81fdc:	b91b      	cbnz	r3, 81fe6 <xQueueGenericSend+0x6e>
   81fde:	4b25      	ldr	r3, [pc, #148]	; (82074 <xQueueGenericSend+0xfc>)
   81fe0:	4798      	blx	r3
   81fe2:	2000      	movs	r0, #0
   81fe4:	e03f      	b.n	82066 <xQueueGenericSend+0xee>
   81fe6:	b91f      	cbnz	r7, 81ff0 <xQueueGenericSend+0x78>
   81fe8:	a802      	add	r0, sp, #8
   81fea:	4b26      	ldr	r3, [pc, #152]	; (82084 <xQueueGenericSend+0x10c>)
   81fec:	4798      	blx	r3
   81fee:	2701      	movs	r7, #1
   81ff0:	47a8      	blx	r5
   81ff2:	4b25      	ldr	r3, [pc, #148]	; (82088 <xQueueGenericSend+0x110>)
   81ff4:	4798      	blx	r3
   81ff6:	47b0      	blx	r6
   81ff8:	6c63      	ldr	r3, [r4, #68]	; 0x44
   81ffa:	f1b3 3fff 	cmp.w	r3, #4294967295
   81ffe:	bf04      	itt	eq
   82000:	2300      	moveq	r3, #0
   82002:	6463      	streq	r3, [r4, #68]	; 0x44
   82004:	6ca3      	ldr	r3, [r4, #72]	; 0x48
   82006:	f1b3 3fff 	cmp.w	r3, #4294967295
   8200a:	bf04      	itt	eq
   8200c:	2300      	moveq	r3, #0
   8200e:	64a3      	streq	r3, [r4, #72]	; 0x48
   82010:	47a8      	blx	r5
   82012:	a802      	add	r0, sp, #8
   82014:	f10d 0106 	add.w	r1, sp, #6
   82018:	4b1c      	ldr	r3, [pc, #112]	; (8208c <xQueueGenericSend+0x114>)
   8201a:	4798      	blx	r3
   8201c:	b9e8      	cbnz	r0, 8205a <xQueueGenericSend+0xe2>
   8201e:	47b0      	blx	r6
   82020:	f8d4 9038 	ldr.w	r9, [r4, #56]	; 0x38
   82024:	f8d4 803c 	ldr.w	r8, [r4, #60]	; 0x3c
   82028:	47a8      	blx	r5
   8202a:	45c1      	cmp	r9, r8
   8202c:	d10f      	bne.n	8204e <xQueueGenericSend+0xd6>
   8202e:	f104 0010 	add.w	r0, r4, #16
   82032:	f8bd 1006 	ldrh.w	r1, [sp, #6]
   82036:	4b16      	ldr	r3, [pc, #88]	; (82090 <xQueueGenericSend+0x118>)
   82038:	4798      	blx	r3
   8203a:	4620      	mov	r0, r4
   8203c:	4b15      	ldr	r3, [pc, #84]	; (82094 <xQueueGenericSend+0x11c>)
   8203e:	4798      	blx	r3
   82040:	4b15      	ldr	r3, [pc, #84]	; (82098 <xQueueGenericSend+0x120>)
   82042:	4798      	blx	r3
   82044:	2800      	cmp	r0, #0
   82046:	d1af      	bne.n	81fa8 <xQueueGenericSend+0x30>
   82048:	4b0d      	ldr	r3, [pc, #52]	; (82080 <xQueueGenericSend+0x108>)
   8204a:	4798      	blx	r3
   8204c:	e7ac      	b.n	81fa8 <xQueueGenericSend+0x30>
   8204e:	4620      	mov	r0, r4
   82050:	4b10      	ldr	r3, [pc, #64]	; (82094 <xQueueGenericSend+0x11c>)
   82052:	4798      	blx	r3
   82054:	4b10      	ldr	r3, [pc, #64]	; (82098 <xQueueGenericSend+0x120>)
   82056:	4798      	blx	r3
   82058:	e7a6      	b.n	81fa8 <xQueueGenericSend+0x30>
   8205a:	4620      	mov	r0, r4
   8205c:	4b0d      	ldr	r3, [pc, #52]	; (82094 <xQueueGenericSend+0x11c>)
   8205e:	4798      	blx	r3
   82060:	4b0d      	ldr	r3, [pc, #52]	; (82098 <xQueueGenericSend+0x120>)
   82062:	4798      	blx	r3
   82064:	2000      	movs	r0, #0
   82066:	b005      	add	sp, #20
   82068:	e8bd 8ff0 	ldmia.w	sp!, {r4, r5, r6, r7, r8, r9, sl, fp, pc}
   8206c:	00081b39 	.word	0x00081b39
   82070:	00081b49 	.word	0x00081b49
   82074:	00081b69 	.word	0x00081b69
   82078:	00081d8d 	.word	0x00081d8d
   8207c:	00082bbd 	.word	0x00082bbd
   82080:	00081b29 	.word	0x00081b29
   82084:	00082c41 	.word	0x00082c41
   82088:	00082671 	.word	0x00082671
   8208c:	00082c69 	.word	0x00082c69
   82090:	00082b11 	.word	0x00082b11
   82094:	00081e19 	.word	0x00081e19
   82098:	000827cd 	.word	0x000827cd

0008209c <xQueueGenericSendFromISR>:
   8209c:	e92d 41f0 	stmdb	sp!, {r4, r5, r6, r7, r8, lr}
   820a0:	460e      	mov	r6, r1
   820a2:	4615      	mov	r5, r2
   820a4:	4698      	mov	r8, r3
   820a6:	4604      	mov	r4, r0
   820a8:	b918      	cbnz	r0, 820b2 <xQueueGenericSendFromISR+0x16>
   820aa:	4b1c      	ldr	r3, [pc, #112]	; (8211c <xQueueGenericSendFromISR+0x80>)
   820ac:	4798      	blx	r3
   820ae:	bf00      	nop
   820b0:	e7fd      	b.n	820ae <xQueueGenericSendFromISR+0x12>
   820b2:	b929      	cbnz	r1, 820c0 <xQueueGenericSendFromISR+0x24>
   820b4:	6c03      	ldr	r3, [r0, #64]	; 0x40
   820b6:	b11b      	cbz	r3, 820c0 <xQueueGenericSendFromISR+0x24>
   820b8:	4b18      	ldr	r3, [pc, #96]	; (8211c <xQueueGenericSendFromISR+0x80>)
   820ba:	4798      	blx	r3
   820bc:	bf00      	nop
   820be:	e7fd      	b.n	820bc <xQueueGenericSendFromISR+0x20>
   820c0:	4b16      	ldr	r3, [pc, #88]	; (8211c <xQueueGenericSendFromISR+0x80>)
   820c2:	4798      	blx	r3
   820c4:	4607      	mov	r7, r0
   820c6:	6ba2      	ldr	r2, [r4, #56]	; 0x38
   820c8:	6be3      	ldr	r3, [r4, #60]	; 0x3c
   820ca:	429a      	cmp	r2, r3
   820cc:	d218      	bcs.n	82100 <xQueueGenericSendFromISR+0x64>
   820ce:	4620      	mov	r0, r4
   820d0:	4631      	mov	r1, r6
   820d2:	4642      	mov	r2, r8
   820d4:	4b12      	ldr	r3, [pc, #72]	; (82120 <xQueueGenericSendFromISR+0x84>)
   820d6:	4798      	blx	r3
   820d8:	6ca3      	ldr	r3, [r4, #72]	; 0x48
   820da:	f1b3 3fff 	cmp.w	r3, #4294967295
   820de:	d10a      	bne.n	820f6 <xQueueGenericSendFromISR+0x5a>
   820e0:	6a63      	ldr	r3, [r4, #36]	; 0x24
   820e2:	b17b      	cbz	r3, 82104 <xQueueGenericSendFromISR+0x68>
   820e4:	f104 0024 	add.w	r0, r4, #36	; 0x24
   820e8:	4b0e      	ldr	r3, [pc, #56]	; (82124 <xQueueGenericSendFromISR+0x88>)
   820ea:	4798      	blx	r3
   820ec:	b160      	cbz	r0, 82108 <xQueueGenericSendFromISR+0x6c>
   820ee:	b16d      	cbz	r5, 8210c <xQueueGenericSendFromISR+0x70>
   820f0:	2401      	movs	r4, #1
   820f2:	602c      	str	r4, [r5, #0]
   820f4:	e00b      	b.n	8210e <xQueueGenericSendFromISR+0x72>
   820f6:	6ca3      	ldr	r3, [r4, #72]	; 0x48
   820f8:	3301      	adds	r3, #1
   820fa:	64a3      	str	r3, [r4, #72]	; 0x48
   820fc:	2401      	movs	r4, #1
   820fe:	e006      	b.n	8210e <xQueueGenericSendFromISR+0x72>
   82100:	2400      	movs	r4, #0
   82102:	e004      	b.n	8210e <xQueueGenericSendFromISR+0x72>
   82104:	2401      	movs	r4, #1
   82106:	e002      	b.n	8210e <xQueueGenericSendFromISR+0x72>
   82108:	2401      	movs	r4, #1
   8210a:	e000      	b.n	8210e <xQueueGenericSendFromISR+0x72>
   8210c:	2401      	movs	r4, #1
   8210e:	4638      	mov	r0, r7
   82110:	4b05      	ldr	r3, [pc, #20]	; (82128 <xQueueGenericSendFromISR+0x8c>)
   82112:	4798      	blx	r3
   82114:	4620      	mov	r0, r4
   82116:	e8bd 81f0 	ldmia.w	sp!, {r4, r5, r6, r7, r8, pc}
   8211a:	bf00      	nop
   8211c:	00081b39 	.word	0x00081b39
   82120:	00081d8d 	.word	0x00081d8d
   82124:	00082bbd 	.word	0x00082bbd
   82128:	00081b61 	.word	0x00081b61

0008212c <xQueueGenericReceive>:
   8212c:	e92d 4ff0 	stmdb	sp!, {r4, r5, r6, r7, r8, r9, sl, fp, lr}
   82130:	b085      	sub	sp, #20
   82132:	4689      	mov	r9, r1
   82134:	469a      	mov	sl, r3
   82136:	f8ad 2006 	strh.w	r2, [sp, #6]
   8213a:	4604      	mov	r4, r0
   8213c:	b918      	cbnz	r0, 82146 <xQueueGenericReceive+0x1a>
   8213e:	4b46      	ldr	r3, [pc, #280]	; (82258 <xQueueGenericReceive+0x12c>)
   82140:	4798      	blx	r3
   82142:	bf00      	nop
   82144:	e7fd      	b.n	82142 <xQueueGenericReceive+0x16>
   82146:	b909      	cbnz	r1, 8214c <xQueueGenericReceive+0x20>
   82148:	6c03      	ldr	r3, [r0, #64]	; 0x40
   8214a:	b92b      	cbnz	r3, 82158 <xQueueGenericReceive+0x2c>
   8214c:	2700      	movs	r7, #0
   8214e:	4e43      	ldr	r6, [pc, #268]	; (8225c <xQueueGenericReceive+0x130>)
   82150:	f8df b138 	ldr.w	fp, [pc, #312]	; 8228c <xQueueGenericReceive+0x160>
   82154:	4d42      	ldr	r5, [pc, #264]	; (82260 <xQueueGenericReceive+0x134>)
   82156:	e003      	b.n	82160 <xQueueGenericReceive+0x34>
   82158:	4b3f      	ldr	r3, [pc, #252]	; (82258 <xQueueGenericReceive+0x12c>)
   8215a:	4798      	blx	r3
   8215c:	bf00      	nop
   8215e:	e7fd      	b.n	8215c <xQueueGenericReceive+0x30>
   82160:	47b0      	blx	r6
   82162:	6ba3      	ldr	r3, [r4, #56]	; 0x38
   82164:	2b00      	cmp	r3, #0
   82166:	d028      	beq.n	821ba <xQueueGenericReceive+0x8e>
   82168:	68e5      	ldr	r5, [r4, #12]
   8216a:	4620      	mov	r0, r4
   8216c:	4649      	mov	r1, r9
   8216e:	4b3d      	ldr	r3, [pc, #244]	; (82264 <xQueueGenericReceive+0x138>)
   82170:	4798      	blx	r3
   82172:	f1ba 0f00 	cmp.w	sl, #0
   82176:	d112      	bne.n	8219e <xQueueGenericReceive+0x72>
   82178:	6ba3      	ldr	r3, [r4, #56]	; 0x38
   8217a:	3b01      	subs	r3, #1
   8217c:	63a3      	str	r3, [r4, #56]	; 0x38
   8217e:	6823      	ldr	r3, [r4, #0]
   82180:	b913      	cbnz	r3, 82188 <xQueueGenericReceive+0x5c>
   82182:	4b39      	ldr	r3, [pc, #228]	; (82268 <xQueueGenericReceive+0x13c>)
   82184:	4798      	blx	r3
   82186:	6060      	str	r0, [r4, #4]
   82188:	6923      	ldr	r3, [r4, #16]
   8218a:	b193      	cbz	r3, 821b2 <xQueueGenericReceive+0x86>
   8218c:	f104 0010 	add.w	r0, r4, #16
   82190:	4b36      	ldr	r3, [pc, #216]	; (8226c <xQueueGenericReceive+0x140>)
   82192:	4798      	blx	r3
   82194:	2801      	cmp	r0, #1
   82196:	d10c      	bne.n	821b2 <xQueueGenericReceive+0x86>
   82198:	4b35      	ldr	r3, [pc, #212]	; (82270 <xQueueGenericReceive+0x144>)
   8219a:	4798      	blx	r3
   8219c:	e009      	b.n	821b2 <xQueueGenericReceive+0x86>
   8219e:	60e5      	str	r5, [r4, #12]
   821a0:	6a63      	ldr	r3, [r4, #36]	; 0x24
   821a2:	b133      	cbz	r3, 821b2 <xQueueGenericReceive+0x86>
   821a4:	f104 0024 	add.w	r0, r4, #36	; 0x24
   821a8:	4b30      	ldr	r3, [pc, #192]	; (8226c <xQueueGenericReceive+0x140>)
   821aa:	4798      	blx	r3
   821ac:	b108      	cbz	r0, 821b2 <xQueueGenericReceive+0x86>
   821ae:	4b30      	ldr	r3, [pc, #192]	; (82270 <xQueueGenericReceive+0x144>)
   821b0:	4798      	blx	r3
   821b2:	4b2b      	ldr	r3, [pc, #172]	; (82260 <xQueueGenericReceive+0x134>)
   821b4:	4798      	blx	r3
   821b6:	2001      	movs	r0, #1
   821b8:	e04b      	b.n	82252 <xQueueGenericReceive+0x126>
   821ba:	f8bd 3006 	ldrh.w	r3, [sp, #6]
   821be:	b91b      	cbnz	r3, 821c8 <xQueueGenericReceive+0x9c>
   821c0:	4b27      	ldr	r3, [pc, #156]	; (82260 <xQueueGenericReceive+0x134>)
   821c2:	4798      	blx	r3
   821c4:	2000      	movs	r0, #0
   821c6:	e044      	b.n	82252 <xQueueGenericReceive+0x126>
   821c8:	b917      	cbnz	r7, 821d0 <xQueueGenericReceive+0xa4>
   821ca:	a802      	add	r0, sp, #8
   821cc:	47d8      	blx	fp
   821ce:	2701      	movs	r7, #1
   821d0:	47a8      	blx	r5
   821d2:	4b28      	ldr	r3, [pc, #160]	; (82274 <xQueueGenericReceive+0x148>)
   821d4:	4798      	blx	r3
   821d6:	47b0      	blx	r6
   821d8:	6c63      	ldr	r3, [r4, #68]	; 0x44
   821da:	f1b3 3fff 	cmp.w	r3, #4294967295
   821de:	bf04      	itt	eq
   821e0:	2300      	moveq	r3, #0
   821e2:	6463      	streq	r3, [r4, #68]	; 0x44
   821e4:	6ca3      	ldr	r3, [r4, #72]	; 0x48
   821e6:	f1b3 3fff 	cmp.w	r3, #4294967295
   821ea:	bf04      	itt	eq
   821ec:	2300      	moveq	r3, #0
   821ee:	64a3      	streq	r3, [r4, #72]	; 0x48
   821f0:	47a8      	blx	r5
   821f2:	a802      	add	r0, sp, #8
   821f4:	f10d 0106 	add.w	r1, sp, #6
   821f8:	4b1f      	ldr	r3, [pc, #124]	; (82278 <xQueueGenericReceive+0x14c>)
   821fa:	4798      	blx	r3
   821fc:	bb18      	cbnz	r0, 82246 <xQueueGenericReceive+0x11a>
   821fe:	47b0      	blx	r6
   82200:	f8d4 8038 	ldr.w	r8, [r4, #56]	; 0x38
   82204:	47a8      	blx	r5
   82206:	f1b8 0f00 	cmp.w	r8, #0
   8220a:	d116      	bne.n	8223a <xQueueGenericReceive+0x10e>
   8220c:	6823      	ldr	r3, [r4, #0]
   8220e:	b923      	cbnz	r3, 8221a <xQueueGenericReceive+0xee>
   82210:	47b0      	blx	r6
   82212:	6860      	ldr	r0, [r4, #4]
   82214:	4b19      	ldr	r3, [pc, #100]	; (8227c <xQueueGenericReceive+0x150>)
   82216:	4798      	blx	r3
   82218:	47a8      	blx	r5
   8221a:	f104 0024 	add.w	r0, r4, #36	; 0x24
   8221e:	f8bd 1006 	ldrh.w	r1, [sp, #6]
   82222:	4b17      	ldr	r3, [pc, #92]	; (82280 <xQueueGenericReceive+0x154>)
   82224:	4798      	blx	r3
   82226:	4620      	mov	r0, r4
   82228:	4b16      	ldr	r3, [pc, #88]	; (82284 <xQueueGenericReceive+0x158>)
   8222a:	4798      	blx	r3
   8222c:	4b16      	ldr	r3, [pc, #88]	; (82288 <xQueueGenericReceive+0x15c>)
   8222e:	4798      	blx	r3
   82230:	2800      	cmp	r0, #0
   82232:	d195      	bne.n	82160 <xQueueGenericReceive+0x34>
   82234:	4b0e      	ldr	r3, [pc, #56]	; (82270 <xQueueGenericReceive+0x144>)
   82236:	4798      	blx	r3
   82238:	e792      	b.n	82160 <xQueueGenericReceive+0x34>
   8223a:	4620      	mov	r0, r4
   8223c:	4b11      	ldr	r3, [pc, #68]	; (82284 <xQueueGenericReceive+0x158>)
   8223e:	4798      	blx	r3
   82240:	4b11      	ldr	r3, [pc, #68]	; (82288 <xQueueGenericReceive+0x15c>)
   82242:	4798      	blx	r3
   82244:	e78c      	b.n	82160 <xQueueGenericReceive+0x34>
   82246:	4620      	mov	r0, r4
   82248:	4b0e      	ldr	r3, [pc, #56]	; (82284 <xQueueGenericReceive+0x158>)
   8224a:	4798      	blx	r3
   8224c:	4b0e      	ldr	r3, [pc, #56]	; (82288 <xQueueGenericReceive+0x15c>)
   8224e:	4798      	blx	r3
   82250:	2000      	movs	r0, #0
   82252:	b005      	add	sp, #20
   82254:	e8bd 8ff0 	ldmia.w	sp!, {r4, r5, r6, r7, r8, r9, sl, fp, pc}
   82258:	00081b39 	.word	0x00081b39
   8225c:	00081b49 	.word	0x00081b49
   82260:	00081b69 	.word	0x00081b69
   82264:	00081df1 	.word	0x00081df1
   82268:	00082d01 	.word	0x00082d01
   8226c:	00082bbd 	.word	0x00082bbd
   82270:	00081b29 	.word	0x00081b29
   82274:	00082671 	.word	0x00082671
   82278:	00082c69 	.word	0x00082c69
   8227c:	00082d2d 	.word	0x00082d2d
   82280:	00082b11 	.word	0x00082b11
   82284:	00081e19 	.word	0x00081e19
   82288:	000827cd 	.word	0x000827cd
   8228c:	00082c41 	.word	0x00082c41

00082290 <vQueueWaitForMessageRestricted>:
   82290:	b538      	push	{r3, r4, r5, lr}
   82292:	4604      	mov	r4, r0
   82294:	460d      	mov	r5, r1
   82296:	4b0d      	ldr	r3, [pc, #52]	; (822cc <vQueueWaitForMessageRestricted+0x3c>)
   82298:	4798      	blx	r3
   8229a:	6c63      	ldr	r3, [r4, #68]	; 0x44
   8229c:	f1b3 3fff 	cmp.w	r3, #4294967295
   822a0:	bf04      	itt	eq
   822a2:	2300      	moveq	r3, #0
   822a4:	6463      	streq	r3, [r4, #68]	; 0x44
   822a6:	6ca3      	ldr	r3, [r4, #72]	; 0x48
   822a8:	f1b3 3fff 	cmp.w	r3, #4294967295
   822ac:	bf04      	itt	eq
   822ae:	2300      	moveq	r3, #0
   822b0:	64a3      	streq	r3, [r4, #72]	; 0x48
   822b2:	4b07      	ldr	r3, [pc, #28]	; (822d0 <vQueueWaitForMessageRestricted+0x40>)
   822b4:	4798      	blx	r3
   822b6:	6ba3      	ldr	r3, [r4, #56]	; 0x38
   822b8:	b923      	cbnz	r3, 822c4 <vQueueWaitForMessageRestricted+0x34>
   822ba:	f104 0024 	add.w	r0, r4, #36	; 0x24
   822be:	4629      	mov	r1, r5
   822c0:	4b04      	ldr	r3, [pc, #16]	; (822d4 <vQueueWaitForMessageRestricted+0x44>)
   822c2:	4798      	blx	r3
   822c4:	4620      	mov	r0, r4
   822c6:	4b04      	ldr	r3, [pc, #16]	; (822d8 <vQueueWaitForMessageRestricted+0x48>)
   822c8:	4798      	blx	r3
   822ca:	bd38      	pop	{r3, r4, r5, pc}
   822cc:	00081b49 	.word	0x00081b49
   822d0:	00081b69 	.word	0x00081b69
   822d4:	00082b75 	.word	0x00082b75
   822d8:	00081e19 	.word	0x00081e19

000822dc <prvAddCurrentTaskToDelayedList>:
   822dc:	b510      	push	{r4, lr}
   822de:	4604      	mov	r4, r0
   822e0:	4b0f      	ldr	r3, [pc, #60]	; (82320 <prvAddCurrentTaskToDelayedList+0x44>)
   822e2:	681b      	ldr	r3, [r3, #0]
   822e4:	8098      	strh	r0, [r3, #4]
   822e6:	4b0f      	ldr	r3, [pc, #60]	; (82324 <prvAddCurrentTaskToDelayedList+0x48>)
   822e8:	881b      	ldrh	r3, [r3, #0]
   822ea:	b29b      	uxth	r3, r3
   822ec:	4298      	cmp	r0, r3
   822ee:	d207      	bcs.n	82300 <prvAddCurrentTaskToDelayedList+0x24>
   822f0:	4b0d      	ldr	r3, [pc, #52]	; (82328 <prvAddCurrentTaskToDelayedList+0x4c>)
   822f2:	6818      	ldr	r0, [r3, #0]
   822f4:	4b0a      	ldr	r3, [pc, #40]	; (82320 <prvAddCurrentTaskToDelayedList+0x44>)
   822f6:	6819      	ldr	r1, [r3, #0]
   822f8:	3104      	adds	r1, #4
   822fa:	4b0c      	ldr	r3, [pc, #48]	; (8232c <prvAddCurrentTaskToDelayedList+0x50>)
   822fc:	4798      	blx	r3
   822fe:	bd10      	pop	{r4, pc}
   82300:	4b0b      	ldr	r3, [pc, #44]	; (82330 <prvAddCurrentTaskToDelayedList+0x54>)
   82302:	6818      	ldr	r0, [r3, #0]
   82304:	4b06      	ldr	r3, [pc, #24]	; (82320 <prvAddCurrentTaskToDelayedList+0x44>)
   82306:	6819      	ldr	r1, [r3, #0]
   82308:	3104      	adds	r1, #4
   8230a:	4b08      	ldr	r3, [pc, #32]	; (8232c <prvAddCurrentTaskToDelayedList+0x50>)
   8230c:	4798      	blx	r3
   8230e:	4b09      	ldr	r3, [pc, #36]	; (82334 <prvAddCurrentTaskToDelayedList+0x58>)
   82310:	881b      	ldrh	r3, [r3, #0]
   82312:	b29b      	uxth	r3, r3
   82314:	429c      	cmp	r4, r3
   82316:	bf3c      	itt	cc
   82318:	4b06      	ldrcc	r3, [pc, #24]	; (82334 <prvAddCurrentTaskToDelayedList+0x58>)
   8231a:	801c      	strhcc	r4, [r3, #0]
   8231c:	bd10      	pop	{r4, pc}
   8231e:	bf00      	nop
   82320:	20078ba0 	.word	0x20078ba0
   82324:	20078bbc 	.word	0x20078bbc
   82328:	20078bc0 	.word	0x20078bc0
   8232c:	00081a6d 	.word	0x00081a6d
   82330:	20078a9c 	.word	0x20078a9c
   82334:	20070168 	.word	0x20070168

00082338 <xTaskGenericCreate>:
   82338:	e92d 4ff8 	stmdb	sp!, {r3, r4, r5, r6, r7, r8, r9, sl, fp, lr}
   8233c:	460e      	mov	r6, r1
   8233e:	4617      	mov	r7, r2
   82340:	469a      	mov	sl, r3
   82342:	9d0a      	ldr	r5, [sp, #40]	; 0x28
   82344:	f8dd 8030 	ldr.w	r8, [sp, #48]	; 0x30
   82348:	4681      	mov	r9, r0
   8234a:	b918      	cbnz	r0, 82354 <xTaskGenericCreate+0x1c>
   8234c:	4b62      	ldr	r3, [pc, #392]	; (824d8 <xTaskGenericCreate+0x1a0>)
   8234e:	4798      	blx	r3
   82350:	bf00      	nop
   82352:	e7fd      	b.n	82350 <xTaskGenericCreate+0x18>
   82354:	2d09      	cmp	r5, #9
   82356:	d903      	bls.n	82360 <xTaskGenericCreate+0x28>
   82358:	4b5f      	ldr	r3, [pc, #380]	; (824d8 <xTaskGenericCreate+0x1a0>)
   8235a:	4798      	blx	r3
   8235c:	bf00      	nop
   8235e:	e7fd      	b.n	8235c <xTaskGenericCreate+0x24>
   82360:	2050      	movs	r0, #80	; 0x50
   82362:	4b5e      	ldr	r3, [pc, #376]	; (824dc <xTaskGenericCreate+0x1a4>)
   82364:	4798      	blx	r3
   82366:	4604      	mov	r4, r0
   82368:	2800      	cmp	r0, #0
   8236a:	f000 80b1 	beq.w	824d0 <xTaskGenericCreate+0x198>
   8236e:	f1b8 0f00 	cmp.w	r8, #0
   82372:	f040 80a9 	bne.w	824c8 <xTaskGenericCreate+0x190>
   82376:	00b8      	lsls	r0, r7, #2
   82378:	4b58      	ldr	r3, [pc, #352]	; (824dc <xTaskGenericCreate+0x1a4>)
   8237a:	4798      	blx	r3
   8237c:	6320      	str	r0, [r4, #48]	; 0x30
   8237e:	b918      	cbnz	r0, 82388 <xTaskGenericCreate+0x50>
   82380:	4620      	mov	r0, r4
   82382:	4b57      	ldr	r3, [pc, #348]	; (824e0 <xTaskGenericCreate+0x1a8>)
   82384:	4798      	blx	r3
   82386:	e0a3      	b.n	824d0 <xTaskGenericCreate+0x198>
   82388:	21a5      	movs	r1, #165	; 0xa5
   8238a:	00ba      	lsls	r2, r7, #2
   8238c:	4b55      	ldr	r3, [pc, #340]	; (824e4 <xTaskGenericCreate+0x1ac>)
   8238e:	4798      	blx	r3
   82390:	f107 4780 	add.w	r7, r7, #1073741824	; 0x40000000
   82394:	3f01      	subs	r7, #1
   82396:	6b23      	ldr	r3, [r4, #48]	; 0x30
   82398:	eb03 0387 	add.w	r3, r3, r7, lsl #2
   8239c:	f023 0b07 	bic.w	fp, r3, #7
   823a0:	f104 0034 	add.w	r0, r4, #52	; 0x34
   823a4:	4631      	mov	r1, r6
   823a6:	2210      	movs	r2, #16
   823a8:	4b4f      	ldr	r3, [pc, #316]	; (824e8 <xTaskGenericCreate+0x1b0>)
   823aa:	4798      	blx	r3
   823ac:	2300      	movs	r3, #0
   823ae:	f884 3043 	strb.w	r3, [r4, #67]	; 0x43
   823b2:	2d09      	cmp	r5, #9
   823b4:	bf34      	ite	cc
   823b6:	462e      	movcc	r6, r5
   823b8:	2609      	movcs	r6, #9
   823ba:	62e6      	str	r6, [r4, #44]	; 0x2c
   823bc:	64e6      	str	r6, [r4, #76]	; 0x4c
   823be:	1d27      	adds	r7, r4, #4
   823c0:	4638      	mov	r0, r7
   823c2:	f8df 8170 	ldr.w	r8, [pc, #368]	; 82534 <xTaskGenericCreate+0x1fc>
   823c6:	47c0      	blx	r8
   823c8:	f104 0018 	add.w	r0, r4, #24
   823cc:	47c0      	blx	r8
   823ce:	6124      	str	r4, [r4, #16]
   823d0:	f1c6 060a 	rsb	r6, r6, #10
   823d4:	8326      	strh	r6, [r4, #24]
   823d6:	6264      	str	r4, [r4, #36]	; 0x24
   823d8:	4658      	mov	r0, fp
   823da:	4649      	mov	r1, r9
   823dc:	4652      	mov	r2, sl
   823de:	4b43      	ldr	r3, [pc, #268]	; (824ec <xTaskGenericCreate+0x1b4>)
   823e0:	4798      	blx	r3
   823e2:	6020      	str	r0, [r4, #0]
   823e4:	f010 0f07 	tst.w	r0, #7
   823e8:	d003      	beq.n	823f2 <xTaskGenericCreate+0xba>
   823ea:	4b3b      	ldr	r3, [pc, #236]	; (824d8 <xTaskGenericCreate+0x1a0>)
   823ec:	4798      	blx	r3
   823ee:	bf00      	nop
   823f0:	e7fd      	b.n	823ee <xTaskGenericCreate+0xb6>
   823f2:	9b0b      	ldr	r3, [sp, #44]	; 0x2c
   823f4:	b103      	cbz	r3, 823f8 <xTaskGenericCreate+0xc0>
   823f6:	601c      	str	r4, [r3, #0]
   823f8:	4b3d      	ldr	r3, [pc, #244]	; (824f0 <xTaskGenericCreate+0x1b8>)
   823fa:	4798      	blx	r3
   823fc:	4b3d      	ldr	r3, [pc, #244]	; (824f4 <xTaskGenericCreate+0x1bc>)
   823fe:	681a      	ldr	r2, [r3, #0]
   82400:	3201      	adds	r2, #1
   82402:	601a      	str	r2, [r3, #0]
   82404:	4b3c      	ldr	r3, [pc, #240]	; (824f8 <xTaskGenericCreate+0x1c0>)
   82406:	681b      	ldr	r3, [r3, #0]
   82408:	bb2b      	cbnz	r3, 82456 <xTaskGenericCreate+0x11e>
   8240a:	4b3b      	ldr	r3, [pc, #236]	; (824f8 <xTaskGenericCreate+0x1c0>)
   8240c:	601c      	str	r4, [r3, #0]
   8240e:	4b39      	ldr	r3, [pc, #228]	; (824f4 <xTaskGenericCreate+0x1bc>)
   82410:	681b      	ldr	r3, [r3, #0]
   82412:	2b01      	cmp	r3, #1
   82414:	d129      	bne.n	8246a <xTaskGenericCreate+0x132>
   82416:	4e39      	ldr	r6, [pc, #228]	; (824fc <xTaskGenericCreate+0x1c4>)
   82418:	f106 09c8 	add.w	r9, r6, #200	; 0xc8
   8241c:	f8df 80e0 	ldr.w	r8, [pc, #224]	; 82500 <xTaskGenericCreate+0x1c8>
   82420:	4630      	mov	r0, r6
   82422:	47c0      	blx	r8
   82424:	3614      	adds	r6, #20
   82426:	454e      	cmp	r6, r9
   82428:	d1fa      	bne.n	82420 <xTaskGenericCreate+0xe8>
   8242a:	f8df 910c 	ldr.w	r9, [pc, #268]	; 82538 <xTaskGenericCreate+0x200>
   8242e:	4648      	mov	r0, r9
   82430:	4e33      	ldr	r6, [pc, #204]	; (82500 <xTaskGenericCreate+0x1c8>)
   82432:	47b0      	blx	r6
   82434:	f8df 8104 	ldr.w	r8, [pc, #260]	; 8253c <xTaskGenericCreate+0x204>
   82438:	4640      	mov	r0, r8
   8243a:	47b0      	blx	r6
   8243c:	4831      	ldr	r0, [pc, #196]	; (82504 <xTaskGenericCreate+0x1cc>)
   8243e:	47b0      	blx	r6
   82440:	4831      	ldr	r0, [pc, #196]	; (82508 <xTaskGenericCreate+0x1d0>)
   82442:	47b0      	blx	r6
   82444:	4831      	ldr	r0, [pc, #196]	; (8250c <xTaskGenericCreate+0x1d4>)
   82446:	47b0      	blx	r6
   82448:	4b31      	ldr	r3, [pc, #196]	; (82510 <xTaskGenericCreate+0x1d8>)
   8244a:	f8c3 9000 	str.w	r9, [r3]
   8244e:	4b31      	ldr	r3, [pc, #196]	; (82514 <xTaskGenericCreate+0x1dc>)
   82450:	f8c3 8000 	str.w	r8, [r3]
   82454:	e009      	b.n	8246a <xTaskGenericCreate+0x132>
   82456:	4b30      	ldr	r3, [pc, #192]	; (82518 <xTaskGenericCreate+0x1e0>)
   82458:	681b      	ldr	r3, [r3, #0]
   8245a:	b933      	cbnz	r3, 8246a <xTaskGenericCreate+0x132>
   8245c:	4b26      	ldr	r3, [pc, #152]	; (824f8 <xTaskGenericCreate+0x1c0>)
   8245e:	681b      	ldr	r3, [r3, #0]
   82460:	6adb      	ldr	r3, [r3, #44]	; 0x2c
   82462:	429d      	cmp	r5, r3
   82464:	bf24      	itt	cs
   82466:	4b24      	ldrcs	r3, [pc, #144]	; (824f8 <xTaskGenericCreate+0x1c0>)
   82468:	601c      	strcs	r4, [r3, #0]
   8246a:	6ae3      	ldr	r3, [r4, #44]	; 0x2c
   8246c:	4a2b      	ldr	r2, [pc, #172]	; (8251c <xTaskGenericCreate+0x1e4>)
   8246e:	6812      	ldr	r2, [r2, #0]
   82470:	4293      	cmp	r3, r2
   82472:	bf84      	itt	hi
   82474:	4a29      	ldrhi	r2, [pc, #164]	; (8251c <xTaskGenericCreate+0x1e4>)
   82476:	6013      	strhi	r3, [r2, #0]
   82478:	4a29      	ldr	r2, [pc, #164]	; (82520 <xTaskGenericCreate+0x1e8>)
   8247a:	6811      	ldr	r1, [r2, #0]
   8247c:	6461      	str	r1, [r4, #68]	; 0x44
   8247e:	3101      	adds	r1, #1
   82480:	6011      	str	r1, [r2, #0]
   82482:	4a28      	ldr	r2, [pc, #160]	; (82524 <xTaskGenericCreate+0x1ec>)
   82484:	6812      	ldr	r2, [r2, #0]
   82486:	4293      	cmp	r3, r2
   82488:	bf84      	itt	hi
   8248a:	4a26      	ldrhi	r2, [pc, #152]	; (82524 <xTaskGenericCreate+0x1ec>)
   8248c:	6013      	strhi	r3, [r2, #0]
   8248e:	eb03 0383 	add.w	r3, r3, r3, lsl #2
   82492:	481a      	ldr	r0, [pc, #104]	; (824fc <xTaskGenericCreate+0x1c4>)
   82494:	eb00 0083 	add.w	r0, r0, r3, lsl #2
   82498:	4639      	mov	r1, r7
   8249a:	4b23      	ldr	r3, [pc, #140]	; (82528 <xTaskGenericCreate+0x1f0>)
   8249c:	4798      	blx	r3
   8249e:	4b23      	ldr	r3, [pc, #140]	; (8252c <xTaskGenericCreate+0x1f4>)
   824a0:	4798      	blx	r3
   824a2:	4b1d      	ldr	r3, [pc, #116]	; (82518 <xTaskGenericCreate+0x1e0>)
   824a4:	681b      	ldr	r3, [r3, #0]
   824a6:	b14b      	cbz	r3, 824bc <xTaskGenericCreate+0x184>
   824a8:	4b13      	ldr	r3, [pc, #76]	; (824f8 <xTaskGenericCreate+0x1c0>)
   824aa:	681b      	ldr	r3, [r3, #0]
   824ac:	6adb      	ldr	r3, [r3, #44]	; 0x2c
   824ae:	429d      	cmp	r5, r3
   824b0:	d907      	bls.n	824c2 <xTaskGenericCreate+0x18a>
   824b2:	4b1f      	ldr	r3, [pc, #124]	; (82530 <xTaskGenericCreate+0x1f8>)
   824b4:	4798      	blx	r3
   824b6:	2001      	movs	r0, #1
   824b8:	e8bd 8ff8 	ldmia.w	sp!, {r3, r4, r5, r6, r7, r8, r9, sl, fp, pc}
   824bc:	2001      	movs	r0, #1
   824be:	e8bd 8ff8 	ldmia.w	sp!, {r3, r4, r5, r6, r7, r8, r9, sl, fp, pc}
   824c2:	2001      	movs	r0, #1
   824c4:	e8bd 8ff8 	ldmia.w	sp!, {r3, r4, r5, r6, r7, r8, r9, sl, fp, pc}
   824c8:	f8c0 8030 	str.w	r8, [r0, #48]	; 0x30
   824cc:	4640      	mov	r0, r8
   824ce:	e75b      	b.n	82388 <xTaskGenericCreate+0x50>
   824d0:	f04f 30ff 	mov.w	r0, #4294967295
   824d4:	e8bd 8ff8 	ldmia.w	sp!, {r3, r4, r5, r6, r7, r8, r9, sl, fp, pc}
   824d8:	00081b39 	.word	0x00081b39
   824dc:	00081c95 	.word	0x00081c95
   824e0:	00081d59 	.word	0x00081d59
   824e4:	00084acd 	.word	0x00084acd
   824e8:	00084cd1 	.word	0x00084cd1
   824ec:	00081aed 	.word	0x00081aed
   824f0:	00081b49 	.word	0x00081b49
   824f4:	20078be0 	.word	0x20078be0
   824f8:	20078ba0 	.word	0x20078ba0
   824fc:	20078ad4 	.word	0x20078ad4
   82500:	00081a31 	.word	0x00081a31
   82504:	20078ba4 	.word	0x20078ba4
   82508:	20078aa8 	.word	0x20078aa8
   8250c:	20078a88 	.word	0x20078a88
   82510:	20078a9c 	.word	0x20078a9c
   82514:	20078bc0 	.word	0x20078bc0
   82518:	20078aa0 	.word	0x20078aa0
   8251c:	20078be4 	.word	0x20078be4
   82520:	20078bc4 	.word	0x20078bc4
   82524:	20078ad0 	.word	0x20078ad0
   82528:	00081a51 	.word	0x00081a51
   8252c:	00081b69 	.word	0x00081b69
   82530:	00081b29 	.word	0x00081b29
   82534:	00081a49 	.word	0x00081a49
   82538:	20078bc8 	.word	0x20078bc8
   8253c:	20078abc 	.word	0x20078abc

00082540 <xTaskIsTaskSuspended>:
   82540:	b508      	push	{r3, lr}
   82542:	b918      	cbnz	r0, 8254c <xTaskIsTaskSuspended+0xc>
   82544:	4b0a      	ldr	r3, [pc, #40]	; (82570 <xTaskIsTaskSuspended+0x30>)
   82546:	4798      	blx	r3
   82548:	bf00      	nop
   8254a:	e7fd      	b.n	82548 <xTaskIsTaskSuspended+0x8>
   8254c:	6942      	ldr	r2, [r0, #20]
   8254e:	4909      	ldr	r1, [pc, #36]	; (82574 <xTaskIsTaskSuspended+0x34>)
   82550:	428a      	cmp	r2, r1
   82552:	d108      	bne.n	82566 <xTaskIsTaskSuspended+0x26>
   82554:	6a80      	ldr	r0, [r0, #40]	; 0x28
   82556:	4b08      	ldr	r3, [pc, #32]	; (82578 <xTaskIsTaskSuspended+0x38>)
   82558:	4298      	cmp	r0, r3
   8255a:	d006      	beq.n	8256a <xTaskIsTaskSuspended+0x2a>
   8255c:	f1d0 0001 	rsbs	r0, r0, #1
   82560:	bf38      	it	cc
   82562:	2000      	movcc	r0, #0
   82564:	bd08      	pop	{r3, pc}
   82566:	2000      	movs	r0, #0
   82568:	bd08      	pop	{r3, pc}
   8256a:	2000      	movs	r0, #0
   8256c:	bd08      	pop	{r3, pc}
   8256e:	bf00      	nop
   82570:	00081b39 	.word	0x00081b39
   82574:	20078a88 	.word	0x20078a88
   82578:	20078ba4 	.word	0x20078ba4

0008257c <vTaskResume>:
   8257c:	b538      	push	{r3, r4, r5, lr}
   8257e:	4604      	mov	r4, r0
   82580:	b918      	cbnz	r0, 8258a <vTaskResume+0xe>
   82582:	4b16      	ldr	r3, [pc, #88]	; (825dc <vTaskResume+0x60>)
   82584:	4798      	blx	r3
   82586:	bf00      	nop
   82588:	e7fd      	b.n	82586 <vTaskResume+0xa>
   8258a:	4b15      	ldr	r3, [pc, #84]	; (825e0 <vTaskResume+0x64>)
   8258c:	681b      	ldr	r3, [r3, #0]
   8258e:	4298      	cmp	r0, r3
   82590:	d023      	beq.n	825da <vTaskResume+0x5e>
   82592:	4b14      	ldr	r3, [pc, #80]	; (825e4 <vTaskResume+0x68>)
   82594:	4798      	blx	r3
   82596:	4620      	mov	r0, r4
   82598:	4b13      	ldr	r3, [pc, #76]	; (825e8 <vTaskResume+0x6c>)
   8259a:	4798      	blx	r3
   8259c:	2801      	cmp	r0, #1
   8259e:	d11a      	bne.n	825d6 <vTaskResume+0x5a>
   825a0:	1d25      	adds	r5, r4, #4
   825a2:	4628      	mov	r0, r5
   825a4:	4b11      	ldr	r3, [pc, #68]	; (825ec <vTaskResume+0x70>)
   825a6:	4798      	blx	r3
   825a8:	6ae3      	ldr	r3, [r4, #44]	; 0x2c
   825aa:	4a11      	ldr	r2, [pc, #68]	; (825f0 <vTaskResume+0x74>)
   825ac:	6812      	ldr	r2, [r2, #0]
   825ae:	4293      	cmp	r3, r2
   825b0:	bf84      	itt	hi
   825b2:	4a0f      	ldrhi	r2, [pc, #60]	; (825f0 <vTaskResume+0x74>)
   825b4:	6013      	strhi	r3, [r2, #0]
   825b6:	eb03 0383 	add.w	r3, r3, r3, lsl #2
   825ba:	480e      	ldr	r0, [pc, #56]	; (825f4 <vTaskResume+0x78>)
   825bc:	eb00 0083 	add.w	r0, r0, r3, lsl #2
   825c0:	4629      	mov	r1, r5
   825c2:	4b0d      	ldr	r3, [pc, #52]	; (825f8 <vTaskResume+0x7c>)
   825c4:	4798      	blx	r3
   825c6:	4b06      	ldr	r3, [pc, #24]	; (825e0 <vTaskResume+0x64>)
   825c8:	681b      	ldr	r3, [r3, #0]
   825ca:	6ae2      	ldr	r2, [r4, #44]	; 0x2c
   825cc:	6adb      	ldr	r3, [r3, #44]	; 0x2c
   825ce:	429a      	cmp	r2, r3
   825d0:	d301      	bcc.n	825d6 <vTaskResume+0x5a>
   825d2:	4b0a      	ldr	r3, [pc, #40]	; (825fc <vTaskResume+0x80>)
   825d4:	4798      	blx	r3
   825d6:	4b0a      	ldr	r3, [pc, #40]	; (82600 <vTaskResume+0x84>)
   825d8:	4798      	blx	r3
   825da:	bd38      	pop	{r3, r4, r5, pc}
   825dc:	00081b39 	.word	0x00081b39
   825e0:	20078ba0 	.word	0x20078ba0
   825e4:	00081b49 	.word	0x00081b49
   825e8:	00082541 	.word	0x00082541
   825ec:	00081ab1 	.word	0x00081ab1
   825f0:	20078ad0 	.word	0x20078ad0
   825f4:	20078ad4 	.word	0x20078ad4
   825f8:	00081a51 	.word	0x00081a51
   825fc:	00081b29 	.word	0x00081b29
   82600:	00081b69 	.word	0x00081b69

00082604 <vTaskStartScheduler>:
   82604:	b510      	push	{r4, lr}
   82606:	b084      	sub	sp, #16
   82608:	2300      	movs	r3, #0
   8260a:	9300      	str	r3, [sp, #0]
   8260c:	9301      	str	r3, [sp, #4]
   8260e:	9302      	str	r3, [sp, #8]
   82610:	9303      	str	r3, [sp, #12]
   82612:	480f      	ldr	r0, [pc, #60]	; (82650 <vTaskStartScheduler+0x4c>)
   82614:	490f      	ldr	r1, [pc, #60]	; (82654 <vTaskStartScheduler+0x50>)
   82616:	f44f 7280 	mov.w	r2, #256	; 0x100
   8261a:	4c0f      	ldr	r4, [pc, #60]	; (82658 <vTaskStartScheduler+0x54>)
   8261c:	47a0      	blx	r4
   8261e:	2801      	cmp	r0, #1
   82620:	d10e      	bne.n	82640 <vTaskStartScheduler+0x3c>
   82622:	4b0e      	ldr	r3, [pc, #56]	; (8265c <vTaskStartScheduler+0x58>)
   82624:	4798      	blx	r3
   82626:	2801      	cmp	r0, #1
   82628:	d10a      	bne.n	82640 <vTaskStartScheduler+0x3c>
   8262a:	4b0d      	ldr	r3, [pc, #52]	; (82660 <vTaskStartScheduler+0x5c>)
   8262c:	4798      	blx	r3
   8262e:	2201      	movs	r2, #1
   82630:	4b0c      	ldr	r3, [pc, #48]	; (82664 <vTaskStartScheduler+0x60>)
   82632:	601a      	str	r2, [r3, #0]
   82634:	2200      	movs	r2, #0
   82636:	4b0c      	ldr	r3, [pc, #48]	; (82668 <vTaskStartScheduler+0x64>)
   82638:	801a      	strh	r2, [r3, #0]
   8263a:	4b0c      	ldr	r3, [pc, #48]	; (8266c <vTaskStartScheduler+0x68>)
   8263c:	4798      	blx	r3
   8263e:	e004      	b.n	8264a <vTaskStartScheduler+0x46>
   82640:	b918      	cbnz	r0, 8264a <vTaskStartScheduler+0x46>
   82642:	4b07      	ldr	r3, [pc, #28]	; (82660 <vTaskStartScheduler+0x5c>)
   82644:	4798      	blx	r3
   82646:	bf00      	nop
   82648:	e7fd      	b.n	82646 <vTaskStartScheduler+0x42>
   8264a:	b004      	add	sp, #16
   8264c:	bd10      	pop	{r4, pc}
   8264e:	bf00      	nop
   82650:	0008296d 	.word	0x0008296d
   82654:	00087a24 	.word	0x00087a24
   82658:	00082339 	.word	0x00082339
   8265c:	00082ea5 	.word	0x00082ea5
   82660:	00081b39 	.word	0x00081b39
   82664:	20078aa0 	.word	0x20078aa0
   82668:	20078bbc 	.word	0x20078bbc
   8266c:	00081c05 	.word	0x00081c05

00082670 <vTaskSuspendAll>:
   82670:	4b02      	ldr	r3, [pc, #8]	; (8267c <vTaskSuspendAll+0xc>)
   82672:	681a      	ldr	r2, [r3, #0]
   82674:	3201      	adds	r2, #1
   82676:	601a      	str	r2, [r3, #0]
   82678:	4770      	bx	lr
   8267a:	bf00      	nop
   8267c:	20078b9c 	.word	0x20078b9c

00082680 <xTaskGetTickCount>:
   82680:	b510      	push	{r4, lr}
   82682:	4b04      	ldr	r3, [pc, #16]	; (82694 <xTaskGetTickCount+0x14>)
   82684:	4798      	blx	r3
   82686:	4b04      	ldr	r3, [pc, #16]	; (82698 <xTaskGetTickCount+0x18>)
   82688:	881c      	ldrh	r4, [r3, #0]
   8268a:	b2a4      	uxth	r4, r4
   8268c:	4b03      	ldr	r3, [pc, #12]	; (8269c <xTaskGetTickCount+0x1c>)
   8268e:	4798      	blx	r3
   82690:	4620      	mov	r0, r4
   82692:	bd10      	pop	{r4, pc}
   82694:	00081b49 	.word	0x00081b49
   82698:	20078bbc 	.word	0x20078bbc
   8269c:	00081b69 	.word	0x00081b69

000826a0 <vTaskIncrementTick>:
   826a0:	e92d 41f0 	stmdb	sp!, {r4, r5, r6, r7, r8, lr}
   826a4:	4b3d      	ldr	r3, [pc, #244]	; (8279c <vTaskIncrementTick+0xfc>)
   826a6:	681b      	ldr	r3, [r3, #0]
   826a8:	2b00      	cmp	r3, #0
   826aa:	d171      	bne.n	82790 <vTaskIncrementTick+0xf0>
   826ac:	4b3c      	ldr	r3, [pc, #240]	; (827a0 <vTaskIncrementTick+0x100>)
   826ae:	881a      	ldrh	r2, [r3, #0]
   826b0:	3201      	adds	r2, #1
   826b2:	b292      	uxth	r2, r2
   826b4:	801a      	strh	r2, [r3, #0]
   826b6:	881b      	ldrh	r3, [r3, #0]
   826b8:	b29b      	uxth	r3, r3
   826ba:	bb03      	cbnz	r3, 826fe <vTaskIncrementTick+0x5e>
   826bc:	4b39      	ldr	r3, [pc, #228]	; (827a4 <vTaskIncrementTick+0x104>)
   826be:	681b      	ldr	r3, [r3, #0]
   826c0:	681b      	ldr	r3, [r3, #0]
   826c2:	b11b      	cbz	r3, 826cc <vTaskIncrementTick+0x2c>
   826c4:	4b38      	ldr	r3, [pc, #224]	; (827a8 <vTaskIncrementTick+0x108>)
   826c6:	4798      	blx	r3
   826c8:	bf00      	nop
   826ca:	e7fd      	b.n	826c8 <vTaskIncrementTick+0x28>
   826cc:	4b35      	ldr	r3, [pc, #212]	; (827a4 <vTaskIncrementTick+0x104>)
   826ce:	6819      	ldr	r1, [r3, #0]
   826d0:	4a36      	ldr	r2, [pc, #216]	; (827ac <vTaskIncrementTick+0x10c>)
   826d2:	6810      	ldr	r0, [r2, #0]
   826d4:	6018      	str	r0, [r3, #0]
   826d6:	6011      	str	r1, [r2, #0]
   826d8:	4a35      	ldr	r2, [pc, #212]	; (827b0 <vTaskIncrementTick+0x110>)
   826da:	6811      	ldr	r1, [r2, #0]
   826dc:	3101      	adds	r1, #1
   826de:	6011      	str	r1, [r2, #0]
   826e0:	681b      	ldr	r3, [r3, #0]
   826e2:	681b      	ldr	r3, [r3, #0]
   826e4:	b923      	cbnz	r3, 826f0 <vTaskIncrementTick+0x50>
   826e6:	f64f 72ff 	movw	r2, #65535	; 0xffff
   826ea:	4b32      	ldr	r3, [pc, #200]	; (827b4 <vTaskIncrementTick+0x114>)
   826ec:	801a      	strh	r2, [r3, #0]
   826ee:	e006      	b.n	826fe <vTaskIncrementTick+0x5e>
   826f0:	4b2c      	ldr	r3, [pc, #176]	; (827a4 <vTaskIncrementTick+0x104>)
   826f2:	681b      	ldr	r3, [r3, #0]
   826f4:	68db      	ldr	r3, [r3, #12]
   826f6:	68db      	ldr	r3, [r3, #12]
   826f8:	889a      	ldrh	r2, [r3, #4]
   826fa:	4b2e      	ldr	r3, [pc, #184]	; (827b4 <vTaskIncrementTick+0x114>)
   826fc:	801a      	strh	r2, [r3, #0]
   826fe:	4b28      	ldr	r3, [pc, #160]	; (827a0 <vTaskIncrementTick+0x100>)
   82700:	881a      	ldrh	r2, [r3, #0]
   82702:	b292      	uxth	r2, r2
   82704:	4b2b      	ldr	r3, [pc, #172]	; (827b4 <vTaskIncrementTick+0x114>)
   82706:	881b      	ldrh	r3, [r3, #0]
   82708:	b29b      	uxth	r3, r3
   8270a:	429a      	cmp	r2, r3
   8270c:	d344      	bcc.n	82798 <vTaskIncrementTick+0xf8>
   8270e:	4b25      	ldr	r3, [pc, #148]	; (827a4 <vTaskIncrementTick+0x104>)
   82710:	681b      	ldr	r3, [r3, #0]
   82712:	681b      	ldr	r3, [r3, #0]
   82714:	b153      	cbz	r3, 8272c <vTaskIncrementTick+0x8c>
   82716:	4b23      	ldr	r3, [pc, #140]	; (827a4 <vTaskIncrementTick+0x104>)
   82718:	681b      	ldr	r3, [r3, #0]
   8271a:	68db      	ldr	r3, [r3, #12]
   8271c:	68dc      	ldr	r4, [r3, #12]
   8271e:	88a3      	ldrh	r3, [r4, #4]
   82720:	4a1f      	ldr	r2, [pc, #124]	; (827a0 <vTaskIncrementTick+0x100>)
   82722:	8812      	ldrh	r2, [r2, #0]
   82724:	b292      	uxth	r2, r2
   82726:	4293      	cmp	r3, r2
   82728:	d914      	bls.n	82754 <vTaskIncrementTick+0xb4>
   8272a:	e00f      	b.n	8274c <vTaskIncrementTick+0xac>
   8272c:	f64f 72ff 	movw	r2, #65535	; 0xffff
   82730:	4b20      	ldr	r3, [pc, #128]	; (827b4 <vTaskIncrementTick+0x114>)
   82732:	801a      	strh	r2, [r3, #0]
   82734:	e8bd 81f0 	ldmia.w	sp!, {r4, r5, r6, r7, r8, pc}
   82738:	4b1a      	ldr	r3, [pc, #104]	; (827a4 <vTaskIncrementTick+0x104>)
   8273a:	681b      	ldr	r3, [r3, #0]
   8273c:	68db      	ldr	r3, [r3, #12]
   8273e:	68dc      	ldr	r4, [r3, #12]
   82740:	88a3      	ldrh	r3, [r4, #4]
   82742:	4a17      	ldr	r2, [pc, #92]	; (827a0 <vTaskIncrementTick+0x100>)
   82744:	8812      	ldrh	r2, [r2, #0]
   82746:	b292      	uxth	r2, r2
   82748:	4293      	cmp	r3, r2
   8274a:	d907      	bls.n	8275c <vTaskIncrementTick+0xbc>
   8274c:	4a19      	ldr	r2, [pc, #100]	; (827b4 <vTaskIncrementTick+0x114>)
   8274e:	8013      	strh	r3, [r2, #0]
   82750:	e8bd 81f0 	ldmia.w	sp!, {r4, r5, r6, r7, r8, pc}
   82754:	4e18      	ldr	r6, [pc, #96]	; (827b8 <vTaskIncrementTick+0x118>)
   82756:	4f19      	ldr	r7, [pc, #100]	; (827bc <vTaskIncrementTick+0x11c>)
   82758:	f8df 806c 	ldr.w	r8, [pc, #108]	; 827c8 <vTaskIncrementTick+0x128>
   8275c:	1d25      	adds	r5, r4, #4
   8275e:	4628      	mov	r0, r5
   82760:	47b0      	blx	r6
   82762:	6aa3      	ldr	r3, [r4, #40]	; 0x28
   82764:	b113      	cbz	r3, 8276c <vTaskIncrementTick+0xcc>
   82766:	f104 0018 	add.w	r0, r4, #24
   8276a:	47b0      	blx	r6
   8276c:	6ae3      	ldr	r3, [r4, #44]	; 0x2c
   8276e:	683a      	ldr	r2, [r7, #0]
   82770:	4293      	cmp	r3, r2
   82772:	bf88      	it	hi
   82774:	603b      	strhi	r3, [r7, #0]
   82776:	eb03 0083 	add.w	r0, r3, r3, lsl #2
   8277a:	eb08 0080 	add.w	r0, r8, r0, lsl #2
   8277e:	4629      	mov	r1, r5
   82780:	4b0f      	ldr	r3, [pc, #60]	; (827c0 <vTaskIncrementTick+0x120>)
   82782:	4798      	blx	r3
   82784:	4b07      	ldr	r3, [pc, #28]	; (827a4 <vTaskIncrementTick+0x104>)
   82786:	681b      	ldr	r3, [r3, #0]
   82788:	681b      	ldr	r3, [r3, #0]
   8278a:	2b00      	cmp	r3, #0
   8278c:	d1d4      	bne.n	82738 <vTaskIncrementTick+0x98>
   8278e:	e7cd      	b.n	8272c <vTaskIncrementTick+0x8c>
   82790:	4b0c      	ldr	r3, [pc, #48]	; (827c4 <vTaskIncrementTick+0x124>)
   82792:	681a      	ldr	r2, [r3, #0]
   82794:	3201      	adds	r2, #1
   82796:	601a      	str	r2, [r3, #0]
   82798:	e8bd 81f0 	ldmia.w	sp!, {r4, r5, r6, r7, r8, pc}
   8279c:	20078b9c 	.word	0x20078b9c
   827a0:	20078bbc 	.word	0x20078bbc
   827a4:	20078a9c 	.word	0x20078a9c
   827a8:	00081b39 	.word	0x00081b39
   827ac:	20078bc0 	.word	0x20078bc0
   827b0:	20078bb8 	.word	0x20078bb8
   827b4:	20070168 	.word	0x20070168
   827b8:	00081ab1 	.word	0x00081ab1
   827bc:	20078ad0 	.word	0x20078ad0
   827c0:	00081a51 	.word	0x00081a51
   827c4:	20078a84 	.word	0x20078a84
   827c8:	20078ad4 	.word	0x20078ad4

000827cc <xTaskResumeAll>:
   827cc:	e92d 43f8 	stmdb	sp!, {r3, r4, r5, r6, r7, r8, r9, lr}
   827d0:	4b31      	ldr	r3, [pc, #196]	; (82898 <xTaskResumeAll+0xcc>)
   827d2:	681b      	ldr	r3, [r3, #0]
   827d4:	b91b      	cbnz	r3, 827de <xTaskResumeAll+0x12>
   827d6:	4b31      	ldr	r3, [pc, #196]	; (8289c <xTaskResumeAll+0xd0>)
   827d8:	4798      	blx	r3
   827da:	bf00      	nop
   827dc:	e7fd      	b.n	827da <xTaskResumeAll+0xe>
   827de:	4b30      	ldr	r3, [pc, #192]	; (828a0 <xTaskResumeAll+0xd4>)
   827e0:	4798      	blx	r3
   827e2:	4b2d      	ldr	r3, [pc, #180]	; (82898 <xTaskResumeAll+0xcc>)
   827e4:	681a      	ldr	r2, [r3, #0]
   827e6:	3a01      	subs	r2, #1
   827e8:	601a      	str	r2, [r3, #0]
   827ea:	681b      	ldr	r3, [r3, #0]
   827ec:	2b00      	cmp	r3, #0
   827ee:	d148      	bne.n	82882 <xTaskResumeAll+0xb6>
   827f0:	4b2c      	ldr	r3, [pc, #176]	; (828a4 <xTaskResumeAll+0xd8>)
   827f2:	681b      	ldr	r3, [r3, #0]
   827f4:	2b00      	cmp	r3, #0
   827f6:	d046      	beq.n	82886 <xTaskResumeAll+0xba>
   827f8:	2500      	movs	r5, #0
   827fa:	f8df 80d4 	ldr.w	r8, [pc, #212]	; 828d0 <xTaskResumeAll+0x104>
   827fe:	4f2a      	ldr	r7, [pc, #168]	; (828a8 <xTaskResumeAll+0xdc>)
   82800:	4e2a      	ldr	r6, [pc, #168]	; (828ac <xTaskResumeAll+0xe0>)
   82802:	e01d      	b.n	82840 <xTaskResumeAll+0x74>
   82804:	f8d8 300c 	ldr.w	r3, [r8, #12]
   82808:	68dc      	ldr	r4, [r3, #12]
   8280a:	f104 0018 	add.w	r0, r4, #24
   8280e:	47b8      	blx	r7
   82810:	f104 0904 	add.w	r9, r4, #4
   82814:	4648      	mov	r0, r9
   82816:	47b8      	blx	r7
   82818:	6ae3      	ldr	r3, [r4, #44]	; 0x2c
   8281a:	6832      	ldr	r2, [r6, #0]
   8281c:	4293      	cmp	r3, r2
   8281e:	bf88      	it	hi
   82820:	6033      	strhi	r3, [r6, #0]
   82822:	eb03 0383 	add.w	r3, r3, r3, lsl #2
   82826:	4822      	ldr	r0, [pc, #136]	; (828b0 <xTaskResumeAll+0xe4>)
   82828:	eb00 0083 	add.w	r0, r0, r3, lsl #2
   8282c:	4649      	mov	r1, r9
   8282e:	4b21      	ldr	r3, [pc, #132]	; (828b4 <xTaskResumeAll+0xe8>)
   82830:	4798      	blx	r3
   82832:	4b21      	ldr	r3, [pc, #132]	; (828b8 <xTaskResumeAll+0xec>)
   82834:	681b      	ldr	r3, [r3, #0]
   82836:	6ae2      	ldr	r2, [r4, #44]	; 0x2c
   82838:	6adb      	ldr	r3, [r3, #44]	; 0x2c
   8283a:	429a      	cmp	r2, r3
   8283c:	bf28      	it	cs
   8283e:	2501      	movcs	r5, #1
   82840:	f8d8 3000 	ldr.w	r3, [r8]
   82844:	2b00      	cmp	r3, #0
   82846:	d1dd      	bne.n	82804 <xTaskResumeAll+0x38>
   82848:	4b1c      	ldr	r3, [pc, #112]	; (828bc <xTaskResumeAll+0xf0>)
   8284a:	681b      	ldr	r3, [r3, #0]
   8284c:	b163      	cbz	r3, 82868 <xTaskResumeAll+0x9c>
   8284e:	4b1b      	ldr	r3, [pc, #108]	; (828bc <xTaskResumeAll+0xf0>)
   82850:	681b      	ldr	r3, [r3, #0]
   82852:	b17b      	cbz	r3, 82874 <xTaskResumeAll+0xa8>
   82854:	4d1a      	ldr	r5, [pc, #104]	; (828c0 <xTaskResumeAll+0xf4>)
   82856:	4c19      	ldr	r4, [pc, #100]	; (828bc <xTaskResumeAll+0xf0>)
   82858:	47a8      	blx	r5
   8285a:	6823      	ldr	r3, [r4, #0]
   8285c:	3b01      	subs	r3, #1
   8285e:	6023      	str	r3, [r4, #0]
   82860:	6823      	ldr	r3, [r4, #0]
   82862:	2b00      	cmp	r3, #0
   82864:	d1f8      	bne.n	82858 <xTaskResumeAll+0x8c>
   82866:	e005      	b.n	82874 <xTaskResumeAll+0xa8>
   82868:	2d01      	cmp	r5, #1
   8286a:	d003      	beq.n	82874 <xTaskResumeAll+0xa8>
   8286c:	4b15      	ldr	r3, [pc, #84]	; (828c4 <xTaskResumeAll+0xf8>)
   8286e:	681b      	ldr	r3, [r3, #0]
   82870:	2b01      	cmp	r3, #1
   82872:	d10a      	bne.n	8288a <xTaskResumeAll+0xbe>
   82874:	2200      	movs	r2, #0
   82876:	4b13      	ldr	r3, [pc, #76]	; (828c4 <xTaskResumeAll+0xf8>)
   82878:	601a      	str	r2, [r3, #0]
   8287a:	4b13      	ldr	r3, [pc, #76]	; (828c8 <xTaskResumeAll+0xfc>)
   8287c:	4798      	blx	r3
   8287e:	2401      	movs	r4, #1
   82880:	e004      	b.n	8288c <xTaskResumeAll+0xc0>
   82882:	2400      	movs	r4, #0
   82884:	e002      	b.n	8288c <xTaskResumeAll+0xc0>
   82886:	2400      	movs	r4, #0
   82888:	e000      	b.n	8288c <xTaskResumeAll+0xc0>
   8288a:	2400      	movs	r4, #0
   8288c:	4b0f      	ldr	r3, [pc, #60]	; (828cc <xTaskResumeAll+0x100>)
   8288e:	4798      	blx	r3
   82890:	4620      	mov	r0, r4
   82892:	e8bd 83f8 	ldmia.w	sp!, {r3, r4, r5, r6, r7, r8, r9, pc}
   82896:	bf00      	nop
   82898:	20078b9c 	.word	0x20078b9c
   8289c:	00081b39 	.word	0x00081b39
   828a0:	00081b49 	.word	0x00081b49
   828a4:	20078be0 	.word	0x20078be0
   828a8:	00081ab1 	.word	0x00081ab1
   828ac:	20078ad0 	.word	0x20078ad0
   828b0:	20078ad4 	.word	0x20078ad4
   828b4:	00081a51 	.word	0x00081a51
   828b8:	20078ba0 	.word	0x20078ba0
   828bc:	20078a84 	.word	0x20078a84
   828c0:	000826a1 	.word	0x000826a1
   828c4:	20078bdc 	.word	0x20078bdc
   828c8:	00081b29 	.word	0x00081b29
   828cc:	00081b69 	.word	0x00081b69
   828d0:	20078ba4 	.word	0x20078ba4

000828d4 <vTaskDelayUntil>:
   828d4:	b538      	push	{r3, r4, r5, lr}
   828d6:	460c      	mov	r4, r1
   828d8:	4605      	mov	r5, r0
   828da:	b918      	cbnz	r0, 828e4 <vTaskDelayUntil+0x10>
   828dc:	4b1b      	ldr	r3, [pc, #108]	; (8294c <vTaskDelayUntil+0x78>)
   828de:	4798      	blx	r3
   828e0:	bf00      	nop
   828e2:	e7fd      	b.n	828e0 <vTaskDelayUntil+0xc>
   828e4:	b919      	cbnz	r1, 828ee <vTaskDelayUntil+0x1a>
   828e6:	4b19      	ldr	r3, [pc, #100]	; (8294c <vTaskDelayUntil+0x78>)
   828e8:	4798      	blx	r3
   828ea:	bf00      	nop
   828ec:	e7fd      	b.n	828ea <vTaskDelayUntil+0x16>
   828ee:	4b18      	ldr	r3, [pc, #96]	; (82950 <vTaskDelayUntil+0x7c>)
   828f0:	4798      	blx	r3
   828f2:	882b      	ldrh	r3, [r5, #0]
   828f4:	441c      	add	r4, r3
   828f6:	b2a4      	uxth	r4, r4
   828f8:	4a16      	ldr	r2, [pc, #88]	; (82954 <vTaskDelayUntil+0x80>)
   828fa:	8812      	ldrh	r2, [r2, #0]
   828fc:	b292      	uxth	r2, r2
   828fe:	4293      	cmp	r3, r2
   82900:	d908      	bls.n	82914 <vTaskDelayUntil+0x40>
   82902:	42a3      	cmp	r3, r4
   82904:	d91e      	bls.n	82944 <vTaskDelayUntil+0x70>
   82906:	4b13      	ldr	r3, [pc, #76]	; (82954 <vTaskDelayUntil+0x80>)
   82908:	881b      	ldrh	r3, [r3, #0]
   8290a:	b29b      	uxth	r3, r3
   8290c:	802c      	strh	r4, [r5, #0]
   8290e:	429c      	cmp	r4, r3
   82910:	d910      	bls.n	82934 <vTaskDelayUntil+0x60>
   82912:	e007      	b.n	82924 <vTaskDelayUntil+0x50>
   82914:	42a3      	cmp	r3, r4
   82916:	d813      	bhi.n	82940 <vTaskDelayUntil+0x6c>
   82918:	4b0e      	ldr	r3, [pc, #56]	; (82954 <vTaskDelayUntil+0x80>)
   8291a:	881b      	ldrh	r3, [r3, #0]
   8291c:	b29b      	uxth	r3, r3
   8291e:	429c      	cmp	r4, r3
   82920:	d80e      	bhi.n	82940 <vTaskDelayUntil+0x6c>
   82922:	e00f      	b.n	82944 <vTaskDelayUntil+0x70>
   82924:	4b0c      	ldr	r3, [pc, #48]	; (82958 <vTaskDelayUntil+0x84>)
   82926:	6818      	ldr	r0, [r3, #0]
   82928:	3004      	adds	r0, #4
   8292a:	4b0c      	ldr	r3, [pc, #48]	; (8295c <vTaskDelayUntil+0x88>)
   8292c:	4798      	blx	r3
   8292e:	4620      	mov	r0, r4
   82930:	4b0b      	ldr	r3, [pc, #44]	; (82960 <vTaskDelayUntil+0x8c>)
   82932:	4798      	blx	r3
   82934:	4b0b      	ldr	r3, [pc, #44]	; (82964 <vTaskDelayUntil+0x90>)
   82936:	4798      	blx	r3
   82938:	b930      	cbnz	r0, 82948 <vTaskDelayUntil+0x74>
   8293a:	4b0b      	ldr	r3, [pc, #44]	; (82968 <vTaskDelayUntil+0x94>)
   8293c:	4798      	blx	r3
   8293e:	bd38      	pop	{r3, r4, r5, pc}
   82940:	802c      	strh	r4, [r5, #0]
   82942:	e7ef      	b.n	82924 <vTaskDelayUntil+0x50>
   82944:	802c      	strh	r4, [r5, #0]
   82946:	e7f5      	b.n	82934 <vTaskDelayUntil+0x60>
   82948:	bd38      	pop	{r3, r4, r5, pc}
   8294a:	bf00      	nop
   8294c:	00081b39 	.word	0x00081b39
   82950:	00082671 	.word	0x00082671
   82954:	20078bbc 	.word	0x20078bbc
   82958:	20078ba0 	.word	0x20078ba0
   8295c:	00081ab1 	.word	0x00081ab1
   82960:	000822dd 	.word	0x000822dd
   82964:	000827cd 	.word	0x000827cd
   82968:	00081b29 	.word	0x00081b29

0008296c <prvIdleTask>:
   8296c:	b580      	push	{r7, lr}
   8296e:	4d15      	ldr	r5, [pc, #84]	; (829c4 <prvIdleTask+0x58>)
   82970:	4e15      	ldr	r6, [pc, #84]	; (829c8 <prvIdleTask+0x5c>)
   82972:	f8df 8078 	ldr.w	r8, [pc, #120]	; 829ec <prvIdleTask+0x80>
   82976:	e01c      	b.n	829b2 <prvIdleTask+0x46>
   82978:	4b14      	ldr	r3, [pc, #80]	; (829cc <prvIdleTask+0x60>)
   8297a:	4798      	blx	r3
   8297c:	4b14      	ldr	r3, [pc, #80]	; (829d0 <prvIdleTask+0x64>)
   8297e:	681c      	ldr	r4, [r3, #0]
   82980:	4b14      	ldr	r3, [pc, #80]	; (829d4 <prvIdleTask+0x68>)
   82982:	4798      	blx	r3
   82984:	b1ac      	cbz	r4, 829b2 <prvIdleTask+0x46>
   82986:	4b14      	ldr	r3, [pc, #80]	; (829d8 <prvIdleTask+0x6c>)
   82988:	4798      	blx	r3
   8298a:	4b11      	ldr	r3, [pc, #68]	; (829d0 <prvIdleTask+0x64>)
   8298c:	68db      	ldr	r3, [r3, #12]
   8298e:	68dc      	ldr	r4, [r3, #12]
   82990:	1d20      	adds	r0, r4, #4
   82992:	4b12      	ldr	r3, [pc, #72]	; (829dc <prvIdleTask+0x70>)
   82994:	4798      	blx	r3
   82996:	4b12      	ldr	r3, [pc, #72]	; (829e0 <prvIdleTask+0x74>)
   82998:	681a      	ldr	r2, [r3, #0]
   8299a:	3a01      	subs	r2, #1
   8299c:	601a      	str	r2, [r3, #0]
   8299e:	682b      	ldr	r3, [r5, #0]
   829a0:	3b01      	subs	r3, #1
   829a2:	602b      	str	r3, [r5, #0]
   829a4:	4b0f      	ldr	r3, [pc, #60]	; (829e4 <prvIdleTask+0x78>)
   829a6:	4798      	blx	r3
   829a8:	6b20      	ldr	r0, [r4, #48]	; 0x30
   829aa:	4f0f      	ldr	r7, [pc, #60]	; (829e8 <prvIdleTask+0x7c>)
   829ac:	47b8      	blx	r7
   829ae:	4620      	mov	r0, r4
   829b0:	47b8      	blx	r7
   829b2:	682b      	ldr	r3, [r5, #0]
   829b4:	2b00      	cmp	r3, #0
   829b6:	d1df      	bne.n	82978 <prvIdleTask+0xc>
   829b8:	6833      	ldr	r3, [r6, #0]
   829ba:	2b01      	cmp	r3, #1
   829bc:	d9f9      	bls.n	829b2 <prvIdleTask+0x46>
   829be:	47c0      	blx	r8
   829c0:	e7f7      	b.n	829b2 <prvIdleTask+0x46>
   829c2:	bf00      	nop
   829c4:	20078aa4 	.word	0x20078aa4
   829c8:	20078ad4 	.word	0x20078ad4
   829cc:	00082671 	.word	0x00082671
   829d0:	20078aa8 	.word	0x20078aa8
   829d4:	000827cd 	.word	0x000827cd
   829d8:	00081b49 	.word	0x00081b49
   829dc:	00081ab1 	.word	0x00081ab1
   829e0:	20078be0 	.word	0x20078be0
   829e4:	00081b69 	.word	0x00081b69
   829e8:	00081d59 	.word	0x00081d59
   829ec:	00081b29 	.word	0x00081b29

000829f0 <vTaskSwitchContext>:
   829f0:	b508      	push	{r3, lr}
   829f2:	4b1d      	ldr	r3, [pc, #116]	; (82a68 <vTaskSwitchContext+0x78>)
   829f4:	681b      	ldr	r3, [r3, #0]
   829f6:	b95b      	cbnz	r3, 82a10 <vTaskSwitchContext+0x20>
   829f8:	4b1c      	ldr	r3, [pc, #112]	; (82a6c <vTaskSwitchContext+0x7c>)
   829fa:	681b      	ldr	r3, [r3, #0]
   829fc:	eb03 0383 	add.w	r3, r3, r3, lsl #2
   82a00:	009b      	lsls	r3, r3, #2
   82a02:	4a1b      	ldr	r2, [pc, #108]	; (82a70 <vTaskSwitchContext+0x80>)
   82a04:	58d3      	ldr	r3, [r2, r3]
   82a06:	b9cb      	cbnz	r3, 82a3c <vTaskSwitchContext+0x4c>
   82a08:	4b18      	ldr	r3, [pc, #96]	; (82a6c <vTaskSwitchContext+0x7c>)
   82a0a:	681b      	ldr	r3, [r3, #0]
   82a0c:	b953      	cbnz	r3, 82a24 <vTaskSwitchContext+0x34>
   82a0e:	e005      	b.n	82a1c <vTaskSwitchContext+0x2c>
   82a10:	2201      	movs	r2, #1
   82a12:	4b18      	ldr	r3, [pc, #96]	; (82a74 <vTaskSwitchContext+0x84>)
   82a14:	601a      	str	r2, [r3, #0]
   82a16:	bd08      	pop	{r3, pc}
   82a18:	681a      	ldr	r2, [r3, #0]
   82a1a:	b92a      	cbnz	r2, 82a28 <vTaskSwitchContext+0x38>
   82a1c:	4b16      	ldr	r3, [pc, #88]	; (82a78 <vTaskSwitchContext+0x88>)
   82a1e:	4798      	blx	r3
   82a20:	bf00      	nop
   82a22:	e7fd      	b.n	82a20 <vTaskSwitchContext+0x30>
   82a24:	4b11      	ldr	r3, [pc, #68]	; (82a6c <vTaskSwitchContext+0x7c>)
   82a26:	4912      	ldr	r1, [pc, #72]	; (82a70 <vTaskSwitchContext+0x80>)
   82a28:	681a      	ldr	r2, [r3, #0]
   82a2a:	3a01      	subs	r2, #1
   82a2c:	601a      	str	r2, [r3, #0]
   82a2e:	681a      	ldr	r2, [r3, #0]
   82a30:	eb02 0282 	add.w	r2, r2, r2, lsl #2
   82a34:	f851 2022 	ldr.w	r2, [r1, r2, lsl #2]
   82a38:	2a00      	cmp	r2, #0
   82a3a:	d0ed      	beq.n	82a18 <vTaskSwitchContext+0x28>
   82a3c:	4b0b      	ldr	r3, [pc, #44]	; (82a6c <vTaskSwitchContext+0x7c>)
   82a3e:	681b      	ldr	r3, [r3, #0]
   82a40:	eb03 0383 	add.w	r3, r3, r3, lsl #2
   82a44:	4a0a      	ldr	r2, [pc, #40]	; (82a70 <vTaskSwitchContext+0x80>)
   82a46:	eb02 0383 	add.w	r3, r2, r3, lsl #2
   82a4a:	685a      	ldr	r2, [r3, #4]
   82a4c:	6852      	ldr	r2, [r2, #4]
   82a4e:	605a      	str	r2, [r3, #4]
   82a50:	f103 0108 	add.w	r1, r3, #8
   82a54:	428a      	cmp	r2, r1
   82a56:	bf04      	itt	eq
   82a58:	6852      	ldreq	r2, [r2, #4]
   82a5a:	605a      	streq	r2, [r3, #4]
   82a5c:	685b      	ldr	r3, [r3, #4]
   82a5e:	68da      	ldr	r2, [r3, #12]
   82a60:	4b06      	ldr	r3, [pc, #24]	; (82a7c <vTaskSwitchContext+0x8c>)
   82a62:	601a      	str	r2, [r3, #0]
   82a64:	bd08      	pop	{r3, pc}
   82a66:	bf00      	nop
   82a68:	20078b9c 	.word	0x20078b9c
   82a6c:	20078ad0 	.word	0x20078ad0
   82a70:	20078ad4 	.word	0x20078ad4
   82a74:	20078bdc 	.word	0x20078bdc
   82a78:	00081b39 	.word	0x00081b39
   82a7c:	20078ba0 	.word	0x20078ba0

00082a80 <vTaskSuspend>:
   82a80:	b570      	push	{r4, r5, r6, lr}
   82a82:	4604      	mov	r4, r0
   82a84:	4b18      	ldr	r3, [pc, #96]	; (82ae8 <vTaskSuspend+0x68>)
   82a86:	4798      	blx	r3
   82a88:	4b18      	ldr	r3, [pc, #96]	; (82aec <vTaskSuspend+0x6c>)
   82a8a:	681b      	ldr	r3, [r3, #0]
   82a8c:	429c      	cmp	r4, r3
   82a8e:	d003      	beq.n	82a98 <vTaskSuspend+0x18>
   82a90:	4626      	mov	r6, r4
   82a92:	b92c      	cbnz	r4, 82aa0 <vTaskSuspend+0x20>
   82a94:	4626      	mov	r6, r4
   82a96:	e000      	b.n	82a9a <vTaskSuspend+0x1a>
   82a98:	2600      	movs	r6, #0
   82a9a:	4b14      	ldr	r3, [pc, #80]	; (82aec <vTaskSuspend+0x6c>)
   82a9c:	681c      	ldr	r4, [r3, #0]
   82a9e:	e7ff      	b.n	82aa0 <vTaskSuspend+0x20>
   82aa0:	1d25      	adds	r5, r4, #4
   82aa2:	4628      	mov	r0, r5
   82aa4:	4b12      	ldr	r3, [pc, #72]	; (82af0 <vTaskSuspend+0x70>)
   82aa6:	4798      	blx	r3
   82aa8:	6aa3      	ldr	r3, [r4, #40]	; 0x28
   82aaa:	b11b      	cbz	r3, 82ab4 <vTaskSuspend+0x34>
   82aac:	f104 0018 	add.w	r0, r4, #24
   82ab0:	4b0f      	ldr	r3, [pc, #60]	; (82af0 <vTaskSuspend+0x70>)
   82ab2:	4798      	blx	r3
   82ab4:	480f      	ldr	r0, [pc, #60]	; (82af4 <vTaskSuspend+0x74>)
   82ab6:	4629      	mov	r1, r5
   82ab8:	4b0f      	ldr	r3, [pc, #60]	; (82af8 <vTaskSuspend+0x78>)
   82aba:	4798      	blx	r3
   82abc:	4b0f      	ldr	r3, [pc, #60]	; (82afc <vTaskSuspend+0x7c>)
   82abe:	4798      	blx	r3
   82ac0:	b98e      	cbnz	r6, 82ae6 <vTaskSuspend+0x66>
   82ac2:	4b0f      	ldr	r3, [pc, #60]	; (82b00 <vTaskSuspend+0x80>)
   82ac4:	681b      	ldr	r3, [r3, #0]
   82ac6:	b113      	cbz	r3, 82ace <vTaskSuspend+0x4e>
   82ac8:	4b0e      	ldr	r3, [pc, #56]	; (82b04 <vTaskSuspend+0x84>)
   82aca:	4798      	blx	r3
   82acc:	bd70      	pop	{r4, r5, r6, pc}
   82ace:	4b09      	ldr	r3, [pc, #36]	; (82af4 <vTaskSuspend+0x74>)
   82ad0:	681a      	ldr	r2, [r3, #0]
   82ad2:	4b0d      	ldr	r3, [pc, #52]	; (82b08 <vTaskSuspend+0x88>)
   82ad4:	681b      	ldr	r3, [r3, #0]
   82ad6:	429a      	cmp	r2, r3
   82ad8:	d103      	bne.n	82ae2 <vTaskSuspend+0x62>
   82ada:	2200      	movs	r2, #0
   82adc:	4b03      	ldr	r3, [pc, #12]	; (82aec <vTaskSuspend+0x6c>)
   82ade:	601a      	str	r2, [r3, #0]
   82ae0:	bd70      	pop	{r4, r5, r6, pc}
   82ae2:	4b0a      	ldr	r3, [pc, #40]	; (82b0c <vTaskSuspend+0x8c>)
   82ae4:	4798      	blx	r3
   82ae6:	bd70      	pop	{r4, r5, r6, pc}
   82ae8:	00081b49 	.word	0x00081b49
   82aec:	20078ba0 	.word	0x20078ba0
   82af0:	00081ab1 	.word	0x00081ab1
   82af4:	20078a88 	.word	0x20078a88
   82af8:	00081a51 	.word	0x00081a51
   82afc:	00081b69 	.word	0x00081b69
   82b00:	20078aa0 	.word	0x20078aa0
   82b04:	00081b29 	.word	0x00081b29
   82b08:	20078be0 	.word	0x20078be0
   82b0c:	000829f1 	.word	0x000829f1

00082b10 <vTaskPlaceOnEventList>:
   82b10:	b538      	push	{r3, r4, r5, lr}
   82b12:	460c      	mov	r4, r1
   82b14:	b918      	cbnz	r0, 82b1e <vTaskPlaceOnEventList+0xe>
   82b16:	4b0f      	ldr	r3, [pc, #60]	; (82b54 <vTaskPlaceOnEventList+0x44>)
   82b18:	4798      	blx	r3
   82b1a:	bf00      	nop
   82b1c:	e7fd      	b.n	82b1a <vTaskPlaceOnEventList+0xa>
   82b1e:	4d0e      	ldr	r5, [pc, #56]	; (82b58 <vTaskPlaceOnEventList+0x48>)
   82b20:	6829      	ldr	r1, [r5, #0]
   82b22:	3118      	adds	r1, #24
   82b24:	4b0d      	ldr	r3, [pc, #52]	; (82b5c <vTaskPlaceOnEventList+0x4c>)
   82b26:	4798      	blx	r3
   82b28:	6828      	ldr	r0, [r5, #0]
   82b2a:	3004      	adds	r0, #4
   82b2c:	4b0c      	ldr	r3, [pc, #48]	; (82b60 <vTaskPlaceOnEventList+0x50>)
   82b2e:	4798      	blx	r3
   82b30:	f64f 73ff 	movw	r3, #65535	; 0xffff
   82b34:	429c      	cmp	r4, r3
   82b36:	d105      	bne.n	82b44 <vTaskPlaceOnEventList+0x34>
   82b38:	6829      	ldr	r1, [r5, #0]
   82b3a:	480a      	ldr	r0, [pc, #40]	; (82b64 <vTaskPlaceOnEventList+0x54>)
   82b3c:	3104      	adds	r1, #4
   82b3e:	4b0a      	ldr	r3, [pc, #40]	; (82b68 <vTaskPlaceOnEventList+0x58>)
   82b40:	4798      	blx	r3
   82b42:	bd38      	pop	{r3, r4, r5, pc}
   82b44:	4b09      	ldr	r3, [pc, #36]	; (82b6c <vTaskPlaceOnEventList+0x5c>)
   82b46:	8818      	ldrh	r0, [r3, #0]
   82b48:	4420      	add	r0, r4
   82b4a:	b280      	uxth	r0, r0
   82b4c:	4b08      	ldr	r3, [pc, #32]	; (82b70 <vTaskPlaceOnEventList+0x60>)
   82b4e:	4798      	blx	r3
   82b50:	bd38      	pop	{r3, r4, r5, pc}
   82b52:	bf00      	nop
   82b54:	00081b39 	.word	0x00081b39
   82b58:	20078ba0 	.word	0x20078ba0
   82b5c:	00081a6d 	.word	0x00081a6d
   82b60:	00081ab1 	.word	0x00081ab1
   82b64:	20078a88 	.word	0x20078a88
   82b68:	00081a51 	.word	0x00081a51
   82b6c:	20078bbc 	.word	0x20078bbc
   82b70:	000822dd 	.word	0x000822dd

00082b74 <vTaskPlaceOnEventListRestricted>:
   82b74:	b538      	push	{r3, r4, r5, lr}
   82b76:	460d      	mov	r5, r1
   82b78:	b918      	cbnz	r0, 82b82 <vTaskPlaceOnEventListRestricted+0xe>
   82b7a:	4b0a      	ldr	r3, [pc, #40]	; (82ba4 <vTaskPlaceOnEventListRestricted+0x30>)
   82b7c:	4798      	blx	r3
   82b7e:	bf00      	nop
   82b80:	e7fd      	b.n	82b7e <vTaskPlaceOnEventListRestricted+0xa>
   82b82:	4c09      	ldr	r4, [pc, #36]	; (82ba8 <vTaskPlaceOnEventListRestricted+0x34>)
   82b84:	6821      	ldr	r1, [r4, #0]
   82b86:	3118      	adds	r1, #24
   82b88:	4b08      	ldr	r3, [pc, #32]	; (82bac <vTaskPlaceOnEventListRestricted+0x38>)
   82b8a:	4798      	blx	r3
   82b8c:	6820      	ldr	r0, [r4, #0]
   82b8e:	3004      	adds	r0, #4
   82b90:	4b07      	ldr	r3, [pc, #28]	; (82bb0 <vTaskPlaceOnEventListRestricted+0x3c>)
   82b92:	4798      	blx	r3
   82b94:	4b07      	ldr	r3, [pc, #28]	; (82bb4 <vTaskPlaceOnEventListRestricted+0x40>)
   82b96:	8818      	ldrh	r0, [r3, #0]
   82b98:	4428      	add	r0, r5
   82b9a:	b280      	uxth	r0, r0
   82b9c:	4b06      	ldr	r3, [pc, #24]	; (82bb8 <vTaskPlaceOnEventListRestricted+0x44>)
   82b9e:	4798      	blx	r3
   82ba0:	bd38      	pop	{r3, r4, r5, pc}
   82ba2:	bf00      	nop
   82ba4:	00081b39 	.word	0x00081b39
   82ba8:	20078ba0 	.word	0x20078ba0
   82bac:	00081a51 	.word	0x00081a51
   82bb0:	00081ab1 	.word	0x00081ab1
   82bb4:	20078bbc 	.word	0x20078bbc
   82bb8:	000822dd 	.word	0x000822dd

00082bbc <xTaskRemoveFromEventList>:
   82bbc:	b538      	push	{r3, r4, r5, lr}
   82bbe:	68c3      	ldr	r3, [r0, #12]
   82bc0:	68dc      	ldr	r4, [r3, #12]
   82bc2:	b91c      	cbnz	r4, 82bcc <xTaskRemoveFromEventList+0x10>
   82bc4:	4b16      	ldr	r3, [pc, #88]	; (82c20 <xTaskRemoveFromEventList+0x64>)
   82bc6:	4798      	blx	r3
   82bc8:	bf00      	nop
   82bca:	e7fd      	b.n	82bc8 <xTaskRemoveFromEventList+0xc>
   82bcc:	f104 0518 	add.w	r5, r4, #24
   82bd0:	4628      	mov	r0, r5
   82bd2:	4b14      	ldr	r3, [pc, #80]	; (82c24 <xTaskRemoveFromEventList+0x68>)
   82bd4:	4798      	blx	r3
   82bd6:	4b14      	ldr	r3, [pc, #80]	; (82c28 <xTaskRemoveFromEventList+0x6c>)
   82bd8:	681b      	ldr	r3, [r3, #0]
   82bda:	b99b      	cbnz	r3, 82c04 <xTaskRemoveFromEventList+0x48>
   82bdc:	1d25      	adds	r5, r4, #4
   82bde:	4628      	mov	r0, r5
   82be0:	4b10      	ldr	r3, [pc, #64]	; (82c24 <xTaskRemoveFromEventList+0x68>)
   82be2:	4798      	blx	r3
   82be4:	6ae3      	ldr	r3, [r4, #44]	; 0x2c
   82be6:	4a11      	ldr	r2, [pc, #68]	; (82c2c <xTaskRemoveFromEventList+0x70>)
   82be8:	6812      	ldr	r2, [r2, #0]
   82bea:	4293      	cmp	r3, r2
   82bec:	bf84      	itt	hi
   82bee:	4a0f      	ldrhi	r2, [pc, #60]	; (82c2c <xTaskRemoveFromEventList+0x70>)
   82bf0:	6013      	strhi	r3, [r2, #0]
   82bf2:	eb03 0383 	add.w	r3, r3, r3, lsl #2
   82bf6:	480e      	ldr	r0, [pc, #56]	; (82c30 <xTaskRemoveFromEventList+0x74>)
   82bf8:	eb00 0083 	add.w	r0, r0, r3, lsl #2
   82bfc:	4629      	mov	r1, r5
   82bfe:	4b0d      	ldr	r3, [pc, #52]	; (82c34 <xTaskRemoveFromEventList+0x78>)
   82c00:	4798      	blx	r3
   82c02:	e003      	b.n	82c0c <xTaskRemoveFromEventList+0x50>
   82c04:	480c      	ldr	r0, [pc, #48]	; (82c38 <xTaskRemoveFromEventList+0x7c>)
   82c06:	4629      	mov	r1, r5
   82c08:	4b0a      	ldr	r3, [pc, #40]	; (82c34 <xTaskRemoveFromEventList+0x78>)
   82c0a:	4798      	blx	r3
   82c0c:	4b0b      	ldr	r3, [pc, #44]	; (82c3c <xTaskRemoveFromEventList+0x80>)
   82c0e:	681b      	ldr	r3, [r3, #0]
   82c10:	6ae0      	ldr	r0, [r4, #44]	; 0x2c
   82c12:	6adb      	ldr	r3, [r3, #44]	; 0x2c
   82c14:	4298      	cmp	r0, r3
   82c16:	bf34      	ite	cc
   82c18:	2000      	movcc	r0, #0
   82c1a:	2001      	movcs	r0, #1
   82c1c:	bd38      	pop	{r3, r4, r5, pc}
   82c1e:	bf00      	nop
   82c20:	00081b39 	.word	0x00081b39
   82c24:	00081ab1 	.word	0x00081ab1
   82c28:	20078b9c 	.word	0x20078b9c
   82c2c:	20078ad0 	.word	0x20078ad0
   82c30:	20078ad4 	.word	0x20078ad4
   82c34:	00081a51 	.word	0x00081a51
   82c38:	20078ba4 	.word	0x20078ba4
   82c3c:	20078ba0 	.word	0x20078ba0

00082c40 <vTaskSetTimeOutState>:
   82c40:	b508      	push	{r3, lr}
   82c42:	b918      	cbnz	r0, 82c4c <vTaskSetTimeOutState+0xc>
   82c44:	4b05      	ldr	r3, [pc, #20]	; (82c5c <vTaskSetTimeOutState+0x1c>)
   82c46:	4798      	blx	r3
   82c48:	bf00      	nop
   82c4a:	e7fd      	b.n	82c48 <vTaskSetTimeOutState+0x8>
   82c4c:	4a04      	ldr	r2, [pc, #16]	; (82c60 <vTaskSetTimeOutState+0x20>)
   82c4e:	6812      	ldr	r2, [r2, #0]
   82c50:	6002      	str	r2, [r0, #0]
   82c52:	4a04      	ldr	r2, [pc, #16]	; (82c64 <vTaskSetTimeOutState+0x24>)
   82c54:	8812      	ldrh	r2, [r2, #0]
   82c56:	8082      	strh	r2, [r0, #4]
   82c58:	bd08      	pop	{r3, pc}
   82c5a:	bf00      	nop
   82c5c:	00081b39 	.word	0x00081b39
   82c60:	20078bb8 	.word	0x20078bb8
   82c64:	20078bbc 	.word	0x20078bbc

00082c68 <xTaskCheckForTimeOut>:
   82c68:	b538      	push	{r3, r4, r5, lr}
   82c6a:	460d      	mov	r5, r1
   82c6c:	4604      	mov	r4, r0
   82c6e:	b918      	cbnz	r0, 82c78 <xTaskCheckForTimeOut+0x10>
   82c70:	4b1a      	ldr	r3, [pc, #104]	; (82cdc <xTaskCheckForTimeOut+0x74>)
   82c72:	4798      	blx	r3
   82c74:	bf00      	nop
   82c76:	e7fd      	b.n	82c74 <xTaskCheckForTimeOut+0xc>
   82c78:	b919      	cbnz	r1, 82c82 <xTaskCheckForTimeOut+0x1a>
   82c7a:	4b18      	ldr	r3, [pc, #96]	; (82cdc <xTaskCheckForTimeOut+0x74>)
   82c7c:	4798      	blx	r3
   82c7e:	bf00      	nop
   82c80:	e7fd      	b.n	82c7e <xTaskCheckForTimeOut+0x16>
   82c82:	4b17      	ldr	r3, [pc, #92]	; (82ce0 <xTaskCheckForTimeOut+0x78>)
   82c84:	4798      	blx	r3
   82c86:	882b      	ldrh	r3, [r5, #0]
   82c88:	f64f 72ff 	movw	r2, #65535	; 0xffff
   82c8c:	4293      	cmp	r3, r2
   82c8e:	d01c      	beq.n	82cca <xTaskCheckForTimeOut+0x62>
   82c90:	4a14      	ldr	r2, [pc, #80]	; (82ce4 <xTaskCheckForTimeOut+0x7c>)
   82c92:	6811      	ldr	r1, [r2, #0]
   82c94:	6822      	ldr	r2, [r4, #0]
   82c96:	428a      	cmp	r2, r1
   82c98:	d005      	beq.n	82ca6 <xTaskCheckForTimeOut+0x3e>
   82c9a:	4a13      	ldr	r2, [pc, #76]	; (82ce8 <xTaskCheckForTimeOut+0x80>)
   82c9c:	8812      	ldrh	r2, [r2, #0]
   82c9e:	b292      	uxth	r2, r2
   82ca0:	88a1      	ldrh	r1, [r4, #4]
   82ca2:	4291      	cmp	r1, r2
   82ca4:	d913      	bls.n	82cce <xTaskCheckForTimeOut+0x66>
   82ca6:	4a10      	ldr	r2, [pc, #64]	; (82ce8 <xTaskCheckForTimeOut+0x80>)
   82ca8:	8811      	ldrh	r1, [r2, #0]
   82caa:	88a2      	ldrh	r2, [r4, #4]
   82cac:	1a89      	subs	r1, r1, r2
   82cae:	b289      	uxth	r1, r1
   82cb0:	428b      	cmp	r3, r1
   82cb2:	d90e      	bls.n	82cd2 <xTaskCheckForTimeOut+0x6a>
   82cb4:	490c      	ldr	r1, [pc, #48]	; (82ce8 <xTaskCheckForTimeOut+0x80>)
   82cb6:	8809      	ldrh	r1, [r1, #0]
   82cb8:	b289      	uxth	r1, r1
   82cba:	1a52      	subs	r2, r2, r1
   82cbc:	4413      	add	r3, r2
   82cbe:	802b      	strh	r3, [r5, #0]
   82cc0:	4620      	mov	r0, r4
   82cc2:	4b0a      	ldr	r3, [pc, #40]	; (82cec <xTaskCheckForTimeOut+0x84>)
   82cc4:	4798      	blx	r3
   82cc6:	2400      	movs	r4, #0
   82cc8:	e004      	b.n	82cd4 <xTaskCheckForTimeOut+0x6c>
   82cca:	2400      	movs	r4, #0
   82ccc:	e002      	b.n	82cd4 <xTaskCheckForTimeOut+0x6c>
   82cce:	2401      	movs	r4, #1
   82cd0:	e000      	b.n	82cd4 <xTaskCheckForTimeOut+0x6c>
   82cd2:	2401      	movs	r4, #1
   82cd4:	4b06      	ldr	r3, [pc, #24]	; (82cf0 <xTaskCheckForTimeOut+0x88>)
   82cd6:	4798      	blx	r3
   82cd8:	4620      	mov	r0, r4
   82cda:	bd38      	pop	{r3, r4, r5, pc}
   82cdc:	00081b39 	.word	0x00081b39
   82ce0:	00081b49 	.word	0x00081b49
   82ce4:	20078bb8 	.word	0x20078bb8
   82ce8:	20078bbc 	.word	0x20078bbc
   82cec:	00082c41 	.word	0x00082c41
   82cf0:	00081b69 	.word	0x00081b69

00082cf4 <vTaskMissedYield>:
   82cf4:	2201      	movs	r2, #1
   82cf6:	4b01      	ldr	r3, [pc, #4]	; (82cfc <vTaskMissedYield+0x8>)
   82cf8:	601a      	str	r2, [r3, #0]
   82cfa:	4770      	bx	lr
   82cfc:	20078bdc 	.word	0x20078bdc

00082d00 <xTaskGetCurrentTaskHandle>:
   82d00:	4b01      	ldr	r3, [pc, #4]	; (82d08 <xTaskGetCurrentTaskHandle+0x8>)
   82d02:	6818      	ldr	r0, [r3, #0]
   82d04:	4770      	bx	lr
   82d06:	bf00      	nop
   82d08:	20078ba0 	.word	0x20078ba0

00082d0c <xTaskGetSchedulerState>:
   82d0c:	4b05      	ldr	r3, [pc, #20]	; (82d24 <xTaskGetSchedulerState+0x18>)
   82d0e:	681b      	ldr	r3, [r3, #0]
   82d10:	b133      	cbz	r3, 82d20 <xTaskGetSchedulerState+0x14>
   82d12:	4b05      	ldr	r3, [pc, #20]	; (82d28 <xTaskGetSchedulerState+0x1c>)
   82d14:	681b      	ldr	r3, [r3, #0]
   82d16:	2b00      	cmp	r3, #0
   82d18:	bf14      	ite	ne
   82d1a:	2002      	movne	r0, #2
   82d1c:	2001      	moveq	r0, #1
   82d1e:	4770      	bx	lr
   82d20:	2000      	movs	r0, #0
   82d22:	4770      	bx	lr
   82d24:	20078aa0 	.word	0x20078aa0
   82d28:	20078b9c 	.word	0x20078b9c

00082d2c <vTaskPriorityInherit>:
   82d2c:	b538      	push	{r3, r4, r5, lr}
   82d2e:	4604      	mov	r4, r0
   82d30:	2800      	cmp	r0, #0
   82d32:	d02e      	beq.n	82d92 <vTaskPriorityInherit+0x66>
   82d34:	6ac3      	ldr	r3, [r0, #44]	; 0x2c
   82d36:	4a17      	ldr	r2, [pc, #92]	; (82d94 <vTaskPriorityInherit+0x68>)
   82d38:	6812      	ldr	r2, [r2, #0]
   82d3a:	6ad2      	ldr	r2, [r2, #44]	; 0x2c
   82d3c:	4293      	cmp	r3, r2
   82d3e:	d228      	bcs.n	82d92 <vTaskPriorityInherit+0x66>
   82d40:	4a14      	ldr	r2, [pc, #80]	; (82d94 <vTaskPriorityInherit+0x68>)
   82d42:	6812      	ldr	r2, [r2, #0]
   82d44:	6ad2      	ldr	r2, [r2, #44]	; 0x2c
   82d46:	f1c2 020a 	rsb	r2, r2, #10
   82d4a:	8302      	strh	r2, [r0, #24]
   82d4c:	eb03 0383 	add.w	r3, r3, r3, lsl #2
   82d50:	4a11      	ldr	r2, [pc, #68]	; (82d98 <vTaskPriorityInherit+0x6c>)
   82d52:	eb02 0383 	add.w	r3, r2, r3, lsl #2
   82d56:	6942      	ldr	r2, [r0, #20]
   82d58:	429a      	cmp	r2, r3
   82d5a:	d116      	bne.n	82d8a <vTaskPriorityInherit+0x5e>
   82d5c:	1d05      	adds	r5, r0, #4
   82d5e:	4628      	mov	r0, r5
   82d60:	4b0e      	ldr	r3, [pc, #56]	; (82d9c <vTaskPriorityInherit+0x70>)
   82d62:	4798      	blx	r3
   82d64:	4b0b      	ldr	r3, [pc, #44]	; (82d94 <vTaskPriorityInherit+0x68>)
   82d66:	681b      	ldr	r3, [r3, #0]
   82d68:	6adb      	ldr	r3, [r3, #44]	; 0x2c
   82d6a:	62e3      	str	r3, [r4, #44]	; 0x2c
   82d6c:	4a0c      	ldr	r2, [pc, #48]	; (82da0 <vTaskPriorityInherit+0x74>)
   82d6e:	6812      	ldr	r2, [r2, #0]
   82d70:	4293      	cmp	r3, r2
   82d72:	bf84      	itt	hi
   82d74:	4a0a      	ldrhi	r2, [pc, #40]	; (82da0 <vTaskPriorityInherit+0x74>)
   82d76:	6013      	strhi	r3, [r2, #0]
   82d78:	eb03 0383 	add.w	r3, r3, r3, lsl #2
   82d7c:	4806      	ldr	r0, [pc, #24]	; (82d98 <vTaskPriorityInherit+0x6c>)
   82d7e:	eb00 0083 	add.w	r0, r0, r3, lsl #2
   82d82:	4629      	mov	r1, r5
   82d84:	4b07      	ldr	r3, [pc, #28]	; (82da4 <vTaskPriorityInherit+0x78>)
   82d86:	4798      	blx	r3
   82d88:	bd38      	pop	{r3, r4, r5, pc}
   82d8a:	4b02      	ldr	r3, [pc, #8]	; (82d94 <vTaskPriorityInherit+0x68>)
   82d8c:	681b      	ldr	r3, [r3, #0]
   82d8e:	6adb      	ldr	r3, [r3, #44]	; 0x2c
   82d90:	62c3      	str	r3, [r0, #44]	; 0x2c
   82d92:	bd38      	pop	{r3, r4, r5, pc}
   82d94:	20078ba0 	.word	0x20078ba0
   82d98:	20078ad4 	.word	0x20078ad4
   82d9c:	00081ab1 	.word	0x00081ab1
   82da0:	20078ad0 	.word	0x20078ad0
   82da4:	00081a51 	.word	0x00081a51

00082da8 <vTaskPriorityDisinherit>:
   82da8:	b538      	push	{r3, r4, r5, lr}
   82daa:	4604      	mov	r4, r0
   82dac:	b1d0      	cbz	r0, 82de4 <vTaskPriorityDisinherit+0x3c>
   82dae:	6ac2      	ldr	r2, [r0, #44]	; 0x2c
   82db0:	6cc3      	ldr	r3, [r0, #76]	; 0x4c
   82db2:	429a      	cmp	r2, r3
   82db4:	d016      	beq.n	82de4 <vTaskPriorityDisinherit+0x3c>
   82db6:	1d05      	adds	r5, r0, #4
   82db8:	4628      	mov	r0, r5
   82dba:	4b0b      	ldr	r3, [pc, #44]	; (82de8 <vTaskPriorityDisinherit+0x40>)
   82dbc:	4798      	blx	r3
   82dbe:	6ce3      	ldr	r3, [r4, #76]	; 0x4c
   82dc0:	62e3      	str	r3, [r4, #44]	; 0x2c
   82dc2:	f1c3 020a 	rsb	r2, r3, #10
   82dc6:	8322      	strh	r2, [r4, #24]
   82dc8:	4a08      	ldr	r2, [pc, #32]	; (82dec <vTaskPriorityDisinherit+0x44>)
   82dca:	6812      	ldr	r2, [r2, #0]
   82dcc:	4293      	cmp	r3, r2
   82dce:	bf84      	itt	hi
   82dd0:	4a06      	ldrhi	r2, [pc, #24]	; (82dec <vTaskPriorityDisinherit+0x44>)
   82dd2:	6013      	strhi	r3, [r2, #0]
   82dd4:	eb03 0383 	add.w	r3, r3, r3, lsl #2
   82dd8:	4805      	ldr	r0, [pc, #20]	; (82df0 <vTaskPriorityDisinherit+0x48>)
   82dda:	eb00 0083 	add.w	r0, r0, r3, lsl #2
   82dde:	4629      	mov	r1, r5
   82de0:	4b04      	ldr	r3, [pc, #16]	; (82df4 <vTaskPriorityDisinherit+0x4c>)
   82de2:	4798      	blx	r3
   82de4:	bd38      	pop	{r3, r4, r5, pc}
   82de6:	bf00      	nop
   82de8:	00081ab1 	.word	0x00081ab1
   82dec:	20078ad0 	.word	0x20078ad0
   82df0:	20078ad4 	.word	0x20078ad4
   82df4:	00081a51 	.word	0x00081a51

00082df8 <prvInsertTimerInActiveList>:
   82df8:	b510      	push	{r4, lr}
   82dfa:	4604      	mov	r4, r0
   82dfc:	8081      	strh	r1, [r0, #4]
   82dfe:	6120      	str	r0, [r4, #16]
   82e00:	4291      	cmp	r1, r2
   82e02:	d80b      	bhi.n	82e1c <prvInsertTimerInActiveList+0x24>
   82e04:	1ad3      	subs	r3, r2, r3
   82e06:	8b01      	ldrh	r1, [r0, #24]
   82e08:	b29b      	uxth	r3, r3
   82e0a:	4299      	cmp	r1, r3
   82e0c:	d911      	bls.n	82e32 <prvInsertTimerInActiveList+0x3a>
   82e0e:	4b0b      	ldr	r3, [pc, #44]	; (82e3c <prvInsertTimerInActiveList+0x44>)
   82e10:	6818      	ldr	r0, [r3, #0]
   82e12:	1d21      	adds	r1, r4, #4
   82e14:	4b0a      	ldr	r3, [pc, #40]	; (82e40 <prvInsertTimerInActiveList+0x48>)
   82e16:	4798      	blx	r3
   82e18:	2000      	movs	r0, #0
   82e1a:	bd10      	pop	{r4, pc}
   82e1c:	429a      	cmp	r2, r3
   82e1e:	d201      	bcs.n	82e24 <prvInsertTimerInActiveList+0x2c>
   82e20:	4299      	cmp	r1, r3
   82e22:	d208      	bcs.n	82e36 <prvInsertTimerInActiveList+0x3e>
   82e24:	4b07      	ldr	r3, [pc, #28]	; (82e44 <prvInsertTimerInActiveList+0x4c>)
   82e26:	6818      	ldr	r0, [r3, #0]
   82e28:	1d21      	adds	r1, r4, #4
   82e2a:	4b05      	ldr	r3, [pc, #20]	; (82e40 <prvInsertTimerInActiveList+0x48>)
   82e2c:	4798      	blx	r3
   82e2e:	2000      	movs	r0, #0
   82e30:	bd10      	pop	{r4, pc}
   82e32:	2001      	movs	r0, #1
   82e34:	bd10      	pop	{r4, pc}
   82e36:	2001      	movs	r0, #1
   82e38:	bd10      	pop	{r4, pc}
   82e3a:	bf00      	nop
   82e3c:	20078c1c 	.word	0x20078c1c
   82e40:	00081a6d 	.word	0x00081a6d
   82e44:	20078be8 	.word	0x20078be8

00082e48 <prvCheckForValidListAndQueue>:
   82e48:	b570      	push	{r4, r5, r6, lr}
   82e4a:	4b0d      	ldr	r3, [pc, #52]	; (82e80 <prvCheckForValidListAndQueue+0x38>)
   82e4c:	4798      	blx	r3
   82e4e:	4b0d      	ldr	r3, [pc, #52]	; (82e84 <prvCheckForValidListAndQueue+0x3c>)
   82e50:	681b      	ldr	r3, [r3, #0]
   82e52:	b98b      	cbnz	r3, 82e78 <prvCheckForValidListAndQueue+0x30>
   82e54:	4d0c      	ldr	r5, [pc, #48]	; (82e88 <prvCheckForValidListAndQueue+0x40>)
   82e56:	4628      	mov	r0, r5
   82e58:	4e0c      	ldr	r6, [pc, #48]	; (82e8c <prvCheckForValidListAndQueue+0x44>)
   82e5a:	47b0      	blx	r6
   82e5c:	4c0c      	ldr	r4, [pc, #48]	; (82e90 <prvCheckForValidListAndQueue+0x48>)
   82e5e:	4620      	mov	r0, r4
   82e60:	47b0      	blx	r6
   82e62:	4b0c      	ldr	r3, [pc, #48]	; (82e94 <prvCheckForValidListAndQueue+0x4c>)
   82e64:	601d      	str	r5, [r3, #0]
   82e66:	4b0c      	ldr	r3, [pc, #48]	; (82e98 <prvCheckForValidListAndQueue+0x50>)
   82e68:	601c      	str	r4, [r3, #0]
   82e6a:	2005      	movs	r0, #5
   82e6c:	210c      	movs	r1, #12
   82e6e:	2200      	movs	r2, #0
   82e70:	4b0a      	ldr	r3, [pc, #40]	; (82e9c <prvCheckForValidListAndQueue+0x54>)
   82e72:	4798      	blx	r3
   82e74:	4b03      	ldr	r3, [pc, #12]	; (82e84 <prvCheckForValidListAndQueue+0x3c>)
   82e76:	6018      	str	r0, [r3, #0]
   82e78:	4b09      	ldr	r3, [pc, #36]	; (82ea0 <prvCheckForValidListAndQueue+0x58>)
   82e7a:	4798      	blx	r3
   82e7c:	bd70      	pop	{r4, r5, r6, pc}
   82e7e:	bf00      	nop
   82e80:	00081b49 	.word	0x00081b49
   82e84:	20078c18 	.word	0x20078c18
   82e88:	20078bec 	.word	0x20078bec
   82e8c:	00081a31 	.word	0x00081a31
   82e90:	20078c00 	.word	0x20078c00
   82e94:	20078be8 	.word	0x20078be8
   82e98:	20078c1c 	.word	0x20078c1c
   82e9c:	00081f21 	.word	0x00081f21
   82ea0:	00081b69 	.word	0x00081b69

00082ea4 <xTimerCreateTimerTask>:
   82ea4:	b510      	push	{r4, lr}
   82ea6:	b084      	sub	sp, #16
   82ea8:	4b0b      	ldr	r3, [pc, #44]	; (82ed8 <xTimerCreateTimerTask+0x34>)
   82eaa:	4798      	blx	r3
   82eac:	4b0b      	ldr	r3, [pc, #44]	; (82edc <xTimerCreateTimerTask+0x38>)
   82eae:	681b      	ldr	r3, [r3, #0]
   82eb0:	b163      	cbz	r3, 82ecc <xTimerCreateTimerTask+0x28>
   82eb2:	2309      	movs	r3, #9
   82eb4:	9300      	str	r3, [sp, #0]
   82eb6:	2300      	movs	r3, #0
   82eb8:	9301      	str	r3, [sp, #4]
   82eba:	9302      	str	r3, [sp, #8]
   82ebc:	9303      	str	r3, [sp, #12]
   82ebe:	4808      	ldr	r0, [pc, #32]	; (82ee0 <xTimerCreateTimerTask+0x3c>)
   82ec0:	4908      	ldr	r1, [pc, #32]	; (82ee4 <xTimerCreateTimerTask+0x40>)
   82ec2:	f44f 7200 	mov.w	r2, #512	; 0x200
   82ec6:	4c08      	ldr	r4, [pc, #32]	; (82ee8 <xTimerCreateTimerTask+0x44>)
   82ec8:	47a0      	blx	r4
   82eca:	b918      	cbnz	r0, 82ed4 <xTimerCreateTimerTask+0x30>
   82ecc:	4b07      	ldr	r3, [pc, #28]	; (82eec <xTimerCreateTimerTask+0x48>)
   82ece:	4798      	blx	r3
   82ed0:	bf00      	nop
   82ed2:	e7fd      	b.n	82ed0 <xTimerCreateTimerTask+0x2c>
   82ed4:	b004      	add	sp, #16
   82ed6:	bd10      	pop	{r4, pc}
   82ed8:	00082e49 	.word	0x00082e49
   82edc:	20078c18 	.word	0x20078c18
   82ee0:	00083005 	.word	0x00083005
   82ee4:	00087a2c 	.word	0x00087a2c
   82ee8:	00082339 	.word	0x00082339
   82eec:	00081b39 	.word	0x00081b39

00082ef0 <xTimerGenericCommand>:
   82ef0:	b510      	push	{r4, lr}
   82ef2:	b084      	sub	sp, #16
   82ef4:	4c10      	ldr	r4, [pc, #64]	; (82f38 <xTimerGenericCommand+0x48>)
   82ef6:	6824      	ldr	r4, [r4, #0]
   82ef8:	b1d4      	cbz	r4, 82f30 <xTimerGenericCommand+0x40>
   82efa:	9101      	str	r1, [sp, #4]
   82efc:	f8ad 2008 	strh.w	r2, [sp, #8]
   82f00:	9003      	str	r0, [sp, #12]
   82f02:	b973      	cbnz	r3, 82f22 <xTimerGenericCommand+0x32>
   82f04:	4b0d      	ldr	r3, [pc, #52]	; (82f3c <xTimerGenericCommand+0x4c>)
   82f06:	4798      	blx	r3
   82f08:	2801      	cmp	r0, #1
   82f0a:	4b0b      	ldr	r3, [pc, #44]	; (82f38 <xTimerGenericCommand+0x48>)
   82f0c:	6818      	ldr	r0, [r3, #0]
   82f0e:	a901      	add	r1, sp, #4
   82f10:	bf07      	ittee	eq
   82f12:	f8bd 2018 	ldrheq.w	r2, [sp, #24]
   82f16:	2300      	moveq	r3, #0
   82f18:	2200      	movne	r2, #0
   82f1a:	4613      	movne	r3, r2
   82f1c:	4c08      	ldr	r4, [pc, #32]	; (82f40 <xTimerGenericCommand+0x50>)
   82f1e:	47a0      	blx	r4
   82f20:	e007      	b.n	82f32 <xTimerGenericCommand+0x42>
   82f22:	4620      	mov	r0, r4
   82f24:	a901      	add	r1, sp, #4
   82f26:	461a      	mov	r2, r3
   82f28:	2300      	movs	r3, #0
   82f2a:	4c06      	ldr	r4, [pc, #24]	; (82f44 <xTimerGenericCommand+0x54>)
   82f2c:	47a0      	blx	r4
   82f2e:	e000      	b.n	82f32 <xTimerGenericCommand+0x42>
   82f30:	2000      	movs	r0, #0
   82f32:	b004      	add	sp, #16
   82f34:	bd10      	pop	{r4, pc}
   82f36:	bf00      	nop
   82f38:	20078c18 	.word	0x20078c18
   82f3c:	00082d0d 	.word	0x00082d0d
   82f40:	00081f79 	.word	0x00081f79
   82f44:	0008209d 	.word	0x0008209d

00082f48 <prvSampleTimeNow>:
   82f48:	e92d 47f0 	stmdb	sp!, {r4, r5, r6, r7, r8, r9, sl, lr}
   82f4c:	b082      	sub	sp, #8
   82f4e:	4681      	mov	r9, r0
   82f50:	4b24      	ldr	r3, [pc, #144]	; (82fe4 <prvSampleTimeNow+0x9c>)
   82f52:	4798      	blx	r3
   82f54:	4680      	mov	r8, r0
   82f56:	4b24      	ldr	r3, [pc, #144]	; (82fe8 <prvSampleTimeNow+0xa0>)
   82f58:	881b      	ldrh	r3, [r3, #0]
   82f5a:	4283      	cmp	r3, r0
   82f5c:	d937      	bls.n	82fce <prvSampleTimeNow+0x86>
   82f5e:	4e23      	ldr	r6, [pc, #140]	; (82fec <prvSampleTimeNow+0xa4>)
   82f60:	4f23      	ldr	r7, [pc, #140]	; (82ff0 <prvSampleTimeNow+0xa8>)
   82f62:	e027      	b.n	82fb4 <prvSampleTimeNow+0x6c>
   82f64:	68da      	ldr	r2, [r3, #12]
   82f66:	f8b2 a000 	ldrh.w	sl, [r2]
   82f6a:	fa1f fa8a 	uxth.w	sl, sl
   82f6e:	68db      	ldr	r3, [r3, #12]
   82f70:	68dc      	ldr	r4, [r3, #12]
   82f72:	1d25      	adds	r5, r4, #4
   82f74:	4628      	mov	r0, r5
   82f76:	47b8      	blx	r7
   82f78:	6a63      	ldr	r3, [r4, #36]	; 0x24
   82f7a:	4620      	mov	r0, r4
   82f7c:	4798      	blx	r3
   82f7e:	69e3      	ldr	r3, [r4, #28]
   82f80:	2b01      	cmp	r3, #1
   82f82:	d117      	bne.n	82fb4 <prvSampleTimeNow+0x6c>
   82f84:	8b23      	ldrh	r3, [r4, #24]
   82f86:	4453      	add	r3, sl
   82f88:	b29b      	uxth	r3, r3
   82f8a:	4553      	cmp	r3, sl
   82f8c:	d906      	bls.n	82f9c <prvSampleTimeNow+0x54>
   82f8e:	80a3      	strh	r3, [r4, #4]
   82f90:	6124      	str	r4, [r4, #16]
   82f92:	6830      	ldr	r0, [r6, #0]
   82f94:	4629      	mov	r1, r5
   82f96:	4b17      	ldr	r3, [pc, #92]	; (82ff4 <prvSampleTimeNow+0xac>)
   82f98:	4798      	blx	r3
   82f9a:	e00b      	b.n	82fb4 <prvSampleTimeNow+0x6c>
   82f9c:	2300      	movs	r3, #0
   82f9e:	9300      	str	r3, [sp, #0]
   82fa0:	4620      	mov	r0, r4
   82fa2:	4619      	mov	r1, r3
   82fa4:	4652      	mov	r2, sl
   82fa6:	4c14      	ldr	r4, [pc, #80]	; (82ff8 <prvSampleTimeNow+0xb0>)
   82fa8:	47a0      	blx	r4
   82faa:	b918      	cbnz	r0, 82fb4 <prvSampleTimeNow+0x6c>
   82fac:	4b13      	ldr	r3, [pc, #76]	; (82ffc <prvSampleTimeNow+0xb4>)
   82fae:	4798      	blx	r3
   82fb0:	bf00      	nop
   82fb2:	e7fd      	b.n	82fb0 <prvSampleTimeNow+0x68>
   82fb4:	6833      	ldr	r3, [r6, #0]
   82fb6:	681a      	ldr	r2, [r3, #0]
   82fb8:	2a00      	cmp	r2, #0
   82fba:	d1d3      	bne.n	82f64 <prvSampleTimeNow+0x1c>
   82fbc:	4a10      	ldr	r2, [pc, #64]	; (83000 <prvSampleTimeNow+0xb8>)
   82fbe:	6811      	ldr	r1, [r2, #0]
   82fc0:	480a      	ldr	r0, [pc, #40]	; (82fec <prvSampleTimeNow+0xa4>)
   82fc2:	6001      	str	r1, [r0, #0]
   82fc4:	6013      	str	r3, [r2, #0]
   82fc6:	2301      	movs	r3, #1
   82fc8:	f8c9 3000 	str.w	r3, [r9]
   82fcc:	e002      	b.n	82fd4 <prvSampleTimeNow+0x8c>
   82fce:	2300      	movs	r3, #0
   82fd0:	f8c9 3000 	str.w	r3, [r9]
   82fd4:	4b04      	ldr	r3, [pc, #16]	; (82fe8 <prvSampleTimeNow+0xa0>)
   82fd6:	f8a3 8000 	strh.w	r8, [r3]
   82fda:	4640      	mov	r0, r8
   82fdc:	b002      	add	sp, #8
   82fde:	e8bd 87f0 	ldmia.w	sp!, {r4, r5, r6, r7, r8, r9, sl, pc}
   82fe2:	bf00      	nop
   82fe4:	00082681 	.word	0x00082681
   82fe8:	20078c14 	.word	0x20078c14
   82fec:	20078be8 	.word	0x20078be8
   82ff0:	00081ab1 	.word	0x00081ab1
   82ff4:	00081a6d 	.word	0x00081a6d
   82ff8:	00082ef1 	.word	0x00082ef1
   82ffc:	00081b39 	.word	0x00081b39
   83000:	20078c1c 	.word	0x20078c1c

00083004 <prvTimerTask>:
   83004:	e92d 43f0 	stmdb	sp!, {r4, r5, r6, r7, r8, r9, lr}
   83008:	b087      	sub	sp, #28
   8300a:	4d51      	ldr	r5, [pc, #324]	; (83150 <prvTimerTask+0x14c>)
   8300c:	f8df 8170 	ldr.w	r8, [pc, #368]	; 83180 <prvTimerTask+0x17c>
   83010:	4b50      	ldr	r3, [pc, #320]	; (83154 <prvTimerTask+0x150>)
   83012:	681b      	ldr	r3, [r3, #0]
   83014:	681a      	ldr	r2, [r3, #0]
   83016:	2a00      	cmp	r2, #0
   83018:	f000 8090 	beq.w	8313c <prvTimerTask+0x138>
   8301c:	68db      	ldr	r3, [r3, #12]
   8301e:	881e      	ldrh	r6, [r3, #0]
   83020:	b2b6      	uxth	r6, r6
   83022:	4b4d      	ldr	r3, [pc, #308]	; (83158 <prvTimerTask+0x154>)
   83024:	4798      	blx	r3
   83026:	a803      	add	r0, sp, #12
   83028:	4b4c      	ldr	r3, [pc, #304]	; (8315c <prvTimerTask+0x158>)
   8302a:	4798      	blx	r3
   8302c:	4607      	mov	r7, r0
   8302e:	9b03      	ldr	r3, [sp, #12]
   83030:	2b00      	cmp	r3, #0
   83032:	d132      	bne.n	8309a <prvTimerTask+0x96>
   83034:	4286      	cmp	r6, r0
   83036:	d825      	bhi.n	83084 <prvTimerTask+0x80>
   83038:	4b49      	ldr	r3, [pc, #292]	; (83160 <prvTimerTask+0x15c>)
   8303a:	4798      	blx	r3
   8303c:	4b45      	ldr	r3, [pc, #276]	; (83154 <prvTimerTask+0x150>)
   8303e:	681b      	ldr	r3, [r3, #0]
   83040:	68db      	ldr	r3, [r3, #12]
   83042:	68dc      	ldr	r4, [r3, #12]
   83044:	1d20      	adds	r0, r4, #4
   83046:	47c0      	blx	r8
   83048:	69e3      	ldr	r3, [r4, #28]
   8304a:	2b01      	cmp	r3, #1
   8304c:	d115      	bne.n	8307a <prvTimerTask+0x76>
   8304e:	8b21      	ldrh	r1, [r4, #24]
   83050:	4431      	add	r1, r6
   83052:	4620      	mov	r0, r4
   83054:	b289      	uxth	r1, r1
   83056:	463a      	mov	r2, r7
   83058:	4633      	mov	r3, r6
   8305a:	4f42      	ldr	r7, [pc, #264]	; (83164 <prvTimerTask+0x160>)
   8305c:	47b8      	blx	r7
   8305e:	2801      	cmp	r0, #1
   83060:	d10b      	bne.n	8307a <prvTimerTask+0x76>
   83062:	2300      	movs	r3, #0
   83064:	9300      	str	r3, [sp, #0]
   83066:	4620      	mov	r0, r4
   83068:	4619      	mov	r1, r3
   8306a:	4632      	mov	r2, r6
   8306c:	4e3e      	ldr	r6, [pc, #248]	; (83168 <prvTimerTask+0x164>)
   8306e:	47b0      	blx	r6
   83070:	b918      	cbnz	r0, 8307a <prvTimerTask+0x76>
   83072:	4b3e      	ldr	r3, [pc, #248]	; (8316c <prvTimerTask+0x168>)
   83074:	4798      	blx	r3
   83076:	bf00      	nop
   83078:	e7fd      	b.n	83076 <prvTimerTask+0x72>
   8307a:	6a63      	ldr	r3, [r4, #36]	; 0x24
   8307c:	4620      	mov	r0, r4
   8307e:	4798      	blx	r3
   83080:	e00d      	b.n	8309e <prvTimerTask+0x9a>
   83082:	2600      	movs	r6, #0
   83084:	1bf1      	subs	r1, r6, r7
   83086:	6828      	ldr	r0, [r5, #0]
   83088:	b289      	uxth	r1, r1
   8308a:	4b39      	ldr	r3, [pc, #228]	; (83170 <prvTimerTask+0x16c>)
   8308c:	4798      	blx	r3
   8308e:	4b34      	ldr	r3, [pc, #208]	; (83160 <prvTimerTask+0x15c>)
   83090:	4798      	blx	r3
   83092:	b920      	cbnz	r0, 8309e <prvTimerTask+0x9a>
   83094:	4b37      	ldr	r3, [pc, #220]	; (83174 <prvTimerTask+0x170>)
   83096:	4798      	blx	r3
   83098:	e001      	b.n	8309e <prvTimerTask+0x9a>
   8309a:	4b31      	ldr	r3, [pc, #196]	; (83160 <prvTimerTask+0x15c>)
   8309c:	4798      	blx	r3
   8309e:	a802      	add	r0, sp, #8
   830a0:	4b2e      	ldr	r3, [pc, #184]	; (8315c <prvTimerTask+0x158>)
   830a2:	4798      	blx	r3
   830a4:	4607      	mov	r7, r0
   830a6:	4e34      	ldr	r6, [pc, #208]	; (83178 <prvTimerTask+0x174>)
   830a8:	f8df 90b8 	ldr.w	r9, [pc, #184]	; 83164 <prvTimerTask+0x160>
   830ac:	e03e      	b.n	8312c <prvTimerTask+0x128>
   830ae:	9c05      	ldr	r4, [sp, #20]
   830b0:	b11c      	cbz	r4, 830ba <prvTimerTask+0xb6>
   830b2:	6961      	ldr	r1, [r4, #20]
   830b4:	b109      	cbz	r1, 830ba <prvTimerTask+0xb6>
   830b6:	1d20      	adds	r0, r4, #4
   830b8:	47c0      	blx	r8
   830ba:	9903      	ldr	r1, [sp, #12]
   830bc:	2902      	cmp	r1, #2
   830be:	d023      	beq.n	83108 <prvTimerTask+0x104>
   830c0:	2903      	cmp	r1, #3
   830c2:	d030      	beq.n	83126 <prvTimerTask+0x122>
   830c4:	2900      	cmp	r1, #0
   830c6:	d131      	bne.n	8312c <prvTimerTask+0x128>
   830c8:	f8bd 3010 	ldrh.w	r3, [sp, #16]
   830cc:	8b21      	ldrh	r1, [r4, #24]
   830ce:	4419      	add	r1, r3
   830d0:	4620      	mov	r0, r4
   830d2:	b289      	uxth	r1, r1
   830d4:	463a      	mov	r2, r7
   830d6:	47c8      	blx	r9
   830d8:	2801      	cmp	r0, #1
   830da:	d127      	bne.n	8312c <prvTimerTask+0x128>
   830dc:	6a63      	ldr	r3, [r4, #36]	; 0x24
   830de:	4620      	mov	r0, r4
   830e0:	4798      	blx	r3
   830e2:	69e3      	ldr	r3, [r4, #28]
   830e4:	2b01      	cmp	r3, #1
   830e6:	d121      	bne.n	8312c <prvTimerTask+0x128>
   830e8:	8b22      	ldrh	r2, [r4, #24]
   830ea:	f8bd 3010 	ldrh.w	r3, [sp, #16]
   830ee:	441a      	add	r2, r3
   830f0:	2300      	movs	r3, #0
   830f2:	9300      	str	r3, [sp, #0]
   830f4:	4620      	mov	r0, r4
   830f6:	4619      	mov	r1, r3
   830f8:	b292      	uxth	r2, r2
   830fa:	4c1b      	ldr	r4, [pc, #108]	; (83168 <prvTimerTask+0x164>)
   830fc:	47a0      	blx	r4
   830fe:	b9a8      	cbnz	r0, 8312c <prvTimerTask+0x128>
   83100:	4b1a      	ldr	r3, [pc, #104]	; (8316c <prvTimerTask+0x168>)
   83102:	4798      	blx	r3
   83104:	bf00      	nop
   83106:	e7fd      	b.n	83104 <prvTimerTask+0x100>
   83108:	f8bd 3010 	ldrh.w	r3, [sp, #16]
   8310c:	8323      	strh	r3, [r4, #24]
   8310e:	b91b      	cbnz	r3, 83118 <prvTimerTask+0x114>
   83110:	4b16      	ldr	r3, [pc, #88]	; (8316c <prvTimerTask+0x168>)
   83112:	4798      	blx	r3
   83114:	bf00      	nop
   83116:	e7fd      	b.n	83114 <prvTimerTask+0x110>
   83118:	18f9      	adds	r1, r7, r3
   8311a:	4620      	mov	r0, r4
   8311c:	b289      	uxth	r1, r1
   8311e:	463a      	mov	r2, r7
   83120:	463b      	mov	r3, r7
   83122:	47c8      	blx	r9
   83124:	e002      	b.n	8312c <prvTimerTask+0x128>
   83126:	4620      	mov	r0, r4
   83128:	4b14      	ldr	r3, [pc, #80]	; (8317c <prvTimerTask+0x178>)
   8312a:	4798      	blx	r3
   8312c:	6828      	ldr	r0, [r5, #0]
   8312e:	a903      	add	r1, sp, #12
   83130:	2200      	movs	r2, #0
   83132:	4613      	mov	r3, r2
   83134:	47b0      	blx	r6
   83136:	2800      	cmp	r0, #0
   83138:	d1b9      	bne.n	830ae <prvTimerTask+0xaa>
   8313a:	e769      	b.n	83010 <prvTimerTask+0xc>
   8313c:	4b06      	ldr	r3, [pc, #24]	; (83158 <prvTimerTask+0x154>)
   8313e:	4798      	blx	r3
   83140:	a803      	add	r0, sp, #12
   83142:	4b06      	ldr	r3, [pc, #24]	; (8315c <prvTimerTask+0x158>)
   83144:	4798      	blx	r3
   83146:	4607      	mov	r7, r0
   83148:	9b03      	ldr	r3, [sp, #12]
   8314a:	2b00      	cmp	r3, #0
   8314c:	d099      	beq.n	83082 <prvTimerTask+0x7e>
   8314e:	e7a4      	b.n	8309a <prvTimerTask+0x96>
   83150:	20078c18 	.word	0x20078c18
   83154:	20078be8 	.word	0x20078be8
   83158:	00082671 	.word	0x00082671
   8315c:	00082f49 	.word	0x00082f49
   83160:	000827cd 	.word	0x000827cd
   83164:	00082df9 	.word	0x00082df9
   83168:	00082ef1 	.word	0x00082ef1
   8316c:	00081b39 	.word	0x00081b39
   83170:	00082291 	.word	0x00082291
   83174:	00081b29 	.word	0x00081b29
   83178:	0008212d 	.word	0x0008212d
   8317c:	00081d59 	.word	0x00081d59
   83180:	00081ab1 	.word	0x00081ab1

00083184 <sysclk_init>:
   83184:	b510      	push	{r4, lr}
   83186:	480e      	ldr	r0, [pc, #56]	; (831c0 <sysclk_init+0x3c>)
   83188:	4b0e      	ldr	r3, [pc, #56]	; (831c4 <sysclk_init+0x40>)
   8318a:	4798      	blx	r3
   8318c:	2000      	movs	r0, #0
   8318e:	213e      	movs	r1, #62	; 0x3e
   83190:	4b0d      	ldr	r3, [pc, #52]	; (831c8 <sysclk_init+0x44>)
   83192:	4798      	blx	r3
   83194:	4c0d      	ldr	r4, [pc, #52]	; (831cc <sysclk_init+0x48>)
   83196:	47a0      	blx	r4
   83198:	2800      	cmp	r0, #0
   8319a:	d0fc      	beq.n	83196 <sysclk_init+0x12>
   8319c:	4b0c      	ldr	r3, [pc, #48]	; (831d0 <sysclk_init+0x4c>)
   8319e:	4798      	blx	r3
   831a0:	4a0c      	ldr	r2, [pc, #48]	; (831d4 <sysclk_init+0x50>)
   831a2:	4b0d      	ldr	r3, [pc, #52]	; (831d8 <sysclk_init+0x54>)
   831a4:	629a      	str	r2, [r3, #40]	; 0x28
   831a6:	4c0d      	ldr	r4, [pc, #52]	; (831dc <sysclk_init+0x58>)
   831a8:	47a0      	blx	r4
   831aa:	2800      	cmp	r0, #0
   831ac:	d0fc      	beq.n	831a8 <sysclk_init+0x24>
   831ae:	2010      	movs	r0, #16
   831b0:	4b0b      	ldr	r3, [pc, #44]	; (831e0 <sysclk_init+0x5c>)
   831b2:	4798      	blx	r3
   831b4:	4b0b      	ldr	r3, [pc, #44]	; (831e4 <sysclk_init+0x60>)
   831b6:	4798      	blx	r3
   831b8:	4801      	ldr	r0, [pc, #4]	; (831c0 <sysclk_init+0x3c>)
   831ba:	4b02      	ldr	r3, [pc, #8]	; (831c4 <sysclk_init+0x40>)
   831bc:	4798      	blx	r3
   831be:	bd10      	pop	{r4, pc}
   831c0:	0501bd00 	.word	0x0501bd00
   831c4:	200700a5 	.word	0x200700a5
   831c8:	00083629 	.word	0x00083629
   831cc:	0008367d 	.word	0x0008367d
   831d0:	0008368d 	.word	0x0008368d
   831d4:	200d3f01 	.word	0x200d3f01
   831d8:	400e0600 	.word	0x400e0600
   831dc:	0008369d 	.word	0x0008369d
   831e0:	000835c5 	.word	0x000835c5
   831e4:	000837b9 	.word	0x000837b9

000831e8 <board_init>:
#include "conf_board.h"
#include "gpio.h"
#include "ioport.h"

void board_init(void)
{
   831e8:	b510      	push	{r4, lr}
#ifndef CONF_BOARD_KEEP_WATCHDOG_AT_INIT
	/* Disable the watchdog */
	WDT->WDT_MR = WDT_MR_WDDIS;
   831ea:	f44f 4200 	mov.w	r2, #32768	; 0x8000
   831ee:	4b1b      	ldr	r3, [pc, #108]	; (8325c <board_init+0x74>)
   831f0:	605a      	str	r2, [r3, #4]
   831f2:	200b      	movs	r0, #11
   831f4:	4c1a      	ldr	r4, [pc, #104]	; (83260 <board_init+0x78>)
   831f6:	47a0      	blx	r4
   831f8:	200c      	movs	r0, #12
   831fa:	47a0      	blx	r4
   831fc:	200d      	movs	r0, #13
   831fe:	47a0      	blx	r4
   83200:	200e      	movs	r0, #14
   83202:	47a0      	blx	r4
	 * In new designs IOPORT is used instead.
	 * Here IOPORT must be initialized for others to use before setting up IO.
	 */
	ioport_init();
	/* Configure LED pins */
	gpio_configure_pin(LED0_GPIO, LED0_FLAGS);
   83204:	203b      	movs	r0, #59	; 0x3b
   83206:	f04f 5160 	mov.w	r1, #939524096	; 0x38000000
   8320a:	4c16      	ldr	r4, [pc, #88]	; (83264 <board_init+0x7c>)
   8320c:	47a0      	blx	r4
	gpio_configure_pin(LED1_GPIO, LED1_FLAGS);
   8320e:	2055      	movs	r0, #85	; 0x55
   83210:	f04f 5160 	mov.w	r1, #939524096	; 0x38000000
   83214:	47a0      	blx	r4
	gpio_configure_pin(LED2_GPIO, LED2_FLAGS);
   83216:	2056      	movs	r0, #86	; 0x56
   83218:	f04f 5160 	mov.w	r1, #939524096	; 0x38000000
   8321c:	47a0      	blx	r4

	/* Configure Push Button pins */
	gpio_configure_pin(GPIO_PUSH_BUTTON_1, GPIO_PUSH_BUTTON_1_FLAGS);
   8321e:	2068      	movs	r0, #104	; 0x68
   83220:	4911      	ldr	r1, [pc, #68]	; (83268 <board_init+0x80>)
   83222:	47a0      	blx	r4
	gpio_configure_pin(GPIO_PUSH_BUTTON_2, GPIO_PUSH_BUTTON_2_FLAGS);
   83224:	205c      	movs	r0, #92	; 0x5c
   83226:	4911      	ldr	r1, [pc, #68]	; (8326c <board_init+0x84>)
   83228:	47a0      	blx	r4

#ifdef CONF_BOARD_UART_CONSOLE
	/* Configure UART pins */
	gpio_configure_group(PINS_UART_PIO, PINS_UART, PINS_UART_FLAGS);
   8322a:	4811      	ldr	r0, [pc, #68]	; (83270 <board_init+0x88>)
   8322c:	f44f 7140 	mov.w	r1, #768	; 0x300
   83230:	f04f 6200 	mov.w	r2, #134217728	; 0x8000000
   83234:	4b0f      	ldr	r3, [pc, #60]	; (83274 <board_init+0x8c>)
   83236:	4798      	blx	r3
		gpio_configure_pin(SPI1_NPCS3_GPIO, SPI1_NPCS3_FLAGS);
#   endif
#endif

#ifdef CONF_BOARD_TWI0
	gpio_configure_pin(TWI0_DATA_GPIO, TWI0_DATA_FLAGS);
   83238:	2011      	movs	r0, #17
   8323a:	f04f 6100 	mov.w	r1, #134217728	; 0x8000000
   8323e:	47a0      	blx	r4
	gpio_configure_pin(TWI0_CLK_GPIO, TWI0_CLK_FLAGS);
   83240:	2012      	movs	r0, #18
   83242:	f04f 6100 	mov.w	r1, #134217728	; 0x8000000
   83246:	47a0      	blx	r4
	gpio_configure_pin(PIN_USART0_TXD_IDX, PIN_USART0_TXD_FLAGS);
#endif

#ifdef CONF_BOARD_USB_PORT
	/* Configure USB_ID (UOTGID) pin */
	gpio_configure_pin(USB_ID_GPIO, USB_ID_FLAGS);
   83248:	202b      	movs	r0, #43	; 0x2b
   8324a:	f04f 6100 	mov.w	r1, #134217728	; 0x8000000
   8324e:	47a0      	blx	r4
	/* Configure USB_VBOF (UOTGVBOF) pin */
	gpio_configure_pin(USB_VBOF_GPIO, USB_VBOF_FLAGS);
   83250:	202a      	movs	r0, #42	; 0x2a
   83252:	f04f 6100 	mov.w	r1, #134217728	; 0x8000000
   83256:	47a0      	blx	r4
   83258:	bd10      	pop	{r4, pc}
   8325a:	bf00      	nop
   8325c:	400e1a50 	.word	0x400e1a50
   83260:	000836ad 	.word	0x000836ad
   83264:	0008336d 	.word	0x0008336d
   83268:	28000079 	.word	0x28000079
   8326c:	28000001 	.word	0x28000001
   83270:	400e0e00 	.word	0x400e0e00
   83274:	00083441 	.word	0x00083441

00083278 <pio_get>:
   83278:	f021 6100 	bic.w	r1, r1, #134217728	; 0x8000000
   8327c:	f1b1 5f40 	cmp.w	r1, #805306368	; 0x30000000
   83280:	bf0c      	ite	eq
   83282:	6b83      	ldreq	r3, [r0, #56]	; 0x38
   83284:	6bc3      	ldrne	r3, [r0, #60]	; 0x3c
   83286:	4213      	tst	r3, r2
   83288:	bf0c      	ite	eq
   8328a:	2000      	moveq	r0, #0
   8328c:	2001      	movne	r0, #1
   8328e:	4770      	bx	lr

00083290 <pio_set_peripheral>:
   83290:	6442      	str	r2, [r0, #68]	; 0x44
   83292:	f1b1 5f80 	cmp.w	r1, #268435456	; 0x10000000
   83296:	d016      	beq.n	832c6 <pio_set_peripheral+0x36>
   83298:	d804      	bhi.n	832a4 <pio_set_peripheral+0x14>
   8329a:	b1c1      	cbz	r1, 832ce <pio_set_peripheral+0x3e>
   8329c:	f1b1 6f00 	cmp.w	r1, #134217728	; 0x8000000
   832a0:	d00a      	beq.n	832b8 <pio_set_peripheral+0x28>
   832a2:	e013      	b.n	832cc <pio_set_peripheral+0x3c>
   832a4:	f1b1 5f40 	cmp.w	r1, #805306368	; 0x30000000
   832a8:	d011      	beq.n	832ce <pio_set_peripheral+0x3e>
   832aa:	f1b1 5f60 	cmp.w	r1, #939524096	; 0x38000000
   832ae:	d00e      	beq.n	832ce <pio_set_peripheral+0x3e>
   832b0:	f1b1 5f20 	cmp.w	r1, #671088640	; 0x28000000
   832b4:	d10a      	bne.n	832cc <pio_set_peripheral+0x3c>
   832b6:	4770      	bx	lr
   832b8:	6f03      	ldr	r3, [r0, #112]	; 0x70
   832ba:	6f01      	ldr	r1, [r0, #112]	; 0x70
   832bc:	400b      	ands	r3, r1
   832be:	ea23 0302 	bic.w	r3, r3, r2
   832c2:	6703      	str	r3, [r0, #112]	; 0x70
   832c4:	e002      	b.n	832cc <pio_set_peripheral+0x3c>
   832c6:	6f03      	ldr	r3, [r0, #112]	; 0x70
   832c8:	4313      	orrs	r3, r2
   832ca:	6703      	str	r3, [r0, #112]	; 0x70
   832cc:	6042      	str	r2, [r0, #4]
   832ce:	4770      	bx	lr

000832d0 <pio_set_input>:
   832d0:	6441      	str	r1, [r0, #68]	; 0x44
   832d2:	f012 0f01 	tst.w	r2, #1
   832d6:	bf14      	ite	ne
   832d8:	6641      	strne	r1, [r0, #100]	; 0x64
   832da:	6601      	streq	r1, [r0, #96]	; 0x60
   832dc:	f012 0f0a 	tst.w	r2, #10
   832e0:	bf14      	ite	ne
   832e2:	6201      	strne	r1, [r0, #32]
   832e4:	6241      	streq	r1, [r0, #36]	; 0x24
   832e6:	f012 0f02 	tst.w	r2, #2
   832ea:	d002      	beq.n	832f2 <pio_set_input+0x22>
   832ec:	f8c0 1080 	str.w	r1, [r0, #128]	; 0x80
   832f0:	e004      	b.n	832fc <pio_set_input+0x2c>
   832f2:	f012 0f08 	tst.w	r2, #8
   832f6:	bf18      	it	ne
   832f8:	f8c0 1084 	strne.w	r1, [r0, #132]	; 0x84
   832fc:	6141      	str	r1, [r0, #20]
   832fe:	6001      	str	r1, [r0, #0]
   83300:	4770      	bx	lr
   83302:	bf00      	nop

00083304 <pio_set_output>:
   83304:	b410      	push	{r4}
   83306:	6441      	str	r1, [r0, #68]	; 0x44
   83308:	9c01      	ldr	r4, [sp, #4]
   8330a:	b10c      	cbz	r4, 83310 <pio_set_output+0xc>
   8330c:	6641      	str	r1, [r0, #100]	; 0x64
   8330e:	e000      	b.n	83312 <pio_set_output+0xe>
   83310:	6601      	str	r1, [r0, #96]	; 0x60
   83312:	b10b      	cbz	r3, 83318 <pio_set_output+0x14>
   83314:	6501      	str	r1, [r0, #80]	; 0x50
   83316:	e000      	b.n	8331a <pio_set_output+0x16>
   83318:	6541      	str	r1, [r0, #84]	; 0x54
   8331a:	b10a      	cbz	r2, 83320 <pio_set_output+0x1c>
   8331c:	6301      	str	r1, [r0, #48]	; 0x30
   8331e:	e000      	b.n	83322 <pio_set_output+0x1e>
   83320:	6341      	str	r1, [r0, #52]	; 0x34
   83322:	6101      	str	r1, [r0, #16]
   83324:	6001      	str	r1, [r0, #0]
   83326:	f85d 4b04 	ldr.w	r4, [sp], #4
   8332a:	4770      	bx	lr

0008332c <pio_configure_interrupt>:
   8332c:	f012 0f10 	tst.w	r2, #16
   83330:	d010      	beq.n	83354 <pio_configure_interrupt+0x28>
   83332:	f8c0 10b0 	str.w	r1, [r0, #176]	; 0xb0
   83336:	f012 0f20 	tst.w	r2, #32
   8333a:	bf14      	ite	ne
   8333c:	f8c0 10d4 	strne.w	r1, [r0, #212]	; 0xd4
   83340:	f8c0 10d0 	streq.w	r1, [r0, #208]	; 0xd0
   83344:	f012 0f40 	tst.w	r2, #64	; 0x40
   83348:	bf14      	ite	ne
   8334a:	f8c0 10c0 	strne.w	r1, [r0, #192]	; 0xc0
   8334e:	f8c0 10c4 	streq.w	r1, [r0, #196]	; 0xc4
   83352:	4770      	bx	lr
   83354:	f8c0 10b4 	str.w	r1, [r0, #180]	; 0xb4
   83358:	4770      	bx	lr
   8335a:	bf00      	nop

0008335c <pio_enable_interrupt>:
   8335c:	6cc3      	ldr	r3, [r0, #76]	; 0x4c
   8335e:	6401      	str	r1, [r0, #64]	; 0x40
   83360:	4770      	bx	lr
   83362:	bf00      	nop

00083364 <pio_get_interrupt_status>:
   83364:	6cc0      	ldr	r0, [r0, #76]	; 0x4c
   83366:	4770      	bx	lr

00083368 <pio_get_interrupt_mask>:
   83368:	6c80      	ldr	r0, [r0, #72]	; 0x48
   8336a:	4770      	bx	lr

0008336c <pio_configure_pin>:
   8336c:	b570      	push	{r4, r5, r6, lr}
   8336e:	b082      	sub	sp, #8
   83370:	460d      	mov	r5, r1
   83372:	0944      	lsrs	r4, r0, #5
   83374:	f504 1400 	add.w	r4, r4, #2097152	; 0x200000
   83378:	f204 7407 	addw	r4, r4, #1799	; 0x707
   8337c:	0266      	lsls	r6, r4, #9
   8337e:	f001 44f0 	and.w	r4, r1, #2013265920	; 0x78000000
   83382:	f1b4 5f20 	cmp.w	r4, #671088640	; 0x28000000
   83386:	d030      	beq.n	833ea <pio_configure_pin+0x7e>
   83388:	d806      	bhi.n	83398 <pio_configure_pin+0x2c>
   8338a:	f1b4 6f00 	cmp.w	r4, #134217728	; 0x8000000
   8338e:	d00a      	beq.n	833a6 <pio_configure_pin+0x3a>
   83390:	f1b4 5f80 	cmp.w	r4, #268435456	; 0x10000000
   83394:	d018      	beq.n	833c8 <pio_configure_pin+0x5c>
   83396:	e049      	b.n	8342c <pio_configure_pin+0xc0>
   83398:	f1b4 5f40 	cmp.w	r4, #805306368	; 0x30000000
   8339c:	d030      	beq.n	83400 <pio_configure_pin+0x94>
   8339e:	f1b4 5f60 	cmp.w	r4, #939524096	; 0x38000000
   833a2:	d02d      	beq.n	83400 <pio_configure_pin+0x94>
   833a4:	e042      	b.n	8342c <pio_configure_pin+0xc0>
   833a6:	f000 001f 	and.w	r0, r0, #31
   833aa:	2401      	movs	r4, #1
   833ac:	4084      	lsls	r4, r0
   833ae:	4630      	mov	r0, r6
   833b0:	f04f 6100 	mov.w	r1, #134217728	; 0x8000000
   833b4:	4622      	mov	r2, r4
   833b6:	4b1f      	ldr	r3, [pc, #124]	; (83434 <pio_configure_pin+0xc8>)
   833b8:	4798      	blx	r3
   833ba:	f015 0f01 	tst.w	r5, #1
   833be:	bf14      	ite	ne
   833c0:	6674      	strne	r4, [r6, #100]	; 0x64
   833c2:	6634      	streq	r4, [r6, #96]	; 0x60
   833c4:	2001      	movs	r0, #1
   833c6:	e032      	b.n	8342e <pio_configure_pin+0xc2>
   833c8:	f000 001f 	and.w	r0, r0, #31
   833cc:	2401      	movs	r4, #1
   833ce:	4084      	lsls	r4, r0
   833d0:	4630      	mov	r0, r6
   833d2:	f04f 5180 	mov.w	r1, #268435456	; 0x10000000
   833d6:	4622      	mov	r2, r4
   833d8:	4b16      	ldr	r3, [pc, #88]	; (83434 <pio_configure_pin+0xc8>)
   833da:	4798      	blx	r3
   833dc:	f015 0f01 	tst.w	r5, #1
   833e0:	bf14      	ite	ne
   833e2:	6674      	strne	r4, [r6, #100]	; 0x64
   833e4:	6634      	streq	r4, [r6, #96]	; 0x60
   833e6:	2001      	movs	r0, #1
   833e8:	e021      	b.n	8342e <pio_configure_pin+0xc2>
   833ea:	f000 011f 	and.w	r1, r0, #31
   833ee:	2401      	movs	r4, #1
   833f0:	4630      	mov	r0, r6
   833f2:	fa04 f101 	lsl.w	r1, r4, r1
   833f6:	462a      	mov	r2, r5
   833f8:	4b0f      	ldr	r3, [pc, #60]	; (83438 <pio_configure_pin+0xcc>)
   833fa:	4798      	blx	r3
   833fc:	4620      	mov	r0, r4
   833fe:	e016      	b.n	8342e <pio_configure_pin+0xc2>
   83400:	f000 011f 	and.w	r1, r0, #31
   83404:	2401      	movs	r4, #1
   83406:	f005 5260 	and.w	r2, r5, #939524096	; 0x38000000
   8340a:	ea05 0304 	and.w	r3, r5, r4
   8340e:	9300      	str	r3, [sp, #0]
   83410:	4630      	mov	r0, r6
   83412:	fa04 f101 	lsl.w	r1, r4, r1
   83416:	f1b2 5f60 	cmp.w	r2, #939524096	; 0x38000000
   8341a:	bf14      	ite	ne
   8341c:	2200      	movne	r2, #0
   8341e:	2201      	moveq	r2, #1
   83420:	f3c5 0380 	ubfx	r3, r5, #2, #1
   83424:	4d05      	ldr	r5, [pc, #20]	; (8343c <pio_configure_pin+0xd0>)
   83426:	47a8      	blx	r5
   83428:	4620      	mov	r0, r4
   8342a:	e000      	b.n	8342e <pio_configure_pin+0xc2>
   8342c:	2000      	movs	r0, #0
   8342e:	b002      	add	sp, #8
   83430:	bd70      	pop	{r4, r5, r6, pc}
   83432:	bf00      	nop
   83434:	00083291 	.word	0x00083291
   83438:	000832d1 	.word	0x000832d1
   8343c:	00083305 	.word	0x00083305

00083440 <pio_configure_pin_group>:
   83440:	b5f0      	push	{r4, r5, r6, r7, lr}
   83442:	b083      	sub	sp, #12
   83444:	4607      	mov	r7, r0
   83446:	460e      	mov	r6, r1
   83448:	4615      	mov	r5, r2
   8344a:	f002 44f0 	and.w	r4, r2, #2013265920	; 0x78000000
   8344e:	f1b4 5f20 	cmp.w	r4, #671088640	; 0x28000000
   83452:	d026      	beq.n	834a2 <pio_configure_pin_group+0x62>
   83454:	d806      	bhi.n	83464 <pio_configure_pin_group+0x24>
   83456:	f1b4 6f00 	cmp.w	r4, #134217728	; 0x8000000
   8345a:	d00a      	beq.n	83472 <pio_configure_pin_group+0x32>
   8345c:	f1b4 5f80 	cmp.w	r4, #268435456	; 0x10000000
   83460:	d013      	beq.n	8348a <pio_configure_pin_group+0x4a>
   83462:	e034      	b.n	834ce <pio_configure_pin_group+0x8e>
   83464:	f1b4 5f40 	cmp.w	r4, #805306368	; 0x30000000
   83468:	d01f      	beq.n	834aa <pio_configure_pin_group+0x6a>
   8346a:	f1b4 5f60 	cmp.w	r4, #939524096	; 0x38000000
   8346e:	d01c      	beq.n	834aa <pio_configure_pin_group+0x6a>
   83470:	e02d      	b.n	834ce <pio_configure_pin_group+0x8e>
   83472:	f04f 6100 	mov.w	r1, #134217728	; 0x8000000
   83476:	4632      	mov	r2, r6
   83478:	4b16      	ldr	r3, [pc, #88]	; (834d4 <pio_configure_pin_group+0x94>)
   8347a:	4798      	blx	r3
   8347c:	f015 0f01 	tst.w	r5, #1
   83480:	bf14      	ite	ne
   83482:	667e      	strne	r6, [r7, #100]	; 0x64
   83484:	663e      	streq	r6, [r7, #96]	; 0x60
   83486:	2001      	movs	r0, #1
   83488:	e022      	b.n	834d0 <pio_configure_pin_group+0x90>
   8348a:	f04f 5180 	mov.w	r1, #268435456	; 0x10000000
   8348e:	4632      	mov	r2, r6
   83490:	4b10      	ldr	r3, [pc, #64]	; (834d4 <pio_configure_pin_group+0x94>)
   83492:	4798      	blx	r3
   83494:	f015 0f01 	tst.w	r5, #1
   83498:	bf14      	ite	ne
   8349a:	667e      	strne	r6, [r7, #100]	; 0x64
   8349c:	663e      	streq	r6, [r7, #96]	; 0x60
   8349e:	2001      	movs	r0, #1
   834a0:	e016      	b.n	834d0 <pio_configure_pin_group+0x90>
   834a2:	4b0d      	ldr	r3, [pc, #52]	; (834d8 <pio_configure_pin_group+0x98>)
   834a4:	4798      	blx	r3
   834a6:	2001      	movs	r0, #1
   834a8:	e012      	b.n	834d0 <pio_configure_pin_group+0x90>
   834aa:	f005 5260 	and.w	r2, r5, #939524096	; 0x38000000
   834ae:	f005 0301 	and.w	r3, r5, #1
   834b2:	9300      	str	r3, [sp, #0]
   834b4:	4638      	mov	r0, r7
   834b6:	4631      	mov	r1, r6
   834b8:	f1b2 5f60 	cmp.w	r2, #939524096	; 0x38000000
   834bc:	bf14      	ite	ne
   834be:	2200      	movne	r2, #0
   834c0:	2201      	moveq	r2, #1
   834c2:	f3c5 0380 	ubfx	r3, r5, #2, #1
   834c6:	4c05      	ldr	r4, [pc, #20]	; (834dc <pio_configure_pin_group+0x9c>)
   834c8:	47a0      	blx	r4
   834ca:	2001      	movs	r0, #1
   834cc:	e000      	b.n	834d0 <pio_configure_pin_group+0x90>
   834ce:	2000      	movs	r0, #0
   834d0:	b003      	add	sp, #12
   834d2:	bdf0      	pop	{r4, r5, r6, r7, pc}
   834d4:	00083291 	.word	0x00083291
   834d8:	000832d1 	.word	0x000832d1
   834dc:	00083305 	.word	0x00083305

000834e0 <pio_handler_process>:
   834e0:	e92d 41f0 	stmdb	sp!, {r4, r5, r6, r7, r8, lr}
   834e4:	4604      	mov	r4, r0
   834e6:	460e      	mov	r6, r1
   834e8:	4b10      	ldr	r3, [pc, #64]	; (8352c <pio_handler_process+0x4c>)
   834ea:	4798      	blx	r3
   834ec:	4605      	mov	r5, r0
   834ee:	4620      	mov	r0, r4
   834f0:	4b0f      	ldr	r3, [pc, #60]	; (83530 <pio_handler_process+0x50>)
   834f2:	4798      	blx	r3
   834f4:	4005      	ands	r5, r0
   834f6:	d017      	beq.n	83528 <pio_handler_process+0x48>
   834f8:	4f0e      	ldr	r7, [pc, #56]	; (83534 <pio_handler_process+0x54>)
   834fa:	f107 040c 	add.w	r4, r7, #12
   834fe:	376c      	adds	r7, #108	; 0x6c
   83500:	f854 3c0c 	ldr.w	r3, [r4, #-12]
   83504:	42b3      	cmp	r3, r6
   83506:	d10a      	bne.n	8351e <pio_handler_process+0x3e>
   83508:	f854 1c08 	ldr.w	r1, [r4, #-8]
   8350c:	4229      	tst	r1, r5
   8350e:	d006      	beq.n	8351e <pio_handler_process+0x3e>
   83510:	6823      	ldr	r3, [r4, #0]
   83512:	4630      	mov	r0, r6
   83514:	4798      	blx	r3
   83516:	f854 3c08 	ldr.w	r3, [r4, #-8]
   8351a:	ea25 0503 	bic.w	r5, r5, r3
   8351e:	42bc      	cmp	r4, r7
   83520:	d002      	beq.n	83528 <pio_handler_process+0x48>
   83522:	3410      	adds	r4, #16
   83524:	2d00      	cmp	r5, #0
   83526:	d1eb      	bne.n	83500 <pio_handler_process+0x20>
   83528:	e8bd 81f0 	ldmia.w	sp!, {r4, r5, r6, r7, r8, pc}
   8352c:	00083365 	.word	0x00083365
   83530:	00083369 	.word	0x00083369
   83534:	20078c24 	.word	0x20078c24

00083538 <pio_handler_set>:
   83538:	b5f8      	push	{r3, r4, r5, r6, r7, lr}
   8353a:	4c0b      	ldr	r4, [pc, #44]	; (83568 <pio_handler_set+0x30>)
   8353c:	6824      	ldr	r4, [r4, #0]
   8353e:	2c06      	cmp	r4, #6
   83540:	d810      	bhi.n	83564 <pio_handler_set+0x2c>
   83542:	4f0a      	ldr	r7, [pc, #40]	; (8356c <pio_handler_set+0x34>)
   83544:	0126      	lsls	r6, r4, #4
   83546:	19bd      	adds	r5, r7, r6
   83548:	51b9      	str	r1, [r7, r6]
   8354a:	606a      	str	r2, [r5, #4]
   8354c:	60ab      	str	r3, [r5, #8]
   8354e:	9906      	ldr	r1, [sp, #24]
   83550:	60e9      	str	r1, [r5, #12]
   83552:	3401      	adds	r4, #1
   83554:	4904      	ldr	r1, [pc, #16]	; (83568 <pio_handler_set+0x30>)
   83556:	600c      	str	r4, [r1, #0]
   83558:	4611      	mov	r1, r2
   8355a:	461a      	mov	r2, r3
   8355c:	4b04      	ldr	r3, [pc, #16]	; (83570 <pio_handler_set+0x38>)
   8355e:	4798      	blx	r3
   83560:	2000      	movs	r0, #0
   83562:	bdf8      	pop	{r3, r4, r5, r6, r7, pc}
   83564:	2001      	movs	r0, #1
   83566:	bdf8      	pop	{r3, r4, r5, r6, r7, pc}
   83568:	20078c20 	.word	0x20078c20
   8356c:	20078c24 	.word	0x20078c24
   83570:	0008332d 	.word	0x0008332d

00083574 <PIOA_Handler>:
   83574:	b508      	push	{r3, lr}
   83576:	4802      	ldr	r0, [pc, #8]	; (83580 <PIOA_Handler+0xc>)
   83578:	210b      	movs	r1, #11
   8357a:	4b02      	ldr	r3, [pc, #8]	; (83584 <PIOA_Handler+0x10>)
   8357c:	4798      	blx	r3
   8357e:	bd08      	pop	{r3, pc}
   83580:	400e0e00 	.word	0x400e0e00
   83584:	000834e1 	.word	0x000834e1

00083588 <PIOB_Handler>:
   83588:	b508      	push	{r3, lr}
   8358a:	4802      	ldr	r0, [pc, #8]	; (83594 <PIOB_Handler+0xc>)
   8358c:	210c      	movs	r1, #12
   8358e:	4b02      	ldr	r3, [pc, #8]	; (83598 <PIOB_Handler+0x10>)
   83590:	4798      	blx	r3
   83592:	bd08      	pop	{r3, pc}
   83594:	400e1000 	.word	0x400e1000
   83598:	000834e1 	.word	0x000834e1

0008359c <PIOC_Handler>:
   8359c:	b508      	push	{r3, lr}
   8359e:	4802      	ldr	r0, [pc, #8]	; (835a8 <PIOC_Handler+0xc>)
   835a0:	210d      	movs	r1, #13
   835a2:	4b02      	ldr	r3, [pc, #8]	; (835ac <PIOC_Handler+0x10>)
   835a4:	4798      	blx	r3
   835a6:	bd08      	pop	{r3, pc}
   835a8:	400e1200 	.word	0x400e1200
   835ac:	000834e1 	.word	0x000834e1

000835b0 <PIOD_Handler>:
   835b0:	b508      	push	{r3, lr}
   835b2:	4802      	ldr	r0, [pc, #8]	; (835bc <PIOD_Handler+0xc>)
   835b4:	210e      	movs	r1, #14
   835b6:	4b02      	ldr	r3, [pc, #8]	; (835c0 <PIOD_Handler+0x10>)
   835b8:	4798      	blx	r3
   835ba:	bd08      	pop	{r3, pc}
   835bc:	400e1400 	.word	0x400e1400
   835c0:	000834e1 	.word	0x000834e1

000835c4 <pmc_switch_mck_to_pllack>:
   835c4:	4b17      	ldr	r3, [pc, #92]	; (83624 <pmc_switch_mck_to_pllack+0x60>)
   835c6:	6b1a      	ldr	r2, [r3, #48]	; 0x30
   835c8:	f022 0270 	bic.w	r2, r2, #112	; 0x70
   835cc:	4310      	orrs	r0, r2
   835ce:	6318      	str	r0, [r3, #48]	; 0x30
   835d0:	6e9b      	ldr	r3, [r3, #104]	; 0x68
   835d2:	f013 0f08 	tst.w	r3, #8
   835d6:	d109      	bne.n	835ec <pmc_switch_mck_to_pllack+0x28>
   835d8:	f44f 6300 	mov.w	r3, #2048	; 0x800
   835dc:	4911      	ldr	r1, [pc, #68]	; (83624 <pmc_switch_mck_to_pllack+0x60>)
   835de:	e001      	b.n	835e4 <pmc_switch_mck_to_pllack+0x20>
   835e0:	3b01      	subs	r3, #1
   835e2:	d019      	beq.n	83618 <pmc_switch_mck_to_pllack+0x54>
   835e4:	6e8a      	ldr	r2, [r1, #104]	; 0x68
   835e6:	f012 0f08 	tst.w	r2, #8
   835ea:	d0f9      	beq.n	835e0 <pmc_switch_mck_to_pllack+0x1c>
   835ec:	4b0d      	ldr	r3, [pc, #52]	; (83624 <pmc_switch_mck_to_pllack+0x60>)
   835ee:	6b1a      	ldr	r2, [r3, #48]	; 0x30
   835f0:	f022 0203 	bic.w	r2, r2, #3
   835f4:	f042 0202 	orr.w	r2, r2, #2
   835f8:	631a      	str	r2, [r3, #48]	; 0x30
   835fa:	6e98      	ldr	r0, [r3, #104]	; 0x68
   835fc:	f010 0008 	ands.w	r0, r0, #8
   83600:	d10c      	bne.n	8361c <pmc_switch_mck_to_pllack+0x58>
   83602:	f44f 6300 	mov.w	r3, #2048	; 0x800
   83606:	4907      	ldr	r1, [pc, #28]	; (83624 <pmc_switch_mck_to_pllack+0x60>)
   83608:	e001      	b.n	8360e <pmc_switch_mck_to_pllack+0x4a>
   8360a:	3b01      	subs	r3, #1
   8360c:	d008      	beq.n	83620 <pmc_switch_mck_to_pllack+0x5c>
   8360e:	6e8a      	ldr	r2, [r1, #104]	; 0x68
   83610:	f012 0f08 	tst.w	r2, #8
   83614:	d0f9      	beq.n	8360a <pmc_switch_mck_to_pllack+0x46>
   83616:	4770      	bx	lr
   83618:	2001      	movs	r0, #1
   8361a:	4770      	bx	lr
   8361c:	2000      	movs	r0, #0
   8361e:	4770      	bx	lr
   83620:	2001      	movs	r0, #1
   83622:	4770      	bx	lr
   83624:	400e0600 	.word	0x400e0600

00083628 <pmc_switch_mainck_to_xtal>:
   83628:	b138      	cbz	r0, 8363a <pmc_switch_mainck_to_xtal+0x12>
   8362a:	4911      	ldr	r1, [pc, #68]	; (83670 <pmc_switch_mainck_to_xtal+0x48>)
   8362c:	6a0b      	ldr	r3, [r1, #32]
   8362e:	4a11      	ldr	r2, [pc, #68]	; (83674 <pmc_switch_mainck_to_xtal+0x4c>)
   83630:	401a      	ands	r2, r3
   83632:	4b11      	ldr	r3, [pc, #68]	; (83678 <pmc_switch_mainck_to_xtal+0x50>)
   83634:	4313      	orrs	r3, r2
   83636:	620b      	str	r3, [r1, #32]
   83638:	4770      	bx	lr
   8363a:	4a0d      	ldr	r2, [pc, #52]	; (83670 <pmc_switch_mainck_to_xtal+0x48>)
   8363c:	6a13      	ldr	r3, [r2, #32]
   8363e:	f423 135c 	bic.w	r3, r3, #3604480	; 0x370000
   83642:	f023 0303 	bic.w	r3, r3, #3
   83646:	f443 135c 	orr.w	r3, r3, #3604480	; 0x370000
   8364a:	f043 0301 	orr.w	r3, r3, #1
   8364e:	0209      	lsls	r1, r1, #8
   83650:	b289      	uxth	r1, r1
   83652:	430b      	orrs	r3, r1
   83654:	6213      	str	r3, [r2, #32]
   83656:	6e93      	ldr	r3, [r2, #104]	; 0x68
   83658:	f013 0f01 	tst.w	r3, #1
   8365c:	d0fb      	beq.n	83656 <pmc_switch_mainck_to_xtal+0x2e>
   8365e:	4a04      	ldr	r2, [pc, #16]	; (83670 <pmc_switch_mainck_to_xtal+0x48>)
   83660:	6a13      	ldr	r3, [r2, #32]
   83662:	f043 739b 	orr.w	r3, r3, #20316160	; 0x1360000
   83666:	f443 3380 	orr.w	r3, r3, #65536	; 0x10000
   8366a:	6213      	str	r3, [r2, #32]
   8366c:	4770      	bx	lr
   8366e:	bf00      	nop
   83670:	400e0600 	.word	0x400e0600
   83674:	fec8fffc 	.word	0xfec8fffc
   83678:	01370002 	.word	0x01370002

0008367c <pmc_osc_is_ready_mainck>:
   8367c:	4b02      	ldr	r3, [pc, #8]	; (83688 <pmc_osc_is_ready_mainck+0xc>)
   8367e:	6e98      	ldr	r0, [r3, #104]	; 0x68
   83680:	f400 3080 	and.w	r0, r0, #65536	; 0x10000
   83684:	4770      	bx	lr
   83686:	bf00      	nop
   83688:	400e0600 	.word	0x400e0600

0008368c <pmc_disable_pllack>:
   8368c:	f04f 5200 	mov.w	r2, #536870912	; 0x20000000
   83690:	4b01      	ldr	r3, [pc, #4]	; (83698 <pmc_disable_pllack+0xc>)
   83692:	629a      	str	r2, [r3, #40]	; 0x28
   83694:	4770      	bx	lr
   83696:	bf00      	nop
   83698:	400e0600 	.word	0x400e0600

0008369c <pmc_is_locked_pllack>:
   8369c:	4b02      	ldr	r3, [pc, #8]	; (836a8 <pmc_is_locked_pllack+0xc>)
   8369e:	6e98      	ldr	r0, [r3, #104]	; 0x68
   836a0:	f000 0002 	and.w	r0, r0, #2
   836a4:	4770      	bx	lr
   836a6:	bf00      	nop
   836a8:	400e0600 	.word	0x400e0600

000836ac <pmc_enable_periph_clk>:
   836ac:	282c      	cmp	r0, #44	; 0x2c
   836ae:	d820      	bhi.n	836f2 <pmc_enable_periph_clk+0x46>
   836b0:	281f      	cmp	r0, #31
   836b2:	d80d      	bhi.n	836d0 <pmc_enable_periph_clk+0x24>
   836b4:	4b12      	ldr	r3, [pc, #72]	; (83700 <pmc_enable_periph_clk+0x54>)
   836b6:	699a      	ldr	r2, [r3, #24]
   836b8:	2301      	movs	r3, #1
   836ba:	4083      	lsls	r3, r0
   836bc:	401a      	ands	r2, r3
   836be:	4293      	cmp	r3, r2
   836c0:	d019      	beq.n	836f6 <pmc_enable_periph_clk+0x4a>
   836c2:	2301      	movs	r3, #1
   836c4:	fa03 f000 	lsl.w	r0, r3, r0
   836c8:	4b0d      	ldr	r3, [pc, #52]	; (83700 <pmc_enable_periph_clk+0x54>)
   836ca:	6118      	str	r0, [r3, #16]
   836cc:	2000      	movs	r0, #0
   836ce:	4770      	bx	lr
   836d0:	4b0b      	ldr	r3, [pc, #44]	; (83700 <pmc_enable_periph_clk+0x54>)
   836d2:	f8d3 2108 	ldr.w	r2, [r3, #264]	; 0x108
   836d6:	3820      	subs	r0, #32
   836d8:	2301      	movs	r3, #1
   836da:	4083      	lsls	r3, r0
   836dc:	401a      	ands	r2, r3
   836de:	4293      	cmp	r3, r2
   836e0:	d00b      	beq.n	836fa <pmc_enable_periph_clk+0x4e>
   836e2:	2301      	movs	r3, #1
   836e4:	fa03 f000 	lsl.w	r0, r3, r0
   836e8:	4b05      	ldr	r3, [pc, #20]	; (83700 <pmc_enable_periph_clk+0x54>)
   836ea:	f8c3 0100 	str.w	r0, [r3, #256]	; 0x100
   836ee:	2000      	movs	r0, #0
   836f0:	4770      	bx	lr
   836f2:	2001      	movs	r0, #1
   836f4:	4770      	bx	lr
   836f6:	2000      	movs	r0, #0
   836f8:	4770      	bx	lr
   836fa:	2000      	movs	r0, #0
   836fc:	4770      	bx	lr
   836fe:	bf00      	nop
   83700:	400e0600 	.word	0x400e0600

00083704 <Dummy_Handler>:
   83704:	e7fe      	b.n	83704 <Dummy_Handler>
   83706:	bf00      	nop

00083708 <Reset_Handler>:
   83708:	b510      	push	{r4, lr}
   8370a:	4b1e      	ldr	r3, [pc, #120]	; (83784 <Reset_Handler+0x7c>)
   8370c:	4a1e      	ldr	r2, [pc, #120]	; (83788 <Reset_Handler+0x80>)
   8370e:	429a      	cmp	r2, r3
   83710:	d003      	beq.n	8371a <Reset_Handler+0x12>
   83712:	4b1e      	ldr	r3, [pc, #120]	; (8378c <Reset_Handler+0x84>)
   83714:	4a1b      	ldr	r2, [pc, #108]	; (83784 <Reset_Handler+0x7c>)
   83716:	429a      	cmp	r2, r3
   83718:	d304      	bcc.n	83724 <Reset_Handler+0x1c>
   8371a:	4b1d      	ldr	r3, [pc, #116]	; (83790 <Reset_Handler+0x88>)
   8371c:	4a1d      	ldr	r2, [pc, #116]	; (83794 <Reset_Handler+0x8c>)
   8371e:	429a      	cmp	r2, r3
   83720:	d30f      	bcc.n	83742 <Reset_Handler+0x3a>
   83722:	e01a      	b.n	8375a <Reset_Handler+0x52>
   83724:	4b1c      	ldr	r3, [pc, #112]	; (83798 <Reset_Handler+0x90>)
   83726:	4c1d      	ldr	r4, [pc, #116]	; (8379c <Reset_Handler+0x94>)
   83728:	1ae4      	subs	r4, r4, r3
   8372a:	f024 0403 	bic.w	r4, r4, #3
   8372e:	3404      	adds	r4, #4
   83730:	2300      	movs	r3, #0
   83732:	4814      	ldr	r0, [pc, #80]	; (83784 <Reset_Handler+0x7c>)
   83734:	4914      	ldr	r1, [pc, #80]	; (83788 <Reset_Handler+0x80>)
   83736:	585a      	ldr	r2, [r3, r1]
   83738:	501a      	str	r2, [r3, r0]
   8373a:	3304      	adds	r3, #4
   8373c:	42a3      	cmp	r3, r4
   8373e:	d1fa      	bne.n	83736 <Reset_Handler+0x2e>
   83740:	e7eb      	b.n	8371a <Reset_Handler+0x12>
   83742:	4b17      	ldr	r3, [pc, #92]	; (837a0 <Reset_Handler+0x98>)
   83744:	4917      	ldr	r1, [pc, #92]	; (837a4 <Reset_Handler+0x9c>)
   83746:	1ac9      	subs	r1, r1, r3
   83748:	f021 0103 	bic.w	r1, r1, #3
   8374c:	1d1a      	adds	r2, r3, #4
   8374e:	4411      	add	r1, r2
   83750:	2200      	movs	r2, #0
   83752:	f843 2f04 	str.w	r2, [r3, #4]!
   83756:	428b      	cmp	r3, r1
   83758:	d1fb      	bne.n	83752 <Reset_Handler+0x4a>
   8375a:	4a13      	ldr	r2, [pc, #76]	; (837a8 <Reset_Handler+0xa0>)
   8375c:	f022 4360 	bic.w	r3, r2, #3758096384	; 0xe0000000
   83760:	f023 037f 	bic.w	r3, r3, #127	; 0x7f
   83764:	4911      	ldr	r1, [pc, #68]	; (837ac <Reset_Handler+0xa4>)
   83766:	608b      	str	r3, [r1, #8]
   83768:	f102 4260 	add.w	r2, r2, #3758096384	; 0xe0000000
   8376c:	f5b2 1f80 	cmp.w	r2, #1048576	; 0x100000
   83770:	d203      	bcs.n	8377a <Reset_Handler+0x72>
   83772:	688a      	ldr	r2, [r1, #8]
   83774:	f042 5200 	orr.w	r2, r2, #536870912	; 0x20000000
   83778:	608a      	str	r2, [r1, #8]
   8377a:	4b0d      	ldr	r3, [pc, #52]	; (837b0 <Reset_Handler+0xa8>)
   8377c:	4798      	blx	r3
   8377e:	4b0d      	ldr	r3, [pc, #52]	; (837b4 <Reset_Handler+0xac>)
   83780:	4798      	blx	r3
   83782:	e7fe      	b.n	83782 <Reset_Handler+0x7a>
   83784:	20070000 	.word	0x20070000
   83788:	00087bc4 	.word	0x00087bc4
   8378c:	200709dc 	.word	0x200709dc
   83790:	20078de4 	.word	0x20078de4
   83794:	200709e0 	.word	0x200709e0
   83798:	20070004 	.word	0x20070004
   8379c:	200709df 	.word	0x200709df
   837a0:	200709dc 	.word	0x200709dc
   837a4:	20078ddf 	.word	0x20078ddf
   837a8:	00080000 	.word	0x00080000
   837ac:	e000ed00 	.word	0xe000ed00
   837b0:	00084969 	.word	0x00084969
   837b4:	00083925 	.word	0x00083925

000837b8 <SystemCoreClockUpdate>:
   837b8:	4b3e      	ldr	r3, [pc, #248]	; (838b4 <SystemCoreClockUpdate+0xfc>)
   837ba:	6b1b      	ldr	r3, [r3, #48]	; 0x30
   837bc:	f003 0303 	and.w	r3, r3, #3
   837c0:	2b03      	cmp	r3, #3
   837c2:	d85f      	bhi.n	83884 <SystemCoreClockUpdate+0xcc>
   837c4:	e8df f003 	tbb	[pc, r3]
   837c8:	2b2b0e02 	.word	0x2b2b0e02
   837cc:	4b3a      	ldr	r3, [pc, #232]	; (838b8 <SystemCoreClockUpdate+0x100>)
   837ce:	695b      	ldr	r3, [r3, #20]
   837d0:	f013 0f80 	tst.w	r3, #128	; 0x80
   837d4:	bf14      	ite	ne
   837d6:	f44f 4200 	movne.w	r2, #32768	; 0x8000
   837da:	f44f 42fa 	moveq.w	r2, #32000	; 0x7d00
   837de:	4b37      	ldr	r3, [pc, #220]	; (838bc <SystemCoreClockUpdate+0x104>)
   837e0:	601a      	str	r2, [r3, #0]
   837e2:	e04f      	b.n	83884 <SystemCoreClockUpdate+0xcc>
   837e4:	4b33      	ldr	r3, [pc, #204]	; (838b4 <SystemCoreClockUpdate+0xfc>)
   837e6:	6a1b      	ldr	r3, [r3, #32]
   837e8:	f013 7f80 	tst.w	r3, #16777216	; 0x1000000
   837ec:	d003      	beq.n	837f6 <SystemCoreClockUpdate+0x3e>
   837ee:	4a34      	ldr	r2, [pc, #208]	; (838c0 <SystemCoreClockUpdate+0x108>)
   837f0:	4b32      	ldr	r3, [pc, #200]	; (838bc <SystemCoreClockUpdate+0x104>)
   837f2:	601a      	str	r2, [r3, #0]
   837f4:	e046      	b.n	83884 <SystemCoreClockUpdate+0xcc>
   837f6:	4a33      	ldr	r2, [pc, #204]	; (838c4 <SystemCoreClockUpdate+0x10c>)
   837f8:	4b30      	ldr	r3, [pc, #192]	; (838bc <SystemCoreClockUpdate+0x104>)
   837fa:	601a      	str	r2, [r3, #0]
   837fc:	4b2d      	ldr	r3, [pc, #180]	; (838b4 <SystemCoreClockUpdate+0xfc>)
   837fe:	6a1b      	ldr	r3, [r3, #32]
   83800:	f003 0370 	and.w	r3, r3, #112	; 0x70
   83804:	2b10      	cmp	r3, #16
   83806:	d002      	beq.n	8380e <SystemCoreClockUpdate+0x56>
   83808:	2b20      	cmp	r3, #32
   8380a:	d004      	beq.n	83816 <SystemCoreClockUpdate+0x5e>
   8380c:	e03a      	b.n	83884 <SystemCoreClockUpdate+0xcc>
   8380e:	4a2e      	ldr	r2, [pc, #184]	; (838c8 <SystemCoreClockUpdate+0x110>)
   83810:	4b2a      	ldr	r3, [pc, #168]	; (838bc <SystemCoreClockUpdate+0x104>)
   83812:	601a      	str	r2, [r3, #0]
   83814:	e036      	b.n	83884 <SystemCoreClockUpdate+0xcc>
   83816:	4a2a      	ldr	r2, [pc, #168]	; (838c0 <SystemCoreClockUpdate+0x108>)
   83818:	4b28      	ldr	r3, [pc, #160]	; (838bc <SystemCoreClockUpdate+0x104>)
   8381a:	601a      	str	r2, [r3, #0]
   8381c:	e032      	b.n	83884 <SystemCoreClockUpdate+0xcc>
   8381e:	4b25      	ldr	r3, [pc, #148]	; (838b4 <SystemCoreClockUpdate+0xfc>)
   83820:	6a1b      	ldr	r3, [r3, #32]
   83822:	f013 7f80 	tst.w	r3, #16777216	; 0x1000000
   83826:	d003      	beq.n	83830 <SystemCoreClockUpdate+0x78>
   83828:	4a25      	ldr	r2, [pc, #148]	; (838c0 <SystemCoreClockUpdate+0x108>)
   8382a:	4b24      	ldr	r3, [pc, #144]	; (838bc <SystemCoreClockUpdate+0x104>)
   8382c:	601a      	str	r2, [r3, #0]
   8382e:	e012      	b.n	83856 <SystemCoreClockUpdate+0x9e>
   83830:	4a24      	ldr	r2, [pc, #144]	; (838c4 <SystemCoreClockUpdate+0x10c>)
   83832:	4b22      	ldr	r3, [pc, #136]	; (838bc <SystemCoreClockUpdate+0x104>)
   83834:	601a      	str	r2, [r3, #0]
   83836:	4b1f      	ldr	r3, [pc, #124]	; (838b4 <SystemCoreClockUpdate+0xfc>)
   83838:	6a1b      	ldr	r3, [r3, #32]
   8383a:	f003 0370 	and.w	r3, r3, #112	; 0x70
   8383e:	2b10      	cmp	r3, #16
   83840:	d002      	beq.n	83848 <SystemCoreClockUpdate+0x90>
   83842:	2b20      	cmp	r3, #32
   83844:	d004      	beq.n	83850 <SystemCoreClockUpdate+0x98>
   83846:	e006      	b.n	83856 <SystemCoreClockUpdate+0x9e>
   83848:	4a1f      	ldr	r2, [pc, #124]	; (838c8 <SystemCoreClockUpdate+0x110>)
   8384a:	4b1c      	ldr	r3, [pc, #112]	; (838bc <SystemCoreClockUpdate+0x104>)
   8384c:	601a      	str	r2, [r3, #0]
   8384e:	e002      	b.n	83856 <SystemCoreClockUpdate+0x9e>
   83850:	4a1b      	ldr	r2, [pc, #108]	; (838c0 <SystemCoreClockUpdate+0x108>)
   83852:	4b1a      	ldr	r3, [pc, #104]	; (838bc <SystemCoreClockUpdate+0x104>)
   83854:	601a      	str	r2, [r3, #0]
   83856:	4b17      	ldr	r3, [pc, #92]	; (838b4 <SystemCoreClockUpdate+0xfc>)
   83858:	6b1b      	ldr	r3, [r3, #48]	; 0x30
   8385a:	f003 0303 	and.w	r3, r3, #3
   8385e:	2b02      	cmp	r3, #2
   83860:	d10d      	bne.n	8387e <SystemCoreClockUpdate+0xc6>
   83862:	4b14      	ldr	r3, [pc, #80]	; (838b4 <SystemCoreClockUpdate+0xfc>)
   83864:	6a98      	ldr	r0, [r3, #40]	; 0x28
   83866:	6a99      	ldr	r1, [r3, #40]	; 0x28
   83868:	4b14      	ldr	r3, [pc, #80]	; (838bc <SystemCoreClockUpdate+0x104>)
   8386a:	f3c0 400a 	ubfx	r0, r0, #16, #11
   8386e:	681a      	ldr	r2, [r3, #0]
   83870:	fb00 2202 	mla	r2, r0, r2, r2
   83874:	b2c9      	uxtb	r1, r1
   83876:	fbb2 f2f1 	udiv	r2, r2, r1
   8387a:	601a      	str	r2, [r3, #0]
   8387c:	e002      	b.n	83884 <SystemCoreClockUpdate+0xcc>
   8387e:	4a13      	ldr	r2, [pc, #76]	; (838cc <SystemCoreClockUpdate+0x114>)
   83880:	4b0e      	ldr	r3, [pc, #56]	; (838bc <SystemCoreClockUpdate+0x104>)
   83882:	601a      	str	r2, [r3, #0]
   83884:	4b0b      	ldr	r3, [pc, #44]	; (838b4 <SystemCoreClockUpdate+0xfc>)
   83886:	6b1b      	ldr	r3, [r3, #48]	; 0x30
   83888:	f003 0370 	and.w	r3, r3, #112	; 0x70
   8388c:	2b70      	cmp	r3, #112	; 0x70
   8388e:	d107      	bne.n	838a0 <SystemCoreClockUpdate+0xe8>
   83890:	4b0a      	ldr	r3, [pc, #40]	; (838bc <SystemCoreClockUpdate+0x104>)
   83892:	681a      	ldr	r2, [r3, #0]
   83894:	490e      	ldr	r1, [pc, #56]	; (838d0 <SystemCoreClockUpdate+0x118>)
   83896:	fba1 0202 	umull	r0, r2, r1, r2
   8389a:	0852      	lsrs	r2, r2, #1
   8389c:	601a      	str	r2, [r3, #0]
   8389e:	4770      	bx	lr
   838a0:	4b04      	ldr	r3, [pc, #16]	; (838b4 <SystemCoreClockUpdate+0xfc>)
   838a2:	6b19      	ldr	r1, [r3, #48]	; 0x30
   838a4:	4b05      	ldr	r3, [pc, #20]	; (838bc <SystemCoreClockUpdate+0x104>)
   838a6:	f3c1 1102 	ubfx	r1, r1, #4, #3
   838aa:	681a      	ldr	r2, [r3, #0]
   838ac:	40ca      	lsrs	r2, r1
   838ae:	601a      	str	r2, [r3, #0]
   838b0:	4770      	bx	lr
   838b2:	bf00      	nop
   838b4:	400e0600 	.word	0x400e0600
   838b8:	400e1a10 	.word	0x400e1a10
   838bc:	2007016c 	.word	0x2007016c
   838c0:	00b71b00 	.word	0x00b71b00
   838c4:	003d0900 	.word	0x003d0900
   838c8:	007a1200 	.word	0x007a1200
   838cc:	0e4e1c00 	.word	0x0e4e1c00
   838d0:	aaaaaaab 	.word	0xaaaaaaab

000838d4 <_sbrk>:
   838d4:	4b09      	ldr	r3, [pc, #36]	; (838fc <_sbrk+0x28>)
   838d6:	681b      	ldr	r3, [r3, #0]
   838d8:	b913      	cbnz	r3, 838e0 <_sbrk+0xc>
   838da:	4a09      	ldr	r2, [pc, #36]	; (83900 <_sbrk+0x2c>)
   838dc:	4b07      	ldr	r3, [pc, #28]	; (838fc <_sbrk+0x28>)
   838de:	601a      	str	r2, [r3, #0]
   838e0:	4b06      	ldr	r3, [pc, #24]	; (838fc <_sbrk+0x28>)
   838e2:	681b      	ldr	r3, [r3, #0]
   838e4:	181a      	adds	r2, r3, r0
   838e6:	4907      	ldr	r1, [pc, #28]	; (83904 <_sbrk+0x30>)
   838e8:	4291      	cmp	r1, r2
   838ea:	db04      	blt.n	838f6 <_sbrk+0x22>
   838ec:	4610      	mov	r0, r2
   838ee:	4a03      	ldr	r2, [pc, #12]	; (838fc <_sbrk+0x28>)
   838f0:	6010      	str	r0, [r2, #0]
   838f2:	4618      	mov	r0, r3
   838f4:	4770      	bx	lr
   838f6:	f04f 30ff 	mov.w	r0, #4294967295
   838fa:	4770      	bx	lr
   838fc:	20078c94 	.word	0x20078c94
   83900:	2007ade8 	.word	0x2007ade8
   83904:	20087ffc 	.word	0x20087ffc

00083908 <_close>:
   83908:	f04f 30ff 	mov.w	r0, #4294967295
   8390c:	4770      	bx	lr
   8390e:	bf00      	nop

00083910 <_fstat>:
   83910:	f44f 5300 	mov.w	r3, #8192	; 0x2000
   83914:	604b      	str	r3, [r1, #4]
   83916:	2000      	movs	r0, #0
   83918:	4770      	bx	lr
   8391a:	bf00      	nop

0008391c <_isatty>:
   8391c:	2001      	movs	r0, #1
   8391e:	4770      	bx	lr

00083920 <_lseek>:
   83920:	2000      	movs	r0, #0
   83922:	4770      	bx	lr

00083924 <main>:
extern xTaskHandle xTaskMove=NULL;
extern xTaskHandle xTaskCom = NULL;
extern xTaskHandle xTaskCoordinate=NULL;

int main (void)
{
   83924:	b510      	push	{r4, lr}
   83926:	b0a0      	sub	sp, #128	; 0x80
	sysclk_init();
   83928:	4b2c      	ldr	r3, [pc, #176]	; (839dc <main+0xb8>)
   8392a:	4798      	blx	r3
	board_init();
   8392c:	4b2c      	ldr	r3, [pc, #176]	; (839e0 <main+0xbc>)
   8392e:	4798      	blx	r3
	configureConsole();
   83930:	4b2c      	ldr	r3, [pc, #176]	; (839e4 <main+0xc0>)
   83932:	4798      	blx	r3
	attach_interupt();
   83934:	4b2c      	ldr	r3, [pc, #176]	; (839e8 <main+0xc4>)
   83936:	4798      	blx	r3
	PWM_init();
   83938:	4b2c      	ldr	r3, [pc, #176]	; (839ec <main+0xc8>)
   8393a:	4798      	blx	r3
	/* Arlo robot initialization */
	arlo_init();
   8393c:	4b2c      	ldr	r3, [pc, #176]	; (839f0 <main+0xcc>)
   8393e:	4798      	blx	r3
	coordinatesInit();
   83940:	a804      	add	r0, sp, #16
   83942:	4b2c      	ldr	r3, [pc, #176]	; (839f4 <main+0xd0>)
   83944:	4798      	blx	r3
	/* Print info in terminal Window*/
	printf("-- %s\n\r", BOARD_NAME);
   83946:	482c      	ldr	r0, [pc, #176]	; (839f8 <main+0xd4>)
   83948:	492c      	ldr	r1, [pc, #176]	; (839fc <main+0xd8>)
   8394a:	4c2d      	ldr	r4, [pc, #180]	; (83a00 <main+0xdc>)
   8394c:	47a0      	blx	r4
	printf("-- Compiled: %s %s --\n\r", __DATE__, __TIME__);
   8394e:	482d      	ldr	r0, [pc, #180]	; (83a04 <main+0xe0>)
   83950:	492d      	ldr	r1, [pc, #180]	; (83a08 <main+0xe4>)
   83952:	4a2e      	ldr	r2, [pc, #184]	; (83a0c <main+0xe8>)
   83954:	47a0      	blx	r4
	
	/* Create the task with the third priority the task_Move*/
	if (xTaskCreate(task_move, (const signed char * const) "Move", TASK_MOVE_STACK_SIZE, NULL, TASK_MOVE_STACK_PRIORITY, &xTaskMove) != pdPASS) {
   83956:	2306      	movs	r3, #6
   83958:	9300      	str	r3, [sp, #0]
   8395a:	4b2d      	ldr	r3, [pc, #180]	; (83a10 <main+0xec>)
   8395c:	9301      	str	r3, [sp, #4]
   8395e:	2300      	movs	r3, #0
   83960:	9302      	str	r3, [sp, #8]
   83962:	9303      	str	r3, [sp, #12]
   83964:	482b      	ldr	r0, [pc, #172]	; (83a14 <main+0xf0>)
   83966:	492c      	ldr	r1, [pc, #176]	; (83a18 <main+0xf4>)
   83968:	f44f 7280 	mov.w	r2, #256	; 0x100
   8396c:	4c2b      	ldr	r4, [pc, #172]	; (83a1c <main+0xf8>)
   8396e:	47a0      	blx	r4
   83970:	2801      	cmp	r0, #1
   83972:	d002      	beq.n	8397a <main+0x56>
		printf("Failed to test task_Move task\r\n");
   83974:	482a      	ldr	r0, [pc, #168]	; (83a20 <main+0xfc>)
   83976:	4b22      	ldr	r3, [pc, #136]	; (83a00 <main+0xdc>)
   83978:	4798      	blx	r3
	}
	
	// 	/* Create the task with the second priority the task_GetCordinates*/
	 	if (xTaskCreate(task_getCordinates, (const signed char * const) "Get", TASK_GET_STACK_SIZE, NULL, TASK_GET_STACK_PRIORITY, &xTaskCoordinate) != pdPASS) {
   8397a:	2304      	movs	r3, #4
   8397c:	9300      	str	r3, [sp, #0]
   8397e:	4b29      	ldr	r3, [pc, #164]	; (83a24 <main+0x100>)
   83980:	9301      	str	r3, [sp, #4]
   83982:	2300      	movs	r3, #0
   83984:	9302      	str	r3, [sp, #8]
   83986:	9303      	str	r3, [sp, #12]
   83988:	4827      	ldr	r0, [pc, #156]	; (83a28 <main+0x104>)
   8398a:	4928      	ldr	r1, [pc, #160]	; (83a2c <main+0x108>)
   8398c:	f44f 7280 	mov.w	r2, #256	; 0x100
   83990:	4c22      	ldr	r4, [pc, #136]	; (83a1c <main+0xf8>)
   83992:	47a0      	blx	r4
   83994:	2801      	cmp	r0, #1
   83996:	d002      	beq.n	8399e <main+0x7a>
 		printf("Failed to test GetCordinates task\r\n");
   83998:	4825      	ldr	r0, [pc, #148]	; (83a30 <main+0x10c>)
   8399a:	4b19      	ldr	r3, [pc, #100]	; (83a00 <main+0xdc>)
   8399c:	4798      	blx	r3
	 	}
	
	// 		/* Create the task with the least priority the task task_UnoComm */
	 	if (xTaskCreate(task_unoComm, (const signed char * const) "UNO", TASK_UNO_STACK_SIZE, NULL, TASK_UNO_STACK_PRIORITY, &xTaskCom) != pdPASS) {
   8399e:	2303      	movs	r3, #3
   839a0:	9300      	str	r3, [sp, #0]
   839a2:	4b24      	ldr	r3, [pc, #144]	; (83a34 <main+0x110>)
   839a4:	9301      	str	r3, [sp, #4]
   839a6:	2300      	movs	r3, #0
   839a8:	9302      	str	r3, [sp, #8]
   839aa:	9303      	str	r3, [sp, #12]
   839ac:	4822      	ldr	r0, [pc, #136]	; (83a38 <main+0x114>)
   839ae:	4923      	ldr	r1, [pc, #140]	; (83a3c <main+0x118>)
   839b0:	f44f 7280 	mov.w	r2, #256	; 0x100
   839b4:	4c19      	ldr	r4, [pc, #100]	; (83a1c <main+0xf8>)
   839b6:	47a0      	blx	r4
   839b8:	2801      	cmp	r0, #1
   839ba:	d002      	beq.n	839c2 <main+0x9e>
	 		printf("Failed to test UnoComm task\r\n");
   839bc:	4820      	ldr	r0, [pc, #128]	; (83a40 <main+0x11c>)
   839be:	4b10      	ldr	r3, [pc, #64]	; (83a00 <main+0xdc>)
   839c0:	4798      	blx	r3
	 	}
		 
		 vTaskSuspend(xTaskCom);
   839c2:	4b1c      	ldr	r3, [pc, #112]	; (83a34 <main+0x110>)
   839c4:	6818      	ldr	r0, [r3, #0]
   839c6:	4c1f      	ldr	r4, [pc, #124]	; (83a44 <main+0x120>)
   839c8:	47a0      	blx	r4
		 vTaskSuspend(xTaskCoordinate);
   839ca:	4b16      	ldr	r3, [pc, #88]	; (83a24 <main+0x100>)
   839cc:	6818      	ldr	r0, [r3, #0]
   839ce:	47a0      	blx	r4
	
	/* Start the FreeRTOS scheduler running all tasks indefinitely*/
	vTaskStartScheduler();
   839d0:	4b1d      	ldr	r3, [pc, #116]	; (83a48 <main+0x124>)
   839d2:	4798      	blx	r3
}
   839d4:	2000      	movs	r0, #0
   839d6:	b020      	add	sp, #128	; 0x80
   839d8:	bd10      	pop	{r4, pc}
   839da:	bf00      	nop
   839dc:	00083185 	.word	0x00083185
   839e0:	000831e9 	.word	0x000831e9
   839e4:	0008096d 	.word	0x0008096d
   839e8:	00080eb5 	.word	0x00080eb5
   839ec:	00080da9 	.word	0x00080da9
   839f0:	000801c1 	.word	0x000801c1
   839f4:	000813f9 	.word	0x000813f9
   839f8:	00087a34 	.word	0x00087a34
   839fc:	00087a3c 	.word	0x00087a3c
   83a00:	000849b9 	.word	0x000849b9
   83a04:	00087a4c 	.word	0x00087a4c
   83a08:	00087a64 	.word	0x00087a64
   83a0c:	00087a70 	.word	0x00087a70
   83a10:	20078ca0 	.word	0x20078ca0
   83a14:	00081719 	.word	0x00081719
   83a18:	00087a7c 	.word	0x00087a7c
   83a1c:	00082339 	.word	0x00082339
   83a20:	00087a84 	.word	0x00087a84
   83a24:	20078c98 	.word	0x20078c98
   83a28:	00081071 	.word	0x00081071
   83a2c:	00087aa4 	.word	0x00087aa4
   83a30:	00087aac 	.word	0x00087aac
   83a34:	20078c9c 	.word	0x20078c9c
   83a38:	00080f5d 	.word	0x00080f5d
   83a3c:	00087ad0 	.word	0x00087ad0
   83a40:	00087ad4 	.word	0x00087ad4
   83a44:	00082a81 	.word	0x00082a81
   83a48:	00082605 	.word	0x00082605
   83a4c:	00000000 	.word	0x00000000

00083a50 <atan>:
   83a50:	e92d 4ff0 	stmdb	sp!, {r4, r5, r6, r7, r8, r9, sl, fp, lr}
   83a54:	4bb6      	ldr	r3, [pc, #728]	; (83d30 <atan+0x2e0>)
   83a56:	f021 4600 	bic.w	r6, r1, #2147483648	; 0x80000000
   83a5a:	429e      	cmp	r6, r3
   83a5c:	b083      	sub	sp, #12
   83a5e:	4604      	mov	r4, r0
   83a60:	460d      	mov	r5, r1
   83a62:	4689      	mov	r9, r1
   83a64:	dd0f      	ble.n	83a86 <atan+0x36>
   83a66:	49b3      	ldr	r1, [pc, #716]	; (83d34 <atan+0x2e4>)
   83a68:	428e      	cmp	r6, r1
   83a6a:	f300 80b3 	bgt.w	83bd4 <atan+0x184>
   83a6e:	f000 80ae 	beq.w	83bce <atan+0x17e>
   83a72:	f1b9 0f00 	cmp.w	r9, #0
   83a76:	f340 80ef 	ble.w	83c58 <atan+0x208>
   83a7a:	a191      	add	r1, pc, #580	; (adr r1, 83cc0 <atan+0x270>)
   83a7c:	e9d1 0100 	ldrd	r0, r1, [r1]
   83a80:	b003      	add	sp, #12
   83a82:	e8bd 8ff0 	ldmia.w	sp!, {r4, r5, r6, r7, r8, r9, sl, fp, pc}
   83a86:	4bac      	ldr	r3, [pc, #688]	; (83d38 <atan+0x2e8>)
   83a88:	429e      	cmp	r6, r3
   83a8a:	f300 80bd 	bgt.w	83c08 <atan+0x1b8>
   83a8e:	f1a3 73de 	sub.w	r3, r3, #29097984	; 0x1bc0000
   83a92:	429e      	cmp	r6, r3
   83a94:	f340 80a7 	ble.w	83be6 <atan+0x196>
   83a98:	f04f 3cff 	mov.w	ip, #4294967295
   83a9c:	4622      	mov	r2, r4
   83a9e:	462b      	mov	r3, r5
   83aa0:	4620      	mov	r0, r4
   83aa2:	4629      	mov	r1, r5
   83aa4:	f8cd c004 	str.w	ip, [sp, #4]
   83aa8:	f000 fc76 	bl	84398 <__aeabi_dmul>
   83aac:	4602      	mov	r2, r0
   83aae:	460b      	mov	r3, r1
   83ab0:	4682      	mov	sl, r0
   83ab2:	468b      	mov	fp, r1
   83ab4:	f000 fc70 	bl	84398 <__aeabi_dmul>
   83ab8:	a383      	add	r3, pc, #524	; (adr r3, 83cc8 <atan+0x278>)
   83aba:	e9d3 2300 	ldrd	r2, r3, [r3]
   83abe:	4606      	mov	r6, r0
   83ac0:	460f      	mov	r7, r1
   83ac2:	f000 fc69 	bl	84398 <__aeabi_dmul>
   83ac6:	a382      	add	r3, pc, #520	; (adr r3, 83cd0 <atan+0x280>)
   83ac8:	e9d3 2300 	ldrd	r2, r3, [r3]
   83acc:	f000 fab2 	bl	84034 <__adddf3>
   83ad0:	4632      	mov	r2, r6
   83ad2:	463b      	mov	r3, r7
   83ad4:	f000 fc60 	bl	84398 <__aeabi_dmul>
   83ad8:	a37f      	add	r3, pc, #508	; (adr r3, 83cd8 <atan+0x288>)
   83ada:	e9d3 2300 	ldrd	r2, r3, [r3]
   83ade:	f000 faa9 	bl	84034 <__adddf3>
   83ae2:	4632      	mov	r2, r6
   83ae4:	463b      	mov	r3, r7
   83ae6:	f000 fc57 	bl	84398 <__aeabi_dmul>
   83aea:	a37d      	add	r3, pc, #500	; (adr r3, 83ce0 <atan+0x290>)
   83aec:	e9d3 2300 	ldrd	r2, r3, [r3]
   83af0:	f000 faa0 	bl	84034 <__adddf3>
   83af4:	4632      	mov	r2, r6
   83af6:	463b      	mov	r3, r7
   83af8:	f000 fc4e 	bl	84398 <__aeabi_dmul>
   83afc:	a37a      	add	r3, pc, #488	; (adr r3, 83ce8 <atan+0x298>)
   83afe:	e9d3 2300 	ldrd	r2, r3, [r3]
   83b02:	f000 fa97 	bl	84034 <__adddf3>
   83b06:	4632      	mov	r2, r6
   83b08:	463b      	mov	r3, r7
   83b0a:	f000 fc45 	bl	84398 <__aeabi_dmul>
   83b0e:	a378      	add	r3, pc, #480	; (adr r3, 83cf0 <atan+0x2a0>)
   83b10:	e9d3 2300 	ldrd	r2, r3, [r3]
   83b14:	f000 fa8e 	bl	84034 <__adddf3>
   83b18:	4652      	mov	r2, sl
   83b1a:	465b      	mov	r3, fp
   83b1c:	f000 fc3c 	bl	84398 <__aeabi_dmul>
   83b20:	a375      	add	r3, pc, #468	; (adr r3, 83cf8 <atan+0x2a8>)
   83b22:	e9d3 2300 	ldrd	r2, r3, [r3]
   83b26:	4682      	mov	sl, r0
   83b28:	468b      	mov	fp, r1
   83b2a:	4630      	mov	r0, r6
   83b2c:	4639      	mov	r1, r7
   83b2e:	f000 fc33 	bl	84398 <__aeabi_dmul>
   83b32:	a373      	add	r3, pc, #460	; (adr r3, 83d00 <atan+0x2b0>)
   83b34:	e9d3 2300 	ldrd	r2, r3, [r3]
   83b38:	f000 fa7a 	bl	84030 <__aeabi_dsub>
   83b3c:	4632      	mov	r2, r6
   83b3e:	463b      	mov	r3, r7
   83b40:	f000 fc2a 	bl	84398 <__aeabi_dmul>
   83b44:	a370      	add	r3, pc, #448	; (adr r3, 83d08 <atan+0x2b8>)
   83b46:	e9d3 2300 	ldrd	r2, r3, [r3]
   83b4a:	f000 fa71 	bl	84030 <__aeabi_dsub>
   83b4e:	4632      	mov	r2, r6
   83b50:	463b      	mov	r3, r7
   83b52:	f000 fc21 	bl	84398 <__aeabi_dmul>
   83b56:	a36e      	add	r3, pc, #440	; (adr r3, 83d10 <atan+0x2c0>)
   83b58:	e9d3 2300 	ldrd	r2, r3, [r3]
   83b5c:	f000 fa68 	bl	84030 <__aeabi_dsub>
   83b60:	4632      	mov	r2, r6
   83b62:	463b      	mov	r3, r7
   83b64:	f000 fc18 	bl	84398 <__aeabi_dmul>
   83b68:	a36b      	add	r3, pc, #428	; (adr r3, 83d18 <atan+0x2c8>)
   83b6a:	e9d3 2300 	ldrd	r2, r3, [r3]
   83b6e:	f000 fa5f 	bl	84030 <__aeabi_dsub>
   83b72:	4632      	mov	r2, r6
   83b74:	463b      	mov	r3, r7
   83b76:	f000 fc0f 	bl	84398 <__aeabi_dmul>
   83b7a:	f8dd c004 	ldr.w	ip, [sp, #4]
   83b7e:	4602      	mov	r2, r0
   83b80:	f1bc 3fff 	cmp.w	ip, #4294967295
   83b84:	460b      	mov	r3, r1
   83b86:	d06b      	beq.n	83c60 <atan+0x210>
   83b88:	4650      	mov	r0, sl
   83b8a:	4659      	mov	r1, fp
   83b8c:	ea4f 06cc 	mov.w	r6, ip, lsl #3
   83b90:	f000 fa50 	bl	84034 <__adddf3>
   83b94:	4622      	mov	r2, r4
   83b96:	462b      	mov	r3, r5
   83b98:	f000 fbfe 	bl	84398 <__aeabi_dmul>
   83b9c:	4f67      	ldr	r7, [pc, #412]	; (83d3c <atan+0x2ec>)
   83b9e:	4b68      	ldr	r3, [pc, #416]	; (83d40 <atan+0x2f0>)
   83ba0:	4437      	add	r7, r6
   83ba2:	441e      	add	r6, r3
   83ba4:	e9d6 2300 	ldrd	r2, r3, [r6]
   83ba8:	f000 fa42 	bl	84030 <__aeabi_dsub>
   83bac:	4622      	mov	r2, r4
   83bae:	462b      	mov	r3, r5
   83bb0:	f000 fa3e 	bl	84030 <__aeabi_dsub>
   83bb4:	4602      	mov	r2, r0
   83bb6:	460b      	mov	r3, r1
   83bb8:	e9d7 0100 	ldrd	r0, r1, [r7]
   83bbc:	f000 fa38 	bl	84030 <__aeabi_dsub>
   83bc0:	f1b9 0f00 	cmp.w	r9, #0
   83bc4:	da0c      	bge.n	83be0 <atan+0x190>
   83bc6:	f101 4500 	add.w	r5, r1, #2147483648	; 0x80000000
   83bca:	4629      	mov	r1, r5
   83bcc:	e008      	b.n	83be0 <atan+0x190>
   83bce:	2800      	cmp	r0, #0
   83bd0:	f43f af4f 	beq.w	83a72 <atan+0x22>
   83bd4:	4620      	mov	r0, r4
   83bd6:	4629      	mov	r1, r5
   83bd8:	4622      	mov	r2, r4
   83bda:	462b      	mov	r3, r5
   83bdc:	f000 fa2a 	bl	84034 <__adddf3>
   83be0:	b003      	add	sp, #12
   83be2:	e8bd 8ff0 	ldmia.w	sp!, {r4, r5, r6, r7, r8, r9, sl, fp, pc}
   83be6:	a34e      	add	r3, pc, #312	; (adr r3, 83d20 <atan+0x2d0>)
   83be8:	e9d3 2300 	ldrd	r2, r3, [r3]
   83bec:	f000 fa22 	bl	84034 <__adddf3>
   83bf0:	2200      	movs	r2, #0
   83bf2:	4b54      	ldr	r3, [pc, #336]	; (83d44 <atan+0x2f4>)
   83bf4:	f000 fe60 	bl	848b8 <__aeabi_dcmpgt>
   83bf8:	2800      	cmp	r0, #0
   83bfa:	f43f af4d 	beq.w	83a98 <atan+0x48>
   83bfe:	4620      	mov	r0, r4
   83c00:	4629      	mov	r1, r5
   83c02:	b003      	add	sp, #12
   83c04:	e8bd 8ff0 	ldmia.w	sp!, {r4, r5, r6, r7, r8, r9, sl, fp, pc}
   83c08:	f000 f8ca 	bl	83da0 <fabs>
   83c0c:	4b4e      	ldr	r3, [pc, #312]	; (83d48 <atan+0x2f8>)
   83c0e:	4604      	mov	r4, r0
   83c10:	429e      	cmp	r6, r3
   83c12:	460d      	mov	r5, r1
   83c14:	dc33      	bgt.n	83c7e <atan+0x22e>
   83c16:	f5a3 2350 	sub.w	r3, r3, #851968	; 0xd0000
   83c1a:	429e      	cmp	r6, r3
   83c1c:	f300 80a5 	bgt.w	83d6a <atan+0x31a>
   83c20:	4602      	mov	r2, r0
   83c22:	460b      	mov	r3, r1
   83c24:	f000 fa06 	bl	84034 <__adddf3>
   83c28:	2200      	movs	r2, #0
   83c2a:	4b46      	ldr	r3, [pc, #280]	; (83d44 <atan+0x2f4>)
   83c2c:	f000 fa00 	bl	84030 <__aeabi_dsub>
   83c30:	2200      	movs	r2, #0
   83c32:	4606      	mov	r6, r0
   83c34:	460f      	mov	r7, r1
   83c36:	4620      	mov	r0, r4
   83c38:	4629      	mov	r1, r5
   83c3a:	f04f 4380 	mov.w	r3, #1073741824	; 0x40000000
   83c3e:	f000 f9f9 	bl	84034 <__adddf3>
   83c42:	4602      	mov	r2, r0
   83c44:	460b      	mov	r3, r1
   83c46:	4630      	mov	r0, r6
   83c48:	4639      	mov	r1, r7
   83c4a:	f000 fccf 	bl	845ec <__aeabi_ddiv>
   83c4e:	f04f 0c00 	mov.w	ip, #0
   83c52:	4604      	mov	r4, r0
   83c54:	460d      	mov	r5, r1
   83c56:	e721      	b.n	83a9c <atan+0x4c>
   83c58:	a133      	add	r1, pc, #204	; (adr r1, 83d28 <atan+0x2d8>)
   83c5a:	e9d1 0100 	ldrd	r0, r1, [r1]
   83c5e:	e7bf      	b.n	83be0 <atan+0x190>
   83c60:	4650      	mov	r0, sl
   83c62:	4659      	mov	r1, fp
   83c64:	f000 f9e6 	bl	84034 <__adddf3>
   83c68:	4622      	mov	r2, r4
   83c6a:	462b      	mov	r3, r5
   83c6c:	f000 fb94 	bl	84398 <__aeabi_dmul>
   83c70:	4602      	mov	r2, r0
   83c72:	460b      	mov	r3, r1
   83c74:	4620      	mov	r0, r4
   83c76:	4629      	mov	r1, r5
   83c78:	f000 f9da 	bl	84030 <__aeabi_dsub>
   83c7c:	e7b0      	b.n	83be0 <atan+0x190>
   83c7e:	4b33      	ldr	r3, [pc, #204]	; (83d4c <atan+0x2fc>)
   83c80:	429e      	cmp	r6, r3
   83c82:	dc67      	bgt.n	83d54 <atan+0x304>
   83c84:	2200      	movs	r2, #0
   83c86:	4b32      	ldr	r3, [pc, #200]	; (83d50 <atan+0x300>)
   83c88:	f000 f9d2 	bl	84030 <__aeabi_dsub>
   83c8c:	2200      	movs	r2, #0
   83c8e:	4606      	mov	r6, r0
   83c90:	460f      	mov	r7, r1
   83c92:	4620      	mov	r0, r4
   83c94:	4629      	mov	r1, r5
   83c96:	4b2e      	ldr	r3, [pc, #184]	; (83d50 <atan+0x300>)
   83c98:	f000 fb7e 	bl	84398 <__aeabi_dmul>
   83c9c:	2200      	movs	r2, #0
   83c9e:	4b29      	ldr	r3, [pc, #164]	; (83d44 <atan+0x2f4>)
   83ca0:	f000 f9c8 	bl	84034 <__adddf3>
   83ca4:	4602      	mov	r2, r0
   83ca6:	460b      	mov	r3, r1
   83ca8:	4630      	mov	r0, r6
   83caa:	4639      	mov	r1, r7
   83cac:	f000 fc9e 	bl	845ec <__aeabi_ddiv>
   83cb0:	f04f 0c02 	mov.w	ip, #2
   83cb4:	4604      	mov	r4, r0
   83cb6:	460d      	mov	r5, r1
   83cb8:	e6f0      	b.n	83a9c <atan+0x4c>
   83cba:	bf00      	nop
   83cbc:	f3af 8000 	nop.w
   83cc0:	54442d18 	.word	0x54442d18
   83cc4:	3ff921fb 	.word	0x3ff921fb
   83cc8:	e322da11 	.word	0xe322da11
   83ccc:	3f90ad3a 	.word	0x3f90ad3a
   83cd0:	24760deb 	.word	0x24760deb
   83cd4:	3fa97b4b 	.word	0x3fa97b4b
   83cd8:	a0d03d51 	.word	0xa0d03d51
   83cdc:	3fb10d66 	.word	0x3fb10d66
   83ce0:	c54c206e 	.word	0xc54c206e
   83ce4:	3fb745cd 	.word	0x3fb745cd
   83ce8:	920083ff 	.word	0x920083ff
   83cec:	3fc24924 	.word	0x3fc24924
   83cf0:	5555550d 	.word	0x5555550d
   83cf4:	3fd55555 	.word	0x3fd55555
   83cf8:	2c6a6c2f 	.word	0x2c6a6c2f
   83cfc:	bfa2b444 	.word	0xbfa2b444
   83d00:	52defd9a 	.word	0x52defd9a
   83d04:	3fadde2d 	.word	0x3fadde2d
   83d08:	af749a6d 	.word	0xaf749a6d
   83d0c:	3fb3b0f2 	.word	0x3fb3b0f2
   83d10:	fe231671 	.word	0xfe231671
   83d14:	3fbc71c6 	.word	0x3fbc71c6
   83d18:	9998ebc4 	.word	0x9998ebc4
   83d1c:	3fc99999 	.word	0x3fc99999
   83d20:	8800759c 	.word	0x8800759c
   83d24:	7e37e43c 	.word	0x7e37e43c
   83d28:	54442d18 	.word	0x54442d18
   83d2c:	bff921fb 	.word	0xbff921fb
   83d30:	440fffff 	.word	0x440fffff
   83d34:	7ff00000 	.word	0x7ff00000
   83d38:	3fdbffff 	.word	0x3fdbffff
   83d3c:	00087b18 	.word	0x00087b18
   83d40:	00087af8 	.word	0x00087af8
   83d44:	3ff00000 	.word	0x3ff00000
   83d48:	3ff2ffff 	.word	0x3ff2ffff
   83d4c:	40037fff 	.word	0x40037fff
   83d50:	3ff80000 	.word	0x3ff80000
   83d54:	4602      	mov	r2, r0
   83d56:	460b      	mov	r3, r1
   83d58:	2000      	movs	r0, #0
   83d5a:	490f      	ldr	r1, [pc, #60]	; (83d98 <atan+0x348>)
   83d5c:	f000 fc46 	bl	845ec <__aeabi_ddiv>
   83d60:	f04f 0c03 	mov.w	ip, #3
   83d64:	4604      	mov	r4, r0
   83d66:	460d      	mov	r5, r1
   83d68:	e698      	b.n	83a9c <atan+0x4c>
   83d6a:	2200      	movs	r2, #0
   83d6c:	4b0b      	ldr	r3, [pc, #44]	; (83d9c <atan+0x34c>)
   83d6e:	f000 f95f 	bl	84030 <__aeabi_dsub>
   83d72:	2200      	movs	r2, #0
   83d74:	4606      	mov	r6, r0
   83d76:	460f      	mov	r7, r1
   83d78:	4620      	mov	r0, r4
   83d7a:	4629      	mov	r1, r5
   83d7c:	4b07      	ldr	r3, [pc, #28]	; (83d9c <atan+0x34c>)
   83d7e:	f000 f959 	bl	84034 <__adddf3>
   83d82:	4602      	mov	r2, r0
   83d84:	460b      	mov	r3, r1
   83d86:	4630      	mov	r0, r6
   83d88:	4639      	mov	r1, r7
   83d8a:	f000 fc2f 	bl	845ec <__aeabi_ddiv>
   83d8e:	f04f 0c01 	mov.w	ip, #1
   83d92:	4604      	mov	r4, r0
   83d94:	460d      	mov	r5, r1
   83d96:	e681      	b.n	83a9c <atan+0x4c>
   83d98:	bff00000 	.word	0xbff00000
   83d9c:	3ff00000 	.word	0x3ff00000

00083da0 <fabs>:
   83da0:	f021 4100 	bic.w	r1, r1, #2147483648	; 0x80000000
   83da4:	4770      	bx	lr
   83da6:	bf00      	nop

00083da8 <sqrt>:
   83da8:	e92d 47f0 	stmdb	sp!, {r4, r5, r6, r7, r8, r9, sl, lr}
   83dac:	b08a      	sub	sp, #40	; 0x28
   83dae:	4604      	mov	r4, r0
   83db0:	460d      	mov	r5, r1
   83db2:	f000 f84f 	bl	83e54 <__ieee754_sqrt>
   83db6:	f8df a098 	ldr.w	sl, [pc, #152]	; 83e50 <sqrt+0xa8>
   83dba:	4606      	mov	r6, r0
   83dbc:	f99a 3000 	ldrsb.w	r3, [sl]
   83dc0:	460f      	mov	r7, r1
   83dc2:	3301      	adds	r3, #1
   83dc4:	d00f      	beq.n	83de6 <sqrt+0x3e>
   83dc6:	4620      	mov	r0, r4
   83dc8:	4629      	mov	r1, r5
   83dca:	f000 f903 	bl	83fd4 <__fpclassifyd>
   83dce:	b150      	cbz	r0, 83de6 <sqrt+0x3e>
   83dd0:	f04f 0800 	mov.w	r8, #0
   83dd4:	f04f 0900 	mov.w	r9, #0
   83dd8:	4642      	mov	r2, r8
   83dda:	464b      	mov	r3, r9
   83ddc:	4620      	mov	r0, r4
   83dde:	4629      	mov	r1, r5
   83de0:	f000 fd4c 	bl	8487c <__aeabi_dcmplt>
   83de4:	b920      	cbnz	r0, 83df0 <sqrt+0x48>
   83de6:	4630      	mov	r0, r6
   83de8:	4639      	mov	r1, r7
   83dea:	b00a      	add	sp, #40	; 0x28
   83dec:	e8bd 87f0 	ldmia.w	sp!, {r4, r5, r6, r7, r8, r9, sl, pc}
   83df0:	4916      	ldr	r1, [pc, #88]	; (83e4c <sqrt+0xa4>)
   83df2:	f89a 6000 	ldrb.w	r6, [sl]
   83df6:	2201      	movs	r2, #1
   83df8:	2300      	movs	r3, #0
   83dfa:	e9cd 4504 	strd	r4, r5, [sp, #16]
   83dfe:	e9cd 4502 	strd	r4, r5, [sp, #8]
   83e02:	9101      	str	r1, [sp, #4]
   83e04:	9200      	str	r2, [sp, #0]
   83e06:	9308      	str	r3, [sp, #32]
   83e08:	b966      	cbnz	r6, 83e24 <sqrt+0x7c>
   83e0a:	e9cd 8906 	strd	r8, r9, [sp, #24]
   83e0e:	4668      	mov	r0, sp
   83e10:	f000 f908 	bl	84024 <matherr>
   83e14:	b180      	cbz	r0, 83e38 <sqrt+0x90>
   83e16:	9b08      	ldr	r3, [sp, #32]
   83e18:	b99b      	cbnz	r3, 83e42 <sqrt+0x9a>
   83e1a:	e9dd 0106 	ldrd	r0, r1, [sp, #24]
   83e1e:	b00a      	add	sp, #40	; 0x28
   83e20:	e8bd 87f0 	ldmia.w	sp!, {r4, r5, r6, r7, r8, r9, sl, pc}
   83e24:	4640      	mov	r0, r8
   83e26:	4649      	mov	r1, r9
   83e28:	4642      	mov	r2, r8
   83e2a:	464b      	mov	r3, r9
   83e2c:	f000 fbde 	bl	845ec <__aeabi_ddiv>
   83e30:	2e02      	cmp	r6, #2
   83e32:	e9cd 0106 	strd	r0, r1, [sp, #24]
   83e36:	d1ea      	bne.n	83e0e <sqrt+0x66>
   83e38:	f000 fd90 	bl	8495c <__errno>
   83e3c:	2321      	movs	r3, #33	; 0x21
   83e3e:	6003      	str	r3, [r0, #0]
   83e40:	e7e9      	b.n	83e16 <sqrt+0x6e>
   83e42:	f000 fd8b 	bl	8495c <__errno>
   83e46:	9b08      	ldr	r3, [sp, #32]
   83e48:	6003      	str	r3, [r0, #0]
   83e4a:	e7e6      	b.n	83e1a <sqrt+0x72>
   83e4c:	00087b38 	.word	0x00087b38
   83e50:	20070170 	.word	0x20070170

00083e54 <__ieee754_sqrt>:
   83e54:	f021 4c00 	bic.w	ip, r1, #2147483648	; 0x80000000
   83e58:	e92d 43f8 	stmdb	sp!, {r3, r4, r5, r6, r7, r8, r9, lr}
   83e5c:	ea4f 5c1c 	mov.w	ip, ip, lsr #20
   83e60:	f8df 816c 	ldr.w	r8, [pc, #364]	; 83fd0 <__ieee754_sqrt+0x17c>
   83e64:	ea4f 5c0c 	mov.w	ip, ip, lsl #20
   83e68:	45c4      	cmp	ip, r8
   83e6a:	4606      	mov	r6, r0
   83e6c:	460f      	mov	r7, r1
   83e6e:	460b      	mov	r3, r1
   83e70:	4602      	mov	r2, r0
   83e72:	f000 808f 	beq.w	83f94 <__ieee754_sqrt+0x140>
   83e76:	2900      	cmp	r1, #0
   83e78:	dd6f      	ble.n	83f5a <__ieee754_sqrt+0x106>
   83e7a:	150f      	asrs	r7, r1, #20
   83e7c:	d078      	beq.n	83f70 <__ieee754_sqrt+0x11c>
   83e7e:	f2a7 37ff 	subw	r7, r7, #1023	; 0x3ff
   83e82:	f3c3 0313 	ubfx	r3, r3, #0, #20
   83e86:	07f9      	lsls	r1, r7, #31
   83e88:	f443 1380 	orr.w	r3, r3, #1048576	; 0x100000
   83e8c:	d460      	bmi.n	83f50 <__ieee754_sqrt+0xfc>
   83e8e:	0fd1      	lsrs	r1, r2, #31
   83e90:	f04f 0c00 	mov.w	ip, #0
   83e94:	eb01 0343 	add.w	r3, r1, r3, lsl #1
   83e98:	107f      	asrs	r7, r7, #1
   83e9a:	0052      	lsls	r2, r2, #1
   83e9c:	4665      	mov	r5, ip
   83e9e:	2016      	movs	r0, #22
   83ea0:	f44f 1100 	mov.w	r1, #2097152	; 0x200000
   83ea4:	186c      	adds	r4, r5, r1
   83ea6:	429c      	cmp	r4, r3
   83ea8:	ea4f 76d2 	mov.w	r6, r2, lsr #31
   83eac:	ea4f 0242 	mov.w	r2, r2, lsl #1
   83eb0:	dc02      	bgt.n	83eb8 <__ieee754_sqrt+0x64>
   83eb2:	1b1b      	subs	r3, r3, r4
   83eb4:	1865      	adds	r5, r4, r1
   83eb6:	448c      	add	ip, r1
   83eb8:	3801      	subs	r0, #1
   83eba:	eb06 0343 	add.w	r3, r6, r3, lsl #1
   83ebe:	ea4f 0151 	mov.w	r1, r1, lsr #1
   83ec2:	d1ef      	bne.n	83ea4 <__ieee754_sqrt+0x50>
   83ec4:	4680      	mov	r8, r0
   83ec6:	2620      	movs	r6, #32
   83ec8:	f04f 4100 	mov.w	r1, #2147483648	; 0x80000000
   83ecc:	e009      	b.n	83ee2 <__ieee754_sqrt+0x8e>
   83ece:	d023      	beq.n	83f18 <__ieee754_sqrt+0xc4>
   83ed0:	0fd4      	lsrs	r4, r2, #31
   83ed2:	3e01      	subs	r6, #1
   83ed4:	ea4f 0151 	mov.w	r1, r1, lsr #1
   83ed8:	eb04 0343 	add.w	r3, r4, r3, lsl #1
   83edc:	ea4f 0242 	mov.w	r2, r2, lsl #1
   83ee0:	d01e      	beq.n	83f20 <__ieee754_sqrt+0xcc>
   83ee2:	42ab      	cmp	r3, r5
   83ee4:	eb01 0408 	add.w	r4, r1, r8
   83ee8:	ddf1      	ble.n	83ece <__ieee754_sqrt+0x7a>
   83eea:	f004 4900 	and.w	r9, r4, #2147483648	; 0x80000000
   83eee:	f1b9 4f00 	cmp.w	r9, #2147483648	; 0x80000000
   83ef2:	eb04 0801 	add.w	r8, r4, r1
   83ef6:	d009      	beq.n	83f0c <__ieee754_sqrt+0xb8>
   83ef8:	46a9      	mov	r9, r5
   83efa:	1b5b      	subs	r3, r3, r5
   83efc:	4294      	cmp	r4, r2
   83efe:	bf88      	it	hi
   83f00:	f103 33ff 	addhi.w	r3, r3, #4294967295
   83f04:	1b12      	subs	r2, r2, r4
   83f06:	4408      	add	r0, r1
   83f08:	464d      	mov	r5, r9
   83f0a:	e7e1      	b.n	83ed0 <__ieee754_sqrt+0x7c>
   83f0c:	f1b8 0f00 	cmp.w	r8, #0
   83f10:	dbf2      	blt.n	83ef8 <__ieee754_sqrt+0xa4>
   83f12:	f105 0901 	add.w	r9, r5, #1
   83f16:	e7f0      	b.n	83efa <__ieee754_sqrt+0xa6>
   83f18:	4294      	cmp	r4, r2
   83f1a:	d9e6      	bls.n	83eea <__ieee754_sqrt+0x96>
   83f1c:	461d      	mov	r5, r3
   83f1e:	e7d7      	b.n	83ed0 <__ieee754_sqrt+0x7c>
   83f20:	431a      	orrs	r2, r3
   83f22:	d004      	beq.n	83f2e <__ieee754_sqrt+0xda>
   83f24:	1c43      	adds	r3, r0, #1
   83f26:	d041      	beq.n	83fac <__ieee754_sqrt+0x158>
   83f28:	f000 0301 	and.w	r3, r0, #1
   83f2c:	4418      	add	r0, r3
   83f2e:	0846      	lsrs	r6, r0, #1
   83f30:	ea4f 036c 	mov.w	r3, ip, asr #1
   83f34:	f01c 0f01 	tst.w	ip, #1
   83f38:	f103 537f 	add.w	r3, r3, #1069547520	; 0x3fc00000
   83f3c:	f503 1300 	add.w	r3, r3, #2097152	; 0x200000
   83f40:	bf18      	it	ne
   83f42:	f046 4600 	orrne.w	r6, r6, #2147483648	; 0x80000000
   83f46:	eb03 5107 	add.w	r1, r3, r7, lsl #20
   83f4a:	4630      	mov	r0, r6
   83f4c:	e8bd 83f8 	ldmia.w	sp!, {r3, r4, r5, r6, r7, r8, r9, pc}
   83f50:	0fd1      	lsrs	r1, r2, #31
   83f52:	eb01 0343 	add.w	r3, r1, r3, lsl #1
   83f56:	0052      	lsls	r2, r2, #1
   83f58:	e799      	b.n	83e8e <__ieee754_sqrt+0x3a>
   83f5a:	f021 4300 	bic.w	r3, r1, #2147483648	; 0x80000000
   83f5e:	4303      	orrs	r3, r0
   83f60:	d022      	beq.n	83fa8 <__ieee754_sqrt+0x154>
   83f62:	bb51      	cbnz	r1, 83fba <__ieee754_sqrt+0x166>
   83f64:	460f      	mov	r7, r1
   83f66:	0ad3      	lsrs	r3, r2, #11
   83f68:	3f15      	subs	r7, #21
   83f6a:	0552      	lsls	r2, r2, #21
   83f6c:	2b00      	cmp	r3, #0
   83f6e:	d0fa      	beq.n	83f66 <__ieee754_sqrt+0x112>
   83f70:	f413 1180 	ands.w	r1, r3, #1048576	; 0x100000
   83f74:	d11d      	bne.n	83fb2 <__ieee754_sqrt+0x15e>
   83f76:	005b      	lsls	r3, r3, #1
   83f78:	02d8      	lsls	r0, r3, #11
   83f7a:	f101 0101 	add.w	r1, r1, #1
   83f7e:	d5fa      	bpl.n	83f76 <__ieee754_sqrt+0x122>
   83f80:	f1c1 0001 	rsb	r0, r1, #1
   83f84:	f1c1 0420 	rsb	r4, r1, #32
   83f88:	fa22 f404 	lsr.w	r4, r2, r4
   83f8c:	4407      	add	r7, r0
   83f8e:	408a      	lsls	r2, r1
   83f90:	4323      	orrs	r3, r4
   83f92:	e774      	b.n	83e7e <__ieee754_sqrt+0x2a>
   83f94:	4602      	mov	r2, r0
   83f96:	460b      	mov	r3, r1
   83f98:	f000 f9fe 	bl	84398 <__aeabi_dmul>
   83f9c:	4632      	mov	r2, r6
   83f9e:	463b      	mov	r3, r7
   83fa0:	f000 f848 	bl	84034 <__adddf3>
   83fa4:	e8bd 83f8 	ldmia.w	sp!, {r3, r4, r5, r6, r7, r8, r9, pc}
   83fa8:	e8bd 83f8 	ldmia.w	sp!, {r3, r4, r5, r6, r7, r8, r9, pc}
   83fac:	f10c 0c01 	add.w	ip, ip, #1
   83fb0:	e7be      	b.n	83f30 <__ieee754_sqrt+0xdc>
   83fb2:	2420      	movs	r4, #32
   83fb4:	2001      	movs	r0, #1
   83fb6:	2100      	movs	r1, #0
   83fb8:	e7e6      	b.n	83f88 <__ieee754_sqrt+0x134>
   83fba:	4602      	mov	r2, r0
   83fbc:	460b      	mov	r3, r1
   83fbe:	f000 f837 	bl	84030 <__aeabi_dsub>
   83fc2:	4602      	mov	r2, r0
   83fc4:	460b      	mov	r3, r1
   83fc6:	f000 fb11 	bl	845ec <__aeabi_ddiv>
   83fca:	e8bd 83f8 	ldmia.w	sp!, {r3, r4, r5, r6, r7, r8, r9, pc}
   83fce:	bf00      	nop
   83fd0:	7ff00000 	.word	0x7ff00000

00083fd4 <__fpclassifyd>:
   83fd4:	f031 4300 	bics.w	r3, r1, #2147483648	; 0x80000000
   83fd8:	b410      	push	{r4}
   83fda:	d008      	beq.n	83fee <__fpclassifyd+0x1a>
   83fdc:	4a0f      	ldr	r2, [pc, #60]	; (8401c <__fpclassifyd+0x48>)
   83fde:	f5a3 1480 	sub.w	r4, r3, #1048576	; 0x100000
   83fe2:	4294      	cmp	r4, r2
   83fe4:	d80a      	bhi.n	83ffc <__fpclassifyd+0x28>
   83fe6:	2004      	movs	r0, #4
   83fe8:	f85d 4b04 	ldr.w	r4, [sp], #4
   83fec:	4770      	bx	lr
   83fee:	2800      	cmp	r0, #0
   83ff0:	bf0c      	ite	eq
   83ff2:	2002      	moveq	r0, #2
   83ff4:	2003      	movne	r0, #3
   83ff6:	f85d 4b04 	ldr.w	r4, [sp], #4
   83ffa:	4770      	bx	lr
   83ffc:	f5b3 1f80 	cmp.w	r3, #1048576	; 0x100000
   84000:	d201      	bcs.n	84006 <__fpclassifyd+0x32>
   84002:	2003      	movs	r0, #3
   84004:	e7f7      	b.n	83ff6 <__fpclassifyd+0x22>
   84006:	4a06      	ldr	r2, [pc, #24]	; (84020 <__fpclassifyd+0x4c>)
   84008:	4293      	cmp	r3, r2
   8400a:	d001      	beq.n	84010 <__fpclassifyd+0x3c>
   8400c:	2000      	movs	r0, #0
   8400e:	e7f2      	b.n	83ff6 <__fpclassifyd+0x22>
   84010:	f1d0 0001 	rsbs	r0, r0, #1
   84014:	bf38      	it	cc
   84016:	2000      	movcc	r0, #0
   84018:	e7ed      	b.n	83ff6 <__fpclassifyd+0x22>
   8401a:	bf00      	nop
   8401c:	7fdfffff 	.word	0x7fdfffff
   84020:	7ff00000 	.word	0x7ff00000

00084024 <matherr>:
   84024:	2000      	movs	r0, #0
   84026:	4770      	bx	lr

00084028 <__aeabi_drsub>:
   84028:	f081 4100 	eor.w	r1, r1, #2147483648	; 0x80000000
   8402c:	e002      	b.n	84034 <__adddf3>
   8402e:	bf00      	nop

00084030 <__aeabi_dsub>:
   84030:	f083 4300 	eor.w	r3, r3, #2147483648	; 0x80000000

00084034 <__adddf3>:
   84034:	b530      	push	{r4, r5, lr}
   84036:	ea4f 0441 	mov.w	r4, r1, lsl #1
   8403a:	ea4f 0543 	mov.w	r5, r3, lsl #1
   8403e:	ea94 0f05 	teq	r4, r5
   84042:	bf08      	it	eq
   84044:	ea90 0f02 	teqeq	r0, r2
   84048:	bf1f      	itttt	ne
   8404a:	ea54 0c00 	orrsne.w	ip, r4, r0
   8404e:	ea55 0c02 	orrsne.w	ip, r5, r2
   84052:	ea7f 5c64 	mvnsne.w	ip, r4, asr #21
   84056:	ea7f 5c65 	mvnsne.w	ip, r5, asr #21
   8405a:	f000 80e2 	beq.w	84222 <__adddf3+0x1ee>
   8405e:	ea4f 5454 	mov.w	r4, r4, lsr #21
   84062:	ebd4 5555 	rsbs	r5, r4, r5, lsr #21
   84066:	bfb8      	it	lt
   84068:	426d      	neglt	r5, r5
   8406a:	dd0c      	ble.n	84086 <__adddf3+0x52>
   8406c:	442c      	add	r4, r5
   8406e:	ea80 0202 	eor.w	r2, r0, r2
   84072:	ea81 0303 	eor.w	r3, r1, r3
   84076:	ea82 0000 	eor.w	r0, r2, r0
   8407a:	ea83 0101 	eor.w	r1, r3, r1
   8407e:	ea80 0202 	eor.w	r2, r0, r2
   84082:	ea81 0303 	eor.w	r3, r1, r3
   84086:	2d36      	cmp	r5, #54	; 0x36
   84088:	bf88      	it	hi
   8408a:	bd30      	pophi	{r4, r5, pc}
   8408c:	f011 4f00 	tst.w	r1, #2147483648	; 0x80000000
   84090:	ea4f 3101 	mov.w	r1, r1, lsl #12
   84094:	f44f 1c80 	mov.w	ip, #1048576	; 0x100000
   84098:	ea4c 3111 	orr.w	r1, ip, r1, lsr #12
   8409c:	d002      	beq.n	840a4 <__adddf3+0x70>
   8409e:	4240      	negs	r0, r0
   840a0:	eb61 0141 	sbc.w	r1, r1, r1, lsl #1
   840a4:	f013 4f00 	tst.w	r3, #2147483648	; 0x80000000
   840a8:	ea4f 3303 	mov.w	r3, r3, lsl #12
   840ac:	ea4c 3313 	orr.w	r3, ip, r3, lsr #12
   840b0:	d002      	beq.n	840b8 <__adddf3+0x84>
   840b2:	4252      	negs	r2, r2
   840b4:	eb63 0343 	sbc.w	r3, r3, r3, lsl #1
   840b8:	ea94 0f05 	teq	r4, r5
   840bc:	f000 80a7 	beq.w	8420e <__adddf3+0x1da>
   840c0:	f1a4 0401 	sub.w	r4, r4, #1
   840c4:	f1d5 0e20 	rsbs	lr, r5, #32
   840c8:	db0d      	blt.n	840e6 <__adddf3+0xb2>
   840ca:	fa02 fc0e 	lsl.w	ip, r2, lr
   840ce:	fa22 f205 	lsr.w	r2, r2, r5
   840d2:	1880      	adds	r0, r0, r2
   840d4:	f141 0100 	adc.w	r1, r1, #0
   840d8:	fa03 f20e 	lsl.w	r2, r3, lr
   840dc:	1880      	adds	r0, r0, r2
   840de:	fa43 f305 	asr.w	r3, r3, r5
   840e2:	4159      	adcs	r1, r3
   840e4:	e00e      	b.n	84104 <__adddf3+0xd0>
   840e6:	f1a5 0520 	sub.w	r5, r5, #32
   840ea:	f10e 0e20 	add.w	lr, lr, #32
   840ee:	2a01      	cmp	r2, #1
   840f0:	fa03 fc0e 	lsl.w	ip, r3, lr
   840f4:	bf28      	it	cs
   840f6:	f04c 0c02 	orrcs.w	ip, ip, #2
   840fa:	fa43 f305 	asr.w	r3, r3, r5
   840fe:	18c0      	adds	r0, r0, r3
   84100:	eb51 71e3 	adcs.w	r1, r1, r3, asr #31
   84104:	f001 4500 	and.w	r5, r1, #2147483648	; 0x80000000
   84108:	d507      	bpl.n	8411a <__adddf3+0xe6>
   8410a:	f04f 0e00 	mov.w	lr, #0
   8410e:	f1dc 0c00 	rsbs	ip, ip, #0
   84112:	eb7e 0000 	sbcs.w	r0, lr, r0
   84116:	eb6e 0101 	sbc.w	r1, lr, r1
   8411a:	f5b1 1f80 	cmp.w	r1, #1048576	; 0x100000
   8411e:	d31b      	bcc.n	84158 <__adddf3+0x124>
   84120:	f5b1 1f00 	cmp.w	r1, #2097152	; 0x200000
   84124:	d30c      	bcc.n	84140 <__adddf3+0x10c>
   84126:	0849      	lsrs	r1, r1, #1
   84128:	ea5f 0030 	movs.w	r0, r0, rrx
   8412c:	ea4f 0c3c 	mov.w	ip, ip, rrx
   84130:	f104 0401 	add.w	r4, r4, #1
   84134:	ea4f 5244 	mov.w	r2, r4, lsl #21
   84138:	f512 0f80 	cmn.w	r2, #4194304	; 0x400000
   8413c:	f080 809a 	bcs.w	84274 <__adddf3+0x240>
   84140:	f1bc 4f00 	cmp.w	ip, #2147483648	; 0x80000000
   84144:	bf08      	it	eq
   84146:	ea5f 0c50 	movseq.w	ip, r0, lsr #1
   8414a:	f150 0000 	adcs.w	r0, r0, #0
   8414e:	eb41 5104 	adc.w	r1, r1, r4, lsl #20
   84152:	ea41 0105 	orr.w	r1, r1, r5
   84156:	bd30      	pop	{r4, r5, pc}
   84158:	ea5f 0c4c 	movs.w	ip, ip, lsl #1
   8415c:	4140      	adcs	r0, r0
   8415e:	eb41 0101 	adc.w	r1, r1, r1
   84162:	f411 1f80 	tst.w	r1, #1048576	; 0x100000
   84166:	f1a4 0401 	sub.w	r4, r4, #1
   8416a:	d1e9      	bne.n	84140 <__adddf3+0x10c>
   8416c:	f091 0f00 	teq	r1, #0
   84170:	bf04      	itt	eq
   84172:	4601      	moveq	r1, r0
   84174:	2000      	moveq	r0, #0
   84176:	fab1 f381 	clz	r3, r1
   8417a:	bf08      	it	eq
   8417c:	3320      	addeq	r3, #32
   8417e:	f1a3 030b 	sub.w	r3, r3, #11
   84182:	f1b3 0220 	subs.w	r2, r3, #32
   84186:	da0c      	bge.n	841a2 <__adddf3+0x16e>
   84188:	320c      	adds	r2, #12
   8418a:	dd08      	ble.n	8419e <__adddf3+0x16a>
   8418c:	f102 0c14 	add.w	ip, r2, #20
   84190:	f1c2 020c 	rsb	r2, r2, #12
   84194:	fa01 f00c 	lsl.w	r0, r1, ip
   84198:	fa21 f102 	lsr.w	r1, r1, r2
   8419c:	e00c      	b.n	841b8 <__adddf3+0x184>
   8419e:	f102 0214 	add.w	r2, r2, #20
   841a2:	bfd8      	it	le
   841a4:	f1c2 0c20 	rsble	ip, r2, #32
   841a8:	fa01 f102 	lsl.w	r1, r1, r2
   841ac:	fa20 fc0c 	lsr.w	ip, r0, ip
   841b0:	bfdc      	itt	le
   841b2:	ea41 010c 	orrle.w	r1, r1, ip
   841b6:	4090      	lslle	r0, r2
   841b8:	1ae4      	subs	r4, r4, r3
   841ba:	bfa2      	ittt	ge
   841bc:	eb01 5104 	addge.w	r1, r1, r4, lsl #20
   841c0:	4329      	orrge	r1, r5
   841c2:	bd30      	popge	{r4, r5, pc}
   841c4:	ea6f 0404 	mvn.w	r4, r4
   841c8:	3c1f      	subs	r4, #31
   841ca:	da1c      	bge.n	84206 <__adddf3+0x1d2>
   841cc:	340c      	adds	r4, #12
   841ce:	dc0e      	bgt.n	841ee <__adddf3+0x1ba>
   841d0:	f104 0414 	add.w	r4, r4, #20
   841d4:	f1c4 0220 	rsb	r2, r4, #32
   841d8:	fa20 f004 	lsr.w	r0, r0, r4
   841dc:	fa01 f302 	lsl.w	r3, r1, r2
   841e0:	ea40 0003 	orr.w	r0, r0, r3
   841e4:	fa21 f304 	lsr.w	r3, r1, r4
   841e8:	ea45 0103 	orr.w	r1, r5, r3
   841ec:	bd30      	pop	{r4, r5, pc}
   841ee:	f1c4 040c 	rsb	r4, r4, #12
   841f2:	f1c4 0220 	rsb	r2, r4, #32
   841f6:	fa20 f002 	lsr.w	r0, r0, r2
   841fa:	fa01 f304 	lsl.w	r3, r1, r4
   841fe:	ea40 0003 	orr.w	r0, r0, r3
   84202:	4629      	mov	r1, r5
   84204:	bd30      	pop	{r4, r5, pc}
   84206:	fa21 f004 	lsr.w	r0, r1, r4
   8420a:	4629      	mov	r1, r5
   8420c:	bd30      	pop	{r4, r5, pc}
   8420e:	f094 0f00 	teq	r4, #0
   84212:	f483 1380 	eor.w	r3, r3, #1048576	; 0x100000
   84216:	bf06      	itte	eq
   84218:	f481 1180 	eoreq.w	r1, r1, #1048576	; 0x100000
   8421c:	3401      	addeq	r4, #1
   8421e:	3d01      	subne	r5, #1
   84220:	e74e      	b.n	840c0 <__adddf3+0x8c>
   84222:	ea7f 5c64 	mvns.w	ip, r4, asr #21
   84226:	bf18      	it	ne
   84228:	ea7f 5c65 	mvnsne.w	ip, r5, asr #21
   8422c:	d029      	beq.n	84282 <__adddf3+0x24e>
   8422e:	ea94 0f05 	teq	r4, r5
   84232:	bf08      	it	eq
   84234:	ea90 0f02 	teqeq	r0, r2
   84238:	d005      	beq.n	84246 <__adddf3+0x212>
   8423a:	ea54 0c00 	orrs.w	ip, r4, r0
   8423e:	bf04      	itt	eq
   84240:	4619      	moveq	r1, r3
   84242:	4610      	moveq	r0, r2
   84244:	bd30      	pop	{r4, r5, pc}
   84246:	ea91 0f03 	teq	r1, r3
   8424a:	bf1e      	ittt	ne
   8424c:	2100      	movne	r1, #0
   8424e:	2000      	movne	r0, #0
   84250:	bd30      	popne	{r4, r5, pc}
   84252:	ea5f 5c54 	movs.w	ip, r4, lsr #21
   84256:	d105      	bne.n	84264 <__adddf3+0x230>
   84258:	0040      	lsls	r0, r0, #1
   8425a:	4149      	adcs	r1, r1
   8425c:	bf28      	it	cs
   8425e:	f041 4100 	orrcs.w	r1, r1, #2147483648	; 0x80000000
   84262:	bd30      	pop	{r4, r5, pc}
   84264:	f514 0480 	adds.w	r4, r4, #4194304	; 0x400000
   84268:	bf3c      	itt	cc
   8426a:	f501 1180 	addcc.w	r1, r1, #1048576	; 0x100000
   8426e:	bd30      	popcc	{r4, r5, pc}
   84270:	f001 4500 	and.w	r5, r1, #2147483648	; 0x80000000
   84274:	f045 41fe 	orr.w	r1, r5, #2130706432	; 0x7f000000
   84278:	f441 0170 	orr.w	r1, r1, #15728640	; 0xf00000
   8427c:	f04f 0000 	mov.w	r0, #0
   84280:	bd30      	pop	{r4, r5, pc}
   84282:	ea7f 5c64 	mvns.w	ip, r4, asr #21
   84286:	bf1a      	itte	ne
   84288:	4619      	movne	r1, r3
   8428a:	4610      	movne	r0, r2
   8428c:	ea7f 5c65 	mvnseq.w	ip, r5, asr #21
   84290:	bf1c      	itt	ne
   84292:	460b      	movne	r3, r1
   84294:	4602      	movne	r2, r0
   84296:	ea50 3401 	orrs.w	r4, r0, r1, lsl #12
   8429a:	bf06      	itte	eq
   8429c:	ea52 3503 	orrseq.w	r5, r2, r3, lsl #12
   842a0:	ea91 0f03 	teqeq	r1, r3
   842a4:	f441 2100 	orrne.w	r1, r1, #524288	; 0x80000
   842a8:	bd30      	pop	{r4, r5, pc}
   842aa:	bf00      	nop

000842ac <__aeabi_ui2d>:
   842ac:	f090 0f00 	teq	r0, #0
   842b0:	bf04      	itt	eq
   842b2:	2100      	moveq	r1, #0
   842b4:	4770      	bxeq	lr
   842b6:	b530      	push	{r4, r5, lr}
   842b8:	f44f 6480 	mov.w	r4, #1024	; 0x400
   842bc:	f104 0432 	add.w	r4, r4, #50	; 0x32
   842c0:	f04f 0500 	mov.w	r5, #0
   842c4:	f04f 0100 	mov.w	r1, #0
   842c8:	e750      	b.n	8416c <__adddf3+0x138>
   842ca:	bf00      	nop

000842cc <__aeabi_i2d>:
   842cc:	f090 0f00 	teq	r0, #0
   842d0:	bf04      	itt	eq
   842d2:	2100      	moveq	r1, #0
   842d4:	4770      	bxeq	lr
   842d6:	b530      	push	{r4, r5, lr}
   842d8:	f44f 6480 	mov.w	r4, #1024	; 0x400
   842dc:	f104 0432 	add.w	r4, r4, #50	; 0x32
   842e0:	f010 4500 	ands.w	r5, r0, #2147483648	; 0x80000000
   842e4:	bf48      	it	mi
   842e6:	4240      	negmi	r0, r0
   842e8:	f04f 0100 	mov.w	r1, #0
   842ec:	e73e      	b.n	8416c <__adddf3+0x138>
   842ee:	bf00      	nop

000842f0 <__aeabi_f2d>:
   842f0:	0042      	lsls	r2, r0, #1
   842f2:	ea4f 01e2 	mov.w	r1, r2, asr #3
   842f6:	ea4f 0131 	mov.w	r1, r1, rrx
   842fa:	ea4f 7002 	mov.w	r0, r2, lsl #28
   842fe:	bf1f      	itttt	ne
   84300:	f012 437f 	andsne.w	r3, r2, #4278190080	; 0xff000000
   84304:	f093 4f7f 	teqne	r3, #4278190080	; 0xff000000
   84308:	f081 5160 	eorne.w	r1, r1, #939524096	; 0x38000000
   8430c:	4770      	bxne	lr
   8430e:	f092 0f00 	teq	r2, #0
   84312:	bf14      	ite	ne
   84314:	f093 4f7f 	teqne	r3, #4278190080	; 0xff000000
   84318:	4770      	bxeq	lr
   8431a:	b530      	push	{r4, r5, lr}
   8431c:	f44f 7460 	mov.w	r4, #896	; 0x380
   84320:	f001 4500 	and.w	r5, r1, #2147483648	; 0x80000000
   84324:	f021 4100 	bic.w	r1, r1, #2147483648	; 0x80000000
   84328:	e720      	b.n	8416c <__adddf3+0x138>
   8432a:	bf00      	nop

0008432c <__aeabi_ul2d>:
   8432c:	ea50 0201 	orrs.w	r2, r0, r1
   84330:	bf08      	it	eq
   84332:	4770      	bxeq	lr
   84334:	b530      	push	{r4, r5, lr}
   84336:	f04f 0500 	mov.w	r5, #0
   8433a:	e00a      	b.n	84352 <__aeabi_l2d+0x16>

0008433c <__aeabi_l2d>:
   8433c:	ea50 0201 	orrs.w	r2, r0, r1
   84340:	bf08      	it	eq
   84342:	4770      	bxeq	lr
   84344:	b530      	push	{r4, r5, lr}
   84346:	f011 4500 	ands.w	r5, r1, #2147483648	; 0x80000000
   8434a:	d502      	bpl.n	84352 <__aeabi_l2d+0x16>
   8434c:	4240      	negs	r0, r0
   8434e:	eb61 0141 	sbc.w	r1, r1, r1, lsl #1
   84352:	f44f 6480 	mov.w	r4, #1024	; 0x400
   84356:	f104 0432 	add.w	r4, r4, #50	; 0x32
   8435a:	ea5f 5c91 	movs.w	ip, r1, lsr #22
   8435e:	f43f aedc 	beq.w	8411a <__adddf3+0xe6>
   84362:	f04f 0203 	mov.w	r2, #3
   84366:	ea5f 0cdc 	movs.w	ip, ip, lsr #3
   8436a:	bf18      	it	ne
   8436c:	3203      	addne	r2, #3
   8436e:	ea5f 0cdc 	movs.w	ip, ip, lsr #3
   84372:	bf18      	it	ne
   84374:	3203      	addne	r2, #3
   84376:	eb02 02dc 	add.w	r2, r2, ip, lsr #3
   8437a:	f1c2 0320 	rsb	r3, r2, #32
   8437e:	fa00 fc03 	lsl.w	ip, r0, r3
   84382:	fa20 f002 	lsr.w	r0, r0, r2
   84386:	fa01 fe03 	lsl.w	lr, r1, r3
   8438a:	ea40 000e 	orr.w	r0, r0, lr
   8438e:	fa21 f102 	lsr.w	r1, r1, r2
   84392:	4414      	add	r4, r2
   84394:	e6c1      	b.n	8411a <__adddf3+0xe6>
   84396:	bf00      	nop

00084398 <__aeabi_dmul>:
   84398:	b570      	push	{r4, r5, r6, lr}
   8439a:	f04f 0cff 	mov.w	ip, #255	; 0xff
   8439e:	f44c 6ce0 	orr.w	ip, ip, #1792	; 0x700
   843a2:	ea1c 5411 	ands.w	r4, ip, r1, lsr #20
   843a6:	bf1d      	ittte	ne
   843a8:	ea1c 5513 	andsne.w	r5, ip, r3, lsr #20
   843ac:	ea94 0f0c 	teqne	r4, ip
   843b0:	ea95 0f0c 	teqne	r5, ip
   843b4:	f000 f8de 	bleq	84574 <__aeabi_dmul+0x1dc>
   843b8:	442c      	add	r4, r5
   843ba:	ea81 0603 	eor.w	r6, r1, r3
   843be:	ea21 514c 	bic.w	r1, r1, ip, lsl #21
   843c2:	ea23 534c 	bic.w	r3, r3, ip, lsl #21
   843c6:	ea50 3501 	orrs.w	r5, r0, r1, lsl #12
   843ca:	bf18      	it	ne
   843cc:	ea52 3503 	orrsne.w	r5, r2, r3, lsl #12
   843d0:	f441 1180 	orr.w	r1, r1, #1048576	; 0x100000
   843d4:	f443 1380 	orr.w	r3, r3, #1048576	; 0x100000
   843d8:	d038      	beq.n	8444c <__aeabi_dmul+0xb4>
   843da:	fba0 ce02 	umull	ip, lr, r0, r2
   843de:	f04f 0500 	mov.w	r5, #0
   843e2:	fbe1 e502 	umlal	lr, r5, r1, r2
   843e6:	f006 4200 	and.w	r2, r6, #2147483648	; 0x80000000
   843ea:	fbe0 e503 	umlal	lr, r5, r0, r3
   843ee:	f04f 0600 	mov.w	r6, #0
   843f2:	fbe1 5603 	umlal	r5, r6, r1, r3
   843f6:	f09c 0f00 	teq	ip, #0
   843fa:	bf18      	it	ne
   843fc:	f04e 0e01 	orrne.w	lr, lr, #1
   84400:	f1a4 04ff 	sub.w	r4, r4, #255	; 0xff
   84404:	f5b6 7f00 	cmp.w	r6, #512	; 0x200
   84408:	f564 7440 	sbc.w	r4, r4, #768	; 0x300
   8440c:	d204      	bcs.n	84418 <__aeabi_dmul+0x80>
   8440e:	ea5f 0e4e 	movs.w	lr, lr, lsl #1
   84412:	416d      	adcs	r5, r5
   84414:	eb46 0606 	adc.w	r6, r6, r6
   84418:	ea42 21c6 	orr.w	r1, r2, r6, lsl #11
   8441c:	ea41 5155 	orr.w	r1, r1, r5, lsr #21
   84420:	ea4f 20c5 	mov.w	r0, r5, lsl #11
   84424:	ea40 505e 	orr.w	r0, r0, lr, lsr #21
   84428:	ea4f 2ece 	mov.w	lr, lr, lsl #11
   8442c:	f1b4 0cfd 	subs.w	ip, r4, #253	; 0xfd
   84430:	bf88      	it	hi
   84432:	f5bc 6fe0 	cmphi.w	ip, #1792	; 0x700
   84436:	d81e      	bhi.n	84476 <__aeabi_dmul+0xde>
   84438:	f1be 4f00 	cmp.w	lr, #2147483648	; 0x80000000
   8443c:	bf08      	it	eq
   8443e:	ea5f 0e50 	movseq.w	lr, r0, lsr #1
   84442:	f150 0000 	adcs.w	r0, r0, #0
   84446:	eb41 5104 	adc.w	r1, r1, r4, lsl #20
   8444a:	bd70      	pop	{r4, r5, r6, pc}
   8444c:	f006 4600 	and.w	r6, r6, #2147483648	; 0x80000000
   84450:	ea46 0101 	orr.w	r1, r6, r1
   84454:	ea40 0002 	orr.w	r0, r0, r2
   84458:	ea81 0103 	eor.w	r1, r1, r3
   8445c:	ebb4 045c 	subs.w	r4, r4, ip, lsr #1
   84460:	bfc2      	ittt	gt
   84462:	ebd4 050c 	rsbsgt	r5, r4, ip
   84466:	ea41 5104 	orrgt.w	r1, r1, r4, lsl #20
   8446a:	bd70      	popgt	{r4, r5, r6, pc}
   8446c:	f441 1180 	orr.w	r1, r1, #1048576	; 0x100000
   84470:	f04f 0e00 	mov.w	lr, #0
   84474:	3c01      	subs	r4, #1
   84476:	f300 80ab 	bgt.w	845d0 <__aeabi_dmul+0x238>
   8447a:	f114 0f36 	cmn.w	r4, #54	; 0x36
   8447e:	bfde      	ittt	le
   84480:	2000      	movle	r0, #0
   84482:	f001 4100 	andle.w	r1, r1, #2147483648	; 0x80000000
   84486:	bd70      	pople	{r4, r5, r6, pc}
   84488:	f1c4 0400 	rsb	r4, r4, #0
   8448c:	3c20      	subs	r4, #32
   8448e:	da35      	bge.n	844fc <__aeabi_dmul+0x164>
   84490:	340c      	adds	r4, #12
   84492:	dc1b      	bgt.n	844cc <__aeabi_dmul+0x134>
   84494:	f104 0414 	add.w	r4, r4, #20
   84498:	f1c4 0520 	rsb	r5, r4, #32
   8449c:	fa00 f305 	lsl.w	r3, r0, r5
   844a0:	fa20 f004 	lsr.w	r0, r0, r4
   844a4:	fa01 f205 	lsl.w	r2, r1, r5
   844a8:	ea40 0002 	orr.w	r0, r0, r2
   844ac:	f001 4200 	and.w	r2, r1, #2147483648	; 0x80000000
   844b0:	f021 4100 	bic.w	r1, r1, #2147483648	; 0x80000000
   844b4:	eb10 70d3 	adds.w	r0, r0, r3, lsr #31
   844b8:	fa21 f604 	lsr.w	r6, r1, r4
   844bc:	eb42 0106 	adc.w	r1, r2, r6
   844c0:	ea5e 0e43 	orrs.w	lr, lr, r3, lsl #1
   844c4:	bf08      	it	eq
   844c6:	ea20 70d3 	biceq.w	r0, r0, r3, lsr #31
   844ca:	bd70      	pop	{r4, r5, r6, pc}
   844cc:	f1c4 040c 	rsb	r4, r4, #12
   844d0:	f1c4 0520 	rsb	r5, r4, #32
   844d4:	fa00 f304 	lsl.w	r3, r0, r4
   844d8:	fa20 f005 	lsr.w	r0, r0, r5
   844dc:	fa01 f204 	lsl.w	r2, r1, r4
   844e0:	ea40 0002 	orr.w	r0, r0, r2
   844e4:	f001 4100 	and.w	r1, r1, #2147483648	; 0x80000000
   844e8:	eb10 70d3 	adds.w	r0, r0, r3, lsr #31
   844ec:	f141 0100 	adc.w	r1, r1, #0
   844f0:	ea5e 0e43 	orrs.w	lr, lr, r3, lsl #1
   844f4:	bf08      	it	eq
   844f6:	ea20 70d3 	biceq.w	r0, r0, r3, lsr #31
   844fa:	bd70      	pop	{r4, r5, r6, pc}
   844fc:	f1c4 0520 	rsb	r5, r4, #32
   84500:	fa00 f205 	lsl.w	r2, r0, r5
   84504:	ea4e 0e02 	orr.w	lr, lr, r2
   84508:	fa20 f304 	lsr.w	r3, r0, r4
   8450c:	fa01 f205 	lsl.w	r2, r1, r5
   84510:	ea43 0302 	orr.w	r3, r3, r2
   84514:	fa21 f004 	lsr.w	r0, r1, r4
   84518:	f001 4100 	and.w	r1, r1, #2147483648	; 0x80000000
   8451c:	fa21 f204 	lsr.w	r2, r1, r4
   84520:	ea20 0002 	bic.w	r0, r0, r2
   84524:	eb00 70d3 	add.w	r0, r0, r3, lsr #31
   84528:	ea5e 0e43 	orrs.w	lr, lr, r3, lsl #1
   8452c:	bf08      	it	eq
   8452e:	ea20 70d3 	biceq.w	r0, r0, r3, lsr #31
   84532:	bd70      	pop	{r4, r5, r6, pc}
   84534:	f094 0f00 	teq	r4, #0
   84538:	d10f      	bne.n	8455a <__aeabi_dmul+0x1c2>
   8453a:	f001 4600 	and.w	r6, r1, #2147483648	; 0x80000000
   8453e:	0040      	lsls	r0, r0, #1
   84540:	eb41 0101 	adc.w	r1, r1, r1
   84544:	f411 1f80 	tst.w	r1, #1048576	; 0x100000
   84548:	bf08      	it	eq
   8454a:	3c01      	subeq	r4, #1
   8454c:	d0f7      	beq.n	8453e <__aeabi_dmul+0x1a6>
   8454e:	ea41 0106 	orr.w	r1, r1, r6
   84552:	f095 0f00 	teq	r5, #0
   84556:	bf18      	it	ne
   84558:	4770      	bxne	lr
   8455a:	f003 4600 	and.w	r6, r3, #2147483648	; 0x80000000
   8455e:	0052      	lsls	r2, r2, #1
   84560:	eb43 0303 	adc.w	r3, r3, r3
   84564:	f413 1f80 	tst.w	r3, #1048576	; 0x100000
   84568:	bf08      	it	eq
   8456a:	3d01      	subeq	r5, #1
   8456c:	d0f7      	beq.n	8455e <__aeabi_dmul+0x1c6>
   8456e:	ea43 0306 	orr.w	r3, r3, r6
   84572:	4770      	bx	lr
   84574:	ea94 0f0c 	teq	r4, ip
   84578:	ea0c 5513 	and.w	r5, ip, r3, lsr #20
   8457c:	bf18      	it	ne
   8457e:	ea95 0f0c 	teqne	r5, ip
   84582:	d00c      	beq.n	8459e <__aeabi_dmul+0x206>
   84584:	ea50 0641 	orrs.w	r6, r0, r1, lsl #1
   84588:	bf18      	it	ne
   8458a:	ea52 0643 	orrsne.w	r6, r2, r3, lsl #1
   8458e:	d1d1      	bne.n	84534 <__aeabi_dmul+0x19c>
   84590:	ea81 0103 	eor.w	r1, r1, r3
   84594:	f001 4100 	and.w	r1, r1, #2147483648	; 0x80000000
   84598:	f04f 0000 	mov.w	r0, #0
   8459c:	bd70      	pop	{r4, r5, r6, pc}
   8459e:	ea50 0641 	orrs.w	r6, r0, r1, lsl #1
   845a2:	bf06      	itte	eq
   845a4:	4610      	moveq	r0, r2
   845a6:	4619      	moveq	r1, r3
   845a8:	ea52 0643 	orrsne.w	r6, r2, r3, lsl #1
   845ac:	d019      	beq.n	845e2 <__aeabi_dmul+0x24a>
   845ae:	ea94 0f0c 	teq	r4, ip
   845b2:	d102      	bne.n	845ba <__aeabi_dmul+0x222>
   845b4:	ea50 3601 	orrs.w	r6, r0, r1, lsl #12
   845b8:	d113      	bne.n	845e2 <__aeabi_dmul+0x24a>
   845ba:	ea95 0f0c 	teq	r5, ip
   845be:	d105      	bne.n	845cc <__aeabi_dmul+0x234>
   845c0:	ea52 3603 	orrs.w	r6, r2, r3, lsl #12
   845c4:	bf1c      	itt	ne
   845c6:	4610      	movne	r0, r2
   845c8:	4619      	movne	r1, r3
   845ca:	d10a      	bne.n	845e2 <__aeabi_dmul+0x24a>
   845cc:	ea81 0103 	eor.w	r1, r1, r3
   845d0:	f001 4100 	and.w	r1, r1, #2147483648	; 0x80000000
   845d4:	f041 41fe 	orr.w	r1, r1, #2130706432	; 0x7f000000
   845d8:	f441 0170 	orr.w	r1, r1, #15728640	; 0xf00000
   845dc:	f04f 0000 	mov.w	r0, #0
   845e0:	bd70      	pop	{r4, r5, r6, pc}
   845e2:	f041 41fe 	orr.w	r1, r1, #2130706432	; 0x7f000000
   845e6:	f441 0178 	orr.w	r1, r1, #16252928	; 0xf80000
   845ea:	bd70      	pop	{r4, r5, r6, pc}

000845ec <__aeabi_ddiv>:
   845ec:	b570      	push	{r4, r5, r6, lr}
   845ee:	f04f 0cff 	mov.w	ip, #255	; 0xff
   845f2:	f44c 6ce0 	orr.w	ip, ip, #1792	; 0x700
   845f6:	ea1c 5411 	ands.w	r4, ip, r1, lsr #20
   845fa:	bf1d      	ittte	ne
   845fc:	ea1c 5513 	andsne.w	r5, ip, r3, lsr #20
   84600:	ea94 0f0c 	teqne	r4, ip
   84604:	ea95 0f0c 	teqne	r5, ip
   84608:	f000 f8a7 	bleq	8475a <__aeabi_ddiv+0x16e>
   8460c:	eba4 0405 	sub.w	r4, r4, r5
   84610:	ea81 0e03 	eor.w	lr, r1, r3
   84614:	ea52 3503 	orrs.w	r5, r2, r3, lsl #12
   84618:	ea4f 3101 	mov.w	r1, r1, lsl #12
   8461c:	f000 8088 	beq.w	84730 <__aeabi_ddiv+0x144>
   84620:	ea4f 3303 	mov.w	r3, r3, lsl #12
   84624:	f04f 5580 	mov.w	r5, #268435456	; 0x10000000
   84628:	ea45 1313 	orr.w	r3, r5, r3, lsr #4
   8462c:	ea43 6312 	orr.w	r3, r3, r2, lsr #24
   84630:	ea4f 2202 	mov.w	r2, r2, lsl #8
   84634:	ea45 1511 	orr.w	r5, r5, r1, lsr #4
   84638:	ea45 6510 	orr.w	r5, r5, r0, lsr #24
   8463c:	ea4f 2600 	mov.w	r6, r0, lsl #8
   84640:	f00e 4100 	and.w	r1, lr, #2147483648	; 0x80000000
   84644:	429d      	cmp	r5, r3
   84646:	bf08      	it	eq
   84648:	4296      	cmpeq	r6, r2
   8464a:	f144 04fd 	adc.w	r4, r4, #253	; 0xfd
   8464e:	f504 7440 	add.w	r4, r4, #768	; 0x300
   84652:	d202      	bcs.n	8465a <__aeabi_ddiv+0x6e>
   84654:	085b      	lsrs	r3, r3, #1
   84656:	ea4f 0232 	mov.w	r2, r2, rrx
   8465a:	1ab6      	subs	r6, r6, r2
   8465c:	eb65 0503 	sbc.w	r5, r5, r3
   84660:	085b      	lsrs	r3, r3, #1
   84662:	ea4f 0232 	mov.w	r2, r2, rrx
   84666:	f44f 1080 	mov.w	r0, #1048576	; 0x100000
   8466a:	f44f 2c00 	mov.w	ip, #524288	; 0x80000
   8466e:	ebb6 0e02 	subs.w	lr, r6, r2
   84672:	eb75 0e03 	sbcs.w	lr, r5, r3
   84676:	bf22      	ittt	cs
   84678:	1ab6      	subcs	r6, r6, r2
   8467a:	4675      	movcs	r5, lr
   8467c:	ea40 000c 	orrcs.w	r0, r0, ip
   84680:	085b      	lsrs	r3, r3, #1
   84682:	ea4f 0232 	mov.w	r2, r2, rrx
   84686:	ebb6 0e02 	subs.w	lr, r6, r2
   8468a:	eb75 0e03 	sbcs.w	lr, r5, r3
   8468e:	bf22      	ittt	cs
   84690:	1ab6      	subcs	r6, r6, r2
   84692:	4675      	movcs	r5, lr
   84694:	ea40 005c 	orrcs.w	r0, r0, ip, lsr #1
   84698:	085b      	lsrs	r3, r3, #1
   8469a:	ea4f 0232 	mov.w	r2, r2, rrx
   8469e:	ebb6 0e02 	subs.w	lr, r6, r2
   846a2:	eb75 0e03 	sbcs.w	lr, r5, r3
   846a6:	bf22      	ittt	cs
   846a8:	1ab6      	subcs	r6, r6, r2
   846aa:	4675      	movcs	r5, lr
   846ac:	ea40 009c 	orrcs.w	r0, r0, ip, lsr #2
   846b0:	085b      	lsrs	r3, r3, #1
   846b2:	ea4f 0232 	mov.w	r2, r2, rrx
   846b6:	ebb6 0e02 	subs.w	lr, r6, r2
   846ba:	eb75 0e03 	sbcs.w	lr, r5, r3
   846be:	bf22      	ittt	cs
   846c0:	1ab6      	subcs	r6, r6, r2
   846c2:	4675      	movcs	r5, lr
   846c4:	ea40 00dc 	orrcs.w	r0, r0, ip, lsr #3
   846c8:	ea55 0e06 	orrs.w	lr, r5, r6
   846cc:	d018      	beq.n	84700 <__aeabi_ddiv+0x114>
   846ce:	ea4f 1505 	mov.w	r5, r5, lsl #4
   846d2:	ea45 7516 	orr.w	r5, r5, r6, lsr #28
   846d6:	ea4f 1606 	mov.w	r6, r6, lsl #4
   846da:	ea4f 03c3 	mov.w	r3, r3, lsl #3
   846de:	ea43 7352 	orr.w	r3, r3, r2, lsr #29
   846e2:	ea4f 02c2 	mov.w	r2, r2, lsl #3
   846e6:	ea5f 1c1c 	movs.w	ip, ip, lsr #4
   846ea:	d1c0      	bne.n	8466e <__aeabi_ddiv+0x82>
   846ec:	f411 1f80 	tst.w	r1, #1048576	; 0x100000
   846f0:	d10b      	bne.n	8470a <__aeabi_ddiv+0x11e>
   846f2:	ea41 0100 	orr.w	r1, r1, r0
   846f6:	f04f 0000 	mov.w	r0, #0
   846fa:	f04f 4c00 	mov.w	ip, #2147483648	; 0x80000000
   846fe:	e7b6      	b.n	8466e <__aeabi_ddiv+0x82>
   84700:	f411 1f80 	tst.w	r1, #1048576	; 0x100000
   84704:	bf04      	itt	eq
   84706:	4301      	orreq	r1, r0
   84708:	2000      	moveq	r0, #0
   8470a:	f1b4 0cfd 	subs.w	ip, r4, #253	; 0xfd
   8470e:	bf88      	it	hi
   84710:	f5bc 6fe0 	cmphi.w	ip, #1792	; 0x700
   84714:	f63f aeaf 	bhi.w	84476 <__aeabi_dmul+0xde>
   84718:	ebb5 0c03 	subs.w	ip, r5, r3
   8471c:	bf04      	itt	eq
   8471e:	ebb6 0c02 	subseq.w	ip, r6, r2
   84722:	ea5f 0c50 	movseq.w	ip, r0, lsr #1
   84726:	f150 0000 	adcs.w	r0, r0, #0
   8472a:	eb41 5104 	adc.w	r1, r1, r4, lsl #20
   8472e:	bd70      	pop	{r4, r5, r6, pc}
   84730:	f00e 4e00 	and.w	lr, lr, #2147483648	; 0x80000000
   84734:	ea4e 3111 	orr.w	r1, lr, r1, lsr #12
   84738:	eb14 045c 	adds.w	r4, r4, ip, lsr #1
   8473c:	bfc2      	ittt	gt
   8473e:	ebd4 050c 	rsbsgt	r5, r4, ip
   84742:	ea41 5104 	orrgt.w	r1, r1, r4, lsl #20
   84746:	bd70      	popgt	{r4, r5, r6, pc}
   84748:	f441 1180 	orr.w	r1, r1, #1048576	; 0x100000
   8474c:	f04f 0e00 	mov.w	lr, #0
   84750:	3c01      	subs	r4, #1
   84752:	e690      	b.n	84476 <__aeabi_dmul+0xde>
   84754:	ea45 0e06 	orr.w	lr, r5, r6
   84758:	e68d      	b.n	84476 <__aeabi_dmul+0xde>
   8475a:	ea0c 5513 	and.w	r5, ip, r3, lsr #20
   8475e:	ea94 0f0c 	teq	r4, ip
   84762:	bf08      	it	eq
   84764:	ea95 0f0c 	teqeq	r5, ip
   84768:	f43f af3b 	beq.w	845e2 <__aeabi_dmul+0x24a>
   8476c:	ea94 0f0c 	teq	r4, ip
   84770:	d10a      	bne.n	84788 <__aeabi_ddiv+0x19c>
   84772:	ea50 3401 	orrs.w	r4, r0, r1, lsl #12
   84776:	f47f af34 	bne.w	845e2 <__aeabi_dmul+0x24a>
   8477a:	ea95 0f0c 	teq	r5, ip
   8477e:	f47f af25 	bne.w	845cc <__aeabi_dmul+0x234>
   84782:	4610      	mov	r0, r2
   84784:	4619      	mov	r1, r3
   84786:	e72c      	b.n	845e2 <__aeabi_dmul+0x24a>
   84788:	ea95 0f0c 	teq	r5, ip
   8478c:	d106      	bne.n	8479c <__aeabi_ddiv+0x1b0>
   8478e:	ea52 3503 	orrs.w	r5, r2, r3, lsl #12
   84792:	f43f aefd 	beq.w	84590 <__aeabi_dmul+0x1f8>
   84796:	4610      	mov	r0, r2
   84798:	4619      	mov	r1, r3
   8479a:	e722      	b.n	845e2 <__aeabi_dmul+0x24a>
   8479c:	ea50 0641 	orrs.w	r6, r0, r1, lsl #1
   847a0:	bf18      	it	ne
   847a2:	ea52 0643 	orrsne.w	r6, r2, r3, lsl #1
   847a6:	f47f aec5 	bne.w	84534 <__aeabi_dmul+0x19c>
   847aa:	ea50 0441 	orrs.w	r4, r0, r1, lsl #1
   847ae:	f47f af0d 	bne.w	845cc <__aeabi_dmul+0x234>
   847b2:	ea52 0543 	orrs.w	r5, r2, r3, lsl #1
   847b6:	f47f aeeb 	bne.w	84590 <__aeabi_dmul+0x1f8>
   847ba:	e712      	b.n	845e2 <__aeabi_dmul+0x24a>

000847bc <__gedf2>:
   847bc:	f04f 3cff 	mov.w	ip, #4294967295
   847c0:	e006      	b.n	847d0 <__cmpdf2+0x4>
   847c2:	bf00      	nop

000847c4 <__ledf2>:
   847c4:	f04f 0c01 	mov.w	ip, #1
   847c8:	e002      	b.n	847d0 <__cmpdf2+0x4>
   847ca:	bf00      	nop

000847cc <__cmpdf2>:
   847cc:	f04f 0c01 	mov.w	ip, #1
   847d0:	f84d cd04 	str.w	ip, [sp, #-4]!
   847d4:	ea4f 0c41 	mov.w	ip, r1, lsl #1
   847d8:	ea7f 5c6c 	mvns.w	ip, ip, asr #21
   847dc:	ea4f 0c43 	mov.w	ip, r3, lsl #1
   847e0:	bf18      	it	ne
   847e2:	ea7f 5c6c 	mvnsne.w	ip, ip, asr #21
   847e6:	d01b      	beq.n	84820 <__cmpdf2+0x54>
   847e8:	b001      	add	sp, #4
   847ea:	ea50 0c41 	orrs.w	ip, r0, r1, lsl #1
   847ee:	bf0c      	ite	eq
   847f0:	ea52 0c43 	orrseq.w	ip, r2, r3, lsl #1
   847f4:	ea91 0f03 	teqne	r1, r3
   847f8:	bf02      	ittt	eq
   847fa:	ea90 0f02 	teqeq	r0, r2
   847fe:	2000      	moveq	r0, #0
   84800:	4770      	bxeq	lr
   84802:	f110 0f00 	cmn.w	r0, #0
   84806:	ea91 0f03 	teq	r1, r3
   8480a:	bf58      	it	pl
   8480c:	4299      	cmppl	r1, r3
   8480e:	bf08      	it	eq
   84810:	4290      	cmpeq	r0, r2
   84812:	bf2c      	ite	cs
   84814:	17d8      	asrcs	r0, r3, #31
   84816:	ea6f 70e3 	mvncc.w	r0, r3, asr #31
   8481a:	f040 0001 	orr.w	r0, r0, #1
   8481e:	4770      	bx	lr
   84820:	ea4f 0c41 	mov.w	ip, r1, lsl #1
   84824:	ea7f 5c6c 	mvns.w	ip, ip, asr #21
   84828:	d102      	bne.n	84830 <__cmpdf2+0x64>
   8482a:	ea50 3c01 	orrs.w	ip, r0, r1, lsl #12
   8482e:	d107      	bne.n	84840 <__cmpdf2+0x74>
   84830:	ea4f 0c43 	mov.w	ip, r3, lsl #1
   84834:	ea7f 5c6c 	mvns.w	ip, ip, asr #21
   84838:	d1d6      	bne.n	847e8 <__cmpdf2+0x1c>
   8483a:	ea52 3c03 	orrs.w	ip, r2, r3, lsl #12
   8483e:	d0d3      	beq.n	847e8 <__cmpdf2+0x1c>
   84840:	f85d 0b04 	ldr.w	r0, [sp], #4
   84844:	4770      	bx	lr
   84846:	bf00      	nop

00084848 <__aeabi_cdrcmple>:
   84848:	4684      	mov	ip, r0
   8484a:	4610      	mov	r0, r2
   8484c:	4662      	mov	r2, ip
   8484e:	468c      	mov	ip, r1
   84850:	4619      	mov	r1, r3
   84852:	4663      	mov	r3, ip
   84854:	e000      	b.n	84858 <__aeabi_cdcmpeq>
   84856:	bf00      	nop

00084858 <__aeabi_cdcmpeq>:
   84858:	b501      	push	{r0, lr}
   8485a:	f7ff ffb7 	bl	847cc <__cmpdf2>
   8485e:	2800      	cmp	r0, #0
   84860:	bf48      	it	mi
   84862:	f110 0f00 	cmnmi.w	r0, #0
   84866:	bd01      	pop	{r0, pc}

00084868 <__aeabi_dcmpeq>:
   84868:	f84d ed08 	str.w	lr, [sp, #-8]!
   8486c:	f7ff fff4 	bl	84858 <__aeabi_cdcmpeq>
   84870:	bf0c      	ite	eq
   84872:	2001      	moveq	r0, #1
   84874:	2000      	movne	r0, #0
   84876:	f85d fb08 	ldr.w	pc, [sp], #8
   8487a:	bf00      	nop

0008487c <__aeabi_dcmplt>:
   8487c:	f84d ed08 	str.w	lr, [sp, #-8]!
   84880:	f7ff ffea 	bl	84858 <__aeabi_cdcmpeq>
   84884:	bf34      	ite	cc
   84886:	2001      	movcc	r0, #1
   84888:	2000      	movcs	r0, #0
   8488a:	f85d fb08 	ldr.w	pc, [sp], #8
   8488e:	bf00      	nop

00084890 <__aeabi_dcmple>:
   84890:	f84d ed08 	str.w	lr, [sp, #-8]!
   84894:	f7ff ffe0 	bl	84858 <__aeabi_cdcmpeq>
   84898:	bf94      	ite	ls
   8489a:	2001      	movls	r0, #1
   8489c:	2000      	movhi	r0, #0
   8489e:	f85d fb08 	ldr.w	pc, [sp], #8
   848a2:	bf00      	nop

000848a4 <__aeabi_dcmpge>:
   848a4:	f84d ed08 	str.w	lr, [sp, #-8]!
   848a8:	f7ff ffce 	bl	84848 <__aeabi_cdrcmple>
   848ac:	bf94      	ite	ls
   848ae:	2001      	movls	r0, #1
   848b0:	2000      	movhi	r0, #0
   848b2:	f85d fb08 	ldr.w	pc, [sp], #8
   848b6:	bf00      	nop

000848b8 <__aeabi_dcmpgt>:
   848b8:	f84d ed08 	str.w	lr, [sp, #-8]!
   848bc:	f7ff ffc4 	bl	84848 <__aeabi_cdrcmple>
   848c0:	bf34      	ite	cc
   848c2:	2001      	movcc	r0, #1
   848c4:	2000      	movcs	r0, #0
   848c6:	f85d fb08 	ldr.w	pc, [sp], #8
   848ca:	bf00      	nop

000848cc <__aeabi_d2iz>:
   848cc:	ea4f 0241 	mov.w	r2, r1, lsl #1
   848d0:	f512 1200 	adds.w	r2, r2, #2097152	; 0x200000
   848d4:	d215      	bcs.n	84902 <__aeabi_d2iz+0x36>
   848d6:	d511      	bpl.n	848fc <__aeabi_d2iz+0x30>
   848d8:	f46f 7378 	mvn.w	r3, #992	; 0x3e0
   848dc:	ebb3 5262 	subs.w	r2, r3, r2, asr #21
   848e0:	d912      	bls.n	84908 <__aeabi_d2iz+0x3c>
   848e2:	ea4f 23c1 	mov.w	r3, r1, lsl #11
   848e6:	f043 4300 	orr.w	r3, r3, #2147483648	; 0x80000000
   848ea:	ea43 5350 	orr.w	r3, r3, r0, lsr #21
   848ee:	f011 4f00 	tst.w	r1, #2147483648	; 0x80000000
   848f2:	fa23 f002 	lsr.w	r0, r3, r2
   848f6:	bf18      	it	ne
   848f8:	4240      	negne	r0, r0
   848fa:	4770      	bx	lr
   848fc:	f04f 0000 	mov.w	r0, #0
   84900:	4770      	bx	lr
   84902:	ea50 3001 	orrs.w	r0, r0, r1, lsl #12
   84906:	d105      	bne.n	84914 <__aeabi_d2iz+0x48>
   84908:	f011 4000 	ands.w	r0, r1, #2147483648	; 0x80000000
   8490c:	bf08      	it	eq
   8490e:	f06f 4000 	mvneq.w	r0, #2147483648	; 0x80000000
   84912:	4770      	bx	lr
   84914:	f04f 0000 	mov.w	r0, #0
   84918:	4770      	bx	lr
   8491a:	bf00      	nop

0008491c <__aeabi_d2uiz>:
   8491c:	004a      	lsls	r2, r1, #1
   8491e:	d211      	bcs.n	84944 <__aeabi_d2uiz+0x28>
   84920:	f512 1200 	adds.w	r2, r2, #2097152	; 0x200000
   84924:	d211      	bcs.n	8494a <__aeabi_d2uiz+0x2e>
   84926:	d50d      	bpl.n	84944 <__aeabi_d2uiz+0x28>
   84928:	f46f 7378 	mvn.w	r3, #992	; 0x3e0
   8492c:	ebb3 5262 	subs.w	r2, r3, r2, asr #21
   84930:	d40e      	bmi.n	84950 <__aeabi_d2uiz+0x34>
   84932:	ea4f 23c1 	mov.w	r3, r1, lsl #11
   84936:	f043 4300 	orr.w	r3, r3, #2147483648	; 0x80000000
   8493a:	ea43 5350 	orr.w	r3, r3, r0, lsr #21
   8493e:	fa23 f002 	lsr.w	r0, r3, r2
   84942:	4770      	bx	lr
   84944:	f04f 0000 	mov.w	r0, #0
   84948:	4770      	bx	lr
   8494a:	ea50 3001 	orrs.w	r0, r0, r1, lsl #12
   8494e:	d102      	bne.n	84956 <__aeabi_d2uiz+0x3a>
   84950:	f04f 30ff 	mov.w	r0, #4294967295
   84954:	4770      	bx	lr
   84956:	f04f 0000 	mov.w	r0, #0
   8495a:	4770      	bx	lr

0008495c <__errno>:
   8495c:	4b01      	ldr	r3, [pc, #4]	; (84964 <__errno+0x8>)
   8495e:	6818      	ldr	r0, [r3, #0]
   84960:	4770      	bx	lr
   84962:	bf00      	nop
   84964:	200705a0 	.word	0x200705a0

00084968 <__libc_init_array>:
   84968:	b570      	push	{r4, r5, r6, lr}
   8496a:	4e0f      	ldr	r6, [pc, #60]	; (849a8 <__libc_init_array+0x40>)
   8496c:	4d0f      	ldr	r5, [pc, #60]	; (849ac <__libc_init_array+0x44>)
   8496e:	1b76      	subs	r6, r6, r5
   84970:	10b6      	asrs	r6, r6, #2
   84972:	d007      	beq.n	84984 <__libc_init_array+0x1c>
   84974:	3d04      	subs	r5, #4
   84976:	2400      	movs	r4, #0
   84978:	3401      	adds	r4, #1
   8497a:	f855 3f04 	ldr.w	r3, [r5, #4]!
   8497e:	4798      	blx	r3
   84980:	42a6      	cmp	r6, r4
   84982:	d1f9      	bne.n	84978 <__libc_init_array+0x10>
   84984:	4e0a      	ldr	r6, [pc, #40]	; (849b0 <__libc_init_array+0x48>)
   84986:	4d0b      	ldr	r5, [pc, #44]	; (849b4 <__libc_init_array+0x4c>)
   84988:	f003 f906 	bl	87b98 <_init>
   8498c:	1b76      	subs	r6, r6, r5
   8498e:	10b6      	asrs	r6, r6, #2
   84990:	d008      	beq.n	849a4 <__libc_init_array+0x3c>
   84992:	3d04      	subs	r5, #4
   84994:	2400      	movs	r4, #0
   84996:	3401      	adds	r4, #1
   84998:	f855 3f04 	ldr.w	r3, [r5, #4]!
   8499c:	4798      	blx	r3
   8499e:	42a6      	cmp	r6, r4
   849a0:	d1f9      	bne.n	84996 <__libc_init_array+0x2e>
   849a2:	bd70      	pop	{r4, r5, r6, pc}
   849a4:	bd70      	pop	{r4, r5, r6, pc}
   849a6:	bf00      	nop
   849a8:	00087ba4 	.word	0x00087ba4
   849ac:	00087ba4 	.word	0x00087ba4
   849b0:	00087bac 	.word	0x00087bac
   849b4:	00087ba4 	.word	0x00087ba4

000849b8 <iprintf>:
   849b8:	b40f      	push	{r0, r1, r2, r3}
   849ba:	b510      	push	{r4, lr}
   849bc:	4b07      	ldr	r3, [pc, #28]	; (849dc <iprintf+0x24>)
   849be:	b082      	sub	sp, #8
   849c0:	ac04      	add	r4, sp, #16
   849c2:	f854 2b04 	ldr.w	r2, [r4], #4
   849c6:	6818      	ldr	r0, [r3, #0]
   849c8:	4623      	mov	r3, r4
   849ca:	6881      	ldr	r1, [r0, #8]
   849cc:	9401      	str	r4, [sp, #4]
   849ce:	f000 f9ed 	bl	84dac <_vfiprintf_r>
   849d2:	b002      	add	sp, #8
   849d4:	e8bd 4010 	ldmia.w	sp!, {r4, lr}
   849d8:	b004      	add	sp, #16
   849da:	4770      	bx	lr
   849dc:	200705a0 	.word	0x200705a0

000849e0 <memcpy>:
   849e0:	4684      	mov	ip, r0
   849e2:	ea41 0300 	orr.w	r3, r1, r0
   849e6:	f013 0303 	ands.w	r3, r3, #3
   849ea:	d149      	bne.n	84a80 <memcpy+0xa0>
   849ec:	3a40      	subs	r2, #64	; 0x40
   849ee:	d323      	bcc.n	84a38 <memcpy+0x58>
   849f0:	680b      	ldr	r3, [r1, #0]
   849f2:	6003      	str	r3, [r0, #0]
   849f4:	684b      	ldr	r3, [r1, #4]
   849f6:	6043      	str	r3, [r0, #4]
   849f8:	688b      	ldr	r3, [r1, #8]
   849fa:	6083      	str	r3, [r0, #8]
   849fc:	68cb      	ldr	r3, [r1, #12]
   849fe:	60c3      	str	r3, [r0, #12]
   84a00:	690b      	ldr	r3, [r1, #16]
   84a02:	6103      	str	r3, [r0, #16]
   84a04:	694b      	ldr	r3, [r1, #20]
   84a06:	6143      	str	r3, [r0, #20]
   84a08:	698b      	ldr	r3, [r1, #24]
   84a0a:	6183      	str	r3, [r0, #24]
   84a0c:	69cb      	ldr	r3, [r1, #28]
   84a0e:	61c3      	str	r3, [r0, #28]
   84a10:	6a0b      	ldr	r3, [r1, #32]
   84a12:	6203      	str	r3, [r0, #32]
   84a14:	6a4b      	ldr	r3, [r1, #36]	; 0x24
   84a16:	6243      	str	r3, [r0, #36]	; 0x24
   84a18:	6a8b      	ldr	r3, [r1, #40]	; 0x28
   84a1a:	6283      	str	r3, [r0, #40]	; 0x28
   84a1c:	6acb      	ldr	r3, [r1, #44]	; 0x2c
   84a1e:	62c3      	str	r3, [r0, #44]	; 0x2c
   84a20:	6b0b      	ldr	r3, [r1, #48]	; 0x30
   84a22:	6303      	str	r3, [r0, #48]	; 0x30
   84a24:	6b4b      	ldr	r3, [r1, #52]	; 0x34
   84a26:	6343      	str	r3, [r0, #52]	; 0x34
   84a28:	6b8b      	ldr	r3, [r1, #56]	; 0x38
   84a2a:	6383      	str	r3, [r0, #56]	; 0x38
   84a2c:	6bcb      	ldr	r3, [r1, #60]	; 0x3c
   84a2e:	63c3      	str	r3, [r0, #60]	; 0x3c
   84a30:	3040      	adds	r0, #64	; 0x40
   84a32:	3140      	adds	r1, #64	; 0x40
   84a34:	3a40      	subs	r2, #64	; 0x40
   84a36:	d2db      	bcs.n	849f0 <memcpy+0x10>
   84a38:	3230      	adds	r2, #48	; 0x30
   84a3a:	d30b      	bcc.n	84a54 <memcpy+0x74>
   84a3c:	680b      	ldr	r3, [r1, #0]
   84a3e:	6003      	str	r3, [r0, #0]
   84a40:	684b      	ldr	r3, [r1, #4]
   84a42:	6043      	str	r3, [r0, #4]
   84a44:	688b      	ldr	r3, [r1, #8]
   84a46:	6083      	str	r3, [r0, #8]
   84a48:	68cb      	ldr	r3, [r1, #12]
   84a4a:	60c3      	str	r3, [r0, #12]
   84a4c:	3010      	adds	r0, #16
   84a4e:	3110      	adds	r1, #16
   84a50:	3a10      	subs	r2, #16
   84a52:	d2f3      	bcs.n	84a3c <memcpy+0x5c>
   84a54:	320c      	adds	r2, #12
   84a56:	d305      	bcc.n	84a64 <memcpy+0x84>
   84a58:	f851 3b04 	ldr.w	r3, [r1], #4
   84a5c:	f840 3b04 	str.w	r3, [r0], #4
   84a60:	3a04      	subs	r2, #4
   84a62:	d2f9      	bcs.n	84a58 <memcpy+0x78>
   84a64:	3204      	adds	r2, #4
   84a66:	d008      	beq.n	84a7a <memcpy+0x9a>
   84a68:	07d2      	lsls	r2, r2, #31
   84a6a:	bf1c      	itt	ne
   84a6c:	f811 3b01 	ldrbne.w	r3, [r1], #1
   84a70:	f800 3b01 	strbne.w	r3, [r0], #1
   84a74:	d301      	bcc.n	84a7a <memcpy+0x9a>
   84a76:	880b      	ldrh	r3, [r1, #0]
   84a78:	8003      	strh	r3, [r0, #0]
   84a7a:	4660      	mov	r0, ip
   84a7c:	4770      	bx	lr
   84a7e:	bf00      	nop
   84a80:	2a08      	cmp	r2, #8
   84a82:	d313      	bcc.n	84aac <memcpy+0xcc>
   84a84:	078b      	lsls	r3, r1, #30
   84a86:	d0b1      	beq.n	849ec <memcpy+0xc>
   84a88:	f010 0303 	ands.w	r3, r0, #3
   84a8c:	d0ae      	beq.n	849ec <memcpy+0xc>
   84a8e:	f1c3 0304 	rsb	r3, r3, #4
   84a92:	1ad2      	subs	r2, r2, r3
   84a94:	07db      	lsls	r3, r3, #31
   84a96:	bf1c      	itt	ne
   84a98:	f811 3b01 	ldrbne.w	r3, [r1], #1
   84a9c:	f800 3b01 	strbne.w	r3, [r0], #1
   84aa0:	d3a4      	bcc.n	849ec <memcpy+0xc>
   84aa2:	f831 3b02 	ldrh.w	r3, [r1], #2
   84aa6:	f820 3b02 	strh.w	r3, [r0], #2
   84aaa:	e79f      	b.n	849ec <memcpy+0xc>
   84aac:	3a04      	subs	r2, #4
   84aae:	d3d9      	bcc.n	84a64 <memcpy+0x84>
   84ab0:	3a01      	subs	r2, #1
   84ab2:	f811 3b01 	ldrb.w	r3, [r1], #1
   84ab6:	f800 3b01 	strb.w	r3, [r0], #1
   84aba:	d2f9      	bcs.n	84ab0 <memcpy+0xd0>
   84abc:	780b      	ldrb	r3, [r1, #0]
   84abe:	7003      	strb	r3, [r0, #0]
   84ac0:	784b      	ldrb	r3, [r1, #1]
   84ac2:	7043      	strb	r3, [r0, #1]
   84ac4:	788b      	ldrb	r3, [r1, #2]
   84ac6:	7083      	strb	r3, [r0, #2]
   84ac8:	4660      	mov	r0, ip
   84aca:	4770      	bx	lr

00084acc <memset>:
   84acc:	b4f0      	push	{r4, r5, r6, r7}
   84ace:	0784      	lsls	r4, r0, #30
   84ad0:	d043      	beq.n	84b5a <memset+0x8e>
   84ad2:	1e54      	subs	r4, r2, #1
   84ad4:	2a00      	cmp	r2, #0
   84ad6:	d03e      	beq.n	84b56 <memset+0x8a>
   84ad8:	b2cd      	uxtb	r5, r1
   84ada:	4603      	mov	r3, r0
   84adc:	e003      	b.n	84ae6 <memset+0x1a>
   84ade:	1e62      	subs	r2, r4, #1
   84ae0:	2c00      	cmp	r4, #0
   84ae2:	d038      	beq.n	84b56 <memset+0x8a>
   84ae4:	4614      	mov	r4, r2
   84ae6:	f803 5b01 	strb.w	r5, [r3], #1
   84aea:	079a      	lsls	r2, r3, #30
   84aec:	d1f7      	bne.n	84ade <memset+0x12>
   84aee:	2c03      	cmp	r4, #3
   84af0:	d92a      	bls.n	84b48 <memset+0x7c>
   84af2:	b2cd      	uxtb	r5, r1
   84af4:	ea45 2505 	orr.w	r5, r5, r5, lsl #8
   84af8:	2c0f      	cmp	r4, #15
   84afa:	ea45 4505 	orr.w	r5, r5, r5, lsl #16
   84afe:	d915      	bls.n	84b2c <memset+0x60>
   84b00:	f1a4 0710 	sub.w	r7, r4, #16
   84b04:	093f      	lsrs	r7, r7, #4
   84b06:	f103 0610 	add.w	r6, r3, #16
   84b0a:	eb06 1607 	add.w	r6, r6, r7, lsl #4
   84b0e:	461a      	mov	r2, r3
   84b10:	6015      	str	r5, [r2, #0]
   84b12:	6055      	str	r5, [r2, #4]
   84b14:	6095      	str	r5, [r2, #8]
   84b16:	60d5      	str	r5, [r2, #12]
   84b18:	3210      	adds	r2, #16
   84b1a:	42b2      	cmp	r2, r6
   84b1c:	d1f8      	bne.n	84b10 <memset+0x44>
   84b1e:	f004 040f 	and.w	r4, r4, #15
   84b22:	3701      	adds	r7, #1
   84b24:	2c03      	cmp	r4, #3
   84b26:	eb03 1307 	add.w	r3, r3, r7, lsl #4
   84b2a:	d90d      	bls.n	84b48 <memset+0x7c>
   84b2c:	461e      	mov	r6, r3
   84b2e:	4622      	mov	r2, r4
   84b30:	3a04      	subs	r2, #4
   84b32:	2a03      	cmp	r2, #3
   84b34:	f846 5b04 	str.w	r5, [r6], #4
   84b38:	d8fa      	bhi.n	84b30 <memset+0x64>
   84b3a:	1f22      	subs	r2, r4, #4
   84b3c:	f022 0203 	bic.w	r2, r2, #3
   84b40:	3204      	adds	r2, #4
   84b42:	4413      	add	r3, r2
   84b44:	f004 0403 	and.w	r4, r4, #3
   84b48:	b12c      	cbz	r4, 84b56 <memset+0x8a>
   84b4a:	b2c9      	uxtb	r1, r1
   84b4c:	441c      	add	r4, r3
   84b4e:	f803 1b01 	strb.w	r1, [r3], #1
   84b52:	42a3      	cmp	r3, r4
   84b54:	d1fb      	bne.n	84b4e <memset+0x82>
   84b56:	bcf0      	pop	{r4, r5, r6, r7}
   84b58:	4770      	bx	lr
   84b5a:	4614      	mov	r4, r2
   84b5c:	4603      	mov	r3, r0
   84b5e:	e7c6      	b.n	84aee <memset+0x22>

00084b60 <setbuf>:
   84b60:	2900      	cmp	r1, #0
   84b62:	bf0c      	ite	eq
   84b64:	2202      	moveq	r2, #2
   84b66:	2200      	movne	r2, #0
   84b68:	f44f 6380 	mov.w	r3, #1024	; 0x400
   84b6c:	f000 b800 	b.w	84b70 <setvbuf>

00084b70 <setvbuf>:
   84b70:	e92d 41f0 	stmdb	sp!, {r4, r5, r6, r7, r8, lr}
   84b74:	4d3c      	ldr	r5, [pc, #240]	; (84c68 <setvbuf+0xf8>)
   84b76:	4604      	mov	r4, r0
   84b78:	682d      	ldr	r5, [r5, #0]
   84b7a:	4688      	mov	r8, r1
   84b7c:	4616      	mov	r6, r2
   84b7e:	461f      	mov	r7, r3
   84b80:	b115      	cbz	r5, 84b88 <setvbuf+0x18>
   84b82:	6bab      	ldr	r3, [r5, #56]	; 0x38
   84b84:	2b00      	cmp	r3, #0
   84b86:	d04f      	beq.n	84c28 <setvbuf+0xb8>
   84b88:	2e02      	cmp	r6, #2
   84b8a:	d830      	bhi.n	84bee <setvbuf+0x7e>
   84b8c:	2f00      	cmp	r7, #0
   84b8e:	db2e      	blt.n	84bee <setvbuf+0x7e>
   84b90:	4628      	mov	r0, r5
   84b92:	4621      	mov	r1, r4
   84b94:	f001 f888 	bl	85ca8 <_fflush_r>
   84b98:	89a3      	ldrh	r3, [r4, #12]
   84b9a:	2200      	movs	r2, #0
   84b9c:	6062      	str	r2, [r4, #4]
   84b9e:	61a2      	str	r2, [r4, #24]
   84ba0:	061a      	lsls	r2, r3, #24
   84ba2:	d428      	bmi.n	84bf6 <setvbuf+0x86>
   84ba4:	f023 0383 	bic.w	r3, r3, #131	; 0x83
   84ba8:	b29b      	uxth	r3, r3
   84baa:	2e02      	cmp	r6, #2
   84bac:	81a3      	strh	r3, [r4, #12]
   84bae:	d02d      	beq.n	84c0c <setvbuf+0x9c>
   84bb0:	f1b8 0f00 	cmp.w	r8, #0
   84bb4:	d03c      	beq.n	84c30 <setvbuf+0xc0>
   84bb6:	2e01      	cmp	r6, #1
   84bb8:	d013      	beq.n	84be2 <setvbuf+0x72>
   84bba:	b29b      	uxth	r3, r3
   84bbc:	f003 0008 	and.w	r0, r3, #8
   84bc0:	4a2a      	ldr	r2, [pc, #168]	; (84c6c <setvbuf+0xfc>)
   84bc2:	b280      	uxth	r0, r0
   84bc4:	63ea      	str	r2, [r5, #60]	; 0x3c
   84bc6:	f8c4 8000 	str.w	r8, [r4]
   84bca:	f8c4 8010 	str.w	r8, [r4, #16]
   84bce:	6167      	str	r7, [r4, #20]
   84bd0:	b178      	cbz	r0, 84bf2 <setvbuf+0x82>
   84bd2:	f013 0f03 	tst.w	r3, #3
   84bd6:	bf18      	it	ne
   84bd8:	2700      	movne	r7, #0
   84bda:	60a7      	str	r7, [r4, #8]
   84bdc:	2000      	movs	r0, #0
   84bde:	e8bd 81f0 	ldmia.w	sp!, {r4, r5, r6, r7, r8, pc}
   84be2:	f043 0301 	orr.w	r3, r3, #1
   84be6:	427a      	negs	r2, r7
   84be8:	81a3      	strh	r3, [r4, #12]
   84bea:	61a2      	str	r2, [r4, #24]
   84bec:	e7e5      	b.n	84bba <setvbuf+0x4a>
   84bee:	f04f 30ff 	mov.w	r0, #4294967295
   84bf2:	e8bd 81f0 	ldmia.w	sp!, {r4, r5, r6, r7, r8, pc}
   84bf6:	4628      	mov	r0, r5
   84bf8:	6921      	ldr	r1, [r4, #16]
   84bfa:	f001 f9b5 	bl	85f68 <_free_r>
   84bfe:	89a3      	ldrh	r3, [r4, #12]
   84c00:	2e02      	cmp	r6, #2
   84c02:	f023 0383 	bic.w	r3, r3, #131	; 0x83
   84c06:	b29b      	uxth	r3, r3
   84c08:	81a3      	strh	r3, [r4, #12]
   84c0a:	d1d1      	bne.n	84bb0 <setvbuf+0x40>
   84c0c:	2000      	movs	r0, #0
   84c0e:	f104 0243 	add.w	r2, r4, #67	; 0x43
   84c12:	f043 0302 	orr.w	r3, r3, #2
   84c16:	2500      	movs	r5, #0
   84c18:	2101      	movs	r1, #1
   84c1a:	81a3      	strh	r3, [r4, #12]
   84c1c:	60a5      	str	r5, [r4, #8]
   84c1e:	6022      	str	r2, [r4, #0]
   84c20:	6122      	str	r2, [r4, #16]
   84c22:	6161      	str	r1, [r4, #20]
   84c24:	e8bd 81f0 	ldmia.w	sp!, {r4, r5, r6, r7, r8, pc}
   84c28:	4628      	mov	r0, r5
   84c2a:	f001 f859 	bl	85ce0 <__sinit>
   84c2e:	e7ab      	b.n	84b88 <setvbuf+0x18>
   84c30:	2f00      	cmp	r7, #0
   84c32:	bf08      	it	eq
   84c34:	f44f 6780 	moveq.w	r7, #1024	; 0x400
   84c38:	4638      	mov	r0, r7
   84c3a:	f001 fc8b 	bl	86554 <malloc>
   84c3e:	4680      	mov	r8, r0
   84c40:	b128      	cbz	r0, 84c4e <setvbuf+0xde>
   84c42:	89a3      	ldrh	r3, [r4, #12]
   84c44:	f043 0380 	orr.w	r3, r3, #128	; 0x80
   84c48:	b29b      	uxth	r3, r3
   84c4a:	81a3      	strh	r3, [r4, #12]
   84c4c:	e7b3      	b.n	84bb6 <setvbuf+0x46>
   84c4e:	f44f 6080 	mov.w	r0, #1024	; 0x400
   84c52:	f001 fc7f 	bl	86554 <malloc>
   84c56:	4680      	mov	r8, r0
   84c58:	b918      	cbnz	r0, 84c62 <setvbuf+0xf2>
   84c5a:	89a3      	ldrh	r3, [r4, #12]
   84c5c:	f04f 30ff 	mov.w	r0, #4294967295
   84c60:	e7d5      	b.n	84c0e <setvbuf+0x9e>
   84c62:	f44f 6780 	mov.w	r7, #1024	; 0x400
   84c66:	e7ec      	b.n	84c42 <setvbuf+0xd2>
   84c68:	200705a0 	.word	0x200705a0
   84c6c:	00085cd5 	.word	0x00085cd5

00084c70 <strlen>:
   84c70:	f020 0103 	bic.w	r1, r0, #3
   84c74:	f010 0003 	ands.w	r0, r0, #3
   84c78:	f1c0 0000 	rsb	r0, r0, #0
   84c7c:	f851 3b04 	ldr.w	r3, [r1], #4
   84c80:	f100 0c04 	add.w	ip, r0, #4
   84c84:	ea4f 0ccc 	mov.w	ip, ip, lsl #3
   84c88:	f06f 0200 	mvn.w	r2, #0
   84c8c:	bf1c      	itt	ne
   84c8e:	fa22 f20c 	lsrne.w	r2, r2, ip
   84c92:	4313      	orrne	r3, r2
   84c94:	f04f 0c01 	mov.w	ip, #1
   84c98:	ea4c 2c0c 	orr.w	ip, ip, ip, lsl #8
   84c9c:	ea4c 4c0c 	orr.w	ip, ip, ip, lsl #16
   84ca0:	eba3 020c 	sub.w	r2, r3, ip
   84ca4:	ea22 0203 	bic.w	r2, r2, r3
   84ca8:	ea12 12cc 	ands.w	r2, r2, ip, lsl #7
   84cac:	bf04      	itt	eq
   84cae:	f851 3b04 	ldreq.w	r3, [r1], #4
   84cb2:	3004      	addeq	r0, #4
   84cb4:	d0f4      	beq.n	84ca0 <strlen+0x30>
   84cb6:	f013 0fff 	tst.w	r3, #255	; 0xff
   84cba:	bf1f      	itttt	ne
   84cbc:	3001      	addne	r0, #1
   84cbe:	f413 4f7f 	tstne.w	r3, #65280	; 0xff00
   84cc2:	3001      	addne	r0, #1
   84cc4:	f413 0f7f 	tstne.w	r3, #16711680	; 0xff0000
   84cc8:	bf18      	it	ne
   84cca:	3001      	addne	r0, #1
   84ccc:	4770      	bx	lr
   84cce:	bf00      	nop

00084cd0 <strncpy>:
   84cd0:	ea40 0301 	orr.w	r3, r0, r1
   84cd4:	079b      	lsls	r3, r3, #30
   84cd6:	b470      	push	{r4, r5, r6}
   84cd8:	d12a      	bne.n	84d30 <strncpy+0x60>
   84cda:	2a03      	cmp	r2, #3
   84cdc:	d928      	bls.n	84d30 <strncpy+0x60>
   84cde:	460c      	mov	r4, r1
   84ce0:	4603      	mov	r3, r0
   84ce2:	4621      	mov	r1, r4
   84ce4:	f854 5b04 	ldr.w	r5, [r4], #4
   84ce8:	f1a5 3601 	sub.w	r6, r5, #16843009	; 0x1010101
   84cec:	ea26 0605 	bic.w	r6, r6, r5
   84cf0:	f016 3f80 	tst.w	r6, #2155905152	; 0x80808080
   84cf4:	d105      	bne.n	84d02 <strncpy+0x32>
   84cf6:	3a04      	subs	r2, #4
   84cf8:	2a03      	cmp	r2, #3
   84cfa:	f843 5b04 	str.w	r5, [r3], #4
   84cfe:	4621      	mov	r1, r4
   84d00:	d8ef      	bhi.n	84ce2 <strncpy+0x12>
   84d02:	b19a      	cbz	r2, 84d2c <strncpy+0x5c>
   84d04:	780c      	ldrb	r4, [r1, #0]
   84d06:	3a01      	subs	r2, #1
   84d08:	701c      	strb	r4, [r3, #0]
   84d0a:	3301      	adds	r3, #1
   84d0c:	b13c      	cbz	r4, 84d1e <strncpy+0x4e>
   84d0e:	b16a      	cbz	r2, 84d2c <strncpy+0x5c>
   84d10:	f811 4f01 	ldrb.w	r4, [r1, #1]!
   84d14:	3a01      	subs	r2, #1
   84d16:	f803 4b01 	strb.w	r4, [r3], #1
   84d1a:	2c00      	cmp	r4, #0
   84d1c:	d1f7      	bne.n	84d0e <strncpy+0x3e>
   84d1e:	b12a      	cbz	r2, 84d2c <strncpy+0x5c>
   84d20:	441a      	add	r2, r3
   84d22:	2100      	movs	r1, #0
   84d24:	f803 1b01 	strb.w	r1, [r3], #1
   84d28:	4293      	cmp	r3, r2
   84d2a:	d1fb      	bne.n	84d24 <strncpy+0x54>
   84d2c:	bc70      	pop	{r4, r5, r6}
   84d2e:	4770      	bx	lr
   84d30:	4603      	mov	r3, r0
   84d32:	e7e6      	b.n	84d02 <strncpy+0x32>

00084d34 <__sprint_r.part.0>:
   84d34:	6e4b      	ldr	r3, [r1, #100]	; 0x64
   84d36:	e92d 47f0 	stmdb	sp!, {r4, r5, r6, r7, r8, r9, sl, lr}
   84d3a:	049c      	lsls	r4, r3, #18
   84d3c:	460e      	mov	r6, r1
   84d3e:	4680      	mov	r8, r0
   84d40:	4691      	mov	r9, r2
   84d42:	d52a      	bpl.n	84d9a <__sprint_r.part.0+0x66>
   84d44:	6893      	ldr	r3, [r2, #8]
   84d46:	6812      	ldr	r2, [r2, #0]
   84d48:	f102 0a08 	add.w	sl, r2, #8
   84d4c:	b31b      	cbz	r3, 84d96 <__sprint_r.part.0+0x62>
   84d4e:	e91a 00a0 	ldmdb	sl, {r5, r7}
   84d52:	08bf      	lsrs	r7, r7, #2
   84d54:	d017      	beq.n	84d86 <__sprint_r.part.0+0x52>
   84d56:	3d04      	subs	r5, #4
   84d58:	2400      	movs	r4, #0
   84d5a:	e001      	b.n	84d60 <__sprint_r.part.0+0x2c>
   84d5c:	42a7      	cmp	r7, r4
   84d5e:	d010      	beq.n	84d82 <__sprint_r.part.0+0x4e>
   84d60:	4640      	mov	r0, r8
   84d62:	f855 1f04 	ldr.w	r1, [r5, #4]!
   84d66:	4632      	mov	r2, r6
   84d68:	f001 f850 	bl	85e0c <_fputwc_r>
   84d6c:	1c43      	adds	r3, r0, #1
   84d6e:	f104 0401 	add.w	r4, r4, #1
   84d72:	d1f3      	bne.n	84d5c <__sprint_r.part.0+0x28>
   84d74:	2300      	movs	r3, #0
   84d76:	f8c9 3008 	str.w	r3, [r9, #8]
   84d7a:	f8c9 3004 	str.w	r3, [r9, #4]
   84d7e:	e8bd 87f0 	ldmia.w	sp!, {r4, r5, r6, r7, r8, r9, sl, pc}
   84d82:	f8d9 3008 	ldr.w	r3, [r9, #8]
   84d86:	eba3 0387 	sub.w	r3, r3, r7, lsl #2
   84d8a:	f8c9 3008 	str.w	r3, [r9, #8]
   84d8e:	f10a 0a08 	add.w	sl, sl, #8
   84d92:	2b00      	cmp	r3, #0
   84d94:	d1db      	bne.n	84d4e <__sprint_r.part.0+0x1a>
   84d96:	2000      	movs	r0, #0
   84d98:	e7ec      	b.n	84d74 <__sprint_r.part.0+0x40>
   84d9a:	f001 f9b1 	bl	86100 <__sfvwrite_r>
   84d9e:	2300      	movs	r3, #0
   84da0:	f8c9 3008 	str.w	r3, [r9, #8]
   84da4:	f8c9 3004 	str.w	r3, [r9, #4]
   84da8:	e8bd 87f0 	ldmia.w	sp!, {r4, r5, r6, r7, r8, r9, sl, pc}

00084dac <_vfiprintf_r>:
   84dac:	e92d 4ff0 	stmdb	sp!, {r4, r5, r6, r7, r8, r9, sl, fp, lr}
   84db0:	b0b1      	sub	sp, #196	; 0xc4
   84db2:	461c      	mov	r4, r3
   84db4:	9102      	str	r1, [sp, #8]
   84db6:	4690      	mov	r8, r2
   84db8:	9308      	str	r3, [sp, #32]
   84dba:	9006      	str	r0, [sp, #24]
   84dbc:	b118      	cbz	r0, 84dc6 <_vfiprintf_r+0x1a>
   84dbe:	6b83      	ldr	r3, [r0, #56]	; 0x38
   84dc0:	2b00      	cmp	r3, #0
   84dc2:	f000 80e8 	beq.w	84f96 <_vfiprintf_r+0x1ea>
   84dc6:	9d02      	ldr	r5, [sp, #8]
   84dc8:	89ab      	ldrh	r3, [r5, #12]
   84dca:	b29a      	uxth	r2, r3
   84dcc:	0490      	lsls	r0, r2, #18
   84dce:	d407      	bmi.n	84de0 <_vfiprintf_r+0x34>
   84dd0:	6e6a      	ldr	r2, [r5, #100]	; 0x64
   84dd2:	f443 5300 	orr.w	r3, r3, #8192	; 0x2000
   84dd6:	f422 5100 	bic.w	r1, r2, #8192	; 0x2000
   84dda:	81ab      	strh	r3, [r5, #12]
   84ddc:	b29a      	uxth	r2, r3
   84dde:	6669      	str	r1, [r5, #100]	; 0x64
   84de0:	0711      	lsls	r1, r2, #28
   84de2:	f140 80b7 	bpl.w	84f54 <_vfiprintf_r+0x1a8>
   84de6:	f8dd b008 	ldr.w	fp, [sp, #8]
   84dea:	f8db 3010 	ldr.w	r3, [fp, #16]
   84dee:	2b00      	cmp	r3, #0
   84df0:	f000 80b0 	beq.w	84f54 <_vfiprintf_r+0x1a8>
   84df4:	f002 021a 	and.w	r2, r2, #26
   84df8:	2a0a      	cmp	r2, #10
   84dfa:	f000 80b7 	beq.w	84f6c <_vfiprintf_r+0x1c0>
   84dfe:	2300      	movs	r3, #0
   84e00:	f10d 0980 	add.w	r9, sp, #128	; 0x80
   84e04:	930a      	str	r3, [sp, #40]	; 0x28
   84e06:	9315      	str	r3, [sp, #84]	; 0x54
   84e08:	9314      	str	r3, [sp, #80]	; 0x50
   84e0a:	9309      	str	r3, [sp, #36]	; 0x24
   84e0c:	f8cd 904c 	str.w	r9, [sp, #76]	; 0x4c
   84e10:	464e      	mov	r6, r9
   84e12:	f898 3000 	ldrb.w	r3, [r8]
   84e16:	2b00      	cmp	r3, #0
   84e18:	f000 84c8 	beq.w	857ac <_vfiprintf_r+0xa00>
   84e1c:	2b25      	cmp	r3, #37	; 0x25
   84e1e:	f000 84c5 	beq.w	857ac <_vfiprintf_r+0xa00>
   84e22:	f108 0201 	add.w	r2, r8, #1
   84e26:	e001      	b.n	84e2c <_vfiprintf_r+0x80>
   84e28:	2b25      	cmp	r3, #37	; 0x25
   84e2a:	d004      	beq.n	84e36 <_vfiprintf_r+0x8a>
   84e2c:	7813      	ldrb	r3, [r2, #0]
   84e2e:	4614      	mov	r4, r2
   84e30:	3201      	adds	r2, #1
   84e32:	2b00      	cmp	r3, #0
   84e34:	d1f8      	bne.n	84e28 <_vfiprintf_r+0x7c>
   84e36:	ebc8 0504 	rsb	r5, r8, r4
   84e3a:	b195      	cbz	r5, 84e62 <_vfiprintf_r+0xb6>
   84e3c:	9b14      	ldr	r3, [sp, #80]	; 0x50
   84e3e:	9a15      	ldr	r2, [sp, #84]	; 0x54
   84e40:	3301      	adds	r3, #1
   84e42:	442a      	add	r2, r5
   84e44:	2b07      	cmp	r3, #7
   84e46:	f8c6 8000 	str.w	r8, [r6]
   84e4a:	6075      	str	r5, [r6, #4]
   84e4c:	9215      	str	r2, [sp, #84]	; 0x54
   84e4e:	9314      	str	r3, [sp, #80]	; 0x50
   84e50:	dd7b      	ble.n	84f4a <_vfiprintf_r+0x19e>
   84e52:	2a00      	cmp	r2, #0
   84e54:	f040 84d5 	bne.w	85802 <_vfiprintf_r+0xa56>
   84e58:	9809      	ldr	r0, [sp, #36]	; 0x24
   84e5a:	9214      	str	r2, [sp, #80]	; 0x50
   84e5c:	4428      	add	r0, r5
   84e5e:	464e      	mov	r6, r9
   84e60:	9009      	str	r0, [sp, #36]	; 0x24
   84e62:	7823      	ldrb	r3, [r4, #0]
   84e64:	2b00      	cmp	r3, #0
   84e66:	f000 83ed 	beq.w	85644 <_vfiprintf_r+0x898>
   84e6a:	2100      	movs	r1, #0
   84e6c:	f04f 0200 	mov.w	r2, #0
   84e70:	f04f 3cff 	mov.w	ip, #4294967295
   84e74:	7863      	ldrb	r3, [r4, #1]
   84e76:	f88d 2047 	strb.w	r2, [sp, #71]	; 0x47
   84e7a:	9104      	str	r1, [sp, #16]
   84e7c:	468a      	mov	sl, r1
   84e7e:	f104 0801 	add.w	r8, r4, #1
   84e82:	4608      	mov	r0, r1
   84e84:	4665      	mov	r5, ip
   84e86:	f108 0801 	add.w	r8, r8, #1
   84e8a:	f1a3 0220 	sub.w	r2, r3, #32
   84e8e:	2a58      	cmp	r2, #88	; 0x58
   84e90:	f200 82d9 	bhi.w	85446 <_vfiprintf_r+0x69a>
   84e94:	e8df f012 	tbh	[pc, r2, lsl #1]
   84e98:	02d702cb 	.word	0x02d702cb
   84e9c:	02d202d7 	.word	0x02d202d7
   84ea0:	02d702d7 	.word	0x02d702d7
   84ea4:	02d702d7 	.word	0x02d702d7
   84ea8:	02d702d7 	.word	0x02d702d7
   84eac:	028f0282 	.word	0x028f0282
   84eb0:	008402d7 	.word	0x008402d7
   84eb4:	02d70293 	.word	0x02d70293
   84eb8:	0196012b 	.word	0x0196012b
   84ebc:	01960196 	.word	0x01960196
   84ec0:	01960196 	.word	0x01960196
   84ec4:	01960196 	.word	0x01960196
   84ec8:	01960196 	.word	0x01960196
   84ecc:	02d702d7 	.word	0x02d702d7
   84ed0:	02d702d7 	.word	0x02d702d7
   84ed4:	02d702d7 	.word	0x02d702d7
   84ed8:	02d702d7 	.word	0x02d702d7
   84edc:	02d702d7 	.word	0x02d702d7
   84ee0:	02d70130 	.word	0x02d70130
   84ee4:	02d702d7 	.word	0x02d702d7
   84ee8:	02d702d7 	.word	0x02d702d7
   84eec:	02d702d7 	.word	0x02d702d7
   84ef0:	02d702d7 	.word	0x02d702d7
   84ef4:	017b02d7 	.word	0x017b02d7
   84ef8:	02d702d7 	.word	0x02d702d7
   84efc:	02d702d7 	.word	0x02d702d7
   84f00:	01a402d7 	.word	0x01a402d7
   84f04:	02d702d7 	.word	0x02d702d7
   84f08:	02d701bf 	.word	0x02d701bf
   84f0c:	02d702d7 	.word	0x02d702d7
   84f10:	02d702d7 	.word	0x02d702d7
   84f14:	02d702d7 	.word	0x02d702d7
   84f18:	02d702d7 	.word	0x02d702d7
   84f1c:	01e402d7 	.word	0x01e402d7
   84f20:	02d701fa 	.word	0x02d701fa
   84f24:	02d702d7 	.word	0x02d702d7
   84f28:	01fa0216 	.word	0x01fa0216
   84f2c:	02d702d7 	.word	0x02d702d7
   84f30:	02d7021b 	.word	0x02d7021b
   84f34:	00890228 	.word	0x00890228
   84f38:	027d0266 	.word	0x027d0266
   84f3c:	023a02d7 	.word	0x023a02d7
   84f40:	011902d7 	.word	0x011902d7
   84f44:	02d702d7 	.word	0x02d702d7
   84f48:	02af      	.short	0x02af
   84f4a:	3608      	adds	r6, #8
   84f4c:	9809      	ldr	r0, [sp, #36]	; 0x24
   84f4e:	4428      	add	r0, r5
   84f50:	9009      	str	r0, [sp, #36]	; 0x24
   84f52:	e786      	b.n	84e62 <_vfiprintf_r+0xb6>
   84f54:	9806      	ldr	r0, [sp, #24]
   84f56:	9902      	ldr	r1, [sp, #8]
   84f58:	f000 fd90 	bl	85a7c <__swsetup_r>
   84f5c:	b9b0      	cbnz	r0, 84f8c <_vfiprintf_r+0x1e0>
   84f5e:	9d02      	ldr	r5, [sp, #8]
   84f60:	89aa      	ldrh	r2, [r5, #12]
   84f62:	f002 021a 	and.w	r2, r2, #26
   84f66:	2a0a      	cmp	r2, #10
   84f68:	f47f af49 	bne.w	84dfe <_vfiprintf_r+0x52>
   84f6c:	f8dd b008 	ldr.w	fp, [sp, #8]
   84f70:	f9bb 300e 	ldrsh.w	r3, [fp, #14]
   84f74:	2b00      	cmp	r3, #0
   84f76:	f6ff af42 	blt.w	84dfe <_vfiprintf_r+0x52>
   84f7a:	9806      	ldr	r0, [sp, #24]
   84f7c:	4659      	mov	r1, fp
   84f7e:	4642      	mov	r2, r8
   84f80:	4623      	mov	r3, r4
   84f82:	f000 fd3d 	bl	85a00 <__sbprintf>
   84f86:	b031      	add	sp, #196	; 0xc4
   84f88:	e8bd 8ff0 	ldmia.w	sp!, {r4, r5, r6, r7, r8, r9, sl, fp, pc}
   84f8c:	f04f 30ff 	mov.w	r0, #4294967295
   84f90:	b031      	add	sp, #196	; 0xc4
   84f92:	e8bd 8ff0 	ldmia.w	sp!, {r4, r5, r6, r7, r8, r9, sl, fp, pc}
   84f96:	f000 fea3 	bl	85ce0 <__sinit>
   84f9a:	e714      	b.n	84dc6 <_vfiprintf_r+0x1a>
   84f9c:	4240      	negs	r0, r0
   84f9e:	9308      	str	r3, [sp, #32]
   84fa0:	f04a 0a04 	orr.w	sl, sl, #4
   84fa4:	f898 3000 	ldrb.w	r3, [r8]
   84fa8:	e76d      	b.n	84e86 <_vfiprintf_r+0xda>
   84faa:	f01a 0320 	ands.w	r3, sl, #32
   84fae:	9004      	str	r0, [sp, #16]
   84fb0:	46ac      	mov	ip, r5
   84fb2:	f000 80f4 	beq.w	8519e <_vfiprintf_r+0x3f2>
   84fb6:	f8dd b020 	ldr.w	fp, [sp, #32]
   84fba:	f10b 0307 	add.w	r3, fp, #7
   84fbe:	f023 0307 	bic.w	r3, r3, #7
   84fc2:	f103 0408 	add.w	r4, r3, #8
   84fc6:	9408      	str	r4, [sp, #32]
   84fc8:	e9d3 4500 	ldrd	r4, r5, [r3]
   84fcc:	2300      	movs	r3, #0
   84fce:	f04f 0000 	mov.w	r0, #0
   84fd2:	2100      	movs	r1, #0
   84fd4:	f88d 0047 	strb.w	r0, [sp, #71]	; 0x47
   84fd8:	f8cd c014 	str.w	ip, [sp, #20]
   84fdc:	9107      	str	r1, [sp, #28]
   84fde:	f1bc 0f00 	cmp.w	ip, #0
   84fe2:	bfa8      	it	ge
   84fe4:	f02a 0a80 	bicge.w	sl, sl, #128	; 0x80
   84fe8:	ea54 0205 	orrs.w	r2, r4, r5
   84fec:	f040 80ad 	bne.w	8514a <_vfiprintf_r+0x39e>
   84ff0:	f1bc 0f00 	cmp.w	ip, #0
   84ff4:	f040 80a9 	bne.w	8514a <_vfiprintf_r+0x39e>
   84ff8:	2b00      	cmp	r3, #0
   84ffa:	f040 83c0 	bne.w	8577e <_vfiprintf_r+0x9d2>
   84ffe:	f01a 0f01 	tst.w	sl, #1
   85002:	f000 83bc 	beq.w	8577e <_vfiprintf_r+0x9d2>
   85006:	2330      	movs	r3, #48	; 0x30
   85008:	af30      	add	r7, sp, #192	; 0xc0
   8500a:	f807 3d41 	strb.w	r3, [r7, #-65]!
   8500e:	ebc7 0409 	rsb	r4, r7, r9
   85012:	9405      	str	r4, [sp, #20]
   85014:	f8dd b014 	ldr.w	fp, [sp, #20]
   85018:	9c07      	ldr	r4, [sp, #28]
   8501a:	45e3      	cmp	fp, ip
   8501c:	bfb8      	it	lt
   8501e:	46e3      	movlt	fp, ip
   85020:	f8cd b00c 	str.w	fp, [sp, #12]
   85024:	b11c      	cbz	r4, 8502e <_vfiprintf_r+0x282>
   85026:	f10b 0b01 	add.w	fp, fp, #1
   8502a:	f8cd b00c 	str.w	fp, [sp, #12]
   8502e:	f01a 0502 	ands.w	r5, sl, #2
   85032:	9507      	str	r5, [sp, #28]
   85034:	d005      	beq.n	85042 <_vfiprintf_r+0x296>
   85036:	f8dd b00c 	ldr.w	fp, [sp, #12]
   8503a:	f10b 0b02 	add.w	fp, fp, #2
   8503e:	f8cd b00c 	str.w	fp, [sp, #12]
   85042:	f01a 0384 	ands.w	r3, sl, #132	; 0x84
   85046:	930b      	str	r3, [sp, #44]	; 0x2c
   85048:	f040 821b 	bne.w	85482 <_vfiprintf_r+0x6d6>
   8504c:	9d04      	ldr	r5, [sp, #16]
   8504e:	f8dd b00c 	ldr.w	fp, [sp, #12]
   85052:	ebcb 0405 	rsb	r4, fp, r5
   85056:	2c00      	cmp	r4, #0
   85058:	f340 8213 	ble.w	85482 <_vfiprintf_r+0x6d6>
   8505c:	2c10      	cmp	r4, #16
   8505e:	f340 8489 	ble.w	85974 <_vfiprintf_r+0xbc8>
   85062:	4dbe      	ldr	r5, [pc, #760]	; (8535c <_vfiprintf_r+0x5b0>)
   85064:	9a15      	ldr	r2, [sp, #84]	; 0x54
   85066:	462b      	mov	r3, r5
   85068:	9814      	ldr	r0, [sp, #80]	; 0x50
   8506a:	4625      	mov	r5, r4
   8506c:	f04f 0b10 	mov.w	fp, #16
   85070:	4664      	mov	r4, ip
   85072:	46b4      	mov	ip, r6
   85074:	461e      	mov	r6, r3
   85076:	e006      	b.n	85086 <_vfiprintf_r+0x2da>
   85078:	1c83      	adds	r3, r0, #2
   8507a:	f10c 0c08 	add.w	ip, ip, #8
   8507e:	4608      	mov	r0, r1
   85080:	3d10      	subs	r5, #16
   85082:	2d10      	cmp	r5, #16
   85084:	dd11      	ble.n	850aa <_vfiprintf_r+0x2fe>
   85086:	1c41      	adds	r1, r0, #1
   85088:	3210      	adds	r2, #16
   8508a:	2907      	cmp	r1, #7
   8508c:	9215      	str	r2, [sp, #84]	; 0x54
   8508e:	e88c 0840 	stmia.w	ip, {r6, fp}
   85092:	9114      	str	r1, [sp, #80]	; 0x50
   85094:	ddf0      	ble.n	85078 <_vfiprintf_r+0x2cc>
   85096:	2a00      	cmp	r2, #0
   85098:	f040 81e6 	bne.w	85468 <_vfiprintf_r+0x6bc>
   8509c:	3d10      	subs	r5, #16
   8509e:	2d10      	cmp	r5, #16
   850a0:	f04f 0301 	mov.w	r3, #1
   850a4:	4610      	mov	r0, r2
   850a6:	46cc      	mov	ip, r9
   850a8:	dced      	bgt.n	85086 <_vfiprintf_r+0x2da>
   850aa:	4631      	mov	r1, r6
   850ac:	4666      	mov	r6, ip
   850ae:	46a4      	mov	ip, r4
   850b0:	462c      	mov	r4, r5
   850b2:	460d      	mov	r5, r1
   850b4:	4422      	add	r2, r4
   850b6:	2b07      	cmp	r3, #7
   850b8:	9215      	str	r2, [sp, #84]	; 0x54
   850ba:	6035      	str	r5, [r6, #0]
   850bc:	6074      	str	r4, [r6, #4]
   850be:	9314      	str	r3, [sp, #80]	; 0x50
   850c0:	f300 836d 	bgt.w	8579e <_vfiprintf_r+0x9f2>
   850c4:	3608      	adds	r6, #8
   850c6:	1c59      	adds	r1, r3, #1
   850c8:	e1de      	b.n	85488 <_vfiprintf_r+0x6dc>
   850ca:	f01a 0f20 	tst.w	sl, #32
   850ce:	9004      	str	r0, [sp, #16]
   850d0:	46ac      	mov	ip, r5
   850d2:	f000 808d 	beq.w	851f0 <_vfiprintf_r+0x444>
   850d6:	9d08      	ldr	r5, [sp, #32]
   850d8:	1deb      	adds	r3, r5, #7
   850da:	f023 0307 	bic.w	r3, r3, #7
   850de:	f103 0b08 	add.w	fp, r3, #8
   850e2:	e9d3 4500 	ldrd	r4, r5, [r3]
   850e6:	f8cd b020 	str.w	fp, [sp, #32]
   850ea:	2301      	movs	r3, #1
   850ec:	e76f      	b.n	84fce <_vfiprintf_r+0x222>
   850ee:	f04a 0a80 	orr.w	sl, sl, #128	; 0x80
   850f2:	f898 3000 	ldrb.w	r3, [r8]
   850f6:	e6c6      	b.n	84e86 <_vfiprintf_r+0xda>
   850f8:	f04a 0a10 	orr.w	sl, sl, #16
   850fc:	f01a 0f20 	tst.w	sl, #32
   85100:	9004      	str	r0, [sp, #16]
   85102:	46ac      	mov	ip, r5
   85104:	f88d 1047 	strb.w	r1, [sp, #71]	; 0x47
   85108:	f000 80c8 	beq.w	8529c <_vfiprintf_r+0x4f0>
   8510c:	9c08      	ldr	r4, [sp, #32]
   8510e:	1de1      	adds	r1, r4, #7
   85110:	f021 0107 	bic.w	r1, r1, #7
   85114:	e9d1 2300 	ldrd	r2, r3, [r1]
   85118:	3108      	adds	r1, #8
   8511a:	9108      	str	r1, [sp, #32]
   8511c:	4614      	mov	r4, r2
   8511e:	461d      	mov	r5, r3
   85120:	2a00      	cmp	r2, #0
   85122:	f173 0b00 	sbcs.w	fp, r3, #0
   85126:	f2c0 83ce 	blt.w	858c6 <_vfiprintf_r+0xb1a>
   8512a:	f1bc 0f00 	cmp.w	ip, #0
   8512e:	f89d 0047 	ldrb.w	r0, [sp, #71]	; 0x47
   85132:	bfa8      	it	ge
   85134:	f02a 0a80 	bicge.w	sl, sl, #128	; 0x80
   85138:	ea54 0205 	orrs.w	r2, r4, r5
   8513c:	9007      	str	r0, [sp, #28]
   8513e:	f8cd c014 	str.w	ip, [sp, #20]
   85142:	f04f 0301 	mov.w	r3, #1
   85146:	f43f af53 	beq.w	84ff0 <_vfiprintf_r+0x244>
   8514a:	2b01      	cmp	r3, #1
   8514c:	f000 8319 	beq.w	85782 <_vfiprintf_r+0x9d6>
   85150:	2b02      	cmp	r3, #2
   85152:	f10d 037f 	add.w	r3, sp, #127	; 0x7f
   85156:	f040 824c 	bne.w	855f2 <_vfiprintf_r+0x846>
   8515a:	f8dd b028 	ldr.w	fp, [sp, #40]	; 0x28
   8515e:	4619      	mov	r1, r3
   85160:	f004 000f 	and.w	r0, r4, #15
   85164:	0922      	lsrs	r2, r4, #4
   85166:	f81b 0000 	ldrb.w	r0, [fp, r0]
   8516a:	ea42 7205 	orr.w	r2, r2, r5, lsl #28
   8516e:	092b      	lsrs	r3, r5, #4
   85170:	7008      	strb	r0, [r1, #0]
   85172:	ea52 0003 	orrs.w	r0, r2, r3
   85176:	460f      	mov	r7, r1
   85178:	4614      	mov	r4, r2
   8517a:	461d      	mov	r5, r3
   8517c:	f101 31ff 	add.w	r1, r1, #4294967295
   85180:	d1ee      	bne.n	85160 <_vfiprintf_r+0x3b4>
   85182:	e9cd 230e 	strd	r2, r3, [sp, #56]	; 0x38
   85186:	ebc7 0309 	rsb	r3, r7, r9
   8518a:	9305      	str	r3, [sp, #20]
   8518c:	e742      	b.n	85014 <_vfiprintf_r+0x268>
   8518e:	f04a 0a10 	orr.w	sl, sl, #16
   85192:	f01a 0320 	ands.w	r3, sl, #32
   85196:	9004      	str	r0, [sp, #16]
   85198:	46ac      	mov	ip, r5
   8519a:	f47f af0c 	bne.w	84fb6 <_vfiprintf_r+0x20a>
   8519e:	f01a 0210 	ands.w	r2, sl, #16
   851a2:	f040 8311 	bne.w	857c8 <_vfiprintf_r+0xa1c>
   851a6:	f01a 0340 	ands.w	r3, sl, #64	; 0x40
   851aa:	f000 830d 	beq.w	857c8 <_vfiprintf_r+0xa1c>
   851ae:	f8dd b020 	ldr.w	fp, [sp, #32]
   851b2:	4613      	mov	r3, r2
   851b4:	f8bb 4000 	ldrh.w	r4, [fp]
   851b8:	f10b 0b04 	add.w	fp, fp, #4
   851bc:	2500      	movs	r5, #0
   851be:	f8cd b020 	str.w	fp, [sp, #32]
   851c2:	e704      	b.n	84fce <_vfiprintf_r+0x222>
   851c4:	f1a3 0230 	sub.w	r2, r3, #48	; 0x30
   851c8:	2000      	movs	r0, #0
   851ca:	f818 3b01 	ldrb.w	r3, [r8], #1
   851ce:	eb00 0080 	add.w	r0, r0, r0, lsl #2
   851d2:	eb02 0040 	add.w	r0, r2, r0, lsl #1
   851d6:	f1a3 0230 	sub.w	r2, r3, #48	; 0x30
   851da:	2a09      	cmp	r2, #9
   851dc:	d9f5      	bls.n	851ca <_vfiprintf_r+0x41e>
   851de:	e654      	b.n	84e8a <_vfiprintf_r+0xde>
   851e0:	f04a 0a10 	orr.w	sl, sl, #16
   851e4:	f01a 0f20 	tst.w	sl, #32
   851e8:	9004      	str	r0, [sp, #16]
   851ea:	46ac      	mov	ip, r5
   851ec:	f47f af73 	bne.w	850d6 <_vfiprintf_r+0x32a>
   851f0:	f01a 0f10 	tst.w	sl, #16
   851f4:	f040 82ef 	bne.w	857d6 <_vfiprintf_r+0xa2a>
   851f8:	f01a 0f40 	tst.w	sl, #64	; 0x40
   851fc:	f000 82eb 	beq.w	857d6 <_vfiprintf_r+0xa2a>
   85200:	f8dd b020 	ldr.w	fp, [sp, #32]
   85204:	2500      	movs	r5, #0
   85206:	f8bb 4000 	ldrh.w	r4, [fp]
   8520a:	f10b 0b04 	add.w	fp, fp, #4
   8520e:	2301      	movs	r3, #1
   85210:	f8cd b020 	str.w	fp, [sp, #32]
   85214:	e6db      	b.n	84fce <_vfiprintf_r+0x222>
   85216:	46ac      	mov	ip, r5
   85218:	4d51      	ldr	r5, [pc, #324]	; (85360 <_vfiprintf_r+0x5b4>)
   8521a:	f01a 0f20 	tst.w	sl, #32
   8521e:	9004      	str	r0, [sp, #16]
   85220:	f88d 1047 	strb.w	r1, [sp, #71]	; 0x47
   85224:	950a      	str	r5, [sp, #40]	; 0x28
   85226:	f000 80f0 	beq.w	8540a <_vfiprintf_r+0x65e>
   8522a:	9d08      	ldr	r5, [sp, #32]
   8522c:	1dea      	adds	r2, r5, #7
   8522e:	f022 0207 	bic.w	r2, r2, #7
   85232:	f102 0b08 	add.w	fp, r2, #8
   85236:	f8cd b020 	str.w	fp, [sp, #32]
   8523a:	e9d2 4500 	ldrd	r4, r5, [r2]
   8523e:	f01a 0f01 	tst.w	sl, #1
   85242:	f000 82aa 	beq.w	8579a <_vfiprintf_r+0x9ee>
   85246:	ea54 0b05 	orrs.w	fp, r4, r5
   8524a:	f000 82a6 	beq.w	8579a <_vfiprintf_r+0x9ee>
   8524e:	2230      	movs	r2, #48	; 0x30
   85250:	f88d 3049 	strb.w	r3, [sp, #73]	; 0x49
   85254:	f04a 0a02 	orr.w	sl, sl, #2
   85258:	f88d 2048 	strb.w	r2, [sp, #72]	; 0x48
   8525c:	2302      	movs	r3, #2
   8525e:	e6b6      	b.n	84fce <_vfiprintf_r+0x222>
   85260:	9b08      	ldr	r3, [sp, #32]
   85262:	f8dd b020 	ldr.w	fp, [sp, #32]
   85266:	681b      	ldr	r3, [r3, #0]
   85268:	2401      	movs	r4, #1
   8526a:	f04f 0500 	mov.w	r5, #0
   8526e:	f10b 0b04 	add.w	fp, fp, #4
   85272:	9004      	str	r0, [sp, #16]
   85274:	9403      	str	r4, [sp, #12]
   85276:	f88d 5047 	strb.w	r5, [sp, #71]	; 0x47
   8527a:	f88d 3058 	strb.w	r3, [sp, #88]	; 0x58
   8527e:	f8cd b020 	str.w	fp, [sp, #32]
   85282:	9405      	str	r4, [sp, #20]
   85284:	af16      	add	r7, sp, #88	; 0x58
   85286:	f04f 0c00 	mov.w	ip, #0
   8528a:	e6d0      	b.n	8502e <_vfiprintf_r+0x282>
   8528c:	f01a 0f20 	tst.w	sl, #32
   85290:	9004      	str	r0, [sp, #16]
   85292:	46ac      	mov	ip, r5
   85294:	f88d 1047 	strb.w	r1, [sp, #71]	; 0x47
   85298:	f47f af38 	bne.w	8510c <_vfiprintf_r+0x360>
   8529c:	f01a 0f10 	tst.w	sl, #16
   852a0:	f040 82a7 	bne.w	857f2 <_vfiprintf_r+0xa46>
   852a4:	f01a 0f40 	tst.w	sl, #64	; 0x40
   852a8:	f000 82a3 	beq.w	857f2 <_vfiprintf_r+0xa46>
   852ac:	f8dd b020 	ldr.w	fp, [sp, #32]
   852b0:	f9bb 4000 	ldrsh.w	r4, [fp]
   852b4:	f10b 0b04 	add.w	fp, fp, #4
   852b8:	17e5      	asrs	r5, r4, #31
   852ba:	4622      	mov	r2, r4
   852bc:	462b      	mov	r3, r5
   852be:	f8cd b020 	str.w	fp, [sp, #32]
   852c2:	e72d      	b.n	85120 <_vfiprintf_r+0x374>
   852c4:	f04a 0a40 	orr.w	sl, sl, #64	; 0x40
   852c8:	f898 3000 	ldrb.w	r3, [r8]
   852cc:	e5db      	b.n	84e86 <_vfiprintf_r+0xda>
   852ce:	f898 3000 	ldrb.w	r3, [r8]
   852d2:	4642      	mov	r2, r8
   852d4:	2b6c      	cmp	r3, #108	; 0x6c
   852d6:	bf03      	ittte	eq
   852d8:	f108 0801 	addeq.w	r8, r8, #1
   852dc:	f04a 0a20 	orreq.w	sl, sl, #32
   852e0:	7853      	ldrbeq	r3, [r2, #1]
   852e2:	f04a 0a10 	orrne.w	sl, sl, #16
   852e6:	e5ce      	b.n	84e86 <_vfiprintf_r+0xda>
   852e8:	f01a 0f20 	tst.w	sl, #32
   852ec:	f88d 1047 	strb.w	r1, [sp, #71]	; 0x47
   852f0:	f000 82f7 	beq.w	858e2 <_vfiprintf_r+0xb36>
   852f4:	9c08      	ldr	r4, [sp, #32]
   852f6:	6821      	ldr	r1, [r4, #0]
   852f8:	9c09      	ldr	r4, [sp, #36]	; 0x24
   852fa:	17e5      	asrs	r5, r4, #31
   852fc:	462b      	mov	r3, r5
   852fe:	9d08      	ldr	r5, [sp, #32]
   85300:	4622      	mov	r2, r4
   85302:	3504      	adds	r5, #4
   85304:	9508      	str	r5, [sp, #32]
   85306:	e9c1 2300 	strd	r2, r3, [r1]
   8530a:	e582      	b.n	84e12 <_vfiprintf_r+0x66>
   8530c:	9c08      	ldr	r4, [sp, #32]
   8530e:	46ac      	mov	ip, r5
   85310:	6827      	ldr	r7, [r4, #0]
   85312:	f04f 0500 	mov.w	r5, #0
   85316:	9004      	str	r0, [sp, #16]
   85318:	f88d 5047 	strb.w	r5, [sp, #71]	; 0x47
   8531c:	3404      	adds	r4, #4
   8531e:	2f00      	cmp	r7, #0
   85320:	f000 8332 	beq.w	85988 <_vfiprintf_r+0xbdc>
   85324:	f1bc 0f00 	cmp.w	ip, #0
   85328:	4638      	mov	r0, r7
   8532a:	f2c0 8307 	blt.w	8593c <_vfiprintf_r+0xb90>
   8532e:	4662      	mov	r2, ip
   85330:	2100      	movs	r1, #0
   85332:	f8cd c004 	str.w	ip, [sp, #4]
   85336:	f001 fbb1 	bl	86a9c <memchr>
   8533a:	f8dd c004 	ldr.w	ip, [sp, #4]
   8533e:	2800      	cmp	r0, #0
   85340:	f000 833a 	beq.w	859b8 <_vfiprintf_r+0xc0c>
   85344:	1bc0      	subs	r0, r0, r7
   85346:	f89d 5047 	ldrb.w	r5, [sp, #71]	; 0x47
   8534a:	4560      	cmp	r0, ip
   8534c:	bfa8      	it	ge
   8534e:	4660      	movge	r0, ip
   85350:	9005      	str	r0, [sp, #20]
   85352:	9408      	str	r4, [sp, #32]
   85354:	9507      	str	r5, [sp, #28]
   85356:	f04f 0c00 	mov.w	ip, #0
   8535a:	e65b      	b.n	85014 <_vfiprintf_r+0x268>
   8535c:	00087b88 	.word	0x00087b88
   85360:	00087b48 	.word	0x00087b48
   85364:	9b08      	ldr	r3, [sp, #32]
   85366:	f8dd b020 	ldr.w	fp, [sp, #32]
   8536a:	9004      	str	r0, [sp, #16]
   8536c:	48b2      	ldr	r0, [pc, #712]	; (85638 <_vfiprintf_r+0x88c>)
   8536e:	681c      	ldr	r4, [r3, #0]
   85370:	2230      	movs	r2, #48	; 0x30
   85372:	2378      	movs	r3, #120	; 0x78
   85374:	f10b 0b04 	add.w	fp, fp, #4
   85378:	46ac      	mov	ip, r5
   8537a:	f88d 3049 	strb.w	r3, [sp, #73]	; 0x49
   8537e:	f04a 0a02 	orr.w	sl, sl, #2
   85382:	f8cd b020 	str.w	fp, [sp, #32]
   85386:	2500      	movs	r5, #0
   85388:	f88d 2048 	strb.w	r2, [sp, #72]	; 0x48
   8538c:	900a      	str	r0, [sp, #40]	; 0x28
   8538e:	2302      	movs	r3, #2
   85390:	e61d      	b.n	84fce <_vfiprintf_r+0x222>
   85392:	f04a 0a20 	orr.w	sl, sl, #32
   85396:	f898 3000 	ldrb.w	r3, [r8]
   8539a:	e574      	b.n	84e86 <_vfiprintf_r+0xda>
   8539c:	f8dd b020 	ldr.w	fp, [sp, #32]
   853a0:	f8db 0000 	ldr.w	r0, [fp]
   853a4:	f10b 0304 	add.w	r3, fp, #4
   853a8:	2800      	cmp	r0, #0
   853aa:	f6ff adf7 	blt.w	84f9c <_vfiprintf_r+0x1f0>
   853ae:	9308      	str	r3, [sp, #32]
   853b0:	f898 3000 	ldrb.w	r3, [r8]
   853b4:	e567      	b.n	84e86 <_vfiprintf_r+0xda>
   853b6:	f898 3000 	ldrb.w	r3, [r8]
   853ba:	212b      	movs	r1, #43	; 0x2b
   853bc:	e563      	b.n	84e86 <_vfiprintf_r+0xda>
   853be:	f898 3000 	ldrb.w	r3, [r8]
   853c2:	f108 0401 	add.w	r4, r8, #1
   853c6:	2b2a      	cmp	r3, #42	; 0x2a
   853c8:	f000 8305 	beq.w	859d6 <_vfiprintf_r+0xc2a>
   853cc:	f1a3 0230 	sub.w	r2, r3, #48	; 0x30
   853d0:	2a09      	cmp	r2, #9
   853d2:	bf98      	it	ls
   853d4:	2500      	movls	r5, #0
   853d6:	f200 82fa 	bhi.w	859ce <_vfiprintf_r+0xc22>
   853da:	f814 3b01 	ldrb.w	r3, [r4], #1
   853de:	eb05 0585 	add.w	r5, r5, r5, lsl #2
   853e2:	eb02 0545 	add.w	r5, r2, r5, lsl #1
   853e6:	f1a3 0230 	sub.w	r2, r3, #48	; 0x30
   853ea:	2a09      	cmp	r2, #9
   853ec:	d9f5      	bls.n	853da <_vfiprintf_r+0x62e>
   853ee:	ea45 75e5 	orr.w	r5, r5, r5, asr #31
   853f2:	46a0      	mov	r8, r4
   853f4:	e549      	b.n	84e8a <_vfiprintf_r+0xde>
   853f6:	4c90      	ldr	r4, [pc, #576]	; (85638 <_vfiprintf_r+0x88c>)
   853f8:	f01a 0f20 	tst.w	sl, #32
   853fc:	9004      	str	r0, [sp, #16]
   853fe:	46ac      	mov	ip, r5
   85400:	940a      	str	r4, [sp, #40]	; 0x28
   85402:	f88d 1047 	strb.w	r1, [sp, #71]	; 0x47
   85406:	f47f af10 	bne.w	8522a <_vfiprintf_r+0x47e>
   8540a:	f01a 0f10 	tst.w	sl, #16
   8540e:	f040 81ea 	bne.w	857e6 <_vfiprintf_r+0xa3a>
   85412:	f01a 0f40 	tst.w	sl, #64	; 0x40
   85416:	f000 81e6 	beq.w	857e6 <_vfiprintf_r+0xa3a>
   8541a:	f8dd b020 	ldr.w	fp, [sp, #32]
   8541e:	2500      	movs	r5, #0
   85420:	f8bb 4000 	ldrh.w	r4, [fp]
   85424:	f10b 0b04 	add.w	fp, fp, #4
   85428:	f8cd b020 	str.w	fp, [sp, #32]
   8542c:	e707      	b.n	8523e <_vfiprintf_r+0x492>
   8542e:	f898 3000 	ldrb.w	r3, [r8]
   85432:	2900      	cmp	r1, #0
   85434:	f47f ad27 	bne.w	84e86 <_vfiprintf_r+0xda>
   85438:	2120      	movs	r1, #32
   8543a:	e524      	b.n	84e86 <_vfiprintf_r+0xda>
   8543c:	f04a 0a01 	orr.w	sl, sl, #1
   85440:	f898 3000 	ldrb.w	r3, [r8]
   85444:	e51f      	b.n	84e86 <_vfiprintf_r+0xda>
   85446:	9004      	str	r0, [sp, #16]
   85448:	f88d 1047 	strb.w	r1, [sp, #71]	; 0x47
   8544c:	2b00      	cmp	r3, #0
   8544e:	f000 80f9 	beq.w	85644 <_vfiprintf_r+0x898>
   85452:	2501      	movs	r5, #1
   85454:	f04f 0b00 	mov.w	fp, #0
   85458:	9503      	str	r5, [sp, #12]
   8545a:	f88d 3058 	strb.w	r3, [sp, #88]	; 0x58
   8545e:	f88d b047 	strb.w	fp, [sp, #71]	; 0x47
   85462:	9505      	str	r5, [sp, #20]
   85464:	af16      	add	r7, sp, #88	; 0x58
   85466:	e70e      	b.n	85286 <_vfiprintf_r+0x4da>
   85468:	9806      	ldr	r0, [sp, #24]
   8546a:	9902      	ldr	r1, [sp, #8]
   8546c:	aa13      	add	r2, sp, #76	; 0x4c
   8546e:	f7ff fc61 	bl	84d34 <__sprint_r.part.0>
   85472:	2800      	cmp	r0, #0
   85474:	f040 80ed 	bne.w	85652 <_vfiprintf_r+0x8a6>
   85478:	9814      	ldr	r0, [sp, #80]	; 0x50
   8547a:	9a15      	ldr	r2, [sp, #84]	; 0x54
   8547c:	1c43      	adds	r3, r0, #1
   8547e:	46cc      	mov	ip, r9
   85480:	e5fe      	b.n	85080 <_vfiprintf_r+0x2d4>
   85482:	9b14      	ldr	r3, [sp, #80]	; 0x50
   85484:	9a15      	ldr	r2, [sp, #84]	; 0x54
   85486:	1c59      	adds	r1, r3, #1
   85488:	f89d 0047 	ldrb.w	r0, [sp, #71]	; 0x47
   8548c:	b168      	cbz	r0, 854aa <_vfiprintf_r+0x6fe>
   8548e:	3201      	adds	r2, #1
   85490:	f10d 0047 	add.w	r0, sp, #71	; 0x47
   85494:	2301      	movs	r3, #1
   85496:	2907      	cmp	r1, #7
   85498:	9215      	str	r2, [sp, #84]	; 0x54
   8549a:	9114      	str	r1, [sp, #80]	; 0x50
   8549c:	e886 0009 	stmia.w	r6, {r0, r3}
   854a0:	f300 8160 	bgt.w	85764 <_vfiprintf_r+0x9b8>
   854a4:	460b      	mov	r3, r1
   854a6:	3608      	adds	r6, #8
   854a8:	3101      	adds	r1, #1
   854aa:	9c07      	ldr	r4, [sp, #28]
   854ac:	b164      	cbz	r4, 854c8 <_vfiprintf_r+0x71c>
   854ae:	3202      	adds	r2, #2
   854b0:	a812      	add	r0, sp, #72	; 0x48
   854b2:	2302      	movs	r3, #2
   854b4:	2907      	cmp	r1, #7
   854b6:	9215      	str	r2, [sp, #84]	; 0x54
   854b8:	9114      	str	r1, [sp, #80]	; 0x50
   854ba:	e886 0009 	stmia.w	r6, {r0, r3}
   854be:	f300 8157 	bgt.w	85770 <_vfiprintf_r+0x9c4>
   854c2:	460b      	mov	r3, r1
   854c4:	3608      	adds	r6, #8
   854c6:	3101      	adds	r1, #1
   854c8:	9d0b      	ldr	r5, [sp, #44]	; 0x2c
   854ca:	2d80      	cmp	r5, #128	; 0x80
   854cc:	f000 8101 	beq.w	856d2 <_vfiprintf_r+0x926>
   854d0:	9d05      	ldr	r5, [sp, #20]
   854d2:	ebc5 040c 	rsb	r4, r5, ip
   854d6:	2c00      	cmp	r4, #0
   854d8:	dd2f      	ble.n	8553a <_vfiprintf_r+0x78e>
   854da:	2c10      	cmp	r4, #16
   854dc:	4d57      	ldr	r5, [pc, #348]	; (8563c <_vfiprintf_r+0x890>)
   854de:	dd22      	ble.n	85526 <_vfiprintf_r+0x77a>
   854e0:	4630      	mov	r0, r6
   854e2:	f04f 0b10 	mov.w	fp, #16
   854e6:	462e      	mov	r6, r5
   854e8:	4625      	mov	r5, r4
   854ea:	9c06      	ldr	r4, [sp, #24]
   854ec:	e006      	b.n	854fc <_vfiprintf_r+0x750>
   854ee:	f103 0c02 	add.w	ip, r3, #2
   854f2:	3008      	adds	r0, #8
   854f4:	460b      	mov	r3, r1
   854f6:	3d10      	subs	r5, #16
   854f8:	2d10      	cmp	r5, #16
   854fa:	dd10      	ble.n	8551e <_vfiprintf_r+0x772>
   854fc:	1c59      	adds	r1, r3, #1
   854fe:	3210      	adds	r2, #16
   85500:	2907      	cmp	r1, #7
   85502:	9215      	str	r2, [sp, #84]	; 0x54
   85504:	e880 0840 	stmia.w	r0, {r6, fp}
   85508:	9114      	str	r1, [sp, #80]	; 0x50
   8550a:	ddf0      	ble.n	854ee <_vfiprintf_r+0x742>
   8550c:	2a00      	cmp	r2, #0
   8550e:	d163      	bne.n	855d8 <_vfiprintf_r+0x82c>
   85510:	3d10      	subs	r5, #16
   85512:	2d10      	cmp	r5, #16
   85514:	f04f 0c01 	mov.w	ip, #1
   85518:	4613      	mov	r3, r2
   8551a:	4648      	mov	r0, r9
   8551c:	dcee      	bgt.n	854fc <_vfiprintf_r+0x750>
   8551e:	462c      	mov	r4, r5
   85520:	4661      	mov	r1, ip
   85522:	4635      	mov	r5, r6
   85524:	4606      	mov	r6, r0
   85526:	4422      	add	r2, r4
   85528:	2907      	cmp	r1, #7
   8552a:	9215      	str	r2, [sp, #84]	; 0x54
   8552c:	6035      	str	r5, [r6, #0]
   8552e:	6074      	str	r4, [r6, #4]
   85530:	9114      	str	r1, [sp, #80]	; 0x50
   85532:	f300 80c1 	bgt.w	856b8 <_vfiprintf_r+0x90c>
   85536:	3608      	adds	r6, #8
   85538:	3101      	adds	r1, #1
   8553a:	9d05      	ldr	r5, [sp, #20]
   8553c:	2907      	cmp	r1, #7
   8553e:	442a      	add	r2, r5
   85540:	9215      	str	r2, [sp, #84]	; 0x54
   85542:	6037      	str	r7, [r6, #0]
   85544:	6075      	str	r5, [r6, #4]
   85546:	9114      	str	r1, [sp, #80]	; 0x50
   85548:	f340 80c1 	ble.w	856ce <_vfiprintf_r+0x922>
   8554c:	2a00      	cmp	r2, #0
   8554e:	f040 8130 	bne.w	857b2 <_vfiprintf_r+0xa06>
   85552:	9214      	str	r2, [sp, #80]	; 0x50
   85554:	464e      	mov	r6, r9
   85556:	f01a 0f04 	tst.w	sl, #4
   8555a:	f000 808b 	beq.w	85674 <_vfiprintf_r+0x8c8>
   8555e:	9d04      	ldr	r5, [sp, #16]
   85560:	f8dd b00c 	ldr.w	fp, [sp, #12]
   85564:	ebcb 0405 	rsb	r4, fp, r5
   85568:	2c00      	cmp	r4, #0
   8556a:	f340 8083 	ble.w	85674 <_vfiprintf_r+0x8c8>
   8556e:	2c10      	cmp	r4, #16
   85570:	f340 821e 	ble.w	859b0 <_vfiprintf_r+0xc04>
   85574:	9914      	ldr	r1, [sp, #80]	; 0x50
   85576:	4d32      	ldr	r5, [pc, #200]	; (85640 <_vfiprintf_r+0x894>)
   85578:	2710      	movs	r7, #16
   8557a:	f8dd a018 	ldr.w	sl, [sp, #24]
   8557e:	f8dd b008 	ldr.w	fp, [sp, #8]
   85582:	e005      	b.n	85590 <_vfiprintf_r+0x7e4>
   85584:	1c88      	adds	r0, r1, #2
   85586:	3608      	adds	r6, #8
   85588:	4619      	mov	r1, r3
   8558a:	3c10      	subs	r4, #16
   8558c:	2c10      	cmp	r4, #16
   8558e:	dd10      	ble.n	855b2 <_vfiprintf_r+0x806>
   85590:	1c4b      	adds	r3, r1, #1
   85592:	3210      	adds	r2, #16
   85594:	2b07      	cmp	r3, #7
   85596:	9215      	str	r2, [sp, #84]	; 0x54
   85598:	e886 00a0 	stmia.w	r6, {r5, r7}
   8559c:	9314      	str	r3, [sp, #80]	; 0x50
   8559e:	ddf1      	ble.n	85584 <_vfiprintf_r+0x7d8>
   855a0:	2a00      	cmp	r2, #0
   855a2:	d17d      	bne.n	856a0 <_vfiprintf_r+0x8f4>
   855a4:	3c10      	subs	r4, #16
   855a6:	2c10      	cmp	r4, #16
   855a8:	f04f 0001 	mov.w	r0, #1
   855ac:	4611      	mov	r1, r2
   855ae:	464e      	mov	r6, r9
   855b0:	dcee      	bgt.n	85590 <_vfiprintf_r+0x7e4>
   855b2:	4422      	add	r2, r4
   855b4:	2807      	cmp	r0, #7
   855b6:	9215      	str	r2, [sp, #84]	; 0x54
   855b8:	6035      	str	r5, [r6, #0]
   855ba:	6074      	str	r4, [r6, #4]
   855bc:	9014      	str	r0, [sp, #80]	; 0x50
   855be:	dd59      	ble.n	85674 <_vfiprintf_r+0x8c8>
   855c0:	2a00      	cmp	r2, #0
   855c2:	d14f      	bne.n	85664 <_vfiprintf_r+0x8b8>
   855c4:	9c09      	ldr	r4, [sp, #36]	; 0x24
   855c6:	f8dd b00c 	ldr.w	fp, [sp, #12]
   855ca:	9d04      	ldr	r5, [sp, #16]
   855cc:	45ab      	cmp	fp, r5
   855ce:	bfac      	ite	ge
   855d0:	445c      	addge	r4, fp
   855d2:	1964      	addlt	r4, r4, r5
   855d4:	9409      	str	r4, [sp, #36]	; 0x24
   855d6:	e05e      	b.n	85696 <_vfiprintf_r+0x8ea>
   855d8:	4620      	mov	r0, r4
   855da:	9902      	ldr	r1, [sp, #8]
   855dc:	aa13      	add	r2, sp, #76	; 0x4c
   855de:	f7ff fba9 	bl	84d34 <__sprint_r.part.0>
   855e2:	2800      	cmp	r0, #0
   855e4:	d135      	bne.n	85652 <_vfiprintf_r+0x8a6>
   855e6:	9b14      	ldr	r3, [sp, #80]	; 0x50
   855e8:	9a15      	ldr	r2, [sp, #84]	; 0x54
   855ea:	f103 0c01 	add.w	ip, r3, #1
   855ee:	4648      	mov	r0, r9
   855f0:	e781      	b.n	854f6 <_vfiprintf_r+0x74a>
   855f2:	08e0      	lsrs	r0, r4, #3
   855f4:	ea40 7045 	orr.w	r0, r0, r5, lsl #29
   855f8:	f004 0207 	and.w	r2, r4, #7
   855fc:	08e9      	lsrs	r1, r5, #3
   855fe:	3230      	adds	r2, #48	; 0x30
   85600:	ea50 0b01 	orrs.w	fp, r0, r1
   85604:	461f      	mov	r7, r3
   85606:	701a      	strb	r2, [r3, #0]
   85608:	4604      	mov	r4, r0
   8560a:	460d      	mov	r5, r1
   8560c:	f103 33ff 	add.w	r3, r3, #4294967295
   85610:	d1ef      	bne.n	855f2 <_vfiprintf_r+0x846>
   85612:	f01a 0f01 	tst.w	sl, #1
   85616:	e9cd 010c 	strd	r0, r1, [sp, #48]	; 0x30
   8561a:	4639      	mov	r1, r7
   8561c:	f000 80b9 	beq.w	85792 <_vfiprintf_r+0x9e6>
   85620:	2a30      	cmp	r2, #48	; 0x30
   85622:	f43f acf4 	beq.w	8500e <_vfiprintf_r+0x262>
   85626:	461f      	mov	r7, r3
   85628:	ebc7 0509 	rsb	r5, r7, r9
   8562c:	2330      	movs	r3, #48	; 0x30
   8562e:	9505      	str	r5, [sp, #20]
   85630:	f801 3c01 	strb.w	r3, [r1, #-1]
   85634:	e4ee      	b.n	85014 <_vfiprintf_r+0x268>
   85636:	bf00      	nop
   85638:	00087b5c 	.word	0x00087b5c
   8563c:	00087b78 	.word	0x00087b78
   85640:	00087b88 	.word	0x00087b88
   85644:	9b15      	ldr	r3, [sp, #84]	; 0x54
   85646:	b123      	cbz	r3, 85652 <_vfiprintf_r+0x8a6>
   85648:	9806      	ldr	r0, [sp, #24]
   8564a:	9902      	ldr	r1, [sp, #8]
   8564c:	aa13      	add	r2, sp, #76	; 0x4c
   8564e:	f7ff fb71 	bl	84d34 <__sprint_r.part.0>
   85652:	9c02      	ldr	r4, [sp, #8]
   85654:	89a3      	ldrh	r3, [r4, #12]
   85656:	065b      	lsls	r3, r3, #25
   85658:	f53f ac98 	bmi.w	84f8c <_vfiprintf_r+0x1e0>
   8565c:	9809      	ldr	r0, [sp, #36]	; 0x24
   8565e:	b031      	add	sp, #196	; 0xc4
   85660:	e8bd 8ff0 	ldmia.w	sp!, {r4, r5, r6, r7, r8, r9, sl, fp, pc}
   85664:	9806      	ldr	r0, [sp, #24]
   85666:	9902      	ldr	r1, [sp, #8]
   85668:	aa13      	add	r2, sp, #76	; 0x4c
   8566a:	f7ff fb63 	bl	84d34 <__sprint_r.part.0>
   8566e:	2800      	cmp	r0, #0
   85670:	d1ef      	bne.n	85652 <_vfiprintf_r+0x8a6>
   85672:	9a15      	ldr	r2, [sp, #84]	; 0x54
   85674:	9c09      	ldr	r4, [sp, #36]	; 0x24
   85676:	f8dd b00c 	ldr.w	fp, [sp, #12]
   8567a:	9d04      	ldr	r5, [sp, #16]
   8567c:	45ab      	cmp	fp, r5
   8567e:	bfac      	ite	ge
   85680:	445c      	addge	r4, fp
   85682:	1964      	addlt	r4, r4, r5
   85684:	9409      	str	r4, [sp, #36]	; 0x24
   85686:	b132      	cbz	r2, 85696 <_vfiprintf_r+0x8ea>
   85688:	9806      	ldr	r0, [sp, #24]
   8568a:	9902      	ldr	r1, [sp, #8]
   8568c:	aa13      	add	r2, sp, #76	; 0x4c
   8568e:	f7ff fb51 	bl	84d34 <__sprint_r.part.0>
   85692:	2800      	cmp	r0, #0
   85694:	d1dd      	bne.n	85652 <_vfiprintf_r+0x8a6>
   85696:	2000      	movs	r0, #0
   85698:	9014      	str	r0, [sp, #80]	; 0x50
   8569a:	464e      	mov	r6, r9
   8569c:	f7ff bbb9 	b.w	84e12 <_vfiprintf_r+0x66>
   856a0:	4650      	mov	r0, sl
   856a2:	4659      	mov	r1, fp
   856a4:	aa13      	add	r2, sp, #76	; 0x4c
   856a6:	f7ff fb45 	bl	84d34 <__sprint_r.part.0>
   856aa:	2800      	cmp	r0, #0
   856ac:	d1d1      	bne.n	85652 <_vfiprintf_r+0x8a6>
   856ae:	9914      	ldr	r1, [sp, #80]	; 0x50
   856b0:	9a15      	ldr	r2, [sp, #84]	; 0x54
   856b2:	1c48      	adds	r0, r1, #1
   856b4:	464e      	mov	r6, r9
   856b6:	e768      	b.n	8558a <_vfiprintf_r+0x7de>
   856b8:	2a00      	cmp	r2, #0
   856ba:	f040 80f7 	bne.w	858ac <_vfiprintf_r+0xb00>
   856be:	9c05      	ldr	r4, [sp, #20]
   856c0:	2301      	movs	r3, #1
   856c2:	9720      	str	r7, [sp, #128]	; 0x80
   856c4:	9421      	str	r4, [sp, #132]	; 0x84
   856c6:	9415      	str	r4, [sp, #84]	; 0x54
   856c8:	4622      	mov	r2, r4
   856ca:	9314      	str	r3, [sp, #80]	; 0x50
   856cc:	464e      	mov	r6, r9
   856ce:	3608      	adds	r6, #8
   856d0:	e741      	b.n	85556 <_vfiprintf_r+0x7aa>
   856d2:	9d04      	ldr	r5, [sp, #16]
   856d4:	f8dd b00c 	ldr.w	fp, [sp, #12]
   856d8:	ebcb 0405 	rsb	r4, fp, r5
   856dc:	2c00      	cmp	r4, #0
   856de:	f77f aef7 	ble.w	854d0 <_vfiprintf_r+0x724>
   856e2:	2c10      	cmp	r4, #16
   856e4:	4da6      	ldr	r5, [pc, #664]	; (85980 <_vfiprintf_r+0xbd4>)
   856e6:	f340 8170 	ble.w	859ca <_vfiprintf_r+0xc1e>
   856ea:	4629      	mov	r1, r5
   856ec:	f04f 0b10 	mov.w	fp, #16
   856f0:	4625      	mov	r5, r4
   856f2:	4664      	mov	r4, ip
   856f4:	46b4      	mov	ip, r6
   856f6:	460e      	mov	r6, r1
   856f8:	e006      	b.n	85708 <_vfiprintf_r+0x95c>
   856fa:	1c98      	adds	r0, r3, #2
   856fc:	f10c 0c08 	add.w	ip, ip, #8
   85700:	460b      	mov	r3, r1
   85702:	3d10      	subs	r5, #16
   85704:	2d10      	cmp	r5, #16
   85706:	dd0f      	ble.n	85728 <_vfiprintf_r+0x97c>
   85708:	1c59      	adds	r1, r3, #1
   8570a:	3210      	adds	r2, #16
   8570c:	2907      	cmp	r1, #7
   8570e:	9215      	str	r2, [sp, #84]	; 0x54
   85710:	e88c 0840 	stmia.w	ip, {r6, fp}
   85714:	9114      	str	r1, [sp, #80]	; 0x50
   85716:	ddf0      	ble.n	856fa <_vfiprintf_r+0x94e>
   85718:	b9ba      	cbnz	r2, 8574a <_vfiprintf_r+0x99e>
   8571a:	3d10      	subs	r5, #16
   8571c:	2d10      	cmp	r5, #16
   8571e:	f04f 0001 	mov.w	r0, #1
   85722:	4613      	mov	r3, r2
   85724:	46cc      	mov	ip, r9
   85726:	dcef      	bgt.n	85708 <_vfiprintf_r+0x95c>
   85728:	4633      	mov	r3, r6
   8572a:	4666      	mov	r6, ip
   8572c:	46a4      	mov	ip, r4
   8572e:	462c      	mov	r4, r5
   85730:	461d      	mov	r5, r3
   85732:	4422      	add	r2, r4
   85734:	2807      	cmp	r0, #7
   85736:	9215      	str	r2, [sp, #84]	; 0x54
   85738:	6035      	str	r5, [r6, #0]
   8573a:	6074      	str	r4, [r6, #4]
   8573c:	9014      	str	r0, [sp, #80]	; 0x50
   8573e:	f300 80af 	bgt.w	858a0 <_vfiprintf_r+0xaf4>
   85742:	3608      	adds	r6, #8
   85744:	1c41      	adds	r1, r0, #1
   85746:	4603      	mov	r3, r0
   85748:	e6c2      	b.n	854d0 <_vfiprintf_r+0x724>
   8574a:	9806      	ldr	r0, [sp, #24]
   8574c:	9902      	ldr	r1, [sp, #8]
   8574e:	aa13      	add	r2, sp, #76	; 0x4c
   85750:	f7ff faf0 	bl	84d34 <__sprint_r.part.0>
   85754:	2800      	cmp	r0, #0
   85756:	f47f af7c 	bne.w	85652 <_vfiprintf_r+0x8a6>
   8575a:	9b14      	ldr	r3, [sp, #80]	; 0x50
   8575c:	9a15      	ldr	r2, [sp, #84]	; 0x54
   8575e:	1c58      	adds	r0, r3, #1
   85760:	46cc      	mov	ip, r9
   85762:	e7ce      	b.n	85702 <_vfiprintf_r+0x956>
   85764:	2a00      	cmp	r2, #0
   85766:	d179      	bne.n	8585c <_vfiprintf_r+0xab0>
   85768:	4619      	mov	r1, r3
   8576a:	464e      	mov	r6, r9
   8576c:	4613      	mov	r3, r2
   8576e:	e69c      	b.n	854aa <_vfiprintf_r+0x6fe>
   85770:	2a00      	cmp	r2, #0
   85772:	f040 8084 	bne.w	8587e <_vfiprintf_r+0xad2>
   85776:	2101      	movs	r1, #1
   85778:	4613      	mov	r3, r2
   8577a:	464e      	mov	r6, r9
   8577c:	e6a4      	b.n	854c8 <_vfiprintf_r+0x71c>
   8577e:	464f      	mov	r7, r9
   85780:	e448      	b.n	85014 <_vfiprintf_r+0x268>
   85782:	2d00      	cmp	r5, #0
   85784:	bf08      	it	eq
   85786:	2c0a      	cmpeq	r4, #10
   85788:	d246      	bcs.n	85818 <_vfiprintf_r+0xa6c>
   8578a:	3430      	adds	r4, #48	; 0x30
   8578c:	af30      	add	r7, sp, #192	; 0xc0
   8578e:	f807 4d41 	strb.w	r4, [r7, #-65]!
   85792:	ebc7 0309 	rsb	r3, r7, r9
   85796:	9305      	str	r3, [sp, #20]
   85798:	e43c      	b.n	85014 <_vfiprintf_r+0x268>
   8579a:	2302      	movs	r3, #2
   8579c:	e417      	b.n	84fce <_vfiprintf_r+0x222>
   8579e:	2a00      	cmp	r2, #0
   857a0:	f040 80af 	bne.w	85902 <_vfiprintf_r+0xb56>
   857a4:	4613      	mov	r3, r2
   857a6:	2101      	movs	r1, #1
   857a8:	464e      	mov	r6, r9
   857aa:	e66d      	b.n	85488 <_vfiprintf_r+0x6dc>
   857ac:	4644      	mov	r4, r8
   857ae:	f7ff bb58 	b.w	84e62 <_vfiprintf_r+0xb6>
   857b2:	9806      	ldr	r0, [sp, #24]
   857b4:	9902      	ldr	r1, [sp, #8]
   857b6:	aa13      	add	r2, sp, #76	; 0x4c
   857b8:	f7ff fabc 	bl	84d34 <__sprint_r.part.0>
   857bc:	2800      	cmp	r0, #0
   857be:	f47f af48 	bne.w	85652 <_vfiprintf_r+0x8a6>
   857c2:	9a15      	ldr	r2, [sp, #84]	; 0x54
   857c4:	464e      	mov	r6, r9
   857c6:	e6c6      	b.n	85556 <_vfiprintf_r+0x7aa>
   857c8:	9d08      	ldr	r5, [sp, #32]
   857ca:	682c      	ldr	r4, [r5, #0]
   857cc:	3504      	adds	r5, #4
   857ce:	9508      	str	r5, [sp, #32]
   857d0:	2500      	movs	r5, #0
   857d2:	f7ff bbfc 	b.w	84fce <_vfiprintf_r+0x222>
   857d6:	9d08      	ldr	r5, [sp, #32]
   857d8:	2301      	movs	r3, #1
   857da:	682c      	ldr	r4, [r5, #0]
   857dc:	3504      	adds	r5, #4
   857de:	9508      	str	r5, [sp, #32]
   857e0:	2500      	movs	r5, #0
   857e2:	f7ff bbf4 	b.w	84fce <_vfiprintf_r+0x222>
   857e6:	9d08      	ldr	r5, [sp, #32]
   857e8:	682c      	ldr	r4, [r5, #0]
   857ea:	3504      	adds	r5, #4
   857ec:	9508      	str	r5, [sp, #32]
   857ee:	2500      	movs	r5, #0
   857f0:	e525      	b.n	8523e <_vfiprintf_r+0x492>
   857f2:	9d08      	ldr	r5, [sp, #32]
   857f4:	682c      	ldr	r4, [r5, #0]
   857f6:	3504      	adds	r5, #4
   857f8:	9508      	str	r5, [sp, #32]
   857fa:	17e5      	asrs	r5, r4, #31
   857fc:	4622      	mov	r2, r4
   857fe:	462b      	mov	r3, r5
   85800:	e48e      	b.n	85120 <_vfiprintf_r+0x374>
   85802:	9806      	ldr	r0, [sp, #24]
   85804:	9902      	ldr	r1, [sp, #8]
   85806:	aa13      	add	r2, sp, #76	; 0x4c
   85808:	f7ff fa94 	bl	84d34 <__sprint_r.part.0>
   8580c:	2800      	cmp	r0, #0
   8580e:	f47f af20 	bne.w	85652 <_vfiprintf_r+0x8a6>
   85812:	464e      	mov	r6, r9
   85814:	f7ff bb9a 	b.w	84f4c <_vfiprintf_r+0x1a0>
   85818:	f10d 0b7f 	add.w	fp, sp, #127	; 0x7f
   8581c:	9603      	str	r6, [sp, #12]
   8581e:	465e      	mov	r6, fp
   85820:	46e3      	mov	fp, ip
   85822:	4620      	mov	r0, r4
   85824:	4629      	mov	r1, r5
   85826:	220a      	movs	r2, #10
   85828:	2300      	movs	r3, #0
   8582a:	f001 fdb9 	bl	873a0 <__aeabi_uldivmod>
   8582e:	3230      	adds	r2, #48	; 0x30
   85830:	7032      	strb	r2, [r6, #0]
   85832:	4620      	mov	r0, r4
   85834:	4629      	mov	r1, r5
   85836:	220a      	movs	r2, #10
   85838:	2300      	movs	r3, #0
   8583a:	f001 fdb1 	bl	873a0 <__aeabi_uldivmod>
   8583e:	4604      	mov	r4, r0
   85840:	460d      	mov	r5, r1
   85842:	ea54 0005 	orrs.w	r0, r4, r5
   85846:	4637      	mov	r7, r6
   85848:	f106 36ff 	add.w	r6, r6, #4294967295
   8584c:	d1e9      	bne.n	85822 <_vfiprintf_r+0xa76>
   8584e:	ebc7 0309 	rsb	r3, r7, r9
   85852:	46dc      	mov	ip, fp
   85854:	9e03      	ldr	r6, [sp, #12]
   85856:	9305      	str	r3, [sp, #20]
   85858:	f7ff bbdc 	b.w	85014 <_vfiprintf_r+0x268>
   8585c:	9806      	ldr	r0, [sp, #24]
   8585e:	9902      	ldr	r1, [sp, #8]
   85860:	aa13      	add	r2, sp, #76	; 0x4c
   85862:	f8cd c004 	str.w	ip, [sp, #4]
   85866:	f7ff fa65 	bl	84d34 <__sprint_r.part.0>
   8586a:	f8dd c004 	ldr.w	ip, [sp, #4]
   8586e:	2800      	cmp	r0, #0
   85870:	f47f aeef 	bne.w	85652 <_vfiprintf_r+0x8a6>
   85874:	9b14      	ldr	r3, [sp, #80]	; 0x50
   85876:	9a15      	ldr	r2, [sp, #84]	; 0x54
   85878:	1c59      	adds	r1, r3, #1
   8587a:	464e      	mov	r6, r9
   8587c:	e615      	b.n	854aa <_vfiprintf_r+0x6fe>
   8587e:	9806      	ldr	r0, [sp, #24]
   85880:	9902      	ldr	r1, [sp, #8]
   85882:	aa13      	add	r2, sp, #76	; 0x4c
   85884:	f8cd c004 	str.w	ip, [sp, #4]
   85888:	f7ff fa54 	bl	84d34 <__sprint_r.part.0>
   8588c:	f8dd c004 	ldr.w	ip, [sp, #4]
   85890:	2800      	cmp	r0, #0
   85892:	f47f aede 	bne.w	85652 <_vfiprintf_r+0x8a6>
   85896:	9b14      	ldr	r3, [sp, #80]	; 0x50
   85898:	9a15      	ldr	r2, [sp, #84]	; 0x54
   8589a:	1c59      	adds	r1, r3, #1
   8589c:	464e      	mov	r6, r9
   8589e:	e613      	b.n	854c8 <_vfiprintf_r+0x71c>
   858a0:	2a00      	cmp	r2, #0
   858a2:	d156      	bne.n	85952 <_vfiprintf_r+0xba6>
   858a4:	2101      	movs	r1, #1
   858a6:	4613      	mov	r3, r2
   858a8:	464e      	mov	r6, r9
   858aa:	e611      	b.n	854d0 <_vfiprintf_r+0x724>
   858ac:	9806      	ldr	r0, [sp, #24]
   858ae:	9902      	ldr	r1, [sp, #8]
   858b0:	aa13      	add	r2, sp, #76	; 0x4c
   858b2:	f7ff fa3f 	bl	84d34 <__sprint_r.part.0>
   858b6:	2800      	cmp	r0, #0
   858b8:	f47f aecb 	bne.w	85652 <_vfiprintf_r+0x8a6>
   858bc:	9914      	ldr	r1, [sp, #80]	; 0x50
   858be:	9a15      	ldr	r2, [sp, #84]	; 0x54
   858c0:	3101      	adds	r1, #1
   858c2:	464e      	mov	r6, r9
   858c4:	e639      	b.n	8553a <_vfiprintf_r+0x78e>
   858c6:	f04f 0b2d 	mov.w	fp, #45	; 0x2d
   858ca:	4264      	negs	r4, r4
   858cc:	eb65 0545 	sbc.w	r5, r5, r5, lsl #1
   858d0:	f88d b047 	strb.w	fp, [sp, #71]	; 0x47
   858d4:	f8cd b01c 	str.w	fp, [sp, #28]
   858d8:	f8cd c014 	str.w	ip, [sp, #20]
   858dc:	2301      	movs	r3, #1
   858de:	f7ff bb7e 	b.w	84fde <_vfiprintf_r+0x232>
   858e2:	f01a 0f10 	tst.w	sl, #16
   858e6:	d11d      	bne.n	85924 <_vfiprintf_r+0xb78>
   858e8:	f01a 0f40 	tst.w	sl, #64	; 0x40
   858ec:	d058      	beq.n	859a0 <_vfiprintf_r+0xbf4>
   858ee:	9d08      	ldr	r5, [sp, #32]
   858f0:	f8dd b024 	ldr.w	fp, [sp, #36]	; 0x24
   858f4:	682b      	ldr	r3, [r5, #0]
   858f6:	3504      	adds	r5, #4
   858f8:	9508      	str	r5, [sp, #32]
   858fa:	f8a3 b000 	strh.w	fp, [r3]
   858fe:	f7ff ba88 	b.w	84e12 <_vfiprintf_r+0x66>
   85902:	9806      	ldr	r0, [sp, #24]
   85904:	9902      	ldr	r1, [sp, #8]
   85906:	aa13      	add	r2, sp, #76	; 0x4c
   85908:	f8cd c004 	str.w	ip, [sp, #4]
   8590c:	f7ff fa12 	bl	84d34 <__sprint_r.part.0>
   85910:	f8dd c004 	ldr.w	ip, [sp, #4]
   85914:	2800      	cmp	r0, #0
   85916:	f47f ae9c 	bne.w	85652 <_vfiprintf_r+0x8a6>
   8591a:	9b14      	ldr	r3, [sp, #80]	; 0x50
   8591c:	9a15      	ldr	r2, [sp, #84]	; 0x54
   8591e:	1c59      	adds	r1, r3, #1
   85920:	464e      	mov	r6, r9
   85922:	e5b1      	b.n	85488 <_vfiprintf_r+0x6dc>
   85924:	f8dd b020 	ldr.w	fp, [sp, #32]
   85928:	9c09      	ldr	r4, [sp, #36]	; 0x24
   8592a:	f8db 3000 	ldr.w	r3, [fp]
   8592e:	f10b 0b04 	add.w	fp, fp, #4
   85932:	f8cd b020 	str.w	fp, [sp, #32]
   85936:	601c      	str	r4, [r3, #0]
   85938:	f7ff ba6b 	b.w	84e12 <_vfiprintf_r+0x66>
   8593c:	9408      	str	r4, [sp, #32]
   8593e:	f7ff f997 	bl	84c70 <strlen>
   85942:	f89d 4047 	ldrb.w	r4, [sp, #71]	; 0x47
   85946:	9005      	str	r0, [sp, #20]
   85948:	9407      	str	r4, [sp, #28]
   8594a:	f04f 0c00 	mov.w	ip, #0
   8594e:	f7ff bb61 	b.w	85014 <_vfiprintf_r+0x268>
   85952:	9806      	ldr	r0, [sp, #24]
   85954:	9902      	ldr	r1, [sp, #8]
   85956:	aa13      	add	r2, sp, #76	; 0x4c
   85958:	f8cd c004 	str.w	ip, [sp, #4]
   8595c:	f7ff f9ea 	bl	84d34 <__sprint_r.part.0>
   85960:	f8dd c004 	ldr.w	ip, [sp, #4]
   85964:	2800      	cmp	r0, #0
   85966:	f47f ae74 	bne.w	85652 <_vfiprintf_r+0x8a6>
   8596a:	9b14      	ldr	r3, [sp, #80]	; 0x50
   8596c:	9a15      	ldr	r2, [sp, #84]	; 0x54
   8596e:	1c59      	adds	r1, r3, #1
   85970:	464e      	mov	r6, r9
   85972:	e5ad      	b.n	854d0 <_vfiprintf_r+0x724>
   85974:	9b14      	ldr	r3, [sp, #80]	; 0x50
   85976:	9a15      	ldr	r2, [sp, #84]	; 0x54
   85978:	3301      	adds	r3, #1
   8597a:	4d02      	ldr	r5, [pc, #8]	; (85984 <_vfiprintf_r+0xbd8>)
   8597c:	f7ff bb9a 	b.w	850b4 <_vfiprintf_r+0x308>
   85980:	00087b78 	.word	0x00087b78
   85984:	00087b88 	.word	0x00087b88
   85988:	f1bc 0f06 	cmp.w	ip, #6
   8598c:	bf34      	ite	cc
   8598e:	4663      	movcc	r3, ip
   85990:	2306      	movcs	r3, #6
   85992:	9408      	str	r4, [sp, #32]
   85994:	ea23 74e3 	bic.w	r4, r3, r3, asr #31
   85998:	9305      	str	r3, [sp, #20]
   8599a:	9403      	str	r4, [sp, #12]
   8599c:	4f16      	ldr	r7, [pc, #88]	; (859f8 <_vfiprintf_r+0xc4c>)
   8599e:	e472      	b.n	85286 <_vfiprintf_r+0x4da>
   859a0:	9c08      	ldr	r4, [sp, #32]
   859a2:	9d09      	ldr	r5, [sp, #36]	; 0x24
   859a4:	6823      	ldr	r3, [r4, #0]
   859a6:	3404      	adds	r4, #4
   859a8:	9408      	str	r4, [sp, #32]
   859aa:	601d      	str	r5, [r3, #0]
   859ac:	f7ff ba31 	b.w	84e12 <_vfiprintf_r+0x66>
   859b0:	9814      	ldr	r0, [sp, #80]	; 0x50
   859b2:	4d12      	ldr	r5, [pc, #72]	; (859fc <_vfiprintf_r+0xc50>)
   859b4:	3001      	adds	r0, #1
   859b6:	e5fc      	b.n	855b2 <_vfiprintf_r+0x806>
   859b8:	f89d 5047 	ldrb.w	r5, [sp, #71]	; 0x47
   859bc:	f8cd c014 	str.w	ip, [sp, #20]
   859c0:	9507      	str	r5, [sp, #28]
   859c2:	9408      	str	r4, [sp, #32]
   859c4:	4684      	mov	ip, r0
   859c6:	f7ff bb25 	b.w	85014 <_vfiprintf_r+0x268>
   859ca:	4608      	mov	r0, r1
   859cc:	e6b1      	b.n	85732 <_vfiprintf_r+0x986>
   859ce:	46a0      	mov	r8, r4
   859d0:	2500      	movs	r5, #0
   859d2:	f7ff ba5a 	b.w	84e8a <_vfiprintf_r+0xde>
   859d6:	f8dd b020 	ldr.w	fp, [sp, #32]
   859da:	f898 3001 	ldrb.w	r3, [r8, #1]
   859de:	f8db 5000 	ldr.w	r5, [fp]
   859e2:	f10b 0204 	add.w	r2, fp, #4
   859e6:	2d00      	cmp	r5, #0
   859e8:	9208      	str	r2, [sp, #32]
   859ea:	46a0      	mov	r8, r4
   859ec:	f6bf aa4b 	bge.w	84e86 <_vfiprintf_r+0xda>
   859f0:	f04f 35ff 	mov.w	r5, #4294967295
   859f4:	f7ff ba47 	b.w	84e86 <_vfiprintf_r+0xda>
   859f8:	00087b70 	.word	0x00087b70
   859fc:	00087b88 	.word	0x00087b88

00085a00 <__sbprintf>:
   85a00:	e92d 47f0 	stmdb	sp!, {r4, r5, r6, r7, r8, r9, sl, lr}
   85a04:	6e4f      	ldr	r7, [r1, #100]	; 0x64
   85a06:	f5ad 6d8d 	sub.w	sp, sp, #1128	; 0x468
   85a0a:	4688      	mov	r8, r1
   85a0c:	9719      	str	r7, [sp, #100]	; 0x64
   85a0e:	f8d8 701c 	ldr.w	r7, [r8, #28]
   85a12:	f8b1 a00c 	ldrh.w	sl, [r1, #12]
   85a16:	f8b1 900e 	ldrh.w	r9, [r1, #14]
   85a1a:	9707      	str	r7, [sp, #28]
   85a1c:	f8d8 7024 	ldr.w	r7, [r8, #36]	; 0x24
   85a20:	ac1a      	add	r4, sp, #104	; 0x68
   85a22:	f44f 6580 	mov.w	r5, #1024	; 0x400
   85a26:	f02a 0a02 	bic.w	sl, sl, #2
   85a2a:	2600      	movs	r6, #0
   85a2c:	4669      	mov	r1, sp
   85a2e:	9400      	str	r4, [sp, #0]
   85a30:	9404      	str	r4, [sp, #16]
   85a32:	9502      	str	r5, [sp, #8]
   85a34:	9505      	str	r5, [sp, #20]
   85a36:	f8ad a00c 	strh.w	sl, [sp, #12]
   85a3a:	f8ad 900e 	strh.w	r9, [sp, #14]
   85a3e:	9709      	str	r7, [sp, #36]	; 0x24
   85a40:	9606      	str	r6, [sp, #24]
   85a42:	4605      	mov	r5, r0
   85a44:	f7ff f9b2 	bl	84dac <_vfiprintf_r>
   85a48:	1e04      	subs	r4, r0, #0
   85a4a:	db07      	blt.n	85a5c <__sbprintf+0x5c>
   85a4c:	4628      	mov	r0, r5
   85a4e:	4669      	mov	r1, sp
   85a50:	f000 f92a 	bl	85ca8 <_fflush_r>
   85a54:	42b0      	cmp	r0, r6
   85a56:	bf18      	it	ne
   85a58:	f04f 34ff 	movne.w	r4, #4294967295
   85a5c:	f8bd 300c 	ldrh.w	r3, [sp, #12]
   85a60:	065b      	lsls	r3, r3, #25
   85a62:	d505      	bpl.n	85a70 <__sbprintf+0x70>
   85a64:	f8b8 300c 	ldrh.w	r3, [r8, #12]
   85a68:	f043 0340 	orr.w	r3, r3, #64	; 0x40
   85a6c:	f8a8 300c 	strh.w	r3, [r8, #12]
   85a70:	4620      	mov	r0, r4
   85a72:	f50d 6d8d 	add.w	sp, sp, #1128	; 0x468
   85a76:	e8bd 87f0 	ldmia.w	sp!, {r4, r5, r6, r7, r8, r9, sl, pc}
   85a7a:	bf00      	nop

00085a7c <__swsetup_r>:
   85a7c:	4b2f      	ldr	r3, [pc, #188]	; (85b3c <__swsetup_r+0xc0>)
   85a7e:	b570      	push	{r4, r5, r6, lr}
   85a80:	4606      	mov	r6, r0
   85a82:	6818      	ldr	r0, [r3, #0]
   85a84:	460c      	mov	r4, r1
   85a86:	b110      	cbz	r0, 85a8e <__swsetup_r+0x12>
   85a88:	6b82      	ldr	r2, [r0, #56]	; 0x38
   85a8a:	2a00      	cmp	r2, #0
   85a8c:	d036      	beq.n	85afc <__swsetup_r+0x80>
   85a8e:	89a5      	ldrh	r5, [r4, #12]
   85a90:	b2ab      	uxth	r3, r5
   85a92:	0719      	lsls	r1, r3, #28
   85a94:	d50c      	bpl.n	85ab0 <__swsetup_r+0x34>
   85a96:	6922      	ldr	r2, [r4, #16]
   85a98:	b1aa      	cbz	r2, 85ac6 <__swsetup_r+0x4a>
   85a9a:	f013 0101 	ands.w	r1, r3, #1
   85a9e:	d01e      	beq.n	85ade <__swsetup_r+0x62>
   85aa0:	6963      	ldr	r3, [r4, #20]
   85aa2:	2100      	movs	r1, #0
   85aa4:	425b      	negs	r3, r3
   85aa6:	61a3      	str	r3, [r4, #24]
   85aa8:	60a1      	str	r1, [r4, #8]
   85aaa:	b1f2      	cbz	r2, 85aea <__swsetup_r+0x6e>
   85aac:	2000      	movs	r0, #0
   85aae:	bd70      	pop	{r4, r5, r6, pc}
   85ab0:	06da      	lsls	r2, r3, #27
   85ab2:	d53a      	bpl.n	85b2a <__swsetup_r+0xae>
   85ab4:	075b      	lsls	r3, r3, #29
   85ab6:	d424      	bmi.n	85b02 <__swsetup_r+0x86>
   85ab8:	6922      	ldr	r2, [r4, #16]
   85aba:	f045 0308 	orr.w	r3, r5, #8
   85abe:	81a3      	strh	r3, [r4, #12]
   85ac0:	b29b      	uxth	r3, r3
   85ac2:	2a00      	cmp	r2, #0
   85ac4:	d1e9      	bne.n	85a9a <__swsetup_r+0x1e>
   85ac6:	f403 7120 	and.w	r1, r3, #640	; 0x280
   85aca:	f5b1 7f00 	cmp.w	r1, #512	; 0x200
   85ace:	d0e4      	beq.n	85a9a <__swsetup_r+0x1e>
   85ad0:	4630      	mov	r0, r6
   85ad2:	4621      	mov	r1, r4
   85ad4:	f000 fcce 	bl	86474 <__smakebuf_r>
   85ad8:	89a3      	ldrh	r3, [r4, #12]
   85ada:	6922      	ldr	r2, [r4, #16]
   85adc:	e7dd      	b.n	85a9a <__swsetup_r+0x1e>
   85ade:	0798      	lsls	r0, r3, #30
   85ae0:	bf58      	it	pl
   85ae2:	6961      	ldrpl	r1, [r4, #20]
   85ae4:	60a1      	str	r1, [r4, #8]
   85ae6:	2a00      	cmp	r2, #0
   85ae8:	d1e0      	bne.n	85aac <__swsetup_r+0x30>
   85aea:	89a3      	ldrh	r3, [r4, #12]
   85aec:	061a      	lsls	r2, r3, #24
   85aee:	d5dd      	bpl.n	85aac <__swsetup_r+0x30>
   85af0:	f043 0340 	orr.w	r3, r3, #64	; 0x40
   85af4:	81a3      	strh	r3, [r4, #12]
   85af6:	f04f 30ff 	mov.w	r0, #4294967295
   85afa:	bd70      	pop	{r4, r5, r6, pc}
   85afc:	f000 f8f0 	bl	85ce0 <__sinit>
   85b00:	e7c5      	b.n	85a8e <__swsetup_r+0x12>
   85b02:	6b21      	ldr	r1, [r4, #48]	; 0x30
   85b04:	b149      	cbz	r1, 85b1a <__swsetup_r+0x9e>
   85b06:	f104 0340 	add.w	r3, r4, #64	; 0x40
   85b0a:	4299      	cmp	r1, r3
   85b0c:	d003      	beq.n	85b16 <__swsetup_r+0x9a>
   85b0e:	4630      	mov	r0, r6
   85b10:	f000 fa2a 	bl	85f68 <_free_r>
   85b14:	89a5      	ldrh	r5, [r4, #12]
   85b16:	2300      	movs	r3, #0
   85b18:	6323      	str	r3, [r4, #48]	; 0x30
   85b1a:	6922      	ldr	r2, [r4, #16]
   85b1c:	f025 0524 	bic.w	r5, r5, #36	; 0x24
   85b20:	2100      	movs	r1, #0
   85b22:	b2ad      	uxth	r5, r5
   85b24:	6022      	str	r2, [r4, #0]
   85b26:	6061      	str	r1, [r4, #4]
   85b28:	e7c7      	b.n	85aba <__swsetup_r+0x3e>
   85b2a:	f045 0540 	orr.w	r5, r5, #64	; 0x40
   85b2e:	2309      	movs	r3, #9
   85b30:	6033      	str	r3, [r6, #0]
   85b32:	f04f 30ff 	mov.w	r0, #4294967295
   85b36:	81a5      	strh	r5, [r4, #12]
   85b38:	bd70      	pop	{r4, r5, r6, pc}
   85b3a:	bf00      	nop
   85b3c:	200705a0 	.word	0x200705a0

00085b40 <register_fini>:
   85b40:	4b02      	ldr	r3, [pc, #8]	; (85b4c <register_fini+0xc>)
   85b42:	b113      	cbz	r3, 85b4a <register_fini+0xa>
   85b44:	4802      	ldr	r0, [pc, #8]	; (85b50 <register_fini+0x10>)
   85b46:	f000 b805 	b.w	85b54 <atexit>
   85b4a:	4770      	bx	lr
   85b4c:	00000000 	.word	0x00000000
   85b50:	00085ddd 	.word	0x00085ddd

00085b54 <atexit>:
   85b54:	4601      	mov	r1, r0
   85b56:	2000      	movs	r0, #0
   85b58:	4602      	mov	r2, r0
   85b5a:	4603      	mov	r3, r0
   85b5c:	f001 bb24 	b.w	871a8 <__register_exitproc>

00085b60 <__sflush_r>:
   85b60:	898b      	ldrh	r3, [r1, #12]
   85b62:	e92d 41f0 	stmdb	sp!, {r4, r5, r6, r7, r8, lr}
   85b66:	b29a      	uxth	r2, r3
   85b68:	460d      	mov	r5, r1
   85b6a:	0711      	lsls	r1, r2, #28
   85b6c:	4680      	mov	r8, r0
   85b6e:	d43c      	bmi.n	85bea <__sflush_r+0x8a>
   85b70:	686a      	ldr	r2, [r5, #4]
   85b72:	f443 6300 	orr.w	r3, r3, #2048	; 0x800
   85b76:	2a00      	cmp	r2, #0
   85b78:	81ab      	strh	r3, [r5, #12]
   85b7a:	dd59      	ble.n	85c30 <__sflush_r+0xd0>
   85b7c:	6aac      	ldr	r4, [r5, #40]	; 0x28
   85b7e:	2c00      	cmp	r4, #0
   85b80:	d04b      	beq.n	85c1a <__sflush_r+0xba>
   85b82:	b29b      	uxth	r3, r3
   85b84:	f403 5280 	and.w	r2, r3, #4096	; 0x1000
   85b88:	2100      	movs	r1, #0
   85b8a:	b292      	uxth	r2, r2
   85b8c:	f8d8 6000 	ldr.w	r6, [r8]
   85b90:	f8c8 1000 	str.w	r1, [r8]
   85b94:	2a00      	cmp	r2, #0
   85b96:	d04f      	beq.n	85c38 <__sflush_r+0xd8>
   85b98:	6d2a      	ldr	r2, [r5, #80]	; 0x50
   85b9a:	075f      	lsls	r7, r3, #29
   85b9c:	d505      	bpl.n	85baa <__sflush_r+0x4a>
   85b9e:	6869      	ldr	r1, [r5, #4]
   85ba0:	6b2b      	ldr	r3, [r5, #48]	; 0x30
   85ba2:	1a52      	subs	r2, r2, r1
   85ba4:	b10b      	cbz	r3, 85baa <__sflush_r+0x4a>
   85ba6:	6beb      	ldr	r3, [r5, #60]	; 0x3c
   85ba8:	1ad2      	subs	r2, r2, r3
   85baa:	4640      	mov	r0, r8
   85bac:	69e9      	ldr	r1, [r5, #28]
   85bae:	2300      	movs	r3, #0
   85bb0:	47a0      	blx	r4
   85bb2:	1c44      	adds	r4, r0, #1
   85bb4:	d04a      	beq.n	85c4c <__sflush_r+0xec>
   85bb6:	89ab      	ldrh	r3, [r5, #12]
   85bb8:	692a      	ldr	r2, [r5, #16]
   85bba:	f423 6300 	bic.w	r3, r3, #2048	; 0x800
   85bbe:	b29b      	uxth	r3, r3
   85bc0:	2100      	movs	r1, #0
   85bc2:	602a      	str	r2, [r5, #0]
   85bc4:	04da      	lsls	r2, r3, #19
   85bc6:	81ab      	strh	r3, [r5, #12]
   85bc8:	6069      	str	r1, [r5, #4]
   85bca:	d44c      	bmi.n	85c66 <__sflush_r+0x106>
   85bcc:	6b29      	ldr	r1, [r5, #48]	; 0x30
   85bce:	f8c8 6000 	str.w	r6, [r8]
   85bd2:	b311      	cbz	r1, 85c1a <__sflush_r+0xba>
   85bd4:	f105 0340 	add.w	r3, r5, #64	; 0x40
   85bd8:	4299      	cmp	r1, r3
   85bda:	d002      	beq.n	85be2 <__sflush_r+0x82>
   85bdc:	4640      	mov	r0, r8
   85bde:	f000 f9c3 	bl	85f68 <_free_r>
   85be2:	2000      	movs	r0, #0
   85be4:	6328      	str	r0, [r5, #48]	; 0x30
   85be6:	e8bd 81f0 	ldmia.w	sp!, {r4, r5, r6, r7, r8, pc}
   85bea:	692e      	ldr	r6, [r5, #16]
   85bec:	b1ae      	cbz	r6, 85c1a <__sflush_r+0xba>
   85bee:	0791      	lsls	r1, r2, #30
   85bf0:	682c      	ldr	r4, [r5, #0]
   85bf2:	bf0c      	ite	eq
   85bf4:	696b      	ldreq	r3, [r5, #20]
   85bf6:	2300      	movne	r3, #0
   85bf8:	602e      	str	r6, [r5, #0]
   85bfa:	1ba4      	subs	r4, r4, r6
   85bfc:	60ab      	str	r3, [r5, #8]
   85bfe:	e00a      	b.n	85c16 <__sflush_r+0xb6>
   85c00:	4632      	mov	r2, r6
   85c02:	4623      	mov	r3, r4
   85c04:	6a6f      	ldr	r7, [r5, #36]	; 0x24
   85c06:	4640      	mov	r0, r8
   85c08:	69e9      	ldr	r1, [r5, #28]
   85c0a:	47b8      	blx	r7
   85c0c:	2800      	cmp	r0, #0
   85c0e:	ebc0 0404 	rsb	r4, r0, r4
   85c12:	4406      	add	r6, r0
   85c14:	dd04      	ble.n	85c20 <__sflush_r+0xc0>
   85c16:	2c00      	cmp	r4, #0
   85c18:	dcf2      	bgt.n	85c00 <__sflush_r+0xa0>
   85c1a:	2000      	movs	r0, #0
   85c1c:	e8bd 81f0 	ldmia.w	sp!, {r4, r5, r6, r7, r8, pc}
   85c20:	89ab      	ldrh	r3, [r5, #12]
   85c22:	f04f 30ff 	mov.w	r0, #4294967295
   85c26:	f043 0340 	orr.w	r3, r3, #64	; 0x40
   85c2a:	81ab      	strh	r3, [r5, #12]
   85c2c:	e8bd 81f0 	ldmia.w	sp!, {r4, r5, r6, r7, r8, pc}
   85c30:	6bea      	ldr	r2, [r5, #60]	; 0x3c
   85c32:	2a00      	cmp	r2, #0
   85c34:	dca2      	bgt.n	85b7c <__sflush_r+0x1c>
   85c36:	e7f0      	b.n	85c1a <__sflush_r+0xba>
   85c38:	2301      	movs	r3, #1
   85c3a:	4640      	mov	r0, r8
   85c3c:	69e9      	ldr	r1, [r5, #28]
   85c3e:	47a0      	blx	r4
   85c40:	1c43      	adds	r3, r0, #1
   85c42:	4602      	mov	r2, r0
   85c44:	d01e      	beq.n	85c84 <__sflush_r+0x124>
   85c46:	89ab      	ldrh	r3, [r5, #12]
   85c48:	6aac      	ldr	r4, [r5, #40]	; 0x28
   85c4a:	e7a6      	b.n	85b9a <__sflush_r+0x3a>
   85c4c:	f8d8 3000 	ldr.w	r3, [r8]
   85c50:	b95b      	cbnz	r3, 85c6a <__sflush_r+0x10a>
   85c52:	89aa      	ldrh	r2, [r5, #12]
   85c54:	6929      	ldr	r1, [r5, #16]
   85c56:	f422 6200 	bic.w	r2, r2, #2048	; 0x800
   85c5a:	b292      	uxth	r2, r2
   85c5c:	606b      	str	r3, [r5, #4]
   85c5e:	04d3      	lsls	r3, r2, #19
   85c60:	81aa      	strh	r2, [r5, #12]
   85c62:	6029      	str	r1, [r5, #0]
   85c64:	d5b2      	bpl.n	85bcc <__sflush_r+0x6c>
   85c66:	6528      	str	r0, [r5, #80]	; 0x50
   85c68:	e7b0      	b.n	85bcc <__sflush_r+0x6c>
   85c6a:	2b1d      	cmp	r3, #29
   85c6c:	d001      	beq.n	85c72 <__sflush_r+0x112>
   85c6e:	2b16      	cmp	r3, #22
   85c70:	d113      	bne.n	85c9a <__sflush_r+0x13a>
   85c72:	89a9      	ldrh	r1, [r5, #12]
   85c74:	692b      	ldr	r3, [r5, #16]
   85c76:	f421 6100 	bic.w	r1, r1, #2048	; 0x800
   85c7a:	2200      	movs	r2, #0
   85c7c:	81a9      	strh	r1, [r5, #12]
   85c7e:	602b      	str	r3, [r5, #0]
   85c80:	606a      	str	r2, [r5, #4]
   85c82:	e7a3      	b.n	85bcc <__sflush_r+0x6c>
   85c84:	f8d8 3000 	ldr.w	r3, [r8]
   85c88:	2b00      	cmp	r3, #0
   85c8a:	d0dc      	beq.n	85c46 <__sflush_r+0xe6>
   85c8c:	2b1d      	cmp	r3, #29
   85c8e:	d001      	beq.n	85c94 <__sflush_r+0x134>
   85c90:	2b16      	cmp	r3, #22
   85c92:	d1c5      	bne.n	85c20 <__sflush_r+0xc0>
   85c94:	f8c8 6000 	str.w	r6, [r8]
   85c98:	e7bf      	b.n	85c1a <__sflush_r+0xba>
   85c9a:	89ab      	ldrh	r3, [r5, #12]
   85c9c:	f043 0340 	orr.w	r3, r3, #64	; 0x40
   85ca0:	81ab      	strh	r3, [r5, #12]
   85ca2:	e8bd 81f0 	ldmia.w	sp!, {r4, r5, r6, r7, r8, pc}
   85ca6:	bf00      	nop

00085ca8 <_fflush_r>:
   85ca8:	b510      	push	{r4, lr}
   85caa:	4604      	mov	r4, r0
   85cac:	b082      	sub	sp, #8
   85cae:	b108      	cbz	r0, 85cb4 <_fflush_r+0xc>
   85cb0:	6b83      	ldr	r3, [r0, #56]	; 0x38
   85cb2:	b153      	cbz	r3, 85cca <_fflush_r+0x22>
   85cb4:	f9b1 000c 	ldrsh.w	r0, [r1, #12]
   85cb8:	b908      	cbnz	r0, 85cbe <_fflush_r+0x16>
   85cba:	b002      	add	sp, #8
   85cbc:	bd10      	pop	{r4, pc}
   85cbe:	4620      	mov	r0, r4
   85cc0:	b002      	add	sp, #8
   85cc2:	e8bd 4010 	ldmia.w	sp!, {r4, lr}
   85cc6:	f7ff bf4b 	b.w	85b60 <__sflush_r>
   85cca:	9101      	str	r1, [sp, #4]
   85ccc:	f000 f808 	bl	85ce0 <__sinit>
   85cd0:	9901      	ldr	r1, [sp, #4]
   85cd2:	e7ef      	b.n	85cb4 <_fflush_r+0xc>

00085cd4 <_cleanup_r>:
   85cd4:	4901      	ldr	r1, [pc, #4]	; (85cdc <_cleanup_r+0x8>)
   85cd6:	f000 bb9f 	b.w	86418 <_fwalk>
   85cda:	bf00      	nop
   85cdc:	000872f5 	.word	0x000872f5

00085ce0 <__sinit>:
   85ce0:	e92d 4ff0 	stmdb	sp!, {r4, r5, r6, r7, r8, r9, sl, fp, lr}
   85ce4:	6b84      	ldr	r4, [r0, #56]	; 0x38
   85ce6:	b083      	sub	sp, #12
   85ce8:	4607      	mov	r7, r0
   85cea:	2c00      	cmp	r4, #0
   85cec:	d165      	bne.n	85dba <__sinit+0xda>
   85cee:	687d      	ldr	r5, [r7, #4]
   85cf0:	4833      	ldr	r0, [pc, #204]	; (85dc0 <__sinit+0xe0>)
   85cf2:	2304      	movs	r3, #4
   85cf4:	2103      	movs	r1, #3
   85cf6:	f507 723b 	add.w	r2, r7, #748	; 0x2ec
   85cfa:	63f8      	str	r0, [r7, #60]	; 0x3c
   85cfc:	f8c7 12e4 	str.w	r1, [r7, #740]	; 0x2e4
   85d00:	f8c7 22e8 	str.w	r2, [r7, #744]	; 0x2e8
   85d04:	f8c7 42e0 	str.w	r4, [r7, #736]	; 0x2e0
   85d08:	f105 005c 	add.w	r0, r5, #92	; 0x5c
   85d0c:	81ab      	strh	r3, [r5, #12]
   85d0e:	602c      	str	r4, [r5, #0]
   85d10:	606c      	str	r4, [r5, #4]
   85d12:	60ac      	str	r4, [r5, #8]
   85d14:	666c      	str	r4, [r5, #100]	; 0x64
   85d16:	81ec      	strh	r4, [r5, #14]
   85d18:	612c      	str	r4, [r5, #16]
   85d1a:	616c      	str	r4, [r5, #20]
   85d1c:	61ac      	str	r4, [r5, #24]
   85d1e:	4621      	mov	r1, r4
   85d20:	2208      	movs	r2, #8
   85d22:	f7fe fed3 	bl	84acc <memset>
   85d26:	f8df b09c 	ldr.w	fp, [pc, #156]	; 85dc4 <__sinit+0xe4>
   85d2a:	68be      	ldr	r6, [r7, #8]
   85d2c:	f8df a098 	ldr.w	sl, [pc, #152]	; 85dc8 <__sinit+0xe8>
   85d30:	f8df 9098 	ldr.w	r9, [pc, #152]	; 85dcc <__sinit+0xec>
   85d34:	f8df 8098 	ldr.w	r8, [pc, #152]	; 85dd0 <__sinit+0xf0>
   85d38:	2301      	movs	r3, #1
   85d3a:	2209      	movs	r2, #9
   85d3c:	61ed      	str	r5, [r5, #28]
   85d3e:	f8c5 b020 	str.w	fp, [r5, #32]
   85d42:	f8c5 a024 	str.w	sl, [r5, #36]	; 0x24
   85d46:	f8c5 9028 	str.w	r9, [r5, #40]	; 0x28
   85d4a:	f8c5 802c 	str.w	r8, [r5, #44]	; 0x2c
   85d4e:	4621      	mov	r1, r4
   85d50:	81f3      	strh	r3, [r6, #14]
   85d52:	81b2      	strh	r2, [r6, #12]
   85d54:	6034      	str	r4, [r6, #0]
   85d56:	6074      	str	r4, [r6, #4]
   85d58:	60b4      	str	r4, [r6, #8]
   85d5a:	6674      	str	r4, [r6, #100]	; 0x64
   85d5c:	6134      	str	r4, [r6, #16]
   85d5e:	6174      	str	r4, [r6, #20]
   85d60:	61b4      	str	r4, [r6, #24]
   85d62:	2208      	movs	r2, #8
   85d64:	f106 005c 	add.w	r0, r6, #92	; 0x5c
   85d68:	9301      	str	r3, [sp, #4]
   85d6a:	f7fe feaf 	bl	84acc <memset>
   85d6e:	68fd      	ldr	r5, [r7, #12]
   85d70:	2012      	movs	r0, #18
   85d72:	2202      	movs	r2, #2
   85d74:	61f6      	str	r6, [r6, #28]
   85d76:	f8c6 b020 	str.w	fp, [r6, #32]
   85d7a:	f8c6 a024 	str.w	sl, [r6, #36]	; 0x24
   85d7e:	f8c6 9028 	str.w	r9, [r6, #40]	; 0x28
   85d82:	f8c6 802c 	str.w	r8, [r6, #44]	; 0x2c
   85d86:	4621      	mov	r1, r4
   85d88:	81a8      	strh	r0, [r5, #12]
   85d8a:	81ea      	strh	r2, [r5, #14]
   85d8c:	602c      	str	r4, [r5, #0]
   85d8e:	606c      	str	r4, [r5, #4]
   85d90:	60ac      	str	r4, [r5, #8]
   85d92:	666c      	str	r4, [r5, #100]	; 0x64
   85d94:	612c      	str	r4, [r5, #16]
   85d96:	616c      	str	r4, [r5, #20]
   85d98:	61ac      	str	r4, [r5, #24]
   85d9a:	f105 005c 	add.w	r0, r5, #92	; 0x5c
   85d9e:	2208      	movs	r2, #8
   85da0:	f7fe fe94 	bl	84acc <memset>
   85da4:	9b01      	ldr	r3, [sp, #4]
   85da6:	61ed      	str	r5, [r5, #28]
   85da8:	f8c5 b020 	str.w	fp, [r5, #32]
   85dac:	f8c5 a024 	str.w	sl, [r5, #36]	; 0x24
   85db0:	f8c5 9028 	str.w	r9, [r5, #40]	; 0x28
   85db4:	f8c5 802c 	str.w	r8, [r5, #44]	; 0x2c
   85db8:	63bb      	str	r3, [r7, #56]	; 0x38
   85dba:	b003      	add	sp, #12
   85dbc:	e8bd 8ff0 	ldmia.w	sp!, {r4, r5, r6, r7, r8, r9, sl, fp, pc}
   85dc0:	00085cd5 	.word	0x00085cd5
   85dc4:	00086fe9 	.word	0x00086fe9
   85dc8:	0008700d 	.word	0x0008700d
   85dcc:	00087045 	.word	0x00087045
   85dd0:	00087065 	.word	0x00087065

00085dd4 <__sfp_lock_acquire>:
   85dd4:	4770      	bx	lr
   85dd6:	bf00      	nop

00085dd8 <__sfp_lock_release>:
   85dd8:	4770      	bx	lr
   85dda:	bf00      	nop

00085ddc <__libc_fini_array>:
   85ddc:	b538      	push	{r3, r4, r5, lr}
   85dde:	4d09      	ldr	r5, [pc, #36]	; (85e04 <__libc_fini_array+0x28>)
   85de0:	4c09      	ldr	r4, [pc, #36]	; (85e08 <__libc_fini_array+0x2c>)
   85de2:	1b64      	subs	r4, r4, r5
   85de4:	10a4      	asrs	r4, r4, #2
   85de6:	bf18      	it	ne
   85de8:	eb05 0584 	addne.w	r5, r5, r4, lsl #2
   85dec:	d005      	beq.n	85dfa <__libc_fini_array+0x1e>
   85dee:	3c01      	subs	r4, #1
   85df0:	f855 3d04 	ldr.w	r3, [r5, #-4]!
   85df4:	4798      	blx	r3
   85df6:	2c00      	cmp	r4, #0
   85df8:	d1f9      	bne.n	85dee <__libc_fini_array+0x12>
   85dfa:	e8bd 4038 	ldmia.w	sp!, {r3, r4, r5, lr}
   85dfe:	f001 bed5 	b.w	87bac <_fini>
   85e02:	bf00      	nop
   85e04:	00087bb8 	.word	0x00087bb8
   85e08:	00087bbc 	.word	0x00087bbc

00085e0c <_fputwc_r>:
   85e0c:	e92d 41f0 	stmdb	sp!, {r4, r5, r6, r7, r8, lr}
   85e10:	8993      	ldrh	r3, [r2, #12]
   85e12:	460f      	mov	r7, r1
   85e14:	0499      	lsls	r1, r3, #18
   85e16:	b082      	sub	sp, #8
   85e18:	4614      	mov	r4, r2
   85e1a:	4680      	mov	r8, r0
   85e1c:	d406      	bmi.n	85e2c <_fputwc_r+0x20>
   85e1e:	6e52      	ldr	r2, [r2, #100]	; 0x64
   85e20:	f443 5300 	orr.w	r3, r3, #8192	; 0x2000
   85e24:	f442 5200 	orr.w	r2, r2, #8192	; 0x2000
   85e28:	81a3      	strh	r3, [r4, #12]
   85e2a:	6662      	str	r2, [r4, #100]	; 0x64
   85e2c:	f000 fb1c 	bl	86468 <__locale_mb_cur_max>
   85e30:	2801      	cmp	r0, #1
   85e32:	d03e      	beq.n	85eb2 <_fputwc_r+0xa6>
   85e34:	463a      	mov	r2, r7
   85e36:	4640      	mov	r0, r8
   85e38:	a901      	add	r1, sp, #4
   85e3a:	f104 035c 	add.w	r3, r4, #92	; 0x5c
   85e3e:	f001 f969 	bl	87114 <_wcrtomb_r>
   85e42:	1c42      	adds	r2, r0, #1
   85e44:	4606      	mov	r6, r0
   85e46:	d02d      	beq.n	85ea4 <_fputwc_r+0x98>
   85e48:	2800      	cmp	r0, #0
   85e4a:	d03a      	beq.n	85ec2 <_fputwc_r+0xb6>
   85e4c:	f89d 1004 	ldrb.w	r1, [sp, #4]
   85e50:	2500      	movs	r5, #0
   85e52:	e009      	b.n	85e68 <_fputwc_r+0x5c>
   85e54:	6823      	ldr	r3, [r4, #0]
   85e56:	7019      	strb	r1, [r3, #0]
   85e58:	6823      	ldr	r3, [r4, #0]
   85e5a:	3301      	adds	r3, #1
   85e5c:	6023      	str	r3, [r4, #0]
   85e5e:	3501      	adds	r5, #1
   85e60:	42b5      	cmp	r5, r6
   85e62:	d22e      	bcs.n	85ec2 <_fputwc_r+0xb6>
   85e64:	ab01      	add	r3, sp, #4
   85e66:	5ce9      	ldrb	r1, [r5, r3]
   85e68:	68a3      	ldr	r3, [r4, #8]
   85e6a:	3b01      	subs	r3, #1
   85e6c:	2b00      	cmp	r3, #0
   85e6e:	60a3      	str	r3, [r4, #8]
   85e70:	daf0      	bge.n	85e54 <_fputwc_r+0x48>
   85e72:	69a2      	ldr	r2, [r4, #24]
   85e74:	4293      	cmp	r3, r2
   85e76:	db06      	blt.n	85e86 <_fputwc_r+0x7a>
   85e78:	6823      	ldr	r3, [r4, #0]
   85e7a:	7019      	strb	r1, [r3, #0]
   85e7c:	6823      	ldr	r3, [r4, #0]
   85e7e:	7819      	ldrb	r1, [r3, #0]
   85e80:	3301      	adds	r3, #1
   85e82:	290a      	cmp	r1, #10
   85e84:	d1ea      	bne.n	85e5c <_fputwc_r+0x50>
   85e86:	4640      	mov	r0, r8
   85e88:	4622      	mov	r2, r4
   85e8a:	f001 f8ef 	bl	8706c <__swbuf_r>
   85e8e:	f1b0 33ff 	subs.w	r3, r0, #4294967295
   85e92:	4258      	negs	r0, r3
   85e94:	4158      	adcs	r0, r3
   85e96:	2800      	cmp	r0, #0
   85e98:	d0e1      	beq.n	85e5e <_fputwc_r+0x52>
   85e9a:	f04f 30ff 	mov.w	r0, #4294967295
   85e9e:	b002      	add	sp, #8
   85ea0:	e8bd 81f0 	ldmia.w	sp!, {r4, r5, r6, r7, r8, pc}
   85ea4:	89a3      	ldrh	r3, [r4, #12]
   85ea6:	f043 0340 	orr.w	r3, r3, #64	; 0x40
   85eaa:	81a3      	strh	r3, [r4, #12]
   85eac:	b002      	add	sp, #8
   85eae:	e8bd 81f0 	ldmia.w	sp!, {r4, r5, r6, r7, r8, pc}
   85eb2:	1e7b      	subs	r3, r7, #1
   85eb4:	2bfe      	cmp	r3, #254	; 0xfe
   85eb6:	d8bd      	bhi.n	85e34 <_fputwc_r+0x28>
   85eb8:	b2f9      	uxtb	r1, r7
   85eba:	4606      	mov	r6, r0
   85ebc:	f88d 1004 	strb.w	r1, [sp, #4]
   85ec0:	e7c6      	b.n	85e50 <_fputwc_r+0x44>
   85ec2:	4638      	mov	r0, r7
   85ec4:	b002      	add	sp, #8
   85ec6:	e8bd 81f0 	ldmia.w	sp!, {r4, r5, r6, r7, r8, pc}
   85eca:	bf00      	nop

00085ecc <_malloc_trim_r>:
   85ecc:	b5f8      	push	{r3, r4, r5, r6, r7, lr}
   85ece:	4d23      	ldr	r5, [pc, #140]	; (85f5c <_malloc_trim_r+0x90>)
   85ed0:	460f      	mov	r7, r1
   85ed2:	4604      	mov	r4, r0
   85ed4:	f000 fe92 	bl	86bfc <__malloc_lock>
   85ed8:	68ab      	ldr	r3, [r5, #8]
   85eda:	685e      	ldr	r6, [r3, #4]
   85edc:	f026 0603 	bic.w	r6, r6, #3
   85ee0:	1bf1      	subs	r1, r6, r7
   85ee2:	f601 71ef 	addw	r1, r1, #4079	; 0xfef
   85ee6:	f421 617f 	bic.w	r1, r1, #4080	; 0xff0
   85eea:	f021 010f 	bic.w	r1, r1, #15
   85eee:	f5a1 5780 	sub.w	r7, r1, #4096	; 0x1000
   85ef2:	f5b7 5f80 	cmp.w	r7, #4096	; 0x1000
   85ef6:	db07      	blt.n	85f08 <_malloc_trim_r+0x3c>
   85ef8:	4620      	mov	r0, r4
   85efa:	2100      	movs	r1, #0
   85efc:	f001 f862 	bl	86fc4 <_sbrk_r>
   85f00:	68ab      	ldr	r3, [r5, #8]
   85f02:	4433      	add	r3, r6
   85f04:	4298      	cmp	r0, r3
   85f06:	d004      	beq.n	85f12 <_malloc_trim_r+0x46>
   85f08:	4620      	mov	r0, r4
   85f0a:	f000 fe79 	bl	86c00 <__malloc_unlock>
   85f0e:	2000      	movs	r0, #0
   85f10:	bdf8      	pop	{r3, r4, r5, r6, r7, pc}
   85f12:	4620      	mov	r0, r4
   85f14:	4279      	negs	r1, r7
   85f16:	f001 f855 	bl	86fc4 <_sbrk_r>
   85f1a:	3001      	adds	r0, #1
   85f1c:	d00d      	beq.n	85f3a <_malloc_trim_r+0x6e>
   85f1e:	4b10      	ldr	r3, [pc, #64]	; (85f60 <_malloc_trim_r+0x94>)
   85f20:	68aa      	ldr	r2, [r5, #8]
   85f22:	6819      	ldr	r1, [r3, #0]
   85f24:	1bf6      	subs	r6, r6, r7
   85f26:	f046 0601 	orr.w	r6, r6, #1
   85f2a:	4620      	mov	r0, r4
   85f2c:	1bc9      	subs	r1, r1, r7
   85f2e:	6056      	str	r6, [r2, #4]
   85f30:	6019      	str	r1, [r3, #0]
   85f32:	f000 fe65 	bl	86c00 <__malloc_unlock>
   85f36:	2001      	movs	r0, #1
   85f38:	bdf8      	pop	{r3, r4, r5, r6, r7, pc}
   85f3a:	4620      	mov	r0, r4
   85f3c:	2100      	movs	r1, #0
   85f3e:	f001 f841 	bl	86fc4 <_sbrk_r>
   85f42:	68ab      	ldr	r3, [r5, #8]
   85f44:	1ac2      	subs	r2, r0, r3
   85f46:	2a0f      	cmp	r2, #15
   85f48:	ddde      	ble.n	85f08 <_malloc_trim_r+0x3c>
   85f4a:	4d06      	ldr	r5, [pc, #24]	; (85f64 <_malloc_trim_r+0x98>)
   85f4c:	4904      	ldr	r1, [pc, #16]	; (85f60 <_malloc_trim_r+0x94>)
   85f4e:	682d      	ldr	r5, [r5, #0]
   85f50:	f042 0201 	orr.w	r2, r2, #1
   85f54:	1b40      	subs	r0, r0, r5
   85f56:	605a      	str	r2, [r3, #4]
   85f58:	6008      	str	r0, [r1, #0]
   85f5a:	e7d5      	b.n	85f08 <_malloc_trim_r+0x3c>
   85f5c:	200705c8 	.word	0x200705c8
   85f60:	20078cb0 	.word	0x20078cb0
   85f64:	200709d4 	.word	0x200709d4

00085f68 <_free_r>:
   85f68:	e92d 41f0 	stmdb	sp!, {r4, r5, r6, r7, r8, lr}
   85f6c:	460d      	mov	r5, r1
   85f6e:	4606      	mov	r6, r0
   85f70:	2900      	cmp	r1, #0
   85f72:	d055      	beq.n	86020 <_free_r+0xb8>
   85f74:	f000 fe42 	bl	86bfc <__malloc_lock>
   85f78:	f855 1c04 	ldr.w	r1, [r5, #-4]
   85f7c:	f8df c170 	ldr.w	ip, [pc, #368]	; 860f0 <_free_r+0x188>
   85f80:	f1a5 0408 	sub.w	r4, r5, #8
   85f84:	f021 0301 	bic.w	r3, r1, #1
   85f88:	18e2      	adds	r2, r4, r3
   85f8a:	f8dc 0008 	ldr.w	r0, [ip, #8]
   85f8e:	6857      	ldr	r7, [r2, #4]
   85f90:	4290      	cmp	r0, r2
   85f92:	f027 0703 	bic.w	r7, r7, #3
   85f96:	d068      	beq.n	8606a <_free_r+0x102>
   85f98:	f011 0101 	ands.w	r1, r1, #1
   85f9c:	6057      	str	r7, [r2, #4]
   85f9e:	d032      	beq.n	86006 <_free_r+0x9e>
   85fa0:	2100      	movs	r1, #0
   85fa2:	19d0      	adds	r0, r2, r7
   85fa4:	6840      	ldr	r0, [r0, #4]
   85fa6:	07c0      	lsls	r0, r0, #31
   85fa8:	d406      	bmi.n	85fb8 <_free_r+0x50>
   85faa:	443b      	add	r3, r7
   85fac:	6890      	ldr	r0, [r2, #8]
   85fae:	2900      	cmp	r1, #0
   85fb0:	d04d      	beq.n	8604e <_free_r+0xe6>
   85fb2:	68d2      	ldr	r2, [r2, #12]
   85fb4:	60c2      	str	r2, [r0, #12]
   85fb6:	6090      	str	r0, [r2, #8]
   85fb8:	f043 0201 	orr.w	r2, r3, #1
   85fbc:	6062      	str	r2, [r4, #4]
   85fbe:	50e3      	str	r3, [r4, r3]
   85fc0:	b9e1      	cbnz	r1, 85ffc <_free_r+0x94>
   85fc2:	f5b3 7f00 	cmp.w	r3, #512	; 0x200
   85fc6:	d32d      	bcc.n	86024 <_free_r+0xbc>
   85fc8:	0a5a      	lsrs	r2, r3, #9
   85fca:	2a04      	cmp	r2, #4
   85fcc:	d869      	bhi.n	860a2 <_free_r+0x13a>
   85fce:	0998      	lsrs	r0, r3, #6
   85fd0:	3038      	adds	r0, #56	; 0x38
   85fd2:	0041      	lsls	r1, r0, #1
   85fd4:	eb0c 0c81 	add.w	ip, ip, r1, lsl #2
   85fd8:	f8dc 2008 	ldr.w	r2, [ip, #8]
   85fdc:	4944      	ldr	r1, [pc, #272]	; (860f0 <_free_r+0x188>)
   85fde:	4562      	cmp	r2, ip
   85fe0:	d065      	beq.n	860ae <_free_r+0x146>
   85fe2:	6851      	ldr	r1, [r2, #4]
   85fe4:	f021 0103 	bic.w	r1, r1, #3
   85fe8:	428b      	cmp	r3, r1
   85fea:	d202      	bcs.n	85ff2 <_free_r+0x8a>
   85fec:	6892      	ldr	r2, [r2, #8]
   85fee:	4594      	cmp	ip, r2
   85ff0:	d1f7      	bne.n	85fe2 <_free_r+0x7a>
   85ff2:	68d3      	ldr	r3, [r2, #12]
   85ff4:	60e3      	str	r3, [r4, #12]
   85ff6:	60a2      	str	r2, [r4, #8]
   85ff8:	609c      	str	r4, [r3, #8]
   85ffa:	60d4      	str	r4, [r2, #12]
   85ffc:	4630      	mov	r0, r6
   85ffe:	e8bd 41f0 	ldmia.w	sp!, {r4, r5, r6, r7, r8, lr}
   86002:	f000 bdfd 	b.w	86c00 <__malloc_unlock>
   86006:	f855 5c08 	ldr.w	r5, [r5, #-8]
   8600a:	f10c 0808 	add.w	r8, ip, #8
   8600e:	1b64      	subs	r4, r4, r5
   86010:	68a0      	ldr	r0, [r4, #8]
   86012:	442b      	add	r3, r5
   86014:	4540      	cmp	r0, r8
   86016:	d042      	beq.n	8609e <_free_r+0x136>
   86018:	68e5      	ldr	r5, [r4, #12]
   8601a:	60c5      	str	r5, [r0, #12]
   8601c:	60a8      	str	r0, [r5, #8]
   8601e:	e7c0      	b.n	85fa2 <_free_r+0x3a>
   86020:	e8bd 81f0 	ldmia.w	sp!, {r4, r5, r6, r7, r8, pc}
   86024:	08db      	lsrs	r3, r3, #3
   86026:	109a      	asrs	r2, r3, #2
   86028:	2001      	movs	r0, #1
   8602a:	4090      	lsls	r0, r2
   8602c:	f8dc 1004 	ldr.w	r1, [ip, #4]
   86030:	eb0c 03c3 	add.w	r3, ip, r3, lsl #3
   86034:	689a      	ldr	r2, [r3, #8]
   86036:	4301      	orrs	r1, r0
   86038:	60a2      	str	r2, [r4, #8]
   8603a:	60e3      	str	r3, [r4, #12]
   8603c:	f8cc 1004 	str.w	r1, [ip, #4]
   86040:	4630      	mov	r0, r6
   86042:	609c      	str	r4, [r3, #8]
   86044:	60d4      	str	r4, [r2, #12]
   86046:	e8bd 41f0 	ldmia.w	sp!, {r4, r5, r6, r7, r8, lr}
   8604a:	f000 bdd9 	b.w	86c00 <__malloc_unlock>
   8604e:	4d29      	ldr	r5, [pc, #164]	; (860f4 <_free_r+0x18c>)
   86050:	42a8      	cmp	r0, r5
   86052:	d1ae      	bne.n	85fb2 <_free_r+0x4a>
   86054:	f043 0201 	orr.w	r2, r3, #1
   86058:	f8cc 4014 	str.w	r4, [ip, #20]
   8605c:	f8cc 4010 	str.w	r4, [ip, #16]
   86060:	60e0      	str	r0, [r4, #12]
   86062:	60a0      	str	r0, [r4, #8]
   86064:	6062      	str	r2, [r4, #4]
   86066:	50e3      	str	r3, [r4, r3]
   86068:	e7c8      	b.n	85ffc <_free_r+0x94>
   8606a:	441f      	add	r7, r3
   8606c:	07cb      	lsls	r3, r1, #31
   8606e:	d407      	bmi.n	86080 <_free_r+0x118>
   86070:	f855 1c08 	ldr.w	r1, [r5, #-8]
   86074:	1a64      	subs	r4, r4, r1
   86076:	68e3      	ldr	r3, [r4, #12]
   86078:	68a2      	ldr	r2, [r4, #8]
   8607a:	440f      	add	r7, r1
   8607c:	60d3      	str	r3, [r2, #12]
   8607e:	609a      	str	r2, [r3, #8]
   86080:	4b1d      	ldr	r3, [pc, #116]	; (860f8 <_free_r+0x190>)
   86082:	f047 0201 	orr.w	r2, r7, #1
   86086:	681b      	ldr	r3, [r3, #0]
   86088:	6062      	str	r2, [r4, #4]
   8608a:	429f      	cmp	r7, r3
   8608c:	f8cc 4008 	str.w	r4, [ip, #8]
   86090:	d3b4      	bcc.n	85ffc <_free_r+0x94>
   86092:	4b1a      	ldr	r3, [pc, #104]	; (860fc <_free_r+0x194>)
   86094:	4630      	mov	r0, r6
   86096:	6819      	ldr	r1, [r3, #0]
   86098:	f7ff ff18 	bl	85ecc <_malloc_trim_r>
   8609c:	e7ae      	b.n	85ffc <_free_r+0x94>
   8609e:	2101      	movs	r1, #1
   860a0:	e77f      	b.n	85fa2 <_free_r+0x3a>
   860a2:	2a14      	cmp	r2, #20
   860a4:	d80b      	bhi.n	860be <_free_r+0x156>
   860a6:	f102 005b 	add.w	r0, r2, #91	; 0x5b
   860aa:	0041      	lsls	r1, r0, #1
   860ac:	e792      	b.n	85fd4 <_free_r+0x6c>
   860ae:	1080      	asrs	r0, r0, #2
   860b0:	2501      	movs	r5, #1
   860b2:	4085      	lsls	r5, r0
   860b4:	6848      	ldr	r0, [r1, #4]
   860b6:	4613      	mov	r3, r2
   860b8:	4328      	orrs	r0, r5
   860ba:	6048      	str	r0, [r1, #4]
   860bc:	e79a      	b.n	85ff4 <_free_r+0x8c>
   860be:	2a54      	cmp	r2, #84	; 0x54
   860c0:	d803      	bhi.n	860ca <_free_r+0x162>
   860c2:	0b18      	lsrs	r0, r3, #12
   860c4:	306e      	adds	r0, #110	; 0x6e
   860c6:	0041      	lsls	r1, r0, #1
   860c8:	e784      	b.n	85fd4 <_free_r+0x6c>
   860ca:	f5b2 7faa 	cmp.w	r2, #340	; 0x154
   860ce:	d803      	bhi.n	860d8 <_free_r+0x170>
   860d0:	0bd8      	lsrs	r0, r3, #15
   860d2:	3077      	adds	r0, #119	; 0x77
   860d4:	0041      	lsls	r1, r0, #1
   860d6:	e77d      	b.n	85fd4 <_free_r+0x6c>
   860d8:	f240 5154 	movw	r1, #1364	; 0x554
   860dc:	428a      	cmp	r2, r1
   860de:	d803      	bhi.n	860e8 <_free_r+0x180>
   860e0:	0c98      	lsrs	r0, r3, #18
   860e2:	307c      	adds	r0, #124	; 0x7c
   860e4:	0041      	lsls	r1, r0, #1
   860e6:	e775      	b.n	85fd4 <_free_r+0x6c>
   860e8:	21fc      	movs	r1, #252	; 0xfc
   860ea:	207e      	movs	r0, #126	; 0x7e
   860ec:	e772      	b.n	85fd4 <_free_r+0x6c>
   860ee:	bf00      	nop
   860f0:	200705c8 	.word	0x200705c8
   860f4:	200705d0 	.word	0x200705d0
   860f8:	200709d0 	.word	0x200709d0
   860fc:	20078cac 	.word	0x20078cac

00086100 <__sfvwrite_r>:
   86100:	e92d 4ff0 	stmdb	sp!, {r4, r5, r6, r7, r8, r9, sl, fp, lr}
   86104:	6893      	ldr	r3, [r2, #8]
   86106:	b083      	sub	sp, #12
   86108:	4616      	mov	r6, r2
   8610a:	4681      	mov	r9, r0
   8610c:	460c      	mov	r4, r1
   8610e:	b32b      	cbz	r3, 8615c <__sfvwrite_r+0x5c>
   86110:	898b      	ldrh	r3, [r1, #12]
   86112:	0719      	lsls	r1, r3, #28
   86114:	d526      	bpl.n	86164 <__sfvwrite_r+0x64>
   86116:	6922      	ldr	r2, [r4, #16]
   86118:	b322      	cbz	r2, 86164 <__sfvwrite_r+0x64>
   8611a:	f003 0202 	and.w	r2, r3, #2
   8611e:	b292      	uxth	r2, r2
   86120:	6835      	ldr	r5, [r6, #0]
   86122:	2a00      	cmp	r2, #0
   86124:	d02c      	beq.n	86180 <__sfvwrite_r+0x80>
   86126:	f04f 0a00 	mov.w	sl, #0
   8612a:	f8df b2e8 	ldr.w	fp, [pc, #744]	; 86414 <__sfvwrite_r+0x314>
   8612e:	46d0      	mov	r8, sl
   86130:	45d8      	cmp	r8, fp
   86132:	bf34      	ite	cc
   86134:	4643      	movcc	r3, r8
   86136:	465b      	movcs	r3, fp
   86138:	4652      	mov	r2, sl
   8613a:	4648      	mov	r0, r9
   8613c:	f1b8 0f00 	cmp.w	r8, #0
   86140:	d04f      	beq.n	861e2 <__sfvwrite_r+0xe2>
   86142:	69e1      	ldr	r1, [r4, #28]
   86144:	6a67      	ldr	r7, [r4, #36]	; 0x24
   86146:	47b8      	blx	r7
   86148:	2800      	cmp	r0, #0
   8614a:	dd56      	ble.n	861fa <__sfvwrite_r+0xfa>
   8614c:	68b3      	ldr	r3, [r6, #8]
   8614e:	4482      	add	sl, r0
   86150:	1a1b      	subs	r3, r3, r0
   86152:	ebc0 0808 	rsb	r8, r0, r8
   86156:	60b3      	str	r3, [r6, #8]
   86158:	2b00      	cmp	r3, #0
   8615a:	d1e9      	bne.n	86130 <__sfvwrite_r+0x30>
   8615c:	2000      	movs	r0, #0
   8615e:	b003      	add	sp, #12
   86160:	e8bd 8ff0 	ldmia.w	sp!, {r4, r5, r6, r7, r8, r9, sl, fp, pc}
   86164:	4648      	mov	r0, r9
   86166:	4621      	mov	r1, r4
   86168:	f7ff fc88 	bl	85a7c <__swsetup_r>
   8616c:	2800      	cmp	r0, #0
   8616e:	f040 8148 	bne.w	86402 <__sfvwrite_r+0x302>
   86172:	89a3      	ldrh	r3, [r4, #12]
   86174:	6835      	ldr	r5, [r6, #0]
   86176:	f003 0202 	and.w	r2, r3, #2
   8617a:	b292      	uxth	r2, r2
   8617c:	2a00      	cmp	r2, #0
   8617e:	d1d2      	bne.n	86126 <__sfvwrite_r+0x26>
   86180:	f013 0a01 	ands.w	sl, r3, #1
   86184:	d142      	bne.n	8620c <__sfvwrite_r+0x10c>
   86186:	46d0      	mov	r8, sl
   86188:	f1b8 0f00 	cmp.w	r8, #0
   8618c:	d023      	beq.n	861d6 <__sfvwrite_r+0xd6>
   8618e:	059a      	lsls	r2, r3, #22
   86190:	68a7      	ldr	r7, [r4, #8]
   86192:	d576      	bpl.n	86282 <__sfvwrite_r+0x182>
   86194:	45b8      	cmp	r8, r7
   86196:	f0c0 80a4 	bcc.w	862e2 <__sfvwrite_r+0x1e2>
   8619a:	f413 6f90 	tst.w	r3, #1152	; 0x480
   8619e:	f040 80b2 	bne.w	86306 <__sfvwrite_r+0x206>
   861a2:	6820      	ldr	r0, [r4, #0]
   861a4:	46bb      	mov	fp, r7
   861a6:	4651      	mov	r1, sl
   861a8:	465a      	mov	r2, fp
   861aa:	f000 fcc1 	bl	86b30 <memmove>
   861ae:	68a2      	ldr	r2, [r4, #8]
   861b0:	6821      	ldr	r1, [r4, #0]
   861b2:	1bd2      	subs	r2, r2, r7
   861b4:	eb01 030b 	add.w	r3, r1, fp
   861b8:	60a2      	str	r2, [r4, #8]
   861ba:	6023      	str	r3, [r4, #0]
   861bc:	4642      	mov	r2, r8
   861be:	68b3      	ldr	r3, [r6, #8]
   861c0:	4492      	add	sl, r2
   861c2:	1a9b      	subs	r3, r3, r2
   861c4:	ebc2 0808 	rsb	r8, r2, r8
   861c8:	60b3      	str	r3, [r6, #8]
   861ca:	2b00      	cmp	r3, #0
   861cc:	d0c6      	beq.n	8615c <__sfvwrite_r+0x5c>
   861ce:	89a3      	ldrh	r3, [r4, #12]
   861d0:	f1b8 0f00 	cmp.w	r8, #0
   861d4:	d1db      	bne.n	8618e <__sfvwrite_r+0x8e>
   861d6:	f8d5 a000 	ldr.w	sl, [r5]
   861da:	f8d5 8004 	ldr.w	r8, [r5, #4]
   861de:	3508      	adds	r5, #8
   861e0:	e7d2      	b.n	86188 <__sfvwrite_r+0x88>
   861e2:	f8d5 a000 	ldr.w	sl, [r5]
   861e6:	f8d5 8004 	ldr.w	r8, [r5, #4]
   861ea:	3508      	adds	r5, #8
   861ec:	e7a0      	b.n	86130 <__sfvwrite_r+0x30>
   861ee:	4648      	mov	r0, r9
   861f0:	4621      	mov	r1, r4
   861f2:	f7ff fd59 	bl	85ca8 <_fflush_r>
   861f6:	2800      	cmp	r0, #0
   861f8:	d059      	beq.n	862ae <__sfvwrite_r+0x1ae>
   861fa:	89a3      	ldrh	r3, [r4, #12]
   861fc:	f043 0340 	orr.w	r3, r3, #64	; 0x40
   86200:	f04f 30ff 	mov.w	r0, #4294967295
   86204:	81a3      	strh	r3, [r4, #12]
   86206:	b003      	add	sp, #12
   86208:	e8bd 8ff0 	ldmia.w	sp!, {r4, r5, r6, r7, r8, r9, sl, fp, pc}
   8620c:	4692      	mov	sl, r2
   8620e:	9201      	str	r2, [sp, #4]
   86210:	4693      	mov	fp, r2
   86212:	4690      	mov	r8, r2
   86214:	f1b8 0f00 	cmp.w	r8, #0
   86218:	d02b      	beq.n	86272 <__sfvwrite_r+0x172>
   8621a:	9f01      	ldr	r7, [sp, #4]
   8621c:	2f00      	cmp	r7, #0
   8621e:	d064      	beq.n	862ea <__sfvwrite_r+0x1ea>
   86220:	6820      	ldr	r0, [r4, #0]
   86222:	6921      	ldr	r1, [r4, #16]
   86224:	45c2      	cmp	sl, r8
   86226:	bf34      	ite	cc
   86228:	4653      	movcc	r3, sl
   8622a:	4643      	movcs	r3, r8
   8622c:	4288      	cmp	r0, r1
   8622e:	461f      	mov	r7, r3
   86230:	f8d4 c008 	ldr.w	ip, [r4, #8]
   86234:	6962      	ldr	r2, [r4, #20]
   86236:	d903      	bls.n	86240 <__sfvwrite_r+0x140>
   86238:	4494      	add	ip, r2
   8623a:	4563      	cmp	r3, ip
   8623c:	f300 80ae 	bgt.w	8639c <__sfvwrite_r+0x29c>
   86240:	4293      	cmp	r3, r2
   86242:	db36      	blt.n	862b2 <__sfvwrite_r+0x1b2>
   86244:	4613      	mov	r3, r2
   86246:	6a67      	ldr	r7, [r4, #36]	; 0x24
   86248:	4648      	mov	r0, r9
   8624a:	69e1      	ldr	r1, [r4, #28]
   8624c:	465a      	mov	r2, fp
   8624e:	47b8      	blx	r7
   86250:	1e07      	subs	r7, r0, #0
   86252:	ddd2      	ble.n	861fa <__sfvwrite_r+0xfa>
   86254:	ebba 0a07 	subs.w	sl, sl, r7
   86258:	d03a      	beq.n	862d0 <__sfvwrite_r+0x1d0>
   8625a:	68b3      	ldr	r3, [r6, #8]
   8625c:	44bb      	add	fp, r7
   8625e:	1bdb      	subs	r3, r3, r7
   86260:	ebc7 0808 	rsb	r8, r7, r8
   86264:	60b3      	str	r3, [r6, #8]
   86266:	2b00      	cmp	r3, #0
   86268:	f43f af78 	beq.w	8615c <__sfvwrite_r+0x5c>
   8626c:	f1b8 0f00 	cmp.w	r8, #0
   86270:	d1d3      	bne.n	8621a <__sfvwrite_r+0x11a>
   86272:	2700      	movs	r7, #0
   86274:	f8d5 b000 	ldr.w	fp, [r5]
   86278:	f8d5 8004 	ldr.w	r8, [r5, #4]
   8627c:	9701      	str	r7, [sp, #4]
   8627e:	3508      	adds	r5, #8
   86280:	e7c8      	b.n	86214 <__sfvwrite_r+0x114>
   86282:	6820      	ldr	r0, [r4, #0]
   86284:	6923      	ldr	r3, [r4, #16]
   86286:	4298      	cmp	r0, r3
   86288:	d802      	bhi.n	86290 <__sfvwrite_r+0x190>
   8628a:	6963      	ldr	r3, [r4, #20]
   8628c:	4598      	cmp	r8, r3
   8628e:	d272      	bcs.n	86376 <__sfvwrite_r+0x276>
   86290:	45b8      	cmp	r8, r7
   86292:	bf38      	it	cc
   86294:	4647      	movcc	r7, r8
   86296:	463a      	mov	r2, r7
   86298:	4651      	mov	r1, sl
   8629a:	f000 fc49 	bl	86b30 <memmove>
   8629e:	68a3      	ldr	r3, [r4, #8]
   862a0:	6822      	ldr	r2, [r4, #0]
   862a2:	1bdb      	subs	r3, r3, r7
   862a4:	443a      	add	r2, r7
   862a6:	60a3      	str	r3, [r4, #8]
   862a8:	6022      	str	r2, [r4, #0]
   862aa:	2b00      	cmp	r3, #0
   862ac:	d09f      	beq.n	861ee <__sfvwrite_r+0xee>
   862ae:	463a      	mov	r2, r7
   862b0:	e785      	b.n	861be <__sfvwrite_r+0xbe>
   862b2:	461a      	mov	r2, r3
   862b4:	4659      	mov	r1, fp
   862b6:	9300      	str	r3, [sp, #0]
   862b8:	f000 fc3a 	bl	86b30 <memmove>
   862bc:	9b00      	ldr	r3, [sp, #0]
   862be:	68a1      	ldr	r1, [r4, #8]
   862c0:	6822      	ldr	r2, [r4, #0]
   862c2:	1ac9      	subs	r1, r1, r3
   862c4:	ebba 0a07 	subs.w	sl, sl, r7
   862c8:	4413      	add	r3, r2
   862ca:	60a1      	str	r1, [r4, #8]
   862cc:	6023      	str	r3, [r4, #0]
   862ce:	d1c4      	bne.n	8625a <__sfvwrite_r+0x15a>
   862d0:	4648      	mov	r0, r9
   862d2:	4621      	mov	r1, r4
   862d4:	f7ff fce8 	bl	85ca8 <_fflush_r>
   862d8:	2800      	cmp	r0, #0
   862da:	d18e      	bne.n	861fa <__sfvwrite_r+0xfa>
   862dc:	f8cd a004 	str.w	sl, [sp, #4]
   862e0:	e7bb      	b.n	8625a <__sfvwrite_r+0x15a>
   862e2:	6820      	ldr	r0, [r4, #0]
   862e4:	4647      	mov	r7, r8
   862e6:	46c3      	mov	fp, r8
   862e8:	e75d      	b.n	861a6 <__sfvwrite_r+0xa6>
   862ea:	4658      	mov	r0, fp
   862ec:	210a      	movs	r1, #10
   862ee:	4642      	mov	r2, r8
   862f0:	f000 fbd4 	bl	86a9c <memchr>
   862f4:	2800      	cmp	r0, #0
   862f6:	d07f      	beq.n	863f8 <__sfvwrite_r+0x2f8>
   862f8:	f100 0a01 	add.w	sl, r0, #1
   862fc:	2701      	movs	r7, #1
   862fe:	ebcb 0a0a 	rsb	sl, fp, sl
   86302:	9701      	str	r7, [sp, #4]
   86304:	e78c      	b.n	86220 <__sfvwrite_r+0x120>
   86306:	6822      	ldr	r2, [r4, #0]
   86308:	6921      	ldr	r1, [r4, #16]
   8630a:	6967      	ldr	r7, [r4, #20]
   8630c:	ebc1 0c02 	rsb	ip, r1, r2
   86310:	eb07 0747 	add.w	r7, r7, r7, lsl #1
   86314:	f10c 0201 	add.w	r2, ip, #1
   86318:	eb07 77d7 	add.w	r7, r7, r7, lsr #31
   8631c:	4442      	add	r2, r8
   8631e:	107f      	asrs	r7, r7, #1
   86320:	4297      	cmp	r7, r2
   86322:	bf34      	ite	cc
   86324:	4617      	movcc	r7, r2
   86326:	463a      	movcs	r2, r7
   86328:	055b      	lsls	r3, r3, #21
   8632a:	d54f      	bpl.n	863cc <__sfvwrite_r+0x2cc>
   8632c:	4611      	mov	r1, r2
   8632e:	4648      	mov	r0, r9
   86330:	f8cd c000 	str.w	ip, [sp]
   86334:	f000 f916 	bl	86564 <_malloc_r>
   86338:	f8dd c000 	ldr.w	ip, [sp]
   8633c:	4683      	mov	fp, r0
   8633e:	2800      	cmp	r0, #0
   86340:	d062      	beq.n	86408 <__sfvwrite_r+0x308>
   86342:	4662      	mov	r2, ip
   86344:	6921      	ldr	r1, [r4, #16]
   86346:	f8cd c000 	str.w	ip, [sp]
   8634a:	f7fe fb49 	bl	849e0 <memcpy>
   8634e:	89a2      	ldrh	r2, [r4, #12]
   86350:	f8dd c000 	ldr.w	ip, [sp]
   86354:	f422 6290 	bic.w	r2, r2, #1152	; 0x480
   86358:	f042 0280 	orr.w	r2, r2, #128	; 0x80
   8635c:	81a2      	strh	r2, [r4, #12]
   8635e:	eb0b 000c 	add.w	r0, fp, ip
   86362:	ebcc 0207 	rsb	r2, ip, r7
   86366:	f8c4 b010 	str.w	fp, [r4, #16]
   8636a:	6167      	str	r7, [r4, #20]
   8636c:	6020      	str	r0, [r4, #0]
   8636e:	60a2      	str	r2, [r4, #8]
   86370:	4647      	mov	r7, r8
   86372:	46c3      	mov	fp, r8
   86374:	e717      	b.n	861a6 <__sfvwrite_r+0xa6>
   86376:	f06f 4200 	mvn.w	r2, #2147483648	; 0x80000000
   8637a:	4590      	cmp	r8, r2
   8637c:	bf38      	it	cc
   8637e:	4642      	movcc	r2, r8
   86380:	fb92 f2f3 	sdiv	r2, r2, r3
   86384:	fb02 f303 	mul.w	r3, r2, r3
   86388:	6a67      	ldr	r7, [r4, #36]	; 0x24
   8638a:	4648      	mov	r0, r9
   8638c:	69e1      	ldr	r1, [r4, #28]
   8638e:	4652      	mov	r2, sl
   86390:	47b8      	blx	r7
   86392:	2800      	cmp	r0, #0
   86394:	f77f af31 	ble.w	861fa <__sfvwrite_r+0xfa>
   86398:	4602      	mov	r2, r0
   8639a:	e710      	b.n	861be <__sfvwrite_r+0xbe>
   8639c:	4662      	mov	r2, ip
   8639e:	4659      	mov	r1, fp
   863a0:	f8cd c000 	str.w	ip, [sp]
   863a4:	f000 fbc4 	bl	86b30 <memmove>
   863a8:	f8dd c000 	ldr.w	ip, [sp]
   863ac:	6823      	ldr	r3, [r4, #0]
   863ae:	4648      	mov	r0, r9
   863b0:	4463      	add	r3, ip
   863b2:	6023      	str	r3, [r4, #0]
   863b4:	4621      	mov	r1, r4
   863b6:	f8cd c000 	str.w	ip, [sp]
   863ba:	f7ff fc75 	bl	85ca8 <_fflush_r>
   863be:	f8dd c000 	ldr.w	ip, [sp]
   863c2:	2800      	cmp	r0, #0
   863c4:	f47f af19 	bne.w	861fa <__sfvwrite_r+0xfa>
   863c8:	4667      	mov	r7, ip
   863ca:	e743      	b.n	86254 <__sfvwrite_r+0x154>
   863cc:	4648      	mov	r0, r9
   863ce:	f8cd c000 	str.w	ip, [sp]
   863d2:	f000 fc17 	bl	86c04 <_realloc_r>
   863d6:	f8dd c000 	ldr.w	ip, [sp]
   863da:	4683      	mov	fp, r0
   863dc:	2800      	cmp	r0, #0
   863de:	d1be      	bne.n	8635e <__sfvwrite_r+0x25e>
   863e0:	4648      	mov	r0, r9
   863e2:	6921      	ldr	r1, [r4, #16]
   863e4:	f7ff fdc0 	bl	85f68 <_free_r>
   863e8:	89a3      	ldrh	r3, [r4, #12]
   863ea:	220c      	movs	r2, #12
   863ec:	f023 0380 	bic.w	r3, r3, #128	; 0x80
   863f0:	b29b      	uxth	r3, r3
   863f2:	f8c9 2000 	str.w	r2, [r9]
   863f6:	e701      	b.n	861fc <__sfvwrite_r+0xfc>
   863f8:	2701      	movs	r7, #1
   863fa:	f108 0a01 	add.w	sl, r8, #1
   863fe:	9701      	str	r7, [sp, #4]
   86400:	e70e      	b.n	86220 <__sfvwrite_r+0x120>
   86402:	f04f 30ff 	mov.w	r0, #4294967295
   86406:	e6aa      	b.n	8615e <__sfvwrite_r+0x5e>
   86408:	230c      	movs	r3, #12
   8640a:	f8c9 3000 	str.w	r3, [r9]
   8640e:	89a3      	ldrh	r3, [r4, #12]
   86410:	e6f4      	b.n	861fc <__sfvwrite_r+0xfc>
   86412:	bf00      	nop
   86414:	7ffffc00 	.word	0x7ffffc00

00086418 <_fwalk>:
   86418:	e92d 41f0 	stmdb	sp!, {r4, r5, r6, r7, r8, lr}
   8641c:	f510 7738 	adds.w	r7, r0, #736	; 0x2e0
   86420:	4688      	mov	r8, r1
   86422:	d019      	beq.n	86458 <_fwalk+0x40>
   86424:	2600      	movs	r6, #0
   86426:	687d      	ldr	r5, [r7, #4]
   86428:	68bc      	ldr	r4, [r7, #8]
   8642a:	3d01      	subs	r5, #1
   8642c:	d40e      	bmi.n	8644c <_fwalk+0x34>
   8642e:	89a3      	ldrh	r3, [r4, #12]
   86430:	3d01      	subs	r5, #1
   86432:	2b01      	cmp	r3, #1
   86434:	d906      	bls.n	86444 <_fwalk+0x2c>
   86436:	f9b4 300e 	ldrsh.w	r3, [r4, #14]
   8643a:	4620      	mov	r0, r4
   8643c:	3301      	adds	r3, #1
   8643e:	d001      	beq.n	86444 <_fwalk+0x2c>
   86440:	47c0      	blx	r8
   86442:	4306      	orrs	r6, r0
   86444:	1c6b      	adds	r3, r5, #1
   86446:	f104 0468 	add.w	r4, r4, #104	; 0x68
   8644a:	d1f0      	bne.n	8642e <_fwalk+0x16>
   8644c:	683f      	ldr	r7, [r7, #0]
   8644e:	2f00      	cmp	r7, #0
   86450:	d1e9      	bne.n	86426 <_fwalk+0xe>
   86452:	4630      	mov	r0, r6
   86454:	e8bd 81f0 	ldmia.w	sp!, {r4, r5, r6, r7, r8, pc}
   86458:	463e      	mov	r6, r7
   8645a:	4630      	mov	r0, r6
   8645c:	e8bd 81f0 	ldmia.w	sp!, {r4, r5, r6, r7, r8, pc}

00086460 <__locale_charset>:
   86460:	4800      	ldr	r0, [pc, #0]	; (86464 <__locale_charset+0x4>)
   86462:	4770      	bx	lr
   86464:	200705a4 	.word	0x200705a4

00086468 <__locale_mb_cur_max>:
   86468:	4b01      	ldr	r3, [pc, #4]	; (86470 <__locale_mb_cur_max+0x8>)
   8646a:	6818      	ldr	r0, [r3, #0]
   8646c:	4770      	bx	lr
   8646e:	bf00      	nop
   86470:	200705c4 	.word	0x200705c4

00086474 <__smakebuf_r>:
   86474:	b5f0      	push	{r4, r5, r6, r7, lr}
   86476:	898b      	ldrh	r3, [r1, #12]
   86478:	b091      	sub	sp, #68	; 0x44
   8647a:	b29a      	uxth	r2, r3
   8647c:	0796      	lsls	r6, r2, #30
   8647e:	460c      	mov	r4, r1
   86480:	4605      	mov	r5, r0
   86482:	d437      	bmi.n	864f4 <__smakebuf_r+0x80>
   86484:	f9b1 100e 	ldrsh.w	r1, [r1, #14]
   86488:	2900      	cmp	r1, #0
   8648a:	db17      	blt.n	864bc <__smakebuf_r+0x48>
   8648c:	aa01      	add	r2, sp, #4
   8648e:	f000 ff39 	bl	87304 <_fstat_r>
   86492:	2800      	cmp	r0, #0
   86494:	db10      	blt.n	864b8 <__smakebuf_r+0x44>
   86496:	9b02      	ldr	r3, [sp, #8]
   86498:	f403 4370 	and.w	r3, r3, #61440	; 0xf000
   8649c:	f5b3 5100 	subs.w	r1, r3, #8192	; 0x2000
   864a0:	424f      	negs	r7, r1
   864a2:	414f      	adcs	r7, r1
   864a4:	f5b3 4f00 	cmp.w	r3, #32768	; 0x8000
   864a8:	d02c      	beq.n	86504 <__smakebuf_r+0x90>
   864aa:	89a3      	ldrh	r3, [r4, #12]
   864ac:	f44f 6680 	mov.w	r6, #1024	; 0x400
   864b0:	f443 6300 	orr.w	r3, r3, #2048	; 0x800
   864b4:	81a3      	strh	r3, [r4, #12]
   864b6:	e00b      	b.n	864d0 <__smakebuf_r+0x5c>
   864b8:	89a3      	ldrh	r3, [r4, #12]
   864ba:	b29a      	uxth	r2, r3
   864bc:	f012 0f80 	tst.w	r2, #128	; 0x80
   864c0:	f443 6300 	orr.w	r3, r3, #2048	; 0x800
   864c4:	81a3      	strh	r3, [r4, #12]
   864c6:	bf14      	ite	ne
   864c8:	2640      	movne	r6, #64	; 0x40
   864ca:	f44f 6680 	moveq.w	r6, #1024	; 0x400
   864ce:	2700      	movs	r7, #0
   864d0:	4628      	mov	r0, r5
   864d2:	4631      	mov	r1, r6
   864d4:	f000 f846 	bl	86564 <_malloc_r>
   864d8:	89a3      	ldrh	r3, [r4, #12]
   864da:	2800      	cmp	r0, #0
   864dc:	d029      	beq.n	86532 <__smakebuf_r+0xbe>
   864de:	4a1b      	ldr	r2, [pc, #108]	; (8654c <__smakebuf_r+0xd8>)
   864e0:	f043 0380 	orr.w	r3, r3, #128	; 0x80
   864e4:	63ea      	str	r2, [r5, #60]	; 0x3c
   864e6:	81a3      	strh	r3, [r4, #12]
   864e8:	6020      	str	r0, [r4, #0]
   864ea:	6120      	str	r0, [r4, #16]
   864ec:	6166      	str	r6, [r4, #20]
   864ee:	b9a7      	cbnz	r7, 8651a <__smakebuf_r+0xa6>
   864f0:	b011      	add	sp, #68	; 0x44
   864f2:	bdf0      	pop	{r4, r5, r6, r7, pc}
   864f4:	f101 0343 	add.w	r3, r1, #67	; 0x43
   864f8:	2201      	movs	r2, #1
   864fa:	600b      	str	r3, [r1, #0]
   864fc:	610b      	str	r3, [r1, #16]
   864fe:	614a      	str	r2, [r1, #20]
   86500:	b011      	add	sp, #68	; 0x44
   86502:	bdf0      	pop	{r4, r5, r6, r7, pc}
   86504:	4a12      	ldr	r2, [pc, #72]	; (86550 <__smakebuf_r+0xdc>)
   86506:	6aa3      	ldr	r3, [r4, #40]	; 0x28
   86508:	4293      	cmp	r3, r2
   8650a:	d1ce      	bne.n	864aa <__smakebuf_r+0x36>
   8650c:	89a3      	ldrh	r3, [r4, #12]
   8650e:	f44f 6680 	mov.w	r6, #1024	; 0x400
   86512:	4333      	orrs	r3, r6
   86514:	81a3      	strh	r3, [r4, #12]
   86516:	64e6      	str	r6, [r4, #76]	; 0x4c
   86518:	e7da      	b.n	864d0 <__smakebuf_r+0x5c>
   8651a:	4628      	mov	r0, r5
   8651c:	f9b4 100e 	ldrsh.w	r1, [r4, #14]
   86520:	f000 ff04 	bl	8732c <_isatty_r>
   86524:	2800      	cmp	r0, #0
   86526:	d0e3      	beq.n	864f0 <__smakebuf_r+0x7c>
   86528:	89a3      	ldrh	r3, [r4, #12]
   8652a:	f043 0301 	orr.w	r3, r3, #1
   8652e:	81a3      	strh	r3, [r4, #12]
   86530:	e7de      	b.n	864f0 <__smakebuf_r+0x7c>
   86532:	059a      	lsls	r2, r3, #22
   86534:	d4dc      	bmi.n	864f0 <__smakebuf_r+0x7c>
   86536:	f104 0243 	add.w	r2, r4, #67	; 0x43
   8653a:	f043 0302 	orr.w	r3, r3, #2
   8653e:	2101      	movs	r1, #1
   86540:	81a3      	strh	r3, [r4, #12]
   86542:	6022      	str	r2, [r4, #0]
   86544:	6122      	str	r2, [r4, #16]
   86546:	6161      	str	r1, [r4, #20]
   86548:	e7d2      	b.n	864f0 <__smakebuf_r+0x7c>
   8654a:	bf00      	nop
   8654c:	00085cd5 	.word	0x00085cd5
   86550:	00087045 	.word	0x00087045

00086554 <malloc>:
   86554:	4b02      	ldr	r3, [pc, #8]	; (86560 <malloc+0xc>)
   86556:	4601      	mov	r1, r0
   86558:	6818      	ldr	r0, [r3, #0]
   8655a:	f000 b803 	b.w	86564 <_malloc_r>
   8655e:	bf00      	nop
   86560:	200705a0 	.word	0x200705a0

00086564 <_malloc_r>:
   86564:	e92d 4ff0 	stmdb	sp!, {r4, r5, r6, r7, r8, r9, sl, fp, lr}
   86568:	f101 050b 	add.w	r5, r1, #11
   8656c:	2d16      	cmp	r5, #22
   8656e:	b083      	sub	sp, #12
   86570:	4606      	mov	r6, r0
   86572:	d927      	bls.n	865c4 <_malloc_r+0x60>
   86574:	f035 0507 	bics.w	r5, r5, #7
   86578:	d427      	bmi.n	865ca <_malloc_r+0x66>
   8657a:	42a9      	cmp	r1, r5
   8657c:	d825      	bhi.n	865ca <_malloc_r+0x66>
   8657e:	4630      	mov	r0, r6
   86580:	f000 fb3c 	bl	86bfc <__malloc_lock>
   86584:	f5b5 7ffc 	cmp.w	r5, #504	; 0x1f8
   86588:	d226      	bcs.n	865d8 <_malloc_r+0x74>
   8658a:	4fc1      	ldr	r7, [pc, #772]	; (86890 <_malloc_r+0x32c>)
   8658c:	ea4f 0cd5 	mov.w	ip, r5, lsr #3
   86590:	eb07 03cc 	add.w	r3, r7, ip, lsl #3
   86594:	68dc      	ldr	r4, [r3, #12]
   86596:	429c      	cmp	r4, r3
   86598:	f000 81d2 	beq.w	86940 <_malloc_r+0x3dc>
   8659c:	6863      	ldr	r3, [r4, #4]
   8659e:	68e2      	ldr	r2, [r4, #12]
   865a0:	f023 0303 	bic.w	r3, r3, #3
   865a4:	4423      	add	r3, r4
   865a6:	6858      	ldr	r0, [r3, #4]
   865a8:	68a1      	ldr	r1, [r4, #8]
   865aa:	f040 0501 	orr.w	r5, r0, #1
   865ae:	60ca      	str	r2, [r1, #12]
   865b0:	4630      	mov	r0, r6
   865b2:	6091      	str	r1, [r2, #8]
   865b4:	605d      	str	r5, [r3, #4]
   865b6:	f000 fb23 	bl	86c00 <__malloc_unlock>
   865ba:	3408      	adds	r4, #8
   865bc:	4620      	mov	r0, r4
   865be:	b003      	add	sp, #12
   865c0:	e8bd 8ff0 	ldmia.w	sp!, {r4, r5, r6, r7, r8, r9, sl, fp, pc}
   865c4:	2510      	movs	r5, #16
   865c6:	42a9      	cmp	r1, r5
   865c8:	d9d9      	bls.n	8657e <_malloc_r+0x1a>
   865ca:	2400      	movs	r4, #0
   865cc:	230c      	movs	r3, #12
   865ce:	4620      	mov	r0, r4
   865d0:	6033      	str	r3, [r6, #0]
   865d2:	b003      	add	sp, #12
   865d4:	e8bd 8ff0 	ldmia.w	sp!, {r4, r5, r6, r7, r8, r9, sl, fp, pc}
   865d8:	ea5f 2c55 	movs.w	ip, r5, lsr #9
   865dc:	f000 8089 	beq.w	866f2 <_malloc_r+0x18e>
   865e0:	f1bc 0f04 	cmp.w	ip, #4
   865e4:	f200 8160 	bhi.w	868a8 <_malloc_r+0x344>
   865e8:	ea4f 1c95 	mov.w	ip, r5, lsr #6
   865ec:	f10c 0c38 	add.w	ip, ip, #56	; 0x38
   865f0:	ea4f 014c 	mov.w	r1, ip, lsl #1
   865f4:	4fa6      	ldr	r7, [pc, #664]	; (86890 <_malloc_r+0x32c>)
   865f6:	eb07 0181 	add.w	r1, r7, r1, lsl #2
   865fa:	68cc      	ldr	r4, [r1, #12]
   865fc:	42a1      	cmp	r1, r4
   865fe:	d105      	bne.n	8660c <_malloc_r+0xa8>
   86600:	e00c      	b.n	8661c <_malloc_r+0xb8>
   86602:	2b00      	cmp	r3, #0
   86604:	da79      	bge.n	866fa <_malloc_r+0x196>
   86606:	68e4      	ldr	r4, [r4, #12]
   86608:	42a1      	cmp	r1, r4
   8660a:	d007      	beq.n	8661c <_malloc_r+0xb8>
   8660c:	6862      	ldr	r2, [r4, #4]
   8660e:	f022 0203 	bic.w	r2, r2, #3
   86612:	1b53      	subs	r3, r2, r5
   86614:	2b0f      	cmp	r3, #15
   86616:	ddf4      	ble.n	86602 <_malloc_r+0x9e>
   86618:	f10c 3cff 	add.w	ip, ip, #4294967295
   8661c:	f10c 0c01 	add.w	ip, ip, #1
   86620:	4b9b      	ldr	r3, [pc, #620]	; (86890 <_malloc_r+0x32c>)
   86622:	693c      	ldr	r4, [r7, #16]
   86624:	f103 0e08 	add.w	lr, r3, #8
   86628:	4574      	cmp	r4, lr
   8662a:	f000 817e 	beq.w	8692a <_malloc_r+0x3c6>
   8662e:	6861      	ldr	r1, [r4, #4]
   86630:	f021 0103 	bic.w	r1, r1, #3
   86634:	1b4a      	subs	r2, r1, r5
   86636:	2a0f      	cmp	r2, #15
   86638:	f300 8164 	bgt.w	86904 <_malloc_r+0x3a0>
   8663c:	2a00      	cmp	r2, #0
   8663e:	f8c3 e014 	str.w	lr, [r3, #20]
   86642:	f8c3 e010 	str.w	lr, [r3, #16]
   86646:	da69      	bge.n	8671c <_malloc_r+0x1b8>
   86648:	f5b1 7f00 	cmp.w	r1, #512	; 0x200
   8664c:	f080 813a 	bcs.w	868c4 <_malloc_r+0x360>
   86650:	08c9      	lsrs	r1, r1, #3
   86652:	108a      	asrs	r2, r1, #2
   86654:	f04f 0801 	mov.w	r8, #1
   86658:	fa08 f802 	lsl.w	r8, r8, r2
   8665c:	eb03 01c1 	add.w	r1, r3, r1, lsl #3
   86660:	685a      	ldr	r2, [r3, #4]
   86662:	6888      	ldr	r0, [r1, #8]
   86664:	ea48 0202 	orr.w	r2, r8, r2
   86668:	60a0      	str	r0, [r4, #8]
   8666a:	60e1      	str	r1, [r4, #12]
   8666c:	605a      	str	r2, [r3, #4]
   8666e:	608c      	str	r4, [r1, #8]
   86670:	60c4      	str	r4, [r0, #12]
   86672:	ea4f 03ac 	mov.w	r3, ip, asr #2
   86676:	2001      	movs	r0, #1
   86678:	4098      	lsls	r0, r3
   8667a:	4290      	cmp	r0, r2
   8667c:	d85b      	bhi.n	86736 <_malloc_r+0x1d2>
   8667e:	4202      	tst	r2, r0
   86680:	d106      	bne.n	86690 <_malloc_r+0x12c>
   86682:	f02c 0c03 	bic.w	ip, ip, #3
   86686:	0040      	lsls	r0, r0, #1
   86688:	4202      	tst	r2, r0
   8668a:	f10c 0c04 	add.w	ip, ip, #4
   8668e:	d0fa      	beq.n	86686 <_malloc_r+0x122>
   86690:	eb07 08cc 	add.w	r8, r7, ip, lsl #3
   86694:	4644      	mov	r4, r8
   86696:	46e1      	mov	r9, ip
   86698:	68e3      	ldr	r3, [r4, #12]
   8669a:	429c      	cmp	r4, r3
   8669c:	d107      	bne.n	866ae <_malloc_r+0x14a>
   8669e:	e146      	b.n	8692e <_malloc_r+0x3ca>
   866a0:	2a00      	cmp	r2, #0
   866a2:	f280 8157 	bge.w	86954 <_malloc_r+0x3f0>
   866a6:	68db      	ldr	r3, [r3, #12]
   866a8:	429c      	cmp	r4, r3
   866aa:	f000 8140 	beq.w	8692e <_malloc_r+0x3ca>
   866ae:	6859      	ldr	r1, [r3, #4]
   866b0:	f021 0103 	bic.w	r1, r1, #3
   866b4:	1b4a      	subs	r2, r1, r5
   866b6:	2a0f      	cmp	r2, #15
   866b8:	ddf2      	ble.n	866a0 <_malloc_r+0x13c>
   866ba:	461c      	mov	r4, r3
   866bc:	f854 cf08 	ldr.w	ip, [r4, #8]!
   866c0:	68d9      	ldr	r1, [r3, #12]
   866c2:	f045 0901 	orr.w	r9, r5, #1
   866c6:	f042 0801 	orr.w	r8, r2, #1
   866ca:	441d      	add	r5, r3
   866cc:	f8c3 9004 	str.w	r9, [r3, #4]
   866d0:	4630      	mov	r0, r6
   866d2:	f8cc 100c 	str.w	r1, [ip, #12]
   866d6:	f8c1 c008 	str.w	ip, [r1, #8]
   866da:	617d      	str	r5, [r7, #20]
   866dc:	613d      	str	r5, [r7, #16]
   866de:	f8c5 e00c 	str.w	lr, [r5, #12]
   866e2:	f8c5 e008 	str.w	lr, [r5, #8]
   866e6:	f8c5 8004 	str.w	r8, [r5, #4]
   866ea:	50aa      	str	r2, [r5, r2]
   866ec:	f000 fa88 	bl	86c00 <__malloc_unlock>
   866f0:	e764      	b.n	865bc <_malloc_r+0x58>
   866f2:	217e      	movs	r1, #126	; 0x7e
   866f4:	f04f 0c3f 	mov.w	ip, #63	; 0x3f
   866f8:	e77c      	b.n	865f4 <_malloc_r+0x90>
   866fa:	4422      	add	r2, r4
   866fc:	6850      	ldr	r0, [r2, #4]
   866fe:	68e3      	ldr	r3, [r4, #12]
   86700:	68a1      	ldr	r1, [r4, #8]
   86702:	f040 0501 	orr.w	r5, r0, #1
   86706:	60cb      	str	r3, [r1, #12]
   86708:	4630      	mov	r0, r6
   8670a:	6099      	str	r1, [r3, #8]
   8670c:	6055      	str	r5, [r2, #4]
   8670e:	f000 fa77 	bl	86c00 <__malloc_unlock>
   86712:	3408      	adds	r4, #8
   86714:	4620      	mov	r0, r4
   86716:	b003      	add	sp, #12
   86718:	e8bd 8ff0 	ldmia.w	sp!, {r4, r5, r6, r7, r8, r9, sl, fp, pc}
   8671c:	4421      	add	r1, r4
   8671e:	684b      	ldr	r3, [r1, #4]
   86720:	4630      	mov	r0, r6
   86722:	f043 0301 	orr.w	r3, r3, #1
   86726:	604b      	str	r3, [r1, #4]
   86728:	f000 fa6a 	bl	86c00 <__malloc_unlock>
   8672c:	3408      	adds	r4, #8
   8672e:	4620      	mov	r0, r4
   86730:	b003      	add	sp, #12
   86732:	e8bd 8ff0 	ldmia.w	sp!, {r4, r5, r6, r7, r8, r9, sl, fp, pc}
   86736:	68bc      	ldr	r4, [r7, #8]
   86738:	6863      	ldr	r3, [r4, #4]
   8673a:	f023 0903 	bic.w	r9, r3, #3
   8673e:	45a9      	cmp	r9, r5
   86740:	d304      	bcc.n	8674c <_malloc_r+0x1e8>
   86742:	ebc5 0309 	rsb	r3, r5, r9
   86746:	2b0f      	cmp	r3, #15
   86748:	f300 8091 	bgt.w	8686e <_malloc_r+0x30a>
   8674c:	4b51      	ldr	r3, [pc, #324]	; (86894 <_malloc_r+0x330>)
   8674e:	4a52      	ldr	r2, [pc, #328]	; (86898 <_malloc_r+0x334>)
   86750:	6819      	ldr	r1, [r3, #0]
   86752:	6813      	ldr	r3, [r2, #0]
   86754:	eb05 0a01 	add.w	sl, r5, r1
   86758:	3301      	adds	r3, #1
   8675a:	eb04 0b09 	add.w	fp, r4, r9
   8675e:	f000 8161 	beq.w	86a24 <_malloc_r+0x4c0>
   86762:	f50a 5a80 	add.w	sl, sl, #4096	; 0x1000
   86766:	f10a 0a0f 	add.w	sl, sl, #15
   8676a:	f42a 6a7f 	bic.w	sl, sl, #4080	; 0xff0
   8676e:	f02a 0a0f 	bic.w	sl, sl, #15
   86772:	4630      	mov	r0, r6
   86774:	4651      	mov	r1, sl
   86776:	9201      	str	r2, [sp, #4]
   86778:	f000 fc24 	bl	86fc4 <_sbrk_r>
   8677c:	f1b0 3fff 	cmp.w	r0, #4294967295
   86780:	4680      	mov	r8, r0
   86782:	9a01      	ldr	r2, [sp, #4]
   86784:	f000 8101 	beq.w	8698a <_malloc_r+0x426>
   86788:	4583      	cmp	fp, r0
   8678a:	f200 80fb 	bhi.w	86984 <_malloc_r+0x420>
   8678e:	f8df c114 	ldr.w	ip, [pc, #276]	; 868a4 <_malloc_r+0x340>
   86792:	45c3      	cmp	fp, r8
   86794:	f8dc 3000 	ldr.w	r3, [ip]
   86798:	4453      	add	r3, sl
   8679a:	f8cc 3000 	str.w	r3, [ip]
   8679e:	f000 814a 	beq.w	86a36 <_malloc_r+0x4d2>
   867a2:	6812      	ldr	r2, [r2, #0]
   867a4:	493c      	ldr	r1, [pc, #240]	; (86898 <_malloc_r+0x334>)
   867a6:	3201      	adds	r2, #1
   867a8:	bf1b      	ittet	ne
   867aa:	ebcb 0b08 	rsbne	fp, fp, r8
   867ae:	445b      	addne	r3, fp
   867b0:	f8c1 8000 	streq.w	r8, [r1]
   867b4:	f8cc 3000 	strne.w	r3, [ip]
   867b8:	f018 0307 	ands.w	r3, r8, #7
   867bc:	f000 8114 	beq.w	869e8 <_malloc_r+0x484>
   867c0:	f1c3 0208 	rsb	r2, r3, #8
   867c4:	f5c3 5380 	rsb	r3, r3, #4096	; 0x1000
   867c8:	4490      	add	r8, r2
   867ca:	3308      	adds	r3, #8
   867cc:	44c2      	add	sl, r8
   867ce:	f3ca 0a0b 	ubfx	sl, sl, #0, #12
   867d2:	ebca 0a03 	rsb	sl, sl, r3
   867d6:	4651      	mov	r1, sl
   867d8:	4630      	mov	r0, r6
   867da:	f8cd c004 	str.w	ip, [sp, #4]
   867de:	f000 fbf1 	bl	86fc4 <_sbrk_r>
   867e2:	1c43      	adds	r3, r0, #1
   867e4:	f8dd c004 	ldr.w	ip, [sp, #4]
   867e8:	f000 8135 	beq.w	86a56 <_malloc_r+0x4f2>
   867ec:	ebc8 0200 	rsb	r2, r8, r0
   867f0:	4452      	add	r2, sl
   867f2:	f042 0201 	orr.w	r2, r2, #1
   867f6:	f8dc 3000 	ldr.w	r3, [ip]
   867fa:	42bc      	cmp	r4, r7
   867fc:	4453      	add	r3, sl
   867fe:	f8c7 8008 	str.w	r8, [r7, #8]
   86802:	f8cc 3000 	str.w	r3, [ip]
   86806:	f8c8 2004 	str.w	r2, [r8, #4]
   8680a:	f8df a098 	ldr.w	sl, [pc, #152]	; 868a4 <_malloc_r+0x340>
   8680e:	d015      	beq.n	8683c <_malloc_r+0x2d8>
   86810:	f1b9 0f0f 	cmp.w	r9, #15
   86814:	f240 80eb 	bls.w	869ee <_malloc_r+0x48a>
   86818:	6861      	ldr	r1, [r4, #4]
   8681a:	f1a9 020c 	sub.w	r2, r9, #12
   8681e:	f022 0207 	bic.w	r2, r2, #7
   86822:	f001 0101 	and.w	r1, r1, #1
   86826:	ea42 0e01 	orr.w	lr, r2, r1
   8682a:	2005      	movs	r0, #5
   8682c:	18a1      	adds	r1, r4, r2
   8682e:	2a0f      	cmp	r2, #15
   86830:	f8c4 e004 	str.w	lr, [r4, #4]
   86834:	6048      	str	r0, [r1, #4]
   86836:	6088      	str	r0, [r1, #8]
   86838:	f200 8111 	bhi.w	86a5e <_malloc_r+0x4fa>
   8683c:	4a17      	ldr	r2, [pc, #92]	; (8689c <_malloc_r+0x338>)
   8683e:	68bc      	ldr	r4, [r7, #8]
   86840:	6811      	ldr	r1, [r2, #0]
   86842:	428b      	cmp	r3, r1
   86844:	bf88      	it	hi
   86846:	6013      	strhi	r3, [r2, #0]
   86848:	4a15      	ldr	r2, [pc, #84]	; (868a0 <_malloc_r+0x33c>)
   8684a:	6811      	ldr	r1, [r2, #0]
   8684c:	428b      	cmp	r3, r1
   8684e:	bf88      	it	hi
   86850:	6013      	strhi	r3, [r2, #0]
   86852:	6862      	ldr	r2, [r4, #4]
   86854:	f022 0203 	bic.w	r2, r2, #3
   86858:	4295      	cmp	r5, r2
   8685a:	ebc5 0302 	rsb	r3, r5, r2
   8685e:	d801      	bhi.n	86864 <_malloc_r+0x300>
   86860:	2b0f      	cmp	r3, #15
   86862:	dc04      	bgt.n	8686e <_malloc_r+0x30a>
   86864:	4630      	mov	r0, r6
   86866:	f000 f9cb 	bl	86c00 <__malloc_unlock>
   8686a:	2400      	movs	r4, #0
   8686c:	e6a6      	b.n	865bc <_malloc_r+0x58>
   8686e:	f045 0201 	orr.w	r2, r5, #1
   86872:	f043 0301 	orr.w	r3, r3, #1
   86876:	4425      	add	r5, r4
   86878:	6062      	str	r2, [r4, #4]
   8687a:	4630      	mov	r0, r6
   8687c:	60bd      	str	r5, [r7, #8]
   8687e:	606b      	str	r3, [r5, #4]
   86880:	f000 f9be 	bl	86c00 <__malloc_unlock>
   86884:	3408      	adds	r4, #8
   86886:	4620      	mov	r0, r4
   86888:	b003      	add	sp, #12
   8688a:	e8bd 8ff0 	ldmia.w	sp!, {r4, r5, r6, r7, r8, r9, sl, fp, pc}
   8688e:	bf00      	nop
   86890:	200705c8 	.word	0x200705c8
   86894:	20078cac 	.word	0x20078cac
   86898:	200709d4 	.word	0x200709d4
   8689c:	20078ca8 	.word	0x20078ca8
   868a0:	20078ca4 	.word	0x20078ca4
   868a4:	20078cb0 	.word	0x20078cb0
   868a8:	f1bc 0f14 	cmp.w	ip, #20
   868ac:	d961      	bls.n	86972 <_malloc_r+0x40e>
   868ae:	f1bc 0f54 	cmp.w	ip, #84	; 0x54
   868b2:	f200 808f 	bhi.w	869d4 <_malloc_r+0x470>
   868b6:	ea4f 3c15 	mov.w	ip, r5, lsr #12
   868ba:	f10c 0c6e 	add.w	ip, ip, #110	; 0x6e
   868be:	ea4f 014c 	mov.w	r1, ip, lsl #1
   868c2:	e697      	b.n	865f4 <_malloc_r+0x90>
   868c4:	0a4b      	lsrs	r3, r1, #9
   868c6:	2b04      	cmp	r3, #4
   868c8:	d958      	bls.n	8697c <_malloc_r+0x418>
   868ca:	2b14      	cmp	r3, #20
   868cc:	f200 80ad 	bhi.w	86a2a <_malloc_r+0x4c6>
   868d0:	f103 025b 	add.w	r2, r3, #91	; 0x5b
   868d4:	0050      	lsls	r0, r2, #1
   868d6:	eb07 0080 	add.w	r0, r7, r0, lsl #2
   868da:	6883      	ldr	r3, [r0, #8]
   868dc:	f8df 81b8 	ldr.w	r8, [pc, #440]	; 86a98 <_malloc_r+0x534>
   868e0:	4283      	cmp	r3, r0
   868e2:	f000 808a 	beq.w	869fa <_malloc_r+0x496>
   868e6:	685a      	ldr	r2, [r3, #4]
   868e8:	f022 0203 	bic.w	r2, r2, #3
   868ec:	4291      	cmp	r1, r2
   868ee:	d202      	bcs.n	868f6 <_malloc_r+0x392>
   868f0:	689b      	ldr	r3, [r3, #8]
   868f2:	4298      	cmp	r0, r3
   868f4:	d1f7      	bne.n	868e6 <_malloc_r+0x382>
   868f6:	68d9      	ldr	r1, [r3, #12]
   868f8:	687a      	ldr	r2, [r7, #4]
   868fa:	60e1      	str	r1, [r4, #12]
   868fc:	60a3      	str	r3, [r4, #8]
   868fe:	608c      	str	r4, [r1, #8]
   86900:	60dc      	str	r4, [r3, #12]
   86902:	e6b6      	b.n	86672 <_malloc_r+0x10e>
   86904:	f045 0701 	orr.w	r7, r5, #1
   86908:	f042 0101 	orr.w	r1, r2, #1
   8690c:	4425      	add	r5, r4
   8690e:	6067      	str	r7, [r4, #4]
   86910:	4630      	mov	r0, r6
   86912:	615d      	str	r5, [r3, #20]
   86914:	611d      	str	r5, [r3, #16]
   86916:	f8c5 e00c 	str.w	lr, [r5, #12]
   8691a:	f8c5 e008 	str.w	lr, [r5, #8]
   8691e:	6069      	str	r1, [r5, #4]
   86920:	50aa      	str	r2, [r5, r2]
   86922:	3408      	adds	r4, #8
   86924:	f000 f96c 	bl	86c00 <__malloc_unlock>
   86928:	e648      	b.n	865bc <_malloc_r+0x58>
   8692a:	685a      	ldr	r2, [r3, #4]
   8692c:	e6a1      	b.n	86672 <_malloc_r+0x10e>
   8692e:	f109 0901 	add.w	r9, r9, #1
   86932:	f019 0f03 	tst.w	r9, #3
   86936:	f104 0408 	add.w	r4, r4, #8
   8693a:	f47f aead 	bne.w	86698 <_malloc_r+0x134>
   8693e:	e02d      	b.n	8699c <_malloc_r+0x438>
   86940:	f104 0308 	add.w	r3, r4, #8
   86944:	6964      	ldr	r4, [r4, #20]
   86946:	42a3      	cmp	r3, r4
   86948:	bf08      	it	eq
   8694a:	f10c 0c02 	addeq.w	ip, ip, #2
   8694e:	f43f ae67 	beq.w	86620 <_malloc_r+0xbc>
   86952:	e623      	b.n	8659c <_malloc_r+0x38>
   86954:	4419      	add	r1, r3
   86956:	6848      	ldr	r0, [r1, #4]
   86958:	461c      	mov	r4, r3
   8695a:	f854 2f08 	ldr.w	r2, [r4, #8]!
   8695e:	68db      	ldr	r3, [r3, #12]
   86960:	f040 0501 	orr.w	r5, r0, #1
   86964:	604d      	str	r5, [r1, #4]
   86966:	4630      	mov	r0, r6
   86968:	60d3      	str	r3, [r2, #12]
   8696a:	609a      	str	r2, [r3, #8]
   8696c:	f000 f948 	bl	86c00 <__malloc_unlock>
   86970:	e624      	b.n	865bc <_malloc_r+0x58>
   86972:	f10c 0c5b 	add.w	ip, ip, #91	; 0x5b
   86976:	ea4f 014c 	mov.w	r1, ip, lsl #1
   8697a:	e63b      	b.n	865f4 <_malloc_r+0x90>
   8697c:	098a      	lsrs	r2, r1, #6
   8697e:	3238      	adds	r2, #56	; 0x38
   86980:	0050      	lsls	r0, r2, #1
   86982:	e7a8      	b.n	868d6 <_malloc_r+0x372>
   86984:	42bc      	cmp	r4, r7
   86986:	f43f af02 	beq.w	8678e <_malloc_r+0x22a>
   8698a:	68bc      	ldr	r4, [r7, #8]
   8698c:	6862      	ldr	r2, [r4, #4]
   8698e:	f022 0203 	bic.w	r2, r2, #3
   86992:	e761      	b.n	86858 <_malloc_r+0x2f4>
   86994:	f8d8 8000 	ldr.w	r8, [r8]
   86998:	4598      	cmp	r8, r3
   8699a:	d17a      	bne.n	86a92 <_malloc_r+0x52e>
   8699c:	f01c 0f03 	tst.w	ip, #3
   869a0:	f1a8 0308 	sub.w	r3, r8, #8
   869a4:	f10c 3cff 	add.w	ip, ip, #4294967295
   869a8:	d1f4      	bne.n	86994 <_malloc_r+0x430>
   869aa:	687b      	ldr	r3, [r7, #4]
   869ac:	ea23 0300 	bic.w	r3, r3, r0
   869b0:	607b      	str	r3, [r7, #4]
   869b2:	0040      	lsls	r0, r0, #1
   869b4:	4298      	cmp	r0, r3
   869b6:	f63f aebe 	bhi.w	86736 <_malloc_r+0x1d2>
   869ba:	2800      	cmp	r0, #0
   869bc:	f43f aebb 	beq.w	86736 <_malloc_r+0x1d2>
   869c0:	4203      	tst	r3, r0
   869c2:	46cc      	mov	ip, r9
   869c4:	f47f ae64 	bne.w	86690 <_malloc_r+0x12c>
   869c8:	0040      	lsls	r0, r0, #1
   869ca:	4203      	tst	r3, r0
   869cc:	f10c 0c04 	add.w	ip, ip, #4
   869d0:	d0fa      	beq.n	869c8 <_malloc_r+0x464>
   869d2:	e65d      	b.n	86690 <_malloc_r+0x12c>
   869d4:	f5bc 7faa 	cmp.w	ip, #340	; 0x154
   869d8:	d819      	bhi.n	86a0e <_malloc_r+0x4aa>
   869da:	ea4f 3cd5 	mov.w	ip, r5, lsr #15
   869de:	f10c 0c77 	add.w	ip, ip, #119	; 0x77
   869e2:	ea4f 014c 	mov.w	r1, ip, lsl #1
   869e6:	e605      	b.n	865f4 <_malloc_r+0x90>
   869e8:	f44f 5380 	mov.w	r3, #4096	; 0x1000
   869ec:	e6ee      	b.n	867cc <_malloc_r+0x268>
   869ee:	2301      	movs	r3, #1
   869f0:	f8c8 3004 	str.w	r3, [r8, #4]
   869f4:	4644      	mov	r4, r8
   869f6:	2200      	movs	r2, #0
   869f8:	e72e      	b.n	86858 <_malloc_r+0x2f4>
   869fa:	1092      	asrs	r2, r2, #2
   869fc:	2001      	movs	r0, #1
   869fe:	4090      	lsls	r0, r2
   86a00:	f8d8 2004 	ldr.w	r2, [r8, #4]
   86a04:	4619      	mov	r1, r3
   86a06:	4302      	orrs	r2, r0
   86a08:	f8c8 2004 	str.w	r2, [r8, #4]
   86a0c:	e775      	b.n	868fa <_malloc_r+0x396>
   86a0e:	f240 5354 	movw	r3, #1364	; 0x554
   86a12:	459c      	cmp	ip, r3
   86a14:	d81b      	bhi.n	86a4e <_malloc_r+0x4ea>
   86a16:	ea4f 4c95 	mov.w	ip, r5, lsr #18
   86a1a:	f10c 0c7c 	add.w	ip, ip, #124	; 0x7c
   86a1e:	ea4f 014c 	mov.w	r1, ip, lsl #1
   86a22:	e5e7      	b.n	865f4 <_malloc_r+0x90>
   86a24:	f10a 0a10 	add.w	sl, sl, #16
   86a28:	e6a3      	b.n	86772 <_malloc_r+0x20e>
   86a2a:	2b54      	cmp	r3, #84	; 0x54
   86a2c:	d81f      	bhi.n	86a6e <_malloc_r+0x50a>
   86a2e:	0b0a      	lsrs	r2, r1, #12
   86a30:	326e      	adds	r2, #110	; 0x6e
   86a32:	0050      	lsls	r0, r2, #1
   86a34:	e74f      	b.n	868d6 <_malloc_r+0x372>
   86a36:	f3cb 010b 	ubfx	r1, fp, #0, #12
   86a3a:	2900      	cmp	r1, #0
   86a3c:	f47f aeb1 	bne.w	867a2 <_malloc_r+0x23e>
   86a40:	eb0a 0109 	add.w	r1, sl, r9
   86a44:	68ba      	ldr	r2, [r7, #8]
   86a46:	f041 0101 	orr.w	r1, r1, #1
   86a4a:	6051      	str	r1, [r2, #4]
   86a4c:	e6f6      	b.n	8683c <_malloc_r+0x2d8>
   86a4e:	21fc      	movs	r1, #252	; 0xfc
   86a50:	f04f 0c7e 	mov.w	ip, #126	; 0x7e
   86a54:	e5ce      	b.n	865f4 <_malloc_r+0x90>
   86a56:	2201      	movs	r2, #1
   86a58:	f04f 0a00 	mov.w	sl, #0
   86a5c:	e6cb      	b.n	867f6 <_malloc_r+0x292>
   86a5e:	f104 0108 	add.w	r1, r4, #8
   86a62:	4630      	mov	r0, r6
   86a64:	f7ff fa80 	bl	85f68 <_free_r>
   86a68:	f8da 3000 	ldr.w	r3, [sl]
   86a6c:	e6e6      	b.n	8683c <_malloc_r+0x2d8>
   86a6e:	f5b3 7faa 	cmp.w	r3, #340	; 0x154
   86a72:	d803      	bhi.n	86a7c <_malloc_r+0x518>
   86a74:	0bca      	lsrs	r2, r1, #15
   86a76:	3277      	adds	r2, #119	; 0x77
   86a78:	0050      	lsls	r0, r2, #1
   86a7a:	e72c      	b.n	868d6 <_malloc_r+0x372>
   86a7c:	f240 5254 	movw	r2, #1364	; 0x554
   86a80:	4293      	cmp	r3, r2
   86a82:	d803      	bhi.n	86a8c <_malloc_r+0x528>
   86a84:	0c8a      	lsrs	r2, r1, #18
   86a86:	327c      	adds	r2, #124	; 0x7c
   86a88:	0050      	lsls	r0, r2, #1
   86a8a:	e724      	b.n	868d6 <_malloc_r+0x372>
   86a8c:	20fc      	movs	r0, #252	; 0xfc
   86a8e:	227e      	movs	r2, #126	; 0x7e
   86a90:	e721      	b.n	868d6 <_malloc_r+0x372>
   86a92:	687b      	ldr	r3, [r7, #4]
   86a94:	e78d      	b.n	869b2 <_malloc_r+0x44e>
   86a96:	bf00      	nop
   86a98:	200705c8 	.word	0x200705c8

00086a9c <memchr>:
   86a9c:	0783      	lsls	r3, r0, #30
   86a9e:	b470      	push	{r4, r5, r6}
   86aa0:	b2c9      	uxtb	r1, r1
   86aa2:	d040      	beq.n	86b26 <memchr+0x8a>
   86aa4:	1e54      	subs	r4, r2, #1
   86aa6:	b32a      	cbz	r2, 86af4 <memchr+0x58>
   86aa8:	7803      	ldrb	r3, [r0, #0]
   86aaa:	428b      	cmp	r3, r1
   86aac:	d023      	beq.n	86af6 <memchr+0x5a>
   86aae:	1c43      	adds	r3, r0, #1
   86ab0:	e004      	b.n	86abc <memchr+0x20>
   86ab2:	b1fc      	cbz	r4, 86af4 <memchr+0x58>
   86ab4:	7805      	ldrb	r5, [r0, #0]
   86ab6:	4614      	mov	r4, r2
   86ab8:	428d      	cmp	r5, r1
   86aba:	d01c      	beq.n	86af6 <memchr+0x5a>
   86abc:	f013 0f03 	tst.w	r3, #3
   86ac0:	4618      	mov	r0, r3
   86ac2:	f104 32ff 	add.w	r2, r4, #4294967295
   86ac6:	f103 0301 	add.w	r3, r3, #1
   86aca:	d1f2      	bne.n	86ab2 <memchr+0x16>
   86acc:	2c03      	cmp	r4, #3
   86ace:	d814      	bhi.n	86afa <memchr+0x5e>
   86ad0:	1e65      	subs	r5, r4, #1
   86ad2:	b354      	cbz	r4, 86b2a <memchr+0x8e>
   86ad4:	7803      	ldrb	r3, [r0, #0]
   86ad6:	428b      	cmp	r3, r1
   86ad8:	d00d      	beq.n	86af6 <memchr+0x5a>
   86ada:	1c42      	adds	r2, r0, #1
   86adc:	2300      	movs	r3, #0
   86ade:	e002      	b.n	86ae6 <memchr+0x4a>
   86ae0:	7804      	ldrb	r4, [r0, #0]
   86ae2:	428c      	cmp	r4, r1
   86ae4:	d007      	beq.n	86af6 <memchr+0x5a>
   86ae6:	42ab      	cmp	r3, r5
   86ae8:	4610      	mov	r0, r2
   86aea:	f103 0301 	add.w	r3, r3, #1
   86aee:	f102 0201 	add.w	r2, r2, #1
   86af2:	d1f5      	bne.n	86ae0 <memchr+0x44>
   86af4:	2000      	movs	r0, #0
   86af6:	bc70      	pop	{r4, r5, r6}
   86af8:	4770      	bx	lr
   86afa:	ea41 2601 	orr.w	r6, r1, r1, lsl #8
   86afe:	4603      	mov	r3, r0
   86b00:	ea46 4606 	orr.w	r6, r6, r6, lsl #16
   86b04:	681a      	ldr	r2, [r3, #0]
   86b06:	4618      	mov	r0, r3
   86b08:	4072      	eors	r2, r6
   86b0a:	f1a2 3501 	sub.w	r5, r2, #16843009	; 0x1010101
   86b0e:	ea25 0202 	bic.w	r2, r5, r2
   86b12:	f012 3f80 	tst.w	r2, #2155905152	; 0x80808080
   86b16:	f103 0304 	add.w	r3, r3, #4
   86b1a:	d1d9      	bne.n	86ad0 <memchr+0x34>
   86b1c:	3c04      	subs	r4, #4
   86b1e:	2c03      	cmp	r4, #3
   86b20:	4618      	mov	r0, r3
   86b22:	d8ef      	bhi.n	86b04 <memchr+0x68>
   86b24:	e7d4      	b.n	86ad0 <memchr+0x34>
   86b26:	4614      	mov	r4, r2
   86b28:	e7d0      	b.n	86acc <memchr+0x30>
   86b2a:	4620      	mov	r0, r4
   86b2c:	e7e3      	b.n	86af6 <memchr+0x5a>
   86b2e:	bf00      	nop

00086b30 <memmove>:
   86b30:	4288      	cmp	r0, r1
   86b32:	b4f0      	push	{r4, r5, r6, r7}
   86b34:	d910      	bls.n	86b58 <memmove+0x28>
   86b36:	188c      	adds	r4, r1, r2
   86b38:	42a0      	cmp	r0, r4
   86b3a:	d20d      	bcs.n	86b58 <memmove+0x28>
   86b3c:	1885      	adds	r5, r0, r2
   86b3e:	1e53      	subs	r3, r2, #1
   86b40:	b142      	cbz	r2, 86b54 <memmove+0x24>
   86b42:	4621      	mov	r1, r4
   86b44:	462a      	mov	r2, r5
   86b46:	f811 4d01 	ldrb.w	r4, [r1, #-1]!
   86b4a:	3b01      	subs	r3, #1
   86b4c:	f802 4d01 	strb.w	r4, [r2, #-1]!
   86b50:	1c5c      	adds	r4, r3, #1
   86b52:	d1f8      	bne.n	86b46 <memmove+0x16>
   86b54:	bcf0      	pop	{r4, r5, r6, r7}
   86b56:	4770      	bx	lr
   86b58:	2a0f      	cmp	r2, #15
   86b5a:	d944      	bls.n	86be6 <memmove+0xb6>
   86b5c:	ea40 0301 	orr.w	r3, r0, r1
   86b60:	079b      	lsls	r3, r3, #30
   86b62:	d144      	bne.n	86bee <memmove+0xbe>
   86b64:	f1a2 0710 	sub.w	r7, r2, #16
   86b68:	093f      	lsrs	r7, r7, #4
   86b6a:	eb00 1607 	add.w	r6, r0, r7, lsl #4
   86b6e:	3610      	adds	r6, #16
   86b70:	460c      	mov	r4, r1
   86b72:	4603      	mov	r3, r0
   86b74:	6825      	ldr	r5, [r4, #0]
   86b76:	3310      	adds	r3, #16
   86b78:	f843 5c10 	str.w	r5, [r3, #-16]
   86b7c:	6865      	ldr	r5, [r4, #4]
   86b7e:	3410      	adds	r4, #16
   86b80:	f843 5c0c 	str.w	r5, [r3, #-12]
   86b84:	f854 5c08 	ldr.w	r5, [r4, #-8]
   86b88:	f843 5c08 	str.w	r5, [r3, #-8]
   86b8c:	f854 5c04 	ldr.w	r5, [r4, #-4]
   86b90:	f843 5c04 	str.w	r5, [r3, #-4]
   86b94:	42b3      	cmp	r3, r6
   86b96:	d1ed      	bne.n	86b74 <memmove+0x44>
   86b98:	1c7b      	adds	r3, r7, #1
   86b9a:	f002 0c0f 	and.w	ip, r2, #15
   86b9e:	011b      	lsls	r3, r3, #4
   86ba0:	f1bc 0f03 	cmp.w	ip, #3
   86ba4:	4419      	add	r1, r3
   86ba6:	4403      	add	r3, r0
   86ba8:	d923      	bls.n	86bf2 <memmove+0xc2>
   86baa:	460e      	mov	r6, r1
   86bac:	461d      	mov	r5, r3
   86bae:	4664      	mov	r4, ip
   86bb0:	f856 7b04 	ldr.w	r7, [r6], #4
   86bb4:	3c04      	subs	r4, #4
   86bb6:	2c03      	cmp	r4, #3
   86bb8:	f845 7b04 	str.w	r7, [r5], #4
   86bbc:	d8f8      	bhi.n	86bb0 <memmove+0x80>
   86bbe:	f1ac 0404 	sub.w	r4, ip, #4
   86bc2:	f024 0403 	bic.w	r4, r4, #3
   86bc6:	3404      	adds	r4, #4
   86bc8:	f002 0203 	and.w	r2, r2, #3
   86bcc:	4423      	add	r3, r4
   86bce:	4421      	add	r1, r4
   86bd0:	2a00      	cmp	r2, #0
   86bd2:	d0bf      	beq.n	86b54 <memmove+0x24>
   86bd4:	441a      	add	r2, r3
   86bd6:	f811 4b01 	ldrb.w	r4, [r1], #1
   86bda:	f803 4b01 	strb.w	r4, [r3], #1
   86bde:	4293      	cmp	r3, r2
   86be0:	d1f9      	bne.n	86bd6 <memmove+0xa6>
   86be2:	bcf0      	pop	{r4, r5, r6, r7}
   86be4:	4770      	bx	lr
   86be6:	4603      	mov	r3, r0
   86be8:	2a00      	cmp	r2, #0
   86bea:	d1f3      	bne.n	86bd4 <memmove+0xa4>
   86bec:	e7b2      	b.n	86b54 <memmove+0x24>
   86bee:	4603      	mov	r3, r0
   86bf0:	e7f0      	b.n	86bd4 <memmove+0xa4>
   86bf2:	4662      	mov	r2, ip
   86bf4:	2a00      	cmp	r2, #0
   86bf6:	d1ed      	bne.n	86bd4 <memmove+0xa4>
   86bf8:	e7ac      	b.n	86b54 <memmove+0x24>
   86bfa:	bf00      	nop

00086bfc <__malloc_lock>:
   86bfc:	4770      	bx	lr
   86bfe:	bf00      	nop

00086c00 <__malloc_unlock>:
   86c00:	4770      	bx	lr
   86c02:	bf00      	nop

00086c04 <_realloc_r>:
   86c04:	e92d 4ff0 	stmdb	sp!, {r4, r5, r6, r7, r8, r9, sl, fp, lr}
   86c08:	460c      	mov	r4, r1
   86c0a:	b083      	sub	sp, #12
   86c0c:	4690      	mov	r8, r2
   86c0e:	4681      	mov	r9, r0
   86c10:	2900      	cmp	r1, #0
   86c12:	f000 80ba 	beq.w	86d8a <_realloc_r+0x186>
   86c16:	f7ff fff1 	bl	86bfc <__malloc_lock>
   86c1a:	f108 060b 	add.w	r6, r8, #11
   86c1e:	f854 3c04 	ldr.w	r3, [r4, #-4]
   86c22:	2e16      	cmp	r6, #22
   86c24:	f023 0503 	bic.w	r5, r3, #3
   86c28:	f1a4 0708 	sub.w	r7, r4, #8
   86c2c:	d84b      	bhi.n	86cc6 <_realloc_r+0xc2>
   86c2e:	2110      	movs	r1, #16
   86c30:	460e      	mov	r6, r1
   86c32:	45b0      	cmp	r8, r6
   86c34:	d84c      	bhi.n	86cd0 <_realloc_r+0xcc>
   86c36:	428d      	cmp	r5, r1
   86c38:	da51      	bge.n	86cde <_realloc_r+0xda>
   86c3a:	f8df b384 	ldr.w	fp, [pc, #900]	; 86fc0 <_realloc_r+0x3bc>
   86c3e:	1978      	adds	r0, r7, r5
   86c40:	f8db e008 	ldr.w	lr, [fp, #8]
   86c44:	4586      	cmp	lr, r0
   86c46:	f000 80a6 	beq.w	86d96 <_realloc_r+0x192>
   86c4a:	6842      	ldr	r2, [r0, #4]
   86c4c:	f022 0c01 	bic.w	ip, r2, #1
   86c50:	4484      	add	ip, r0
   86c52:	f8dc c004 	ldr.w	ip, [ip, #4]
   86c56:	f01c 0f01 	tst.w	ip, #1
   86c5a:	d054      	beq.n	86d06 <_realloc_r+0x102>
   86c5c:	2200      	movs	r2, #0
   86c5e:	4610      	mov	r0, r2
   86c60:	07db      	lsls	r3, r3, #31
   86c62:	d46f      	bmi.n	86d44 <_realloc_r+0x140>
   86c64:	f854 3c08 	ldr.w	r3, [r4, #-8]
   86c68:	ebc3 0a07 	rsb	sl, r3, r7
   86c6c:	f8da 3004 	ldr.w	r3, [sl, #4]
   86c70:	f023 0303 	bic.w	r3, r3, #3
   86c74:	442b      	add	r3, r5
   86c76:	2800      	cmp	r0, #0
   86c78:	d062      	beq.n	86d40 <_realloc_r+0x13c>
   86c7a:	4570      	cmp	r0, lr
   86c7c:	f000 80e9 	beq.w	86e52 <_realloc_r+0x24e>
   86c80:	eb02 0e03 	add.w	lr, r2, r3
   86c84:	458e      	cmp	lr, r1
   86c86:	db5b      	blt.n	86d40 <_realloc_r+0x13c>
   86c88:	68c3      	ldr	r3, [r0, #12]
   86c8a:	6882      	ldr	r2, [r0, #8]
   86c8c:	46d0      	mov	r8, sl
   86c8e:	60d3      	str	r3, [r2, #12]
   86c90:	609a      	str	r2, [r3, #8]
   86c92:	f858 1f08 	ldr.w	r1, [r8, #8]!
   86c96:	f8da 300c 	ldr.w	r3, [sl, #12]
   86c9a:	1f2a      	subs	r2, r5, #4
   86c9c:	2a24      	cmp	r2, #36	; 0x24
   86c9e:	60cb      	str	r3, [r1, #12]
   86ca0:	6099      	str	r1, [r3, #8]
   86ca2:	f200 8123 	bhi.w	86eec <_realloc_r+0x2e8>
   86ca6:	2a13      	cmp	r2, #19
   86ca8:	f240 80b0 	bls.w	86e0c <_realloc_r+0x208>
   86cac:	6823      	ldr	r3, [r4, #0]
   86cae:	2a1b      	cmp	r2, #27
   86cb0:	f8ca 3008 	str.w	r3, [sl, #8]
   86cb4:	6863      	ldr	r3, [r4, #4]
   86cb6:	f8ca 300c 	str.w	r3, [sl, #12]
   86cba:	f200 812b 	bhi.w	86f14 <_realloc_r+0x310>
   86cbe:	3408      	adds	r4, #8
   86cc0:	f10a 0310 	add.w	r3, sl, #16
   86cc4:	e0a3      	b.n	86e0e <_realloc_r+0x20a>
   86cc6:	f026 0607 	bic.w	r6, r6, #7
   86cca:	2e00      	cmp	r6, #0
   86ccc:	4631      	mov	r1, r6
   86cce:	dab0      	bge.n	86c32 <_realloc_r+0x2e>
   86cd0:	230c      	movs	r3, #12
   86cd2:	2000      	movs	r0, #0
   86cd4:	f8c9 3000 	str.w	r3, [r9]
   86cd8:	b003      	add	sp, #12
   86cda:	e8bd 8ff0 	ldmia.w	sp!, {r4, r5, r6, r7, r8, r9, sl, fp, pc}
   86cde:	46a0      	mov	r8, r4
   86ce0:	1baa      	subs	r2, r5, r6
   86ce2:	2a0f      	cmp	r2, #15
   86ce4:	f003 0301 	and.w	r3, r3, #1
   86ce8:	d81a      	bhi.n	86d20 <_realloc_r+0x11c>
   86cea:	432b      	orrs	r3, r5
   86cec:	607b      	str	r3, [r7, #4]
   86cee:	443d      	add	r5, r7
   86cf0:	686b      	ldr	r3, [r5, #4]
   86cf2:	f043 0301 	orr.w	r3, r3, #1
   86cf6:	606b      	str	r3, [r5, #4]
   86cf8:	4648      	mov	r0, r9
   86cfa:	f7ff ff81 	bl	86c00 <__malloc_unlock>
   86cfe:	4640      	mov	r0, r8
   86d00:	b003      	add	sp, #12
   86d02:	e8bd 8ff0 	ldmia.w	sp!, {r4, r5, r6, r7, r8, r9, sl, fp, pc}
   86d06:	f022 0203 	bic.w	r2, r2, #3
   86d0a:	eb02 0c05 	add.w	ip, r2, r5
   86d0e:	458c      	cmp	ip, r1
   86d10:	dba6      	blt.n	86c60 <_realloc_r+0x5c>
   86d12:	68c2      	ldr	r2, [r0, #12]
   86d14:	6881      	ldr	r1, [r0, #8]
   86d16:	46a0      	mov	r8, r4
   86d18:	60ca      	str	r2, [r1, #12]
   86d1a:	4665      	mov	r5, ip
   86d1c:	6091      	str	r1, [r2, #8]
   86d1e:	e7df      	b.n	86ce0 <_realloc_r+0xdc>
   86d20:	19b9      	adds	r1, r7, r6
   86d22:	4333      	orrs	r3, r6
   86d24:	f042 0001 	orr.w	r0, r2, #1
   86d28:	607b      	str	r3, [r7, #4]
   86d2a:	440a      	add	r2, r1
   86d2c:	6048      	str	r0, [r1, #4]
   86d2e:	6853      	ldr	r3, [r2, #4]
   86d30:	3108      	adds	r1, #8
   86d32:	f043 0301 	orr.w	r3, r3, #1
   86d36:	6053      	str	r3, [r2, #4]
   86d38:	4648      	mov	r0, r9
   86d3a:	f7ff f915 	bl	85f68 <_free_r>
   86d3e:	e7db      	b.n	86cf8 <_realloc_r+0xf4>
   86d40:	428b      	cmp	r3, r1
   86d42:	da33      	bge.n	86dac <_realloc_r+0x1a8>
   86d44:	4641      	mov	r1, r8
   86d46:	4648      	mov	r0, r9
   86d48:	f7ff fc0c 	bl	86564 <_malloc_r>
   86d4c:	4680      	mov	r8, r0
   86d4e:	2800      	cmp	r0, #0
   86d50:	d0d2      	beq.n	86cf8 <_realloc_r+0xf4>
   86d52:	f854 3c04 	ldr.w	r3, [r4, #-4]
   86d56:	f1a0 0108 	sub.w	r1, r0, #8
   86d5a:	f023 0201 	bic.w	r2, r3, #1
   86d5e:	443a      	add	r2, r7
   86d60:	4291      	cmp	r1, r2
   86d62:	f000 80bc 	beq.w	86ede <_realloc_r+0x2da>
   86d66:	1f2a      	subs	r2, r5, #4
   86d68:	2a24      	cmp	r2, #36	; 0x24
   86d6a:	d86e      	bhi.n	86e4a <_realloc_r+0x246>
   86d6c:	2a13      	cmp	r2, #19
   86d6e:	d842      	bhi.n	86df6 <_realloc_r+0x1f2>
   86d70:	4603      	mov	r3, r0
   86d72:	4622      	mov	r2, r4
   86d74:	6811      	ldr	r1, [r2, #0]
   86d76:	6019      	str	r1, [r3, #0]
   86d78:	6851      	ldr	r1, [r2, #4]
   86d7a:	6059      	str	r1, [r3, #4]
   86d7c:	6892      	ldr	r2, [r2, #8]
   86d7e:	609a      	str	r2, [r3, #8]
   86d80:	4621      	mov	r1, r4
   86d82:	4648      	mov	r0, r9
   86d84:	f7ff f8f0 	bl	85f68 <_free_r>
   86d88:	e7b6      	b.n	86cf8 <_realloc_r+0xf4>
   86d8a:	4611      	mov	r1, r2
   86d8c:	b003      	add	sp, #12
   86d8e:	e8bd 4ff0 	ldmia.w	sp!, {r4, r5, r6, r7, r8, r9, sl, fp, lr}
   86d92:	f7ff bbe7 	b.w	86564 <_malloc_r>
   86d96:	f8de 2004 	ldr.w	r2, [lr, #4]
   86d9a:	f106 0c10 	add.w	ip, r6, #16
   86d9e:	f022 0203 	bic.w	r2, r2, #3
   86da2:	1950      	adds	r0, r2, r5
   86da4:	4560      	cmp	r0, ip
   86da6:	da3d      	bge.n	86e24 <_realloc_r+0x220>
   86da8:	4670      	mov	r0, lr
   86daa:	e759      	b.n	86c60 <_realloc_r+0x5c>
   86dac:	46d0      	mov	r8, sl
   86dae:	f858 0f08 	ldr.w	r0, [r8, #8]!
   86db2:	f8da 100c 	ldr.w	r1, [sl, #12]
   86db6:	1f2a      	subs	r2, r5, #4
   86db8:	2a24      	cmp	r2, #36	; 0x24
   86dba:	60c1      	str	r1, [r0, #12]
   86dbc:	6088      	str	r0, [r1, #8]
   86dbe:	f200 80a0 	bhi.w	86f02 <_realloc_r+0x2fe>
   86dc2:	2a13      	cmp	r2, #19
   86dc4:	f240 809b 	bls.w	86efe <_realloc_r+0x2fa>
   86dc8:	6821      	ldr	r1, [r4, #0]
   86dca:	2a1b      	cmp	r2, #27
   86dcc:	f8ca 1008 	str.w	r1, [sl, #8]
   86dd0:	6861      	ldr	r1, [r4, #4]
   86dd2:	f8ca 100c 	str.w	r1, [sl, #12]
   86dd6:	f200 80b2 	bhi.w	86f3e <_realloc_r+0x33a>
   86dda:	3408      	adds	r4, #8
   86ddc:	f10a 0210 	add.w	r2, sl, #16
   86de0:	6821      	ldr	r1, [r4, #0]
   86de2:	461d      	mov	r5, r3
   86de4:	6011      	str	r1, [r2, #0]
   86de6:	6861      	ldr	r1, [r4, #4]
   86de8:	4657      	mov	r7, sl
   86dea:	6051      	str	r1, [r2, #4]
   86dec:	68a3      	ldr	r3, [r4, #8]
   86dee:	6093      	str	r3, [r2, #8]
   86df0:	f8da 3004 	ldr.w	r3, [sl, #4]
   86df4:	e774      	b.n	86ce0 <_realloc_r+0xdc>
   86df6:	6823      	ldr	r3, [r4, #0]
   86df8:	2a1b      	cmp	r2, #27
   86dfa:	6003      	str	r3, [r0, #0]
   86dfc:	6863      	ldr	r3, [r4, #4]
   86dfe:	6043      	str	r3, [r0, #4]
   86e00:	d862      	bhi.n	86ec8 <_realloc_r+0x2c4>
   86e02:	f100 0308 	add.w	r3, r0, #8
   86e06:	f104 0208 	add.w	r2, r4, #8
   86e0a:	e7b3      	b.n	86d74 <_realloc_r+0x170>
   86e0c:	4643      	mov	r3, r8
   86e0e:	6822      	ldr	r2, [r4, #0]
   86e10:	4675      	mov	r5, lr
   86e12:	601a      	str	r2, [r3, #0]
   86e14:	6862      	ldr	r2, [r4, #4]
   86e16:	4657      	mov	r7, sl
   86e18:	605a      	str	r2, [r3, #4]
   86e1a:	68a2      	ldr	r2, [r4, #8]
   86e1c:	609a      	str	r2, [r3, #8]
   86e1e:	f8da 3004 	ldr.w	r3, [sl, #4]
   86e22:	e75d      	b.n	86ce0 <_realloc_r+0xdc>
   86e24:	1b83      	subs	r3, r0, r6
   86e26:	4437      	add	r7, r6
   86e28:	f043 0301 	orr.w	r3, r3, #1
   86e2c:	f8cb 7008 	str.w	r7, [fp, #8]
   86e30:	607b      	str	r3, [r7, #4]
   86e32:	f854 3c04 	ldr.w	r3, [r4, #-4]
   86e36:	4648      	mov	r0, r9
   86e38:	f003 0301 	and.w	r3, r3, #1
   86e3c:	431e      	orrs	r6, r3
   86e3e:	f844 6c04 	str.w	r6, [r4, #-4]
   86e42:	f7ff fedd 	bl	86c00 <__malloc_unlock>
   86e46:	4620      	mov	r0, r4
   86e48:	e75a      	b.n	86d00 <_realloc_r+0xfc>
   86e4a:	4621      	mov	r1, r4
   86e4c:	f7ff fe70 	bl	86b30 <memmove>
   86e50:	e796      	b.n	86d80 <_realloc_r+0x17c>
   86e52:	eb02 0c03 	add.w	ip, r2, r3
   86e56:	f106 0210 	add.w	r2, r6, #16
   86e5a:	4594      	cmp	ip, r2
   86e5c:	f6ff af70 	blt.w	86d40 <_realloc_r+0x13c>
   86e60:	4657      	mov	r7, sl
   86e62:	f857 1f08 	ldr.w	r1, [r7, #8]!
   86e66:	f8da 300c 	ldr.w	r3, [sl, #12]
   86e6a:	1f2a      	subs	r2, r5, #4
   86e6c:	2a24      	cmp	r2, #36	; 0x24
   86e6e:	60cb      	str	r3, [r1, #12]
   86e70:	6099      	str	r1, [r3, #8]
   86e72:	f200 8086 	bhi.w	86f82 <_realloc_r+0x37e>
   86e76:	2a13      	cmp	r2, #19
   86e78:	d977      	bls.n	86f6a <_realloc_r+0x366>
   86e7a:	6823      	ldr	r3, [r4, #0]
   86e7c:	2a1b      	cmp	r2, #27
   86e7e:	f8ca 3008 	str.w	r3, [sl, #8]
   86e82:	6863      	ldr	r3, [r4, #4]
   86e84:	f8ca 300c 	str.w	r3, [sl, #12]
   86e88:	f200 8084 	bhi.w	86f94 <_realloc_r+0x390>
   86e8c:	3408      	adds	r4, #8
   86e8e:	f10a 0310 	add.w	r3, sl, #16
   86e92:	6822      	ldr	r2, [r4, #0]
   86e94:	601a      	str	r2, [r3, #0]
   86e96:	6862      	ldr	r2, [r4, #4]
   86e98:	605a      	str	r2, [r3, #4]
   86e9a:	68a2      	ldr	r2, [r4, #8]
   86e9c:	609a      	str	r2, [r3, #8]
   86e9e:	ebc6 020c 	rsb	r2, r6, ip
   86ea2:	eb0a 0306 	add.w	r3, sl, r6
   86ea6:	f042 0201 	orr.w	r2, r2, #1
   86eaa:	f8cb 3008 	str.w	r3, [fp, #8]
   86eae:	605a      	str	r2, [r3, #4]
   86eb0:	f8da 3004 	ldr.w	r3, [sl, #4]
   86eb4:	4648      	mov	r0, r9
   86eb6:	f003 0301 	and.w	r3, r3, #1
   86eba:	431e      	orrs	r6, r3
   86ebc:	f8ca 6004 	str.w	r6, [sl, #4]
   86ec0:	f7ff fe9e 	bl	86c00 <__malloc_unlock>
   86ec4:	4638      	mov	r0, r7
   86ec6:	e71b      	b.n	86d00 <_realloc_r+0xfc>
   86ec8:	68a3      	ldr	r3, [r4, #8]
   86eca:	2a24      	cmp	r2, #36	; 0x24
   86ecc:	6083      	str	r3, [r0, #8]
   86ece:	68e3      	ldr	r3, [r4, #12]
   86ed0:	60c3      	str	r3, [r0, #12]
   86ed2:	d02b      	beq.n	86f2c <_realloc_r+0x328>
   86ed4:	f100 0310 	add.w	r3, r0, #16
   86ed8:	f104 0210 	add.w	r2, r4, #16
   86edc:	e74a      	b.n	86d74 <_realloc_r+0x170>
   86ede:	f850 2c04 	ldr.w	r2, [r0, #-4]
   86ee2:	46a0      	mov	r8, r4
   86ee4:	f022 0203 	bic.w	r2, r2, #3
   86ee8:	4415      	add	r5, r2
   86eea:	e6f9      	b.n	86ce0 <_realloc_r+0xdc>
   86eec:	4621      	mov	r1, r4
   86eee:	4640      	mov	r0, r8
   86ef0:	4675      	mov	r5, lr
   86ef2:	4657      	mov	r7, sl
   86ef4:	f7ff fe1c 	bl	86b30 <memmove>
   86ef8:	f8da 3004 	ldr.w	r3, [sl, #4]
   86efc:	e6f0      	b.n	86ce0 <_realloc_r+0xdc>
   86efe:	4642      	mov	r2, r8
   86f00:	e76e      	b.n	86de0 <_realloc_r+0x1dc>
   86f02:	4621      	mov	r1, r4
   86f04:	4640      	mov	r0, r8
   86f06:	461d      	mov	r5, r3
   86f08:	4657      	mov	r7, sl
   86f0a:	f7ff fe11 	bl	86b30 <memmove>
   86f0e:	f8da 3004 	ldr.w	r3, [sl, #4]
   86f12:	e6e5      	b.n	86ce0 <_realloc_r+0xdc>
   86f14:	68a3      	ldr	r3, [r4, #8]
   86f16:	2a24      	cmp	r2, #36	; 0x24
   86f18:	f8ca 3010 	str.w	r3, [sl, #16]
   86f1c:	68e3      	ldr	r3, [r4, #12]
   86f1e:	f8ca 3014 	str.w	r3, [sl, #20]
   86f22:	d018      	beq.n	86f56 <_realloc_r+0x352>
   86f24:	3410      	adds	r4, #16
   86f26:	f10a 0318 	add.w	r3, sl, #24
   86f2a:	e770      	b.n	86e0e <_realloc_r+0x20a>
   86f2c:	6922      	ldr	r2, [r4, #16]
   86f2e:	f100 0318 	add.w	r3, r0, #24
   86f32:	6102      	str	r2, [r0, #16]
   86f34:	6961      	ldr	r1, [r4, #20]
   86f36:	f104 0218 	add.w	r2, r4, #24
   86f3a:	6141      	str	r1, [r0, #20]
   86f3c:	e71a      	b.n	86d74 <_realloc_r+0x170>
   86f3e:	68a1      	ldr	r1, [r4, #8]
   86f40:	2a24      	cmp	r2, #36	; 0x24
   86f42:	f8ca 1010 	str.w	r1, [sl, #16]
   86f46:	68e1      	ldr	r1, [r4, #12]
   86f48:	f8ca 1014 	str.w	r1, [sl, #20]
   86f4c:	d00f      	beq.n	86f6e <_realloc_r+0x36a>
   86f4e:	3410      	adds	r4, #16
   86f50:	f10a 0218 	add.w	r2, sl, #24
   86f54:	e744      	b.n	86de0 <_realloc_r+0x1dc>
   86f56:	6922      	ldr	r2, [r4, #16]
   86f58:	f10a 0320 	add.w	r3, sl, #32
   86f5c:	f8ca 2018 	str.w	r2, [sl, #24]
   86f60:	6962      	ldr	r2, [r4, #20]
   86f62:	3418      	adds	r4, #24
   86f64:	f8ca 201c 	str.w	r2, [sl, #28]
   86f68:	e751      	b.n	86e0e <_realloc_r+0x20a>
   86f6a:	463b      	mov	r3, r7
   86f6c:	e791      	b.n	86e92 <_realloc_r+0x28e>
   86f6e:	6921      	ldr	r1, [r4, #16]
   86f70:	f10a 0220 	add.w	r2, sl, #32
   86f74:	f8ca 1018 	str.w	r1, [sl, #24]
   86f78:	6961      	ldr	r1, [r4, #20]
   86f7a:	3418      	adds	r4, #24
   86f7c:	f8ca 101c 	str.w	r1, [sl, #28]
   86f80:	e72e      	b.n	86de0 <_realloc_r+0x1dc>
   86f82:	4621      	mov	r1, r4
   86f84:	4638      	mov	r0, r7
   86f86:	f8cd c004 	str.w	ip, [sp, #4]
   86f8a:	f7ff fdd1 	bl	86b30 <memmove>
   86f8e:	f8dd c004 	ldr.w	ip, [sp, #4]
   86f92:	e784      	b.n	86e9e <_realloc_r+0x29a>
   86f94:	68a3      	ldr	r3, [r4, #8]
   86f96:	2a24      	cmp	r2, #36	; 0x24
   86f98:	f8ca 3010 	str.w	r3, [sl, #16]
   86f9c:	68e3      	ldr	r3, [r4, #12]
   86f9e:	f8ca 3014 	str.w	r3, [sl, #20]
   86fa2:	d003      	beq.n	86fac <_realloc_r+0x3a8>
   86fa4:	3410      	adds	r4, #16
   86fa6:	f10a 0318 	add.w	r3, sl, #24
   86faa:	e772      	b.n	86e92 <_realloc_r+0x28e>
   86fac:	6922      	ldr	r2, [r4, #16]
   86fae:	f10a 0320 	add.w	r3, sl, #32
   86fb2:	f8ca 2018 	str.w	r2, [sl, #24]
   86fb6:	6962      	ldr	r2, [r4, #20]
   86fb8:	3418      	adds	r4, #24
   86fba:	f8ca 201c 	str.w	r2, [sl, #28]
   86fbe:	e768      	b.n	86e92 <_realloc_r+0x28e>
   86fc0:	200705c8 	.word	0x200705c8

00086fc4 <_sbrk_r>:
   86fc4:	b538      	push	{r3, r4, r5, lr}
   86fc6:	4c07      	ldr	r4, [pc, #28]	; (86fe4 <_sbrk_r+0x20>)
   86fc8:	2300      	movs	r3, #0
   86fca:	4605      	mov	r5, r0
   86fcc:	4608      	mov	r0, r1
   86fce:	6023      	str	r3, [r4, #0]
   86fd0:	f7fc fc80 	bl	838d4 <_sbrk>
   86fd4:	1c43      	adds	r3, r0, #1
   86fd6:	d000      	beq.n	86fda <_sbrk_r+0x16>
   86fd8:	bd38      	pop	{r3, r4, r5, pc}
   86fda:	6823      	ldr	r3, [r4, #0]
   86fdc:	2b00      	cmp	r3, #0
   86fde:	d0fb      	beq.n	86fd8 <_sbrk_r+0x14>
   86fe0:	602b      	str	r3, [r5, #0]
   86fe2:	bd38      	pop	{r3, r4, r5, pc}
   86fe4:	20078de0 	.word	0x20078de0

00086fe8 <__sread>:
   86fe8:	b510      	push	{r4, lr}
   86fea:	460c      	mov	r4, r1
   86fec:	f9b1 100e 	ldrsh.w	r1, [r1, #14]
   86ff0:	f000 f9c2 	bl	87378 <_read_r>
   86ff4:	2800      	cmp	r0, #0
   86ff6:	db03      	blt.n	87000 <__sread+0x18>
   86ff8:	6d23      	ldr	r3, [r4, #80]	; 0x50
   86ffa:	4403      	add	r3, r0
   86ffc:	6523      	str	r3, [r4, #80]	; 0x50
   86ffe:	bd10      	pop	{r4, pc}
   87000:	89a3      	ldrh	r3, [r4, #12]
   87002:	f423 5380 	bic.w	r3, r3, #4096	; 0x1000
   87006:	81a3      	strh	r3, [r4, #12]
   87008:	bd10      	pop	{r4, pc}
   8700a:	bf00      	nop

0008700c <__swrite>:
   8700c:	e92d 41f0 	stmdb	sp!, {r4, r5, r6, r7, r8, lr}
   87010:	460c      	mov	r4, r1
   87012:	8989      	ldrh	r1, [r1, #12]
   87014:	461d      	mov	r5, r3
   87016:	05cb      	lsls	r3, r1, #23
   87018:	4616      	mov	r6, r2
   8701a:	4607      	mov	r7, r0
   8701c:	d506      	bpl.n	8702c <__swrite+0x20>
   8701e:	f9b4 100e 	ldrsh.w	r1, [r4, #14]
   87022:	2200      	movs	r2, #0
   87024:	2302      	movs	r3, #2
   87026:	f000 f993 	bl	87350 <_lseek_r>
   8702a:	89a1      	ldrh	r1, [r4, #12]
   8702c:	f421 5180 	bic.w	r1, r1, #4096	; 0x1000
   87030:	81a1      	strh	r1, [r4, #12]
   87032:	4638      	mov	r0, r7
   87034:	f9b4 100e 	ldrsh.w	r1, [r4, #14]
   87038:	4632      	mov	r2, r6
   8703a:	462b      	mov	r3, r5
   8703c:	e8bd 41f0 	ldmia.w	sp!, {r4, r5, r6, r7, r8, lr}
   87040:	f000 b89e 	b.w	87180 <_write_r>

00087044 <__sseek>:
   87044:	b510      	push	{r4, lr}
   87046:	460c      	mov	r4, r1
   87048:	f9b1 100e 	ldrsh.w	r1, [r1, #14]
   8704c:	f000 f980 	bl	87350 <_lseek_r>
   87050:	89a3      	ldrh	r3, [r4, #12]
   87052:	1c42      	adds	r2, r0, #1
   87054:	bf0e      	itee	eq
   87056:	f423 5380 	biceq.w	r3, r3, #4096	; 0x1000
   8705a:	f443 5380 	orrne.w	r3, r3, #4096	; 0x1000
   8705e:	6520      	strne	r0, [r4, #80]	; 0x50
   87060:	81a3      	strh	r3, [r4, #12]
   87062:	bd10      	pop	{r4, pc}

00087064 <__sclose>:
   87064:	f9b1 100e 	ldrsh.w	r1, [r1, #14]
   87068:	f000 b8f2 	b.w	87250 <_close_r>

0008706c <__swbuf_r>:
   8706c:	b5f8      	push	{r3, r4, r5, r6, r7, lr}
   8706e:	460d      	mov	r5, r1
   87070:	4614      	mov	r4, r2
   87072:	4607      	mov	r7, r0
   87074:	b110      	cbz	r0, 8707c <__swbuf_r+0x10>
   87076:	6b83      	ldr	r3, [r0, #56]	; 0x38
   87078:	2b00      	cmp	r3, #0
   8707a:	d048      	beq.n	8710e <__swbuf_r+0xa2>
   8707c:	89a2      	ldrh	r2, [r4, #12]
   8707e:	69a0      	ldr	r0, [r4, #24]
   87080:	b293      	uxth	r3, r2
   87082:	60a0      	str	r0, [r4, #8]
   87084:	0718      	lsls	r0, r3, #28
   87086:	d538      	bpl.n	870fa <__swbuf_r+0x8e>
   87088:	6926      	ldr	r6, [r4, #16]
   8708a:	2e00      	cmp	r6, #0
   8708c:	d035      	beq.n	870fa <__swbuf_r+0x8e>
   8708e:	0499      	lsls	r1, r3, #18
   87090:	b2ed      	uxtb	r5, r5
   87092:	d515      	bpl.n	870c0 <__swbuf_r+0x54>
   87094:	6823      	ldr	r3, [r4, #0]
   87096:	6962      	ldr	r2, [r4, #20]
   87098:	1b9e      	subs	r6, r3, r6
   8709a:	4296      	cmp	r6, r2
   8709c:	da1c      	bge.n	870d8 <__swbuf_r+0x6c>
   8709e:	3601      	adds	r6, #1
   870a0:	68a2      	ldr	r2, [r4, #8]
   870a2:	1c59      	adds	r1, r3, #1
   870a4:	3a01      	subs	r2, #1
   870a6:	60a2      	str	r2, [r4, #8]
   870a8:	6021      	str	r1, [r4, #0]
   870aa:	701d      	strb	r5, [r3, #0]
   870ac:	6963      	ldr	r3, [r4, #20]
   870ae:	42b3      	cmp	r3, r6
   870b0:	d01a      	beq.n	870e8 <__swbuf_r+0x7c>
   870b2:	89a3      	ldrh	r3, [r4, #12]
   870b4:	07db      	lsls	r3, r3, #31
   870b6:	d501      	bpl.n	870bc <__swbuf_r+0x50>
   870b8:	2d0a      	cmp	r5, #10
   870ba:	d015      	beq.n	870e8 <__swbuf_r+0x7c>
   870bc:	4628      	mov	r0, r5
   870be:	bdf8      	pop	{r3, r4, r5, r6, r7, pc}
   870c0:	6e63      	ldr	r3, [r4, #100]	; 0x64
   870c2:	f442 5200 	orr.w	r2, r2, #8192	; 0x2000
   870c6:	f423 5300 	bic.w	r3, r3, #8192	; 0x2000
   870ca:	6663      	str	r3, [r4, #100]	; 0x64
   870cc:	6823      	ldr	r3, [r4, #0]
   870ce:	81a2      	strh	r2, [r4, #12]
   870d0:	6962      	ldr	r2, [r4, #20]
   870d2:	1b9e      	subs	r6, r3, r6
   870d4:	4296      	cmp	r6, r2
   870d6:	dbe2      	blt.n	8709e <__swbuf_r+0x32>
   870d8:	4638      	mov	r0, r7
   870da:	4621      	mov	r1, r4
   870dc:	f7fe fde4 	bl	85ca8 <_fflush_r>
   870e0:	b940      	cbnz	r0, 870f4 <__swbuf_r+0x88>
   870e2:	6823      	ldr	r3, [r4, #0]
   870e4:	2601      	movs	r6, #1
   870e6:	e7db      	b.n	870a0 <__swbuf_r+0x34>
   870e8:	4638      	mov	r0, r7
   870ea:	4621      	mov	r1, r4
   870ec:	f7fe fddc 	bl	85ca8 <_fflush_r>
   870f0:	2800      	cmp	r0, #0
   870f2:	d0e3      	beq.n	870bc <__swbuf_r+0x50>
   870f4:	f04f 30ff 	mov.w	r0, #4294967295
   870f8:	bdf8      	pop	{r3, r4, r5, r6, r7, pc}
   870fa:	4638      	mov	r0, r7
   870fc:	4621      	mov	r1, r4
   870fe:	f7fe fcbd 	bl	85a7c <__swsetup_r>
   87102:	2800      	cmp	r0, #0
   87104:	d1f6      	bne.n	870f4 <__swbuf_r+0x88>
   87106:	89a2      	ldrh	r2, [r4, #12]
   87108:	6926      	ldr	r6, [r4, #16]
   8710a:	b293      	uxth	r3, r2
   8710c:	e7bf      	b.n	8708e <__swbuf_r+0x22>
   8710e:	f7fe fde7 	bl	85ce0 <__sinit>
   87112:	e7b3      	b.n	8707c <__swbuf_r+0x10>

00087114 <_wcrtomb_r>:
   87114:	e92d 41f0 	stmdb	sp!, {r4, r5, r6, r7, r8, lr}
   87118:	461e      	mov	r6, r3
   8711a:	b086      	sub	sp, #24
   8711c:	460c      	mov	r4, r1
   8711e:	4605      	mov	r5, r0
   87120:	4617      	mov	r7, r2
   87122:	4b0f      	ldr	r3, [pc, #60]	; (87160 <_wcrtomb_r+0x4c>)
   87124:	b191      	cbz	r1, 8714c <_wcrtomb_r+0x38>
   87126:	f8d3 8000 	ldr.w	r8, [r3]
   8712a:	f7ff f999 	bl	86460 <__locale_charset>
   8712e:	9600      	str	r6, [sp, #0]
   87130:	4603      	mov	r3, r0
   87132:	4621      	mov	r1, r4
   87134:	463a      	mov	r2, r7
   87136:	4628      	mov	r0, r5
   87138:	47c0      	blx	r8
   8713a:	1c43      	adds	r3, r0, #1
   8713c:	d103      	bne.n	87146 <_wcrtomb_r+0x32>
   8713e:	2200      	movs	r2, #0
   87140:	238a      	movs	r3, #138	; 0x8a
   87142:	6032      	str	r2, [r6, #0]
   87144:	602b      	str	r3, [r5, #0]
   87146:	b006      	add	sp, #24
   87148:	e8bd 81f0 	ldmia.w	sp!, {r4, r5, r6, r7, r8, pc}
   8714c:	681f      	ldr	r7, [r3, #0]
   8714e:	f7ff f987 	bl	86460 <__locale_charset>
   87152:	9600      	str	r6, [sp, #0]
   87154:	4603      	mov	r3, r0
   87156:	4622      	mov	r2, r4
   87158:	4628      	mov	r0, r5
   8715a:	a903      	add	r1, sp, #12
   8715c:	47b8      	blx	r7
   8715e:	e7ec      	b.n	8713a <_wcrtomb_r+0x26>
   87160:	200709d8 	.word	0x200709d8

00087164 <__ascii_wctomb>:
   87164:	b121      	cbz	r1, 87170 <__ascii_wctomb+0xc>
   87166:	2aff      	cmp	r2, #255	; 0xff
   87168:	d804      	bhi.n	87174 <__ascii_wctomb+0x10>
   8716a:	700a      	strb	r2, [r1, #0]
   8716c:	2001      	movs	r0, #1
   8716e:	4770      	bx	lr
   87170:	4608      	mov	r0, r1
   87172:	4770      	bx	lr
   87174:	238a      	movs	r3, #138	; 0x8a
   87176:	6003      	str	r3, [r0, #0]
   87178:	f04f 30ff 	mov.w	r0, #4294967295
   8717c:	4770      	bx	lr
   8717e:	bf00      	nop

00087180 <_write_r>:
   87180:	b570      	push	{r4, r5, r6, lr}
   87182:	4c08      	ldr	r4, [pc, #32]	; (871a4 <_write_r+0x24>)
   87184:	4606      	mov	r6, r0
   87186:	2500      	movs	r5, #0
   87188:	4608      	mov	r0, r1
   8718a:	4611      	mov	r1, r2
   8718c:	461a      	mov	r2, r3
   8718e:	6025      	str	r5, [r4, #0]
   87190:	f7f9 ff16 	bl	80fc0 <_write>
   87194:	1c43      	adds	r3, r0, #1
   87196:	d000      	beq.n	8719a <_write_r+0x1a>
   87198:	bd70      	pop	{r4, r5, r6, pc}
   8719a:	6823      	ldr	r3, [r4, #0]
   8719c:	2b00      	cmp	r3, #0
   8719e:	d0fb      	beq.n	87198 <_write_r+0x18>
   871a0:	6033      	str	r3, [r6, #0]
   871a2:	bd70      	pop	{r4, r5, r6, pc}
   871a4:	20078de0 	.word	0x20078de0

000871a8 <__register_exitproc>:
   871a8:	b5f0      	push	{r4, r5, r6, r7, lr}
   871aa:	4c27      	ldr	r4, [pc, #156]	; (87248 <__register_exitproc+0xa0>)
   871ac:	b085      	sub	sp, #20
   871ae:	6826      	ldr	r6, [r4, #0]
   871b0:	4607      	mov	r7, r0
   871b2:	f8d6 4148 	ldr.w	r4, [r6, #328]	; 0x148
   871b6:	2c00      	cmp	r4, #0
   871b8:	d040      	beq.n	8723c <__register_exitproc+0x94>
   871ba:	6865      	ldr	r5, [r4, #4]
   871bc:	2d1f      	cmp	r5, #31
   871be:	dd1e      	ble.n	871fe <__register_exitproc+0x56>
   871c0:	4822      	ldr	r0, [pc, #136]	; (8724c <__register_exitproc+0xa4>)
   871c2:	b918      	cbnz	r0, 871cc <__register_exitproc+0x24>
   871c4:	f04f 30ff 	mov.w	r0, #4294967295
   871c8:	b005      	add	sp, #20
   871ca:	bdf0      	pop	{r4, r5, r6, r7, pc}
   871cc:	f44f 70c8 	mov.w	r0, #400	; 0x190
   871d0:	9103      	str	r1, [sp, #12]
   871d2:	9202      	str	r2, [sp, #8]
   871d4:	9301      	str	r3, [sp, #4]
   871d6:	f7ff f9bd 	bl	86554 <malloc>
   871da:	9903      	ldr	r1, [sp, #12]
   871dc:	4604      	mov	r4, r0
   871de:	9a02      	ldr	r2, [sp, #8]
   871e0:	9b01      	ldr	r3, [sp, #4]
   871e2:	2800      	cmp	r0, #0
   871e4:	d0ee      	beq.n	871c4 <__register_exitproc+0x1c>
   871e6:	f8d6 5148 	ldr.w	r5, [r6, #328]	; 0x148
   871ea:	2000      	movs	r0, #0
   871ec:	6025      	str	r5, [r4, #0]
   871ee:	6060      	str	r0, [r4, #4]
   871f0:	4605      	mov	r5, r0
   871f2:	f8c6 4148 	str.w	r4, [r6, #328]	; 0x148
   871f6:	f8c4 0188 	str.w	r0, [r4, #392]	; 0x188
   871fa:	f8c4 018c 	str.w	r0, [r4, #396]	; 0x18c
   871fe:	b93f      	cbnz	r7, 87210 <__register_exitproc+0x68>
   87200:	1c6b      	adds	r3, r5, #1
   87202:	2000      	movs	r0, #0
   87204:	3502      	adds	r5, #2
   87206:	6063      	str	r3, [r4, #4]
   87208:	f844 1025 	str.w	r1, [r4, r5, lsl #2]
   8720c:	b005      	add	sp, #20
   8720e:	bdf0      	pop	{r4, r5, r6, r7, pc}
   87210:	2601      	movs	r6, #1
   87212:	40ae      	lsls	r6, r5
   87214:	eb04 0085 	add.w	r0, r4, r5, lsl #2
   87218:	f8c0 2088 	str.w	r2, [r0, #136]	; 0x88
   8721c:	f8d4 2188 	ldr.w	r2, [r4, #392]	; 0x188
   87220:	2f02      	cmp	r7, #2
   87222:	ea42 0206 	orr.w	r2, r2, r6
   87226:	f8c4 2188 	str.w	r2, [r4, #392]	; 0x188
   8722a:	f8c0 3108 	str.w	r3, [r0, #264]	; 0x108
   8722e:	d1e7      	bne.n	87200 <__register_exitproc+0x58>
   87230:	f8d4 318c 	ldr.w	r3, [r4, #396]	; 0x18c
   87234:	431e      	orrs	r6, r3
   87236:	f8c4 618c 	str.w	r6, [r4, #396]	; 0x18c
   8723a:	e7e1      	b.n	87200 <__register_exitproc+0x58>
   8723c:	f506 74a6 	add.w	r4, r6, #332	; 0x14c
   87240:	f8c6 4148 	str.w	r4, [r6, #328]	; 0x148
   87244:	e7b9      	b.n	871ba <__register_exitproc+0x12>
   87246:	bf00      	nop
   87248:	00087b44 	.word	0x00087b44
   8724c:	00086555 	.word	0x00086555

00087250 <_close_r>:
   87250:	b538      	push	{r3, r4, r5, lr}
   87252:	4c07      	ldr	r4, [pc, #28]	; (87270 <_close_r+0x20>)
   87254:	2300      	movs	r3, #0
   87256:	4605      	mov	r5, r0
   87258:	4608      	mov	r0, r1
   8725a:	6023      	str	r3, [r4, #0]
   8725c:	f7fc fb54 	bl	83908 <_close>
   87260:	1c43      	adds	r3, r0, #1
   87262:	d000      	beq.n	87266 <_close_r+0x16>
   87264:	bd38      	pop	{r3, r4, r5, pc}
   87266:	6823      	ldr	r3, [r4, #0]
   87268:	2b00      	cmp	r3, #0
   8726a:	d0fb      	beq.n	87264 <_close_r+0x14>
   8726c:	602b      	str	r3, [r5, #0]
   8726e:	bd38      	pop	{r3, r4, r5, pc}
   87270:	20078de0 	.word	0x20078de0

00087274 <_fclose_r>:
   87274:	b570      	push	{r4, r5, r6, lr}
   87276:	460c      	mov	r4, r1
   87278:	4605      	mov	r5, r0
   8727a:	b131      	cbz	r1, 8728a <_fclose_r+0x16>
   8727c:	b110      	cbz	r0, 87284 <_fclose_r+0x10>
   8727e:	6b83      	ldr	r3, [r0, #56]	; 0x38
   87280:	2b00      	cmp	r3, #0
   87282:	d02f      	beq.n	872e4 <_fclose_r+0x70>
   87284:	f9b4 300c 	ldrsh.w	r3, [r4, #12]
   87288:	b90b      	cbnz	r3, 8728e <_fclose_r+0x1a>
   8728a:	2000      	movs	r0, #0
   8728c:	bd70      	pop	{r4, r5, r6, pc}
   8728e:	4628      	mov	r0, r5
   87290:	4621      	mov	r1, r4
   87292:	f7fe fd09 	bl	85ca8 <_fflush_r>
   87296:	6ae3      	ldr	r3, [r4, #44]	; 0x2c
   87298:	4606      	mov	r6, r0
   8729a:	b133      	cbz	r3, 872aa <_fclose_r+0x36>
   8729c:	4628      	mov	r0, r5
   8729e:	69e1      	ldr	r1, [r4, #28]
   872a0:	4798      	blx	r3
   872a2:	2800      	cmp	r0, #0
   872a4:	bfb8      	it	lt
   872a6:	f04f 36ff 	movlt.w	r6, #4294967295
   872aa:	89a3      	ldrh	r3, [r4, #12]
   872ac:	061b      	lsls	r3, r3, #24
   872ae:	d41c      	bmi.n	872ea <_fclose_r+0x76>
   872b0:	6b21      	ldr	r1, [r4, #48]	; 0x30
   872b2:	b141      	cbz	r1, 872c6 <_fclose_r+0x52>
   872b4:	f104 0340 	add.w	r3, r4, #64	; 0x40
   872b8:	4299      	cmp	r1, r3
   872ba:	d002      	beq.n	872c2 <_fclose_r+0x4e>
   872bc:	4628      	mov	r0, r5
   872be:	f7fe fe53 	bl	85f68 <_free_r>
   872c2:	2300      	movs	r3, #0
   872c4:	6323      	str	r3, [r4, #48]	; 0x30
   872c6:	6c61      	ldr	r1, [r4, #68]	; 0x44
   872c8:	b121      	cbz	r1, 872d4 <_fclose_r+0x60>
   872ca:	4628      	mov	r0, r5
   872cc:	f7fe fe4c 	bl	85f68 <_free_r>
   872d0:	2300      	movs	r3, #0
   872d2:	6463      	str	r3, [r4, #68]	; 0x44
   872d4:	f7fe fd7e 	bl	85dd4 <__sfp_lock_acquire>
   872d8:	2300      	movs	r3, #0
   872da:	81a3      	strh	r3, [r4, #12]
   872dc:	f7fe fd7c 	bl	85dd8 <__sfp_lock_release>
   872e0:	4630      	mov	r0, r6
   872e2:	bd70      	pop	{r4, r5, r6, pc}
   872e4:	f7fe fcfc 	bl	85ce0 <__sinit>
   872e8:	e7cc      	b.n	87284 <_fclose_r+0x10>
   872ea:	4628      	mov	r0, r5
   872ec:	6921      	ldr	r1, [r4, #16]
   872ee:	f7fe fe3b 	bl	85f68 <_free_r>
   872f2:	e7dd      	b.n	872b0 <_fclose_r+0x3c>

000872f4 <fclose>:
   872f4:	4b02      	ldr	r3, [pc, #8]	; (87300 <fclose+0xc>)
   872f6:	4601      	mov	r1, r0
   872f8:	6818      	ldr	r0, [r3, #0]
   872fa:	f7ff bfbb 	b.w	87274 <_fclose_r>
   872fe:	bf00      	nop
   87300:	200705a0 	.word	0x200705a0

00087304 <_fstat_r>:
   87304:	b538      	push	{r3, r4, r5, lr}
   87306:	4c08      	ldr	r4, [pc, #32]	; (87328 <_fstat_r+0x24>)
   87308:	2300      	movs	r3, #0
   8730a:	4605      	mov	r5, r0
   8730c:	4608      	mov	r0, r1
   8730e:	4611      	mov	r1, r2
   87310:	6023      	str	r3, [r4, #0]
   87312:	f7fc fafd 	bl	83910 <_fstat>
   87316:	1c43      	adds	r3, r0, #1
   87318:	d000      	beq.n	8731c <_fstat_r+0x18>
   8731a:	bd38      	pop	{r3, r4, r5, pc}
   8731c:	6823      	ldr	r3, [r4, #0]
   8731e:	2b00      	cmp	r3, #0
   87320:	d0fb      	beq.n	8731a <_fstat_r+0x16>
   87322:	602b      	str	r3, [r5, #0]
   87324:	bd38      	pop	{r3, r4, r5, pc}
   87326:	bf00      	nop
   87328:	20078de0 	.word	0x20078de0

0008732c <_isatty_r>:
   8732c:	b538      	push	{r3, r4, r5, lr}
   8732e:	4c07      	ldr	r4, [pc, #28]	; (8734c <_isatty_r+0x20>)
   87330:	2300      	movs	r3, #0
   87332:	4605      	mov	r5, r0
   87334:	4608      	mov	r0, r1
   87336:	6023      	str	r3, [r4, #0]
   87338:	f7fc faf0 	bl	8391c <_isatty>
   8733c:	1c43      	adds	r3, r0, #1
   8733e:	d000      	beq.n	87342 <_isatty_r+0x16>
   87340:	bd38      	pop	{r3, r4, r5, pc}
   87342:	6823      	ldr	r3, [r4, #0]
   87344:	2b00      	cmp	r3, #0
   87346:	d0fb      	beq.n	87340 <_isatty_r+0x14>
   87348:	602b      	str	r3, [r5, #0]
   8734a:	bd38      	pop	{r3, r4, r5, pc}
   8734c:	20078de0 	.word	0x20078de0

00087350 <_lseek_r>:
   87350:	b570      	push	{r4, r5, r6, lr}
   87352:	4c08      	ldr	r4, [pc, #32]	; (87374 <_lseek_r+0x24>)
   87354:	4606      	mov	r6, r0
   87356:	2500      	movs	r5, #0
   87358:	4608      	mov	r0, r1
   8735a:	4611      	mov	r1, r2
   8735c:	461a      	mov	r2, r3
   8735e:	6025      	str	r5, [r4, #0]
   87360:	f7fc fade 	bl	83920 <_lseek>
   87364:	1c43      	adds	r3, r0, #1
   87366:	d000      	beq.n	8736a <_lseek_r+0x1a>
   87368:	bd70      	pop	{r4, r5, r6, pc}
   8736a:	6823      	ldr	r3, [r4, #0]
   8736c:	2b00      	cmp	r3, #0
   8736e:	d0fb      	beq.n	87368 <_lseek_r+0x18>
   87370:	6033      	str	r3, [r6, #0]
   87372:	bd70      	pop	{r4, r5, r6, pc}
   87374:	20078de0 	.word	0x20078de0

00087378 <_read_r>:
   87378:	b570      	push	{r4, r5, r6, lr}
   8737a:	4c08      	ldr	r4, [pc, #32]	; (8739c <_read_r+0x24>)
   8737c:	4606      	mov	r6, r0
   8737e:	2500      	movs	r5, #0
   87380:	4608      	mov	r0, r1
   87382:	4611      	mov	r1, r2
   87384:	461a      	mov	r2, r3
   87386:	6025      	str	r5, [r4, #0]
   87388:	f7f8 ff3a 	bl	80200 <_read>
   8738c:	1c43      	adds	r3, r0, #1
   8738e:	d000      	beq.n	87392 <_read_r+0x1a>
   87390:	bd70      	pop	{r4, r5, r6, pc}
   87392:	6823      	ldr	r3, [r4, #0]
   87394:	2b00      	cmp	r3, #0
   87396:	d0fb      	beq.n	87390 <_read_r+0x18>
   87398:	6033      	str	r3, [r6, #0]
   8739a:	bd70      	pop	{r4, r5, r6, pc}
   8739c:	20078de0 	.word	0x20078de0

000873a0 <__aeabi_uldivmod>:
   873a0:	b94b      	cbnz	r3, 873b6 <__aeabi_uldivmod+0x16>
   873a2:	b942      	cbnz	r2, 873b6 <__aeabi_uldivmod+0x16>
   873a4:	2900      	cmp	r1, #0
   873a6:	bf08      	it	eq
   873a8:	2800      	cmpeq	r0, #0
   873aa:	d002      	beq.n	873b2 <__aeabi_uldivmod+0x12>
   873ac:	f04f 31ff 	mov.w	r1, #4294967295
   873b0:	4608      	mov	r0, r1
   873b2:	f000 b83b 	b.w	8742c <__aeabi_idiv0>
   873b6:	b082      	sub	sp, #8
   873b8:	46ec      	mov	ip, sp
   873ba:	e92d 5000 	stmdb	sp!, {ip, lr}
   873be:	f000 f81d 	bl	873fc <__gnu_uldivmod_helper>
   873c2:	f8dd e004 	ldr.w	lr, [sp, #4]
   873c6:	b002      	add	sp, #8
   873c8:	bc0c      	pop	{r2, r3}
   873ca:	4770      	bx	lr

000873cc <__gnu_ldivmod_helper>:
   873cc:	e92d 4f70 	stmdb	sp!, {r4, r5, r6, r8, r9, sl, fp, lr}
   873d0:	9e08      	ldr	r6, [sp, #32]
   873d2:	4614      	mov	r4, r2
   873d4:	461d      	mov	r5, r3
   873d6:	4680      	mov	r8, r0
   873d8:	4689      	mov	r9, r1
   873da:	f000 f829 	bl	87430 <__divdi3>
   873de:	fb04 f301 	mul.w	r3, r4, r1
   873e2:	fba4 ab00 	umull	sl, fp, r4, r0
   873e6:	fb00 3205 	mla	r2, r0, r5, r3
   873ea:	4493      	add	fp, r2
   873ec:	ebb8 080a 	subs.w	r8, r8, sl
   873f0:	eb69 090b 	sbc.w	r9, r9, fp
   873f4:	e9c6 8900 	strd	r8, r9, [r6]
   873f8:	e8bd 8f70 	ldmia.w	sp!, {r4, r5, r6, r8, r9, sl, fp, pc}

000873fc <__gnu_uldivmod_helper>:
   873fc:	e92d 4f70 	stmdb	sp!, {r4, r5, r6, r8, r9, sl, fp, lr}
   87400:	9e08      	ldr	r6, [sp, #32]
   87402:	4614      	mov	r4, r2
   87404:	461d      	mov	r5, r3
   87406:	4680      	mov	r8, r0
   87408:	4689      	mov	r9, r1
   8740a:	f000 f961 	bl	876d0 <__udivdi3>
   8740e:	fb00 f505 	mul.w	r5, r0, r5
   87412:	fba0 ab04 	umull	sl, fp, r0, r4
   87416:	fb04 5401 	mla	r4, r4, r1, r5
   8741a:	44a3      	add	fp, r4
   8741c:	ebb8 080a 	subs.w	r8, r8, sl
   87420:	eb69 090b 	sbc.w	r9, r9, fp
   87424:	e9c6 8900 	strd	r8, r9, [r6]
   87428:	e8bd 8f70 	ldmia.w	sp!, {r4, r5, r6, r8, r9, sl, fp, pc}

0008742c <__aeabi_idiv0>:
   8742c:	4770      	bx	lr
   8742e:	bf00      	nop

00087430 <__divdi3>:
   87430:	2900      	cmp	r1, #0
   87432:	e92d 0ff0 	stmdb	sp!, {r4, r5, r6, r7, r8, r9, sl, fp}
   87436:	f2c0 80a1 	blt.w	8757c <__divdi3+0x14c>
   8743a:	2400      	movs	r4, #0
   8743c:	2b00      	cmp	r3, #0
   8743e:	f2c0 8098 	blt.w	87572 <__divdi3+0x142>
   87442:	4615      	mov	r5, r2
   87444:	4606      	mov	r6, r0
   87446:	460f      	mov	r7, r1
   87448:	2b00      	cmp	r3, #0
   8744a:	d13f      	bne.n	874cc <__divdi3+0x9c>
   8744c:	428a      	cmp	r2, r1
   8744e:	d958      	bls.n	87502 <__divdi3+0xd2>
   87450:	fab2 f382 	clz	r3, r2
   87454:	b14b      	cbz	r3, 8746a <__divdi3+0x3a>
   87456:	f1c3 0220 	rsb	r2, r3, #32
   8745a:	fa01 f703 	lsl.w	r7, r1, r3
   8745e:	fa20 f202 	lsr.w	r2, r0, r2
   87462:	409d      	lsls	r5, r3
   87464:	fa00 f603 	lsl.w	r6, r0, r3
   87468:	4317      	orrs	r7, r2
   8746a:	0c29      	lsrs	r1, r5, #16
   8746c:	fbb7 f2f1 	udiv	r2, r7, r1
   87470:	fb01 7712 	mls	r7, r1, r2, r7
   87474:	b2a8      	uxth	r0, r5
   87476:	fb00 f302 	mul.w	r3, r0, r2
   8747a:	ea4f 4c16 	mov.w	ip, r6, lsr #16
   8747e:	ea4c 4707 	orr.w	r7, ip, r7, lsl #16
   87482:	42bb      	cmp	r3, r7
   87484:	d909      	bls.n	8749a <__divdi3+0x6a>
   87486:	197f      	adds	r7, r7, r5
   87488:	f102 3cff 	add.w	ip, r2, #4294967295
   8748c:	f080 8105 	bcs.w	8769a <__divdi3+0x26a>
   87490:	42bb      	cmp	r3, r7
   87492:	f240 8102 	bls.w	8769a <__divdi3+0x26a>
   87496:	3a02      	subs	r2, #2
   87498:	442f      	add	r7, r5
   8749a:	1aff      	subs	r7, r7, r3
   8749c:	fbb7 f3f1 	udiv	r3, r7, r1
   874a0:	fb01 7113 	mls	r1, r1, r3, r7
   874a4:	fb00 f003 	mul.w	r0, r0, r3
   874a8:	b2b6      	uxth	r6, r6
   874aa:	ea46 4101 	orr.w	r1, r6, r1, lsl #16
   874ae:	4288      	cmp	r0, r1
   874b0:	d908      	bls.n	874c4 <__divdi3+0x94>
   874b2:	1949      	adds	r1, r1, r5
   874b4:	f103 37ff 	add.w	r7, r3, #4294967295
   874b8:	f080 80f1 	bcs.w	8769e <__divdi3+0x26e>
   874bc:	4288      	cmp	r0, r1
   874be:	f240 80ee 	bls.w	8769e <__divdi3+0x26e>
   874c2:	3b02      	subs	r3, #2
   874c4:	ea43 4202 	orr.w	r2, r3, r2, lsl #16
   874c8:	2300      	movs	r3, #0
   874ca:	e003      	b.n	874d4 <__divdi3+0xa4>
   874cc:	428b      	cmp	r3, r1
   874ce:	d90a      	bls.n	874e6 <__divdi3+0xb6>
   874d0:	2300      	movs	r3, #0
   874d2:	461a      	mov	r2, r3
   874d4:	4610      	mov	r0, r2
   874d6:	4619      	mov	r1, r3
   874d8:	b114      	cbz	r4, 874e0 <__divdi3+0xb0>
   874da:	4240      	negs	r0, r0
   874dc:	eb61 0141 	sbc.w	r1, r1, r1, lsl #1
   874e0:	e8bd 0ff0 	ldmia.w	sp!, {r4, r5, r6, r7, r8, r9, sl, fp}
   874e4:	4770      	bx	lr
   874e6:	fab3 f883 	clz	r8, r3
   874ea:	f1b8 0f00 	cmp.w	r8, #0
   874ee:	f040 8088 	bne.w	87602 <__divdi3+0x1d2>
   874f2:	428b      	cmp	r3, r1
   874f4:	d302      	bcc.n	874fc <__divdi3+0xcc>
   874f6:	4282      	cmp	r2, r0
   874f8:	f200 80e2 	bhi.w	876c0 <__divdi3+0x290>
   874fc:	2300      	movs	r3, #0
   874fe:	2201      	movs	r2, #1
   87500:	e7e8      	b.n	874d4 <__divdi3+0xa4>
   87502:	b912      	cbnz	r2, 8750a <__divdi3+0xda>
   87504:	2301      	movs	r3, #1
   87506:	fbb3 f5f2 	udiv	r5, r3, r2
   8750a:	fab5 f285 	clz	r2, r5
   8750e:	2a00      	cmp	r2, #0
   87510:	d13a      	bne.n	87588 <__divdi3+0x158>
   87512:	1b7f      	subs	r7, r7, r5
   87514:	0c28      	lsrs	r0, r5, #16
   87516:	fa1f fc85 	uxth.w	ip, r5
   8751a:	2301      	movs	r3, #1
   8751c:	fbb7 f1f0 	udiv	r1, r7, r0
   87520:	fb00 7711 	mls	r7, r0, r1, r7
   87524:	fb0c f201 	mul.w	r2, ip, r1
   87528:	ea4f 4816 	mov.w	r8, r6, lsr #16
   8752c:	ea48 4707 	orr.w	r7, r8, r7, lsl #16
   87530:	42ba      	cmp	r2, r7
   87532:	d907      	bls.n	87544 <__divdi3+0x114>
   87534:	197f      	adds	r7, r7, r5
   87536:	f101 38ff 	add.w	r8, r1, #4294967295
   8753a:	d202      	bcs.n	87542 <__divdi3+0x112>
   8753c:	42ba      	cmp	r2, r7
   8753e:	f200 80c4 	bhi.w	876ca <__divdi3+0x29a>
   87542:	4641      	mov	r1, r8
   87544:	1abf      	subs	r7, r7, r2
   87546:	fbb7 f2f0 	udiv	r2, r7, r0
   8754a:	fb00 7012 	mls	r0, r0, r2, r7
   8754e:	fb0c fc02 	mul.w	ip, ip, r2
   87552:	b2b6      	uxth	r6, r6
   87554:	ea46 4000 	orr.w	r0, r6, r0, lsl #16
   87558:	4584      	cmp	ip, r0
   8755a:	d907      	bls.n	8756c <__divdi3+0x13c>
   8755c:	1940      	adds	r0, r0, r5
   8755e:	f102 37ff 	add.w	r7, r2, #4294967295
   87562:	d202      	bcs.n	8756a <__divdi3+0x13a>
   87564:	4584      	cmp	ip, r0
   87566:	f200 80ae 	bhi.w	876c6 <__divdi3+0x296>
   8756a:	463a      	mov	r2, r7
   8756c:	ea42 4201 	orr.w	r2, r2, r1, lsl #16
   87570:	e7b0      	b.n	874d4 <__divdi3+0xa4>
   87572:	43e4      	mvns	r4, r4
   87574:	4252      	negs	r2, r2
   87576:	eb63 0343 	sbc.w	r3, r3, r3, lsl #1
   8757a:	e762      	b.n	87442 <__divdi3+0x12>
   8757c:	4240      	negs	r0, r0
   8757e:	eb61 0141 	sbc.w	r1, r1, r1, lsl #1
   87582:	f04f 34ff 	mov.w	r4, #4294967295
   87586:	e759      	b.n	8743c <__divdi3+0xc>
   87588:	4095      	lsls	r5, r2
   8758a:	f1c2 0920 	rsb	r9, r2, #32
   8758e:	fa27 f109 	lsr.w	r1, r7, r9
   87592:	fa26 f909 	lsr.w	r9, r6, r9
   87596:	4097      	lsls	r7, r2
   87598:	0c28      	lsrs	r0, r5, #16
   8759a:	fbb1 f8f0 	udiv	r8, r1, r0
   8759e:	fb00 1118 	mls	r1, r0, r8, r1
   875a2:	fa1f fc85 	uxth.w	ip, r5
   875a6:	fb0c f308 	mul.w	r3, ip, r8
   875aa:	ea49 0907 	orr.w	r9, r9, r7
   875ae:	ea4f 4719 	mov.w	r7, r9, lsr #16
   875b2:	ea47 4101 	orr.w	r1, r7, r1, lsl #16
   875b6:	428b      	cmp	r3, r1
   875b8:	fa06 f602 	lsl.w	r6, r6, r2
   875bc:	d908      	bls.n	875d0 <__divdi3+0x1a0>
   875be:	1949      	adds	r1, r1, r5
   875c0:	f108 32ff 	add.w	r2, r8, #4294967295
   875c4:	d27a      	bcs.n	876bc <__divdi3+0x28c>
   875c6:	428b      	cmp	r3, r1
   875c8:	d978      	bls.n	876bc <__divdi3+0x28c>
   875ca:	f1a8 0802 	sub.w	r8, r8, #2
   875ce:	4429      	add	r1, r5
   875d0:	1ac9      	subs	r1, r1, r3
   875d2:	fbb1 f3f0 	udiv	r3, r1, r0
   875d6:	fb00 1713 	mls	r7, r0, r3, r1
   875da:	fb0c f203 	mul.w	r2, ip, r3
   875de:	fa1f f989 	uxth.w	r9, r9
   875e2:	ea49 4707 	orr.w	r7, r9, r7, lsl #16
   875e6:	42ba      	cmp	r2, r7
   875e8:	d907      	bls.n	875fa <__divdi3+0x1ca>
   875ea:	197f      	adds	r7, r7, r5
   875ec:	f103 31ff 	add.w	r1, r3, #4294967295
   875f0:	d260      	bcs.n	876b4 <__divdi3+0x284>
   875f2:	42ba      	cmp	r2, r7
   875f4:	d95e      	bls.n	876b4 <__divdi3+0x284>
   875f6:	3b02      	subs	r3, #2
   875f8:	442f      	add	r7, r5
   875fa:	1abf      	subs	r7, r7, r2
   875fc:	ea43 4308 	orr.w	r3, r3, r8, lsl #16
   87600:	e78c      	b.n	8751c <__divdi3+0xec>
   87602:	f1c8 0220 	rsb	r2, r8, #32
   87606:	fa25 f102 	lsr.w	r1, r5, r2
   8760a:	fa03 fc08 	lsl.w	ip, r3, r8
   8760e:	fa27 f302 	lsr.w	r3, r7, r2
   87612:	fa20 f202 	lsr.w	r2, r0, r2
   87616:	fa07 f708 	lsl.w	r7, r7, r8
   8761a:	ea41 0c0c 	orr.w	ip, r1, ip
   8761e:	ea4f 491c 	mov.w	r9, ip, lsr #16
   87622:	fbb3 f1f9 	udiv	r1, r3, r9
   87626:	fb09 3311 	mls	r3, r9, r1, r3
   8762a:	fa1f fa8c 	uxth.w	sl, ip
   8762e:	fb0a fb01 	mul.w	fp, sl, r1
   87632:	4317      	orrs	r7, r2
   87634:	0c3a      	lsrs	r2, r7, #16
   87636:	ea42 4303 	orr.w	r3, r2, r3, lsl #16
   8763a:	459b      	cmp	fp, r3
   8763c:	fa05 f008 	lsl.w	r0, r5, r8
   87640:	d908      	bls.n	87654 <__divdi3+0x224>
   87642:	eb13 030c 	adds.w	r3, r3, ip
   87646:	f101 32ff 	add.w	r2, r1, #4294967295
   8764a:	d235      	bcs.n	876b8 <__divdi3+0x288>
   8764c:	459b      	cmp	fp, r3
   8764e:	d933      	bls.n	876b8 <__divdi3+0x288>
   87650:	3902      	subs	r1, #2
   87652:	4463      	add	r3, ip
   87654:	ebcb 0303 	rsb	r3, fp, r3
   87658:	fbb3 f2f9 	udiv	r2, r3, r9
   8765c:	fb09 3312 	mls	r3, r9, r2, r3
   87660:	fb0a fa02 	mul.w	sl, sl, r2
   87664:	b2bf      	uxth	r7, r7
   87666:	ea47 4703 	orr.w	r7, r7, r3, lsl #16
   8766a:	45ba      	cmp	sl, r7
   8766c:	d908      	bls.n	87680 <__divdi3+0x250>
   8766e:	eb17 070c 	adds.w	r7, r7, ip
   87672:	f102 33ff 	add.w	r3, r2, #4294967295
   87676:	d21b      	bcs.n	876b0 <__divdi3+0x280>
   87678:	45ba      	cmp	sl, r7
   8767a:	d919      	bls.n	876b0 <__divdi3+0x280>
   8767c:	3a02      	subs	r2, #2
   8767e:	4467      	add	r7, ip
   87680:	ea42 4501 	orr.w	r5, r2, r1, lsl #16
   87684:	fba5 0100 	umull	r0, r1, r5, r0
   87688:	ebca 0707 	rsb	r7, sl, r7
   8768c:	428f      	cmp	r7, r1
   8768e:	f04f 0300 	mov.w	r3, #0
   87692:	d30a      	bcc.n	876aa <__divdi3+0x27a>
   87694:	d005      	beq.n	876a2 <__divdi3+0x272>
   87696:	462a      	mov	r2, r5
   87698:	e71c      	b.n	874d4 <__divdi3+0xa4>
   8769a:	4662      	mov	r2, ip
   8769c:	e6fd      	b.n	8749a <__divdi3+0x6a>
   8769e:	463b      	mov	r3, r7
   876a0:	e710      	b.n	874c4 <__divdi3+0x94>
   876a2:	fa06 f608 	lsl.w	r6, r6, r8
   876a6:	4286      	cmp	r6, r0
   876a8:	d2f5      	bcs.n	87696 <__divdi3+0x266>
   876aa:	1e6a      	subs	r2, r5, #1
   876ac:	2300      	movs	r3, #0
   876ae:	e711      	b.n	874d4 <__divdi3+0xa4>
   876b0:	461a      	mov	r2, r3
   876b2:	e7e5      	b.n	87680 <__divdi3+0x250>
   876b4:	460b      	mov	r3, r1
   876b6:	e7a0      	b.n	875fa <__divdi3+0x1ca>
   876b8:	4611      	mov	r1, r2
   876ba:	e7cb      	b.n	87654 <__divdi3+0x224>
   876bc:	4690      	mov	r8, r2
   876be:	e787      	b.n	875d0 <__divdi3+0x1a0>
   876c0:	4643      	mov	r3, r8
   876c2:	4642      	mov	r2, r8
   876c4:	e706      	b.n	874d4 <__divdi3+0xa4>
   876c6:	3a02      	subs	r2, #2
   876c8:	e750      	b.n	8756c <__divdi3+0x13c>
   876ca:	3902      	subs	r1, #2
   876cc:	442f      	add	r7, r5
   876ce:	e739      	b.n	87544 <__divdi3+0x114>

000876d0 <__udivdi3>:
   876d0:	e92d 0ff0 	stmdb	sp!, {r4, r5, r6, r7, r8, r9, sl, fp}
   876d4:	4614      	mov	r4, r2
   876d6:	4605      	mov	r5, r0
   876d8:	460e      	mov	r6, r1
   876da:	2b00      	cmp	r3, #0
   876dc:	d143      	bne.n	87766 <__udivdi3+0x96>
   876de:	428a      	cmp	r2, r1
   876e0:	d953      	bls.n	8778a <__udivdi3+0xba>
   876e2:	fab2 f782 	clz	r7, r2
   876e6:	b157      	cbz	r7, 876fe <__udivdi3+0x2e>
   876e8:	f1c7 0620 	rsb	r6, r7, #32
   876ec:	fa20 f606 	lsr.w	r6, r0, r6
   876f0:	fa01 f307 	lsl.w	r3, r1, r7
   876f4:	fa02 f407 	lsl.w	r4, r2, r7
   876f8:	fa00 f507 	lsl.w	r5, r0, r7
   876fc:	431e      	orrs	r6, r3
   876fe:	0c21      	lsrs	r1, r4, #16
   87700:	fbb6 f2f1 	udiv	r2, r6, r1
   87704:	fb01 6612 	mls	r6, r1, r2, r6
   87708:	b2a0      	uxth	r0, r4
   8770a:	fb00 f302 	mul.w	r3, r0, r2
   8770e:	0c2f      	lsrs	r7, r5, #16
   87710:	ea47 4606 	orr.w	r6, r7, r6, lsl #16
   87714:	42b3      	cmp	r3, r6
   87716:	d909      	bls.n	8772c <__udivdi3+0x5c>
   87718:	1936      	adds	r6, r6, r4
   8771a:	f102 37ff 	add.w	r7, r2, #4294967295
   8771e:	f080 80fd 	bcs.w	8791c <__udivdi3+0x24c>
   87722:	42b3      	cmp	r3, r6
   87724:	f240 80fa 	bls.w	8791c <__udivdi3+0x24c>
   87728:	3a02      	subs	r2, #2
   8772a:	4426      	add	r6, r4
   8772c:	1af6      	subs	r6, r6, r3
   8772e:	fbb6 f3f1 	udiv	r3, r6, r1
   87732:	fb01 6113 	mls	r1, r1, r3, r6
   87736:	fb00 f003 	mul.w	r0, r0, r3
   8773a:	b2ad      	uxth	r5, r5
   8773c:	ea45 4101 	orr.w	r1, r5, r1, lsl #16
   87740:	4288      	cmp	r0, r1
   87742:	d908      	bls.n	87756 <__udivdi3+0x86>
   87744:	1909      	adds	r1, r1, r4
   87746:	f103 36ff 	add.w	r6, r3, #4294967295
   8774a:	f080 80e9 	bcs.w	87920 <__udivdi3+0x250>
   8774e:	4288      	cmp	r0, r1
   87750:	f240 80e6 	bls.w	87920 <__udivdi3+0x250>
   87754:	3b02      	subs	r3, #2
   87756:	ea43 4202 	orr.w	r2, r3, r2, lsl #16
   8775a:	2300      	movs	r3, #0
   8775c:	4610      	mov	r0, r2
   8775e:	4619      	mov	r1, r3
   87760:	e8bd 0ff0 	ldmia.w	sp!, {r4, r5, r6, r7, r8, r9, sl, fp}
   87764:	4770      	bx	lr
   87766:	428b      	cmp	r3, r1
   87768:	d84c      	bhi.n	87804 <__udivdi3+0x134>
   8776a:	fab3 f683 	clz	r6, r3
   8776e:	2e00      	cmp	r6, #0
   87770:	d14f      	bne.n	87812 <__udivdi3+0x142>
   87772:	428b      	cmp	r3, r1
   87774:	d302      	bcc.n	8777c <__udivdi3+0xac>
   87776:	4282      	cmp	r2, r0
   87778:	f200 80dd 	bhi.w	87936 <__udivdi3+0x266>
   8777c:	e8bd 0ff0 	ldmia.w	sp!, {r4, r5, r6, r7, r8, r9, sl, fp}
   87780:	2300      	movs	r3, #0
   87782:	2201      	movs	r2, #1
   87784:	4610      	mov	r0, r2
   87786:	4619      	mov	r1, r3
   87788:	4770      	bx	lr
   8778a:	b912      	cbnz	r2, 87792 <__udivdi3+0xc2>
   8778c:	2401      	movs	r4, #1
   8778e:	fbb4 f4f2 	udiv	r4, r4, r2
   87792:	fab4 f284 	clz	r2, r4
   87796:	2a00      	cmp	r2, #0
   87798:	f040 8082 	bne.w	878a0 <__udivdi3+0x1d0>
   8779c:	1b09      	subs	r1, r1, r4
   8779e:	0c26      	lsrs	r6, r4, #16
   877a0:	b2a7      	uxth	r7, r4
   877a2:	2301      	movs	r3, #1
   877a4:	fbb1 f0f6 	udiv	r0, r1, r6
   877a8:	fb06 1110 	mls	r1, r6, r0, r1
   877ac:	fb07 f200 	mul.w	r2, r7, r0
   877b0:	ea4f 4c15 	mov.w	ip, r5, lsr #16
   877b4:	ea4c 4101 	orr.w	r1, ip, r1, lsl #16
   877b8:	428a      	cmp	r2, r1
   877ba:	d907      	bls.n	877cc <__udivdi3+0xfc>
   877bc:	1909      	adds	r1, r1, r4
   877be:	f100 3cff 	add.w	ip, r0, #4294967295
   877c2:	d202      	bcs.n	877ca <__udivdi3+0xfa>
   877c4:	428a      	cmp	r2, r1
   877c6:	f200 80c8 	bhi.w	8795a <__udivdi3+0x28a>
   877ca:	4660      	mov	r0, ip
   877cc:	1a89      	subs	r1, r1, r2
   877ce:	fbb1 f2f6 	udiv	r2, r1, r6
   877d2:	fb06 1112 	mls	r1, r6, r2, r1
   877d6:	fb07 f702 	mul.w	r7, r7, r2
   877da:	b2ad      	uxth	r5, r5
   877dc:	ea45 4501 	orr.w	r5, r5, r1, lsl #16
   877e0:	42af      	cmp	r7, r5
   877e2:	d908      	bls.n	877f6 <__udivdi3+0x126>
   877e4:	192c      	adds	r4, r5, r4
   877e6:	f102 31ff 	add.w	r1, r2, #4294967295
   877ea:	f080 809b 	bcs.w	87924 <__udivdi3+0x254>
   877ee:	42a7      	cmp	r7, r4
   877f0:	f240 8098 	bls.w	87924 <__udivdi3+0x254>
   877f4:	3a02      	subs	r2, #2
   877f6:	ea42 4200 	orr.w	r2, r2, r0, lsl #16
   877fa:	4610      	mov	r0, r2
   877fc:	4619      	mov	r1, r3
   877fe:	e8bd 0ff0 	ldmia.w	sp!, {r4, r5, r6, r7, r8, r9, sl, fp}
   87802:	4770      	bx	lr
   87804:	2300      	movs	r3, #0
   87806:	461a      	mov	r2, r3
   87808:	4610      	mov	r0, r2
   8780a:	4619      	mov	r1, r3
   8780c:	e8bd 0ff0 	ldmia.w	sp!, {r4, r5, r6, r7, r8, r9, sl, fp}
   87810:	4770      	bx	lr
   87812:	f1c6 0520 	rsb	r5, r6, #32
   87816:	fa22 f705 	lsr.w	r7, r2, r5
   8781a:	fa03 f406 	lsl.w	r4, r3, r6
   8781e:	fa21 f305 	lsr.w	r3, r1, r5
   87822:	fa01 fb06 	lsl.w	fp, r1, r6
   87826:	fa20 f505 	lsr.w	r5, r0, r5
   8782a:	433c      	orrs	r4, r7
   8782c:	ea4f 4814 	mov.w	r8, r4, lsr #16
   87830:	fbb3 fcf8 	udiv	ip, r3, r8
   87834:	fb08 331c 	mls	r3, r8, ip, r3
   87838:	fa1f f984 	uxth.w	r9, r4
   8783c:	fb09 fa0c 	mul.w	sl, r9, ip
   87840:	ea45 0b0b 	orr.w	fp, r5, fp
   87844:	ea4f 451b 	mov.w	r5, fp, lsr #16
   87848:	ea45 4303 	orr.w	r3, r5, r3, lsl #16
   8784c:	459a      	cmp	sl, r3
   8784e:	fa02 f206 	lsl.w	r2, r2, r6
   87852:	d904      	bls.n	8785e <__udivdi3+0x18e>
   87854:	191b      	adds	r3, r3, r4
   87856:	f10c 35ff 	add.w	r5, ip, #4294967295
   8785a:	d36f      	bcc.n	8793c <__udivdi3+0x26c>
   8785c:	46ac      	mov	ip, r5
   8785e:	ebca 0303 	rsb	r3, sl, r3
   87862:	fbb3 f5f8 	udiv	r5, r3, r8
   87866:	fb08 3315 	mls	r3, r8, r5, r3
   8786a:	fb09 f905 	mul.w	r9, r9, r5
   8786e:	fa1f fb8b 	uxth.w	fp, fp
   87872:	ea4b 4703 	orr.w	r7, fp, r3, lsl #16
   87876:	45b9      	cmp	r9, r7
   87878:	d904      	bls.n	87884 <__udivdi3+0x1b4>
   8787a:	193f      	adds	r7, r7, r4
   8787c:	f105 33ff 	add.w	r3, r5, #4294967295
   87880:	d362      	bcc.n	87948 <__udivdi3+0x278>
   87882:	461d      	mov	r5, r3
   87884:	ea45 4c0c 	orr.w	ip, r5, ip, lsl #16
   87888:	fbac 2302 	umull	r2, r3, ip, r2
   8788c:	ebc9 0707 	rsb	r7, r9, r7
   87890:	429f      	cmp	r7, r3
   87892:	f04f 0500 	mov.w	r5, #0
   87896:	d34a      	bcc.n	8792e <__udivdi3+0x25e>
   87898:	d046      	beq.n	87928 <__udivdi3+0x258>
   8789a:	4662      	mov	r2, ip
   8789c:	462b      	mov	r3, r5
   8789e:	e75d      	b.n	8775c <__udivdi3+0x8c>
   878a0:	4094      	lsls	r4, r2
   878a2:	f1c2 0920 	rsb	r9, r2, #32
   878a6:	fa21 fc09 	lsr.w	ip, r1, r9
   878aa:	4091      	lsls	r1, r2
   878ac:	fa20 f909 	lsr.w	r9, r0, r9
   878b0:	0c26      	lsrs	r6, r4, #16
   878b2:	fbbc f8f6 	udiv	r8, ip, r6
   878b6:	fb06 cc18 	mls	ip, r6, r8, ip
   878ba:	b2a7      	uxth	r7, r4
   878bc:	fb07 f308 	mul.w	r3, r7, r8
   878c0:	ea49 0901 	orr.w	r9, r9, r1
   878c4:	ea4f 4119 	mov.w	r1, r9, lsr #16
   878c8:	ea41 4c0c 	orr.w	ip, r1, ip, lsl #16
   878cc:	4563      	cmp	r3, ip
   878ce:	fa00 f502 	lsl.w	r5, r0, r2
   878d2:	d909      	bls.n	878e8 <__udivdi3+0x218>
   878d4:	eb1c 0c04 	adds.w	ip, ip, r4
   878d8:	f108 32ff 	add.w	r2, r8, #4294967295
   878dc:	d23b      	bcs.n	87956 <__udivdi3+0x286>
   878de:	4563      	cmp	r3, ip
   878e0:	d939      	bls.n	87956 <__udivdi3+0x286>
   878e2:	f1a8 0802 	sub.w	r8, r8, #2
   878e6:	44a4      	add	ip, r4
   878e8:	ebc3 0c0c 	rsb	ip, r3, ip
   878ec:	fbbc f3f6 	udiv	r3, ip, r6
   878f0:	fb06 c113 	mls	r1, r6, r3, ip
   878f4:	fb07 f203 	mul.w	r2, r7, r3
   878f8:	fa1f f989 	uxth.w	r9, r9
   878fc:	ea49 4101 	orr.w	r1, r9, r1, lsl #16
   87900:	428a      	cmp	r2, r1
   87902:	d907      	bls.n	87914 <__udivdi3+0x244>
   87904:	1909      	adds	r1, r1, r4
   87906:	f103 30ff 	add.w	r0, r3, #4294967295
   8790a:	d222      	bcs.n	87952 <__udivdi3+0x282>
   8790c:	428a      	cmp	r2, r1
   8790e:	d920      	bls.n	87952 <__udivdi3+0x282>
   87910:	3b02      	subs	r3, #2
   87912:	4421      	add	r1, r4
   87914:	1a89      	subs	r1, r1, r2
   87916:	ea43 4308 	orr.w	r3, r3, r8, lsl #16
   8791a:	e743      	b.n	877a4 <__udivdi3+0xd4>
   8791c:	463a      	mov	r2, r7
   8791e:	e705      	b.n	8772c <__udivdi3+0x5c>
   87920:	4633      	mov	r3, r6
   87922:	e718      	b.n	87756 <__udivdi3+0x86>
   87924:	460a      	mov	r2, r1
   87926:	e766      	b.n	877f6 <__udivdi3+0x126>
   87928:	40b0      	lsls	r0, r6
   8792a:	4290      	cmp	r0, r2
   8792c:	d2b5      	bcs.n	8789a <__udivdi3+0x1ca>
   8792e:	f10c 32ff 	add.w	r2, ip, #4294967295
   87932:	2300      	movs	r3, #0
   87934:	e712      	b.n	8775c <__udivdi3+0x8c>
   87936:	4633      	mov	r3, r6
   87938:	4632      	mov	r2, r6
   8793a:	e70f      	b.n	8775c <__udivdi3+0x8c>
   8793c:	459a      	cmp	sl, r3
   8793e:	d98d      	bls.n	8785c <__udivdi3+0x18c>
   87940:	f1ac 0c02 	sub.w	ip, ip, #2
   87944:	4423      	add	r3, r4
   87946:	e78a      	b.n	8785e <__udivdi3+0x18e>
   87948:	45b9      	cmp	r9, r7
   8794a:	d99a      	bls.n	87882 <__udivdi3+0x1b2>
   8794c:	3d02      	subs	r5, #2
   8794e:	4427      	add	r7, r4
   87950:	e798      	b.n	87884 <__udivdi3+0x1b4>
   87952:	4603      	mov	r3, r0
   87954:	e7de      	b.n	87914 <__udivdi3+0x244>
   87956:	4690      	mov	r8, r2
   87958:	e7c6      	b.n	878e8 <__udivdi3+0x218>
   8795a:	3802      	subs	r0, #2
   8795c:	4421      	add	r1, r4
   8795e:	e735      	b.n	877cc <__udivdi3+0xfc>
   87960:	206d7241 	.word	0x206d7241
   87964:	74696e69 	.word	0x74696e69
   87968:	696c6169 	.word	0x696c6169
   8796c:	3f64657a 	.word	0x3f64657a
   87970:	00000a0d 	.word	0x00000a0d
   87974:	00000001 	.word	0x00000001
   87978:	00000002 	.word	0x00000002
   8797c:	00000004 	.word	0x00000004
   87980:	00000008 	.word	0x00000008
   87984:	00000010 	.word	0x00000010
   87988:	00000020 	.word	0x00000020
   8798c:	00000040 	.word	0x00000040
   87990:	00000080 	.word	0x00000080
   87994:	00000100 	.word	0x00000100
   87998:	00000200 	.word	0x00000200
   8799c:	00000400 	.word	0x00000400
   879a0:	000a0d32 	.word	0x000a0d32
   879a4:	7473614d 	.word	0x7473614d
   879a8:	69207265 	.word	0x69207265
   879ac:	6974696e 	.word	0x6974696e
   879b0:	7a696c61 	.word	0x7a696c61
   879b4:	0a0d6465 	.word	0x0a0d6465
   879b8:	00000000 	.word	0x00000000
   879bc:	646e6553 	.word	0x646e6553
   879c0:	3a676e69 	.word	0x3a676e69
   879c4:	2c642520 	.word	0x2c642520
   879c8:	2c642520 	.word	0x2c642520
   879cc:	0d642520 	.word	0x0d642520
   879d0:	0000000a 	.word	0x0000000a
   879d4:	74617453 	.word	0x74617453
   879d8:	203a7375 	.word	0x203a7375
   879dc:	0a0d6425 	.word	0x0a0d6425
   879e0:	00000000 	.word	0x00000000
   879e4:	4956414e 	.word	0x4956414e
   879e8:	00000000 	.word	0x00000000
   879ec:	00006425 	.word	0x00006425
   879f0:	45564f4d 	.word	0x45564f4d
   879f4:	00000000 	.word	0x00000000
   879f8:	4f464542 	.word	0x4f464542
   879fc:	52204552 	.word	0x52204552
   87a00:	5441544f 	.word	0x5441544f
   87a04:	00000045 	.word	0x00000045
   87a08:	41544f52 	.word	0x41544f52
   87a0c:	00004554 	.word	0x00004554
   87a10:	09097325 	.word	0x09097325
   87a14:	25096325 	.word	0x25096325
   87a18:	75250975 	.word	0x75250975
   87a1c:	0d752509 	.word	0x0d752509
   87a20:	0000000a 	.word	0x0000000a
   87a24:	454c4449 	.word	0x454c4449
   87a28:	00000000 	.word	0x00000000
   87a2c:	20726d54 	.word	0x20726d54
   87a30:	00637653 	.word	0x00637653
   87a34:	25202d2d 	.word	0x25202d2d
   87a38:	000d0a73 	.word	0x000d0a73
   87a3c:	75647241 	.word	0x75647241
   87a40:	206f6e69 	.word	0x206f6e69
   87a44:	2f657544 	.word	0x2f657544
   87a48:	00000058 	.word	0x00000058
   87a4c:	43202d2d 	.word	0x43202d2d
   87a50:	69706d6f 	.word	0x69706d6f
   87a54:	3a64656c 	.word	0x3a64656c
   87a58:	20732520 	.word	0x20732520
   87a5c:	2d207325 	.word	0x2d207325
   87a60:	000d0a2d 	.word	0x000d0a2d
   87a64:	2079614d 	.word	0x2079614d
   87a68:	32203531 	.word	0x32203531
   87a6c:	00373130 	.word	0x00373130
   87a70:	313a3731 	.word	0x313a3731
   87a74:	37333a30 	.word	0x37333a30
   87a78:	00000000 	.word	0x00000000
   87a7c:	65766f4d 	.word	0x65766f4d
   87a80:	00000000 	.word	0x00000000
   87a84:	6c696146 	.word	0x6c696146
   87a88:	74206465 	.word	0x74206465
   87a8c:	6574206f 	.word	0x6574206f
   87a90:	74207473 	.word	0x74207473
   87a94:	5f6b7361 	.word	0x5f6b7361
   87a98:	65766f4d 	.word	0x65766f4d
   87a9c:	73617420 	.word	0x73617420
   87aa0:	000a0d6b 	.word	0x000a0d6b
   87aa4:	746547a8 	.word	0x746547a8
   87aa8:	00000000 	.word	0x00000000
   87aac:	6c696146 	.word	0x6c696146
   87ab0:	74206465 	.word	0x74206465
   87ab4:	6574206f 	.word	0x6574206f
   87ab8:	47207473 	.word	0x47207473
   87abc:	6f437465 	.word	0x6f437465
   87ac0:	6e696472 	.word	0x6e696472
   87ac4:	73657461 	.word	0x73657461
   87ac8:	73617420 	.word	0x73617420
   87acc:	000a0d6b 	.word	0x000a0d6b
   87ad0:	004f4e55 	.word	0x004f4e55
   87ad4:	6c696146 	.word	0x6c696146
   87ad8:	74206465 	.word	0x74206465
   87adc:	6574206f 	.word	0x6574206f
   87ae0:	55207473 	.word	0x55207473
   87ae4:	6f436f6e 	.word	0x6f436f6e
   87ae8:	74206d6d 	.word	0x74206d6d
   87aec:	0d6b7361 	.word	0x0d6b7361
   87af0:	0000000a 	.word	0x0000000a
   87af4:	00000000 	.word	0x00000000

00087af8 <atanlo>:
   87af8:	222f65e2 3c7a2b7f 33145c07 3c81a626     .e/".+z<.\.3&..<
   87b08:	7af0cbbd 3c700788 33145c07 3c91a626     ...z..p<.\.3&..<

00087b18 <atanhi>:
   87b18:	0561bb4f 3fddac67 54442d18 3fe921fb     O.a.g..?.-DT.!.?
   87b28:	d281f69b 3fef730b 54442d18 3ff921fb     .....s.?.-DT.!.?
   87b38:	74727173 00000000 00000043              sqrt....C...

00087b44 <_global_impure_ptr>:
   87b44:	20070178 33323130 37363534 42413938     x.. 0123456789AB
   87b54:	46454443 00000000 33323130 37363534     CDEF....01234567
   87b64:	62613938 66656463 00000000 6c756e28     89abcdef....(nul
   87b74:	0000296c                                l)..

00087b78 <zeroes.6721>:
   87b78:	30303030 30303030 30303030 30303030     0000000000000000

00087b88 <blanks.6720>:
   87b88:	20202020 20202020 20202020 20202020                     

00087b98 <_init>:
   87b98:	b5f8      	push	{r3, r4, r5, r6, r7, lr}
   87b9a:	bf00      	nop
   87b9c:	bcf8      	pop	{r3, r4, r5, r6, r7}
   87b9e:	bc08      	pop	{r3}
   87ba0:	469e      	mov	lr, r3
   87ba2:	4770      	bx	lr

00087ba4 <__init_array_start>:
   87ba4:	00085b41 	.word	0x00085b41

00087ba8 <__frame_dummy_init_array_entry>:
   87ba8:	00080119                                ....

00087bac <_fini>:
   87bac:	b5f8      	push	{r3, r4, r5, r6, r7, lr}
   87bae:	bf00      	nop
   87bb0:	bcf8      	pop	{r3, r4, r5, r6, r7}
   87bb2:	bc08      	pop	{r3}
   87bb4:	469e      	mov	lr, r3
   87bb6:	4770      	bx	lr

00087bb8 <__fini_array_start>:
   87bb8:	000800f5 	.word	0x000800f5

Disassembly of section .relocate:

20070000 <SystemInit>:
20070000:	f44f 6380 	mov.w	r3, #1024	; 0x400
20070004:	4a20      	ldr	r2, [pc, #128]	; (20070088 <SystemInit+0x88>)
20070006:	6013      	str	r3, [r2, #0]
20070008:	f502 7200 	add.w	r2, r2, #512	; 0x200
2007000c:	6013      	str	r3, [r2, #0]
2007000e:	4b1f      	ldr	r3, [pc, #124]	; (2007008c <SystemInit+0x8c>)
20070010:	6a1b      	ldr	r3, [r3, #32]
20070012:	f013 7f80 	tst.w	r3, #16777216	; 0x1000000
20070016:	d107      	bne.n	20070028 <SystemInit+0x28>
20070018:	4a1d      	ldr	r2, [pc, #116]	; (20070090 <SystemInit+0x90>)
2007001a:	4b1c      	ldr	r3, [pc, #112]	; (2007008c <SystemInit+0x8c>)
2007001c:	621a      	str	r2, [r3, #32]
2007001e:	461a      	mov	r2, r3
20070020:	6e93      	ldr	r3, [r2, #104]	; 0x68
20070022:	f013 0f01 	tst.w	r3, #1
20070026:	d0fb      	beq.n	20070020 <SystemInit+0x20>
20070028:	4a1a      	ldr	r2, [pc, #104]	; (20070094 <SystemInit+0x94>)
2007002a:	4b18      	ldr	r3, [pc, #96]	; (2007008c <SystemInit+0x8c>)
2007002c:	621a      	str	r2, [r3, #32]
2007002e:	461a      	mov	r2, r3
20070030:	6e93      	ldr	r3, [r2, #104]	; 0x68
20070032:	f413 3f80 	tst.w	r3, #65536	; 0x10000
20070036:	d0fb      	beq.n	20070030 <SystemInit+0x30>
20070038:	4b14      	ldr	r3, [pc, #80]	; (2007008c <SystemInit+0x8c>)
2007003a:	6b1a      	ldr	r2, [r3, #48]	; 0x30
2007003c:	f022 0203 	bic.w	r2, r2, #3
20070040:	f042 0201 	orr.w	r2, r2, #1
20070044:	631a      	str	r2, [r3, #48]	; 0x30
20070046:	461a      	mov	r2, r3
20070048:	6e93      	ldr	r3, [r2, #104]	; 0x68
2007004a:	f013 0f08 	tst.w	r3, #8
2007004e:	d0fb      	beq.n	20070048 <SystemInit+0x48>
20070050:	4a11      	ldr	r2, [pc, #68]	; (20070098 <SystemInit+0x98>)
20070052:	4b0e      	ldr	r3, [pc, #56]	; (2007008c <SystemInit+0x8c>)
20070054:	629a      	str	r2, [r3, #40]	; 0x28
20070056:	461a      	mov	r2, r3
20070058:	6e93      	ldr	r3, [r2, #104]	; 0x68
2007005a:	f013 0f02 	tst.w	r3, #2
2007005e:	d0fb      	beq.n	20070058 <SystemInit+0x58>
20070060:	2211      	movs	r2, #17
20070062:	4b0a      	ldr	r3, [pc, #40]	; (2007008c <SystemInit+0x8c>)
20070064:	631a      	str	r2, [r3, #48]	; 0x30
20070066:	461a      	mov	r2, r3
20070068:	6e93      	ldr	r3, [r2, #104]	; 0x68
2007006a:	f013 0f08 	tst.w	r3, #8
2007006e:	d0fb      	beq.n	20070068 <SystemInit+0x68>
20070070:	2212      	movs	r2, #18
20070072:	4b06      	ldr	r3, [pc, #24]	; (2007008c <SystemInit+0x8c>)
20070074:	631a      	str	r2, [r3, #48]	; 0x30
20070076:	461a      	mov	r2, r3
20070078:	6e93      	ldr	r3, [r2, #104]	; 0x68
2007007a:	f013 0f08 	tst.w	r3, #8
2007007e:	d0fb      	beq.n	20070078 <SystemInit+0x78>
20070080:	4a06      	ldr	r2, [pc, #24]	; (2007009c <SystemInit+0x9c>)
20070082:	4b07      	ldr	r3, [pc, #28]	; (200700a0 <SystemInit+0xa0>)
20070084:	601a      	str	r2, [r3, #0]
20070086:	4770      	bx	lr
20070088:	400e0a00 	.word	0x400e0a00
2007008c:	400e0600 	.word	0x400e0600
20070090:	00370809 	.word	0x00370809
20070094:	01370809 	.word	0x01370809
20070098:	200d3f01 	.word	0x200d3f01
2007009c:	0501bd00 	.word	0x0501bd00
200700a0:	2007016c 	.word	0x2007016c

200700a4 <system_init_flash>:
200700a4:	4b1b      	ldr	r3, [pc, #108]	; (20070114 <system_init_flash+0x70>)
200700a6:	4298      	cmp	r0, r3
200700a8:	d806      	bhi.n	200700b8 <system_init_flash+0x14>
200700aa:	2300      	movs	r3, #0
200700ac:	4a1a      	ldr	r2, [pc, #104]	; (20070118 <system_init_flash+0x74>)
200700ae:	6013      	str	r3, [r2, #0]
200700b0:	f502 7200 	add.w	r2, r2, #512	; 0x200
200700b4:	6013      	str	r3, [r2, #0]
200700b6:	4770      	bx	lr
200700b8:	4b18      	ldr	r3, [pc, #96]	; (2007011c <system_init_flash+0x78>)
200700ba:	4298      	cmp	r0, r3
200700bc:	d807      	bhi.n	200700ce <system_init_flash+0x2a>
200700be:	f44f 7380 	mov.w	r3, #256	; 0x100
200700c2:	4a15      	ldr	r2, [pc, #84]	; (20070118 <system_init_flash+0x74>)
200700c4:	6013      	str	r3, [r2, #0]
200700c6:	f502 7200 	add.w	r2, r2, #512	; 0x200
200700ca:	6013      	str	r3, [r2, #0]
200700cc:	4770      	bx	lr
200700ce:	4b14      	ldr	r3, [pc, #80]	; (20070120 <system_init_flash+0x7c>)
200700d0:	4298      	cmp	r0, r3
200700d2:	d807      	bhi.n	200700e4 <system_init_flash+0x40>
200700d4:	f44f 7300 	mov.w	r3, #512	; 0x200
200700d8:	4a0f      	ldr	r2, [pc, #60]	; (20070118 <system_init_flash+0x74>)
200700da:	6013      	str	r3, [r2, #0]
200700dc:	f502 7200 	add.w	r2, r2, #512	; 0x200
200700e0:	6013      	str	r3, [r2, #0]
200700e2:	4770      	bx	lr
200700e4:	4b0f      	ldr	r3, [pc, #60]	; (20070124 <system_init_flash+0x80>)
200700e6:	4298      	cmp	r0, r3
200700e8:	d807      	bhi.n	200700fa <system_init_flash+0x56>
200700ea:	f44f 7340 	mov.w	r3, #768	; 0x300
200700ee:	4a0a      	ldr	r2, [pc, #40]	; (20070118 <system_init_flash+0x74>)
200700f0:	6013      	str	r3, [r2, #0]
200700f2:	f502 7200 	add.w	r2, r2, #512	; 0x200
200700f6:	6013      	str	r3, [r2, #0]
200700f8:	4770      	bx	lr
200700fa:	4b0b      	ldr	r3, [pc, #44]	; (20070128 <system_init_flash+0x84>)
200700fc:	4298      	cmp	r0, r3
200700fe:	bf94      	ite	ls
20070100:	f44f 6380 	movls.w	r3, #1024	; 0x400
20070104:	f44f 63a0 	movhi.w	r3, #1280	; 0x500
20070108:	4a03      	ldr	r2, [pc, #12]	; (20070118 <system_init_flash+0x74>)
2007010a:	6013      	str	r3, [r2, #0]
2007010c:	f502 7200 	add.w	r2, r2, #512	; 0x200
20070110:	6013      	str	r3, [r2, #0]
20070112:	4770      	bx	lr
20070114:	0121eabf 	.word	0x0121eabf
20070118:	400e0a00 	.word	0x400e0a00
2007011c:	02faf07f 	.word	0x02faf07f
20070120:	03d08fff 	.word	0x03d08fff
20070124:	04c4b3ff 	.word	0x04c4b3ff
20070128:	055d4a7f 	.word	0x055d4a7f
2007012c:	00000000 	.word	0x00000000

20070130 <Td>:
20070130:	e5604189 3fab22d0                       .A`..".?

20070138 <Ti>:
20070138:	b851eb85 3fcb851e                       ..Q....?

20070140 <direction>:
20070140:	00000001                                ....

20070144 <rotationSpeed>:
20070144:	0000005a                                Z...

20070148 <dT>:
20070148:	9999999a 3fb99999                       .......?

20070150 <speed>:
20070150:	010100c8                                         ..

20070152 <i.8832>:
20070152:	00000101                                         .

20070153 <i.8828>:
20070153:	00000001 00000000                                .....

20070158 <K>:
20070158:	00000000 40040000                       .......@

20070160 <uxCriticalNesting>:
20070160:	aaaaaaaa                                ....

20070164 <xFreeBytesRemaining>:
20070164:	00008000                                ....

20070168 <xNextTaskUnblockTime>:
20070168:	0000ffff                                ....

2007016c <SystemCoreClock>:
2007016c:	003d0900                                ..=.

20070170 <__fdlib_version>:
20070170:	00000001 00000000                       ........

20070178 <impure_data>:
20070178:	00000000 20070464 200704cc 20070534     ....d.. ... 4.. 
	...
200701ac:	00087b40 00000000 00000000 00000000     @{..............
	...
20070220:	00000001 00000000 abcd330e e66d1234     .........3..4.m.
20070230:	0005deec 0000000b 00000000 00000000     ................
	...

200705a0 <_impure_ptr>:
200705a0:	20070178                                x.. 

200705a4 <lc_ctype_charset>:
200705a4:	49435341 00000049 00000000 00000000     ASCII...........
	...

200705c4 <__mb_cur_max>:
200705c4:	00000001                                ....

200705c8 <__malloc_av_>:
	...
200705d0:	200705c8 200705c8 200705d0 200705d0     ... ... ... ... 
200705e0:	200705d8 200705d8 200705e0 200705e0     ... ... ... ... 
200705f0:	200705e8 200705e8 200705f0 200705f0     ... ... ... ... 
20070600:	200705f8 200705f8 20070600 20070600     ... ... ... ... 
20070610:	20070608 20070608 20070610 20070610     ... ... ... ... 
20070620:	20070618 20070618 20070620 20070620     ... ...  ..  .. 
20070630:	20070628 20070628 20070630 20070630     (.. (.. 0.. 0.. 
20070640:	20070638 20070638 20070640 20070640     8.. 8.. @.. @.. 
20070650:	20070648 20070648 20070650 20070650     H.. H.. P.. P.. 
20070660:	20070658 20070658 20070660 20070660     X.. X.. `.. `.. 
20070670:	20070668 20070668 20070670 20070670     h.. h.. p.. p.. 
20070680:	20070678 20070678 20070680 20070680     x.. x.. ... ... 
20070690:	20070688 20070688 20070690 20070690     ... ... ... ... 
200706a0:	20070698 20070698 200706a0 200706a0     ... ... ... ... 
200706b0:	200706a8 200706a8 200706b0 200706b0     ... ... ... ... 
200706c0:	200706b8 200706b8 200706c0 200706c0     ... ... ... ... 
200706d0:	200706c8 200706c8 200706d0 200706d0     ... ... ... ... 
200706e0:	200706d8 200706d8 200706e0 200706e0     ... ... ... ... 
200706f0:	200706e8 200706e8 200706f0 200706f0     ... ... ... ... 
20070700:	200706f8 200706f8 20070700 20070700     ... ... ... ... 
20070710:	20070708 20070708 20070710 20070710     ... ... ... ... 
20070720:	20070718 20070718 20070720 20070720     ... ...  ..  .. 
20070730:	20070728 20070728 20070730 20070730     (.. (.. 0.. 0.. 
20070740:	20070738 20070738 20070740 20070740     8.. 8.. @.. @.. 
20070750:	20070748 20070748 20070750 20070750     H.. H.. P.. P.. 
20070760:	20070758 20070758 20070760 20070760     X.. X.. `.. `.. 
20070770:	20070768 20070768 20070770 20070770     h.. h.. p.. p.. 
20070780:	20070778 20070778 20070780 20070780     x.. x.. ... ... 
20070790:	20070788 20070788 20070790 20070790     ... ... ... ... 
200707a0:	20070798 20070798 200707a0 200707a0     ... ... ... ... 
200707b0:	200707a8 200707a8 200707b0 200707b0     ... ... ... ... 
200707c0:	200707b8 200707b8 200707c0 200707c0     ... ... ... ... 
200707d0:	200707c8 200707c8 200707d0 200707d0     ... ... ... ... 
200707e0:	200707d8 200707d8 200707e0 200707e0     ... ... ... ... 
200707f0:	200707e8 200707e8 200707f0 200707f0     ... ... ... ... 
20070800:	200707f8 200707f8 20070800 20070800     ... ... ... ... 
20070810:	20070808 20070808 20070810 20070810     ... ... ... ... 
20070820:	20070818 20070818 20070820 20070820     ... ...  ..  .. 
20070830:	20070828 20070828 20070830 20070830     (.. (.. 0.. 0.. 
20070840:	20070838 20070838 20070840 20070840     8.. 8.. @.. @.. 
20070850:	20070848 20070848 20070850 20070850     H.. H.. P.. P.. 
20070860:	20070858 20070858 20070860 20070860     X.. X.. `.. `.. 
20070870:	20070868 20070868 20070870 20070870     h.. h.. p.. p.. 
20070880:	20070878 20070878 20070880 20070880     x.. x.. ... ... 
20070890:	20070888 20070888 20070890 20070890     ... ... ... ... 
200708a0:	20070898 20070898 200708a0 200708a0     ... ... ... ... 
200708b0:	200708a8 200708a8 200708b0 200708b0     ... ... ... ... 
200708c0:	200708b8 200708b8 200708c0 200708c0     ... ... ... ... 
200708d0:	200708c8 200708c8 200708d0 200708d0     ... ... ... ... 
200708e0:	200708d8 200708d8 200708e0 200708e0     ... ... ... ... 
200708f0:	200708e8 200708e8 200708f0 200708f0     ... ... ... ... 
20070900:	200708f8 200708f8 20070900 20070900     ... ... ... ... 
20070910:	20070908 20070908 20070910 20070910     ... ... ... ... 
20070920:	20070918 20070918 20070920 20070920     ... ...  ..  .. 
20070930:	20070928 20070928 20070930 20070930     (.. (.. 0.. 0.. 
20070940:	20070938 20070938 20070940 20070940     8.. 8.. @.. @.. 
20070950:	20070948 20070948 20070950 20070950     H.. H.. P.. P.. 
20070960:	20070958 20070958 20070960 20070960     X.. X.. `.. `.. 
20070970:	20070968 20070968 20070970 20070970     h.. h.. p.. p.. 
20070980:	20070978 20070978 20070980 20070980     x.. x.. ... ... 
20070990:	20070988 20070988 20070990 20070990     ... ... ... ... 
200709a0:	20070998 20070998 200709a0 200709a0     ... ... ... ... 
200709b0:	200709a8 200709a8 200709b0 200709b0     ... ... ... ... 
200709c0:	200709b8 200709b8 200709c0 200709c0     ... ... ... ... 

200709d0 <__malloc_trim_threshold>:
200709d0:	00020000                                ....

200709d4 <__malloc_sbrk_base>:
200709d4:	ffffffff                                ....

200709d8 <__wctomb>:
200709d8:	00087165                                eq..
