
PwmTest.elf:     file format elf32-littlearm

Sections:
Idx Name          Size      VMA       LMA       File off  Algn
  0 .text         00000bd4  00080000  00080000  00008000  2**2
                  CONTENTS, ALLOC, LOAD, READONLY, CODE
  1 .relocate     00000568  20070000  00080bd4  00010000  2**3
                  CONTENTS, ALLOC, LOAD, CODE
  2 .bss          000000dc  20070568  0008113c  00010568  2**2
                  ALLOC
  3 .stack        00002004  20070644  00081218  00010568  2**0
                  ALLOC
  4 .ARM.attributes 00000029  00000000  00000000  00010568  2**0
                  CONTENTS, READONLY
  5 .comment      0000005b  00000000  00000000  00010591  2**0
                  CONTENTS, READONLY
  6 .debug_info   00006950  00000000  00000000  000105ec  2**0
                  CONTENTS, READONLY, DEBUGGING
  7 .debug_abbrev 00001195  00000000  00000000  00016f3c  2**0
                  CONTENTS, READONLY, DEBUGGING
  8 .debug_loc    00002bfb  00000000  00000000  000180d1  2**0
                  CONTENTS, READONLY, DEBUGGING
  9 .debug_aranges 00000608  00000000  00000000  0001accc  2**0
                  CONTENTS, READONLY, DEBUGGING
 10 .debug_ranges 00000578  00000000  00000000  0001b2d4  2**0
                  CONTENTS, READONLY, DEBUGGING
 11 .debug_macro  000152e3  00000000  00000000  0001b84c  2**0
                  CONTENTS, READONLY, DEBUGGING
 12 .debug_line   00008d45  00000000  00000000  00030b2f  2**0
                  CONTENTS, READONLY, DEBUGGING
 13 .debug_str    0005f250  00000000  00000000  00039874  2**0
                  CONTENTS, READONLY, DEBUGGING
 14 .debug_frame  00000d30  00000000  00000000  00098ac4  2**2
                  CONTENTS, READONLY, DEBUGGING

Disassembly of section .text:

00080000 <_sfixed>:
   80000:	20072648 	.word	0x20072648
   80004:	00080985 	.word	0x00080985
   80008:	00080981 	.word	0x00080981
   8000c:	00080981 	.word	0x00080981
   80010:	00080981 	.word	0x00080981
   80014:	00080981 	.word	0x00080981
   80018:	00080981 	.word	0x00080981
	...
   8002c:	00080981 	.word	0x00080981
   80030:	00080981 	.word	0x00080981
   80034:	00000000 	.word	0x00000000
   80038:	00080981 	.word	0x00080981
   8003c:	00080981 	.word	0x00080981
   80040:	00080981 	.word	0x00080981
   80044:	00080981 	.word	0x00080981
   80048:	00080981 	.word	0x00080981
   8004c:	00080981 	.word	0x00080981
   80050:	00080981 	.word	0x00080981
   80054:	00080981 	.word	0x00080981
   80058:	00080981 	.word	0x00080981
   8005c:	00080981 	.word	0x00080981
   80060:	00080981 	.word	0x00080981
   80064:	00080981 	.word	0x00080981
   80068:	00000000 	.word	0x00000000
   8006c:	00080701 	.word	0x00080701
   80070:	00080715 	.word	0x00080715
   80074:	00080729 	.word	0x00080729
   80078:	0008073d 	.word	0x0008073d
	...
   80084:	00080981 	.word	0x00080981
   80088:	00080981 	.word	0x00080981
   8008c:	00080981 	.word	0x00080981
   80090:	00080981 	.word	0x00080981
   80094:	00080981 	.word	0x00080981
   80098:	00080981 	.word	0x00080981
   8009c:	00080981 	.word	0x00080981
   800a0:	00080981 	.word	0x00080981
   800a4:	00000000 	.word	0x00000000
   800a8:	00080981 	.word	0x00080981
   800ac:	00080981 	.word	0x00080981
   800b0:	00080981 	.word	0x00080981
   800b4:	00080981 	.word	0x00080981
   800b8:	00080981 	.word	0x00080981
   800bc:	00080981 	.word	0x00080981
   800c0:	00080981 	.word	0x00080981
   800c4:	00080981 	.word	0x00080981
   800c8:	00080981 	.word	0x00080981
   800cc:	00080981 	.word	0x00080981
   800d0:	00080981 	.word	0x00080981
   800d4:	00080981 	.word	0x00080981
   800d8:	00080981 	.word	0x00080981
   800dc:	00080981 	.word	0x00080981
   800e0:	00080981 	.word	0x00080981
   800e4:	00080981 	.word	0x00080981
   800e8:	00080981 	.word	0x00080981
   800ec:	00080981 	.word	0x00080981
   800f0:	00080981 	.word	0x00080981

000800f4 <__do_global_dtors_aux>:
   800f4:	b510      	push	{r4, lr}
   800f6:	4c05      	ldr	r4, [pc, #20]	; (8010c <__do_global_dtors_aux+0x18>)
   800f8:	7823      	ldrb	r3, [r4, #0]
   800fa:	b933      	cbnz	r3, 8010a <__do_global_dtors_aux+0x16>
   800fc:	4b04      	ldr	r3, [pc, #16]	; (80110 <__do_global_dtors_aux+0x1c>)
   800fe:	b113      	cbz	r3, 80106 <__do_global_dtors_aux+0x12>
   80100:	4804      	ldr	r0, [pc, #16]	; (80114 <__do_global_dtors_aux+0x20>)
   80102:	f3af 8000 	nop.w
   80106:	2301      	movs	r3, #1
   80108:	7023      	strb	r3, [r4, #0]
   8010a:	bd10      	pop	{r4, pc}
   8010c:	20070568 	.word	0x20070568
   80110:	00000000 	.word	0x00000000
   80114:	00080bd4 	.word	0x00080bd4

00080118 <frame_dummy>:
   80118:	b508      	push	{r3, lr}
   8011a:	4b06      	ldr	r3, [pc, #24]	; (80134 <frame_dummy+0x1c>)
   8011c:	b11b      	cbz	r3, 80126 <frame_dummy+0xe>
   8011e:	4806      	ldr	r0, [pc, #24]	; (80138 <frame_dummy+0x20>)
   80120:	4906      	ldr	r1, [pc, #24]	; (8013c <frame_dummy+0x24>)
   80122:	f3af 8000 	nop.w
   80126:	4806      	ldr	r0, [pc, #24]	; (80140 <frame_dummy+0x28>)
   80128:	6803      	ldr	r3, [r0, #0]
   8012a:	b113      	cbz	r3, 80132 <frame_dummy+0x1a>
   8012c:	4b05      	ldr	r3, [pc, #20]	; (80144 <frame_dummy+0x2c>)
   8012e:	b103      	cbz	r3, 80132 <frame_dummy+0x1a>
   80130:	4798      	blx	r3
   80132:	bd08      	pop	{r3, pc}
   80134:	00000000 	.word	0x00000000
   80138:	00080bd4 	.word	0x00080bd4
   8013c:	2007056c 	.word	0x2007056c
   80140:	00080bd4 	.word	0x00080bd4
   80144:	00000000 	.word	0x00000000

00080148 <main>:
 */ 
#include "asf.h"
#include "PwmFunctions.h"

int main(void)
{
   80148:	e92d 43f8 	stmdb	sp!, {r3, r4, r5, r6, r7, r8, r9, lr}
	/* Initialize the SAM system */
	SystemInit();
   8014c:	4b52      	ldr	r3, [pc, #328]	; (80298 <main+0x150>)
   8014e:	4798      	blx	r3
	/*Initialize the board configurations*/
	board_init();
   80150:	4b52      	ldr	r3, [pc, #328]	; (8029c <main+0x154>)
   80152:	4798      	blx	r3
	PWM_init();
   80154:	4b52      	ldr	r3, [pc, #328]	; (802a0 <main+0x158>)
   80156:	4798      	blx	r3
	
	delay_s(5);
   80158:	4852      	ldr	r0, [pc, #328]	; (802a4 <main+0x15c>)
   8015a:	4b53      	ldr	r3, [pc, #332]	; (802a8 <main+0x160>)
   8015c:	4798      	blx	r3
		for(uint32_t i=1500; i>=800; i-=50){
   8015e:	f240 54dc 	movw	r4, #1500	; 0x5dc
			pwm_pin_21(i);
   80162:	4f52      	ldr	r7, [pc, #328]	; (802ac <main+0x164>)
			pwm_pin_22(i);
   80164:	4e52      	ldr	r6, [pc, #328]	; (802b0 <main+0x168>)
			delay_ms(500);
   80166:	4d53      	ldr	r5, [pc, #332]	; (802b4 <main+0x16c>)
	board_init();
	PWM_init();
	
	delay_s(5);
		for(uint32_t i=1500; i>=800; i-=50){
			pwm_pin_21(i);
   80168:	4620      	mov	r0, r4
   8016a:	47b8      	blx	r7
			pwm_pin_22(i);
   8016c:	4620      	mov	r0, r4
   8016e:	47b0      	blx	r6
			delay_ms(500);
   80170:	4628      	mov	r0, r5
   80172:	4b4d      	ldr	r3, [pc, #308]	; (802a8 <main+0x160>)
   80174:	4798      	blx	r3
	/*Initialize the board configurations*/
	board_init();
	PWM_init();
	
	delay_s(5);
		for(uint32_t i=1500; i>=800; i-=50){
   80176:	3c32      	subs	r4, #50	; 0x32
   80178:	f240 23ee 	movw	r3, #750	; 0x2ee
   8017c:	429c      	cmp	r4, r3
   8017e:	d1f3      	bne.n	80168 <main+0x20>
			pwm_pin_21(i);
			pwm_pin_22(i);
			delay_ms(500);
		}
		pwm_pin_21(1500);
   80180:	f240 50dc 	movw	r0, #1500	; 0x5dc
   80184:	4b49      	ldr	r3, [pc, #292]	; (802ac <main+0x164>)
   80186:	4798      	blx	r3
		pwm_pin_22(1500);
   80188:	f240 50dc 	movw	r0, #1500	; 0x5dc
   8018c:	4b48      	ldr	r3, [pc, #288]	; (802b0 <main+0x168>)
   8018e:	4798      	blx	r3
		delay_s(3);
   80190:	4849      	ldr	r0, [pc, #292]	; (802b8 <main+0x170>)
   80192:	4b45      	ldr	r3, [pc, #276]	; (802a8 <main+0x160>)
   80194:	4798      	blx	r3
		for(uint32_t i=1500; i<=2200; i+=50){
   80196:	f240 54dc 	movw	r4, #1500	; 0x5dc
			pwm_pin_21(i);
   8019a:	4f44      	ldr	r7, [pc, #272]	; (802ac <main+0x164>)
			pwm_pin_22(i);
   8019c:	4e44      	ldr	r6, [pc, #272]	; (802b0 <main+0x168>)
			delay_ms(500);
   8019e:	4d45      	ldr	r5, [pc, #276]	; (802b4 <main+0x16c>)
		}
		pwm_pin_21(1500);
		pwm_pin_22(1500);
		delay_s(3);
		for(uint32_t i=1500; i<=2200; i+=50){
			pwm_pin_21(i);
   801a0:	4620      	mov	r0, r4
   801a2:	47b8      	blx	r7
			pwm_pin_22(i);
   801a4:	4620      	mov	r0, r4
   801a6:	47b0      	blx	r6
			delay_ms(500);
   801a8:	4628      	mov	r0, r5
   801aa:	4b3f      	ldr	r3, [pc, #252]	; (802a8 <main+0x160>)
   801ac:	4798      	blx	r3
			delay_ms(500);
		}
		pwm_pin_21(1500);
		pwm_pin_22(1500);
		delay_s(3);
		for(uint32_t i=1500; i<=2200; i+=50){
   801ae:	3432      	adds	r4, #50	; 0x32
   801b0:	f640 03ca 	movw	r3, #2250	; 0x8ca
   801b4:	429c      	cmp	r4, r3
   801b6:	d1f3      	bne.n	801a0 <main+0x58>
			pwm_pin_21(i);
			pwm_pin_22(i);
			delay_ms(500);
		}
		pwm_pin_21(1500);
   801b8:	f240 50dc 	movw	r0, #1500	; 0x5dc
   801bc:	4b3b      	ldr	r3, [pc, #236]	; (802ac <main+0x164>)
   801be:	4798      	blx	r3
		pwm_pin_22(1500);
   801c0:	f240 50dc 	movw	r0, #1500	; 0x5dc
   801c4:	4b3a      	ldr	r3, [pc, #232]	; (802b0 <main+0x168>)
   801c6:	4798      	blx	r3
	delay_s(3);
   801c8:	483b      	ldr	r0, [pc, #236]	; (802b8 <main+0x170>)
   801ca:	4b37      	ldr	r3, [pc, #220]	; (802a8 <main+0x160>)
   801cc:	4798      	blx	r3
	while (1)
	{
		for(uint32_t i=1500; i>=800; i-=50){
   801ce:	f240 54dc 	movw	r4, #1500	; 0x5dc
			pwm_pin_21(i);
			pwm_pin_22(1500);
			delay_ms(500);
		}
		pwm_pin_21(1500);
   801d2:	4e36      	ldr	r6, [pc, #216]	; (802ac <main+0x164>)
		pwm_pin_22(1500);
   801d4:	4d36      	ldr	r5, [pc, #216]	; (802b0 <main+0x168>)
		delay_s(3);
   801d6:	f8df 80e0 	ldr.w	r8, [pc, #224]	; 802b8 <main+0x170>
   801da:	4f33      	ldr	r7, [pc, #204]	; (802a8 <main+0x160>)
   801dc:	e007      	b.n	801ee <main+0xa6>
		pwm_pin_22(1500);
	delay_s(3);
	while (1)
	{
		for(uint32_t i=1500; i>=800; i-=50){
			pwm_pin_21(i);
   801de:	4620      	mov	r0, r4
   801e0:	47b0      	blx	r6
			pwm_pin_22(1500);
   801e2:	f240 50dc 	movw	r0, #1500	; 0x5dc
   801e6:	47a8      	blx	r5
			delay_ms(500);
   801e8:	4832      	ldr	r0, [pc, #200]	; (802b4 <main+0x16c>)
   801ea:	47b8      	blx	r7
		pwm_pin_21(1500);
		pwm_pin_22(1500);
	delay_s(3);
	while (1)
	{
		for(uint32_t i=1500; i>=800; i-=50){
   801ec:	3c32      	subs	r4, #50	; 0x32
   801ee:	f5b4 7f48 	cmp.w	r4, #800	; 0x320
   801f2:	d2f4      	bcs.n	801de <main+0x96>
			pwm_pin_21(i);
			pwm_pin_22(1500);
			delay_ms(500);
		}
		pwm_pin_21(1500);
   801f4:	f240 50dc 	movw	r0, #1500	; 0x5dc
   801f8:	47b0      	blx	r6
		pwm_pin_22(1500);
   801fa:	f240 50dc 	movw	r0, #1500	; 0x5dc
   801fe:	47a8      	blx	r5
		delay_s(3);
   80200:	4640      	mov	r0, r8
   80202:	47b8      	blx	r7
		for(uint32_t i=1500; i<=2200; i+=50){
   80204:	f240 54dc 	movw	r4, #1500	; 0x5dc
			pwm_pin_21(i);
			pwm_pin_22(1500);
			delay_ms(500);
   80208:	f8df 90a8 	ldr.w	r9, [pc, #168]	; 802b4 <main+0x16c>
		}
		pwm_pin_21(1500);
		pwm_pin_22(1500);
		delay_s(3);
		for(uint32_t i=1500; i<=2200; i+=50){
			pwm_pin_21(i);
   8020c:	4620      	mov	r0, r4
   8020e:	47b0      	blx	r6
			pwm_pin_22(1500);
   80210:	f240 50dc 	movw	r0, #1500	; 0x5dc
   80214:	47a8      	blx	r5
			delay_ms(500);
   80216:	4648      	mov	r0, r9
   80218:	47b8      	blx	r7
			delay_ms(500);
		}
		pwm_pin_21(1500);
		pwm_pin_22(1500);
		delay_s(3);
		for(uint32_t i=1500; i<=2200; i+=50){
   8021a:	3432      	adds	r4, #50	; 0x32
   8021c:	f640 03ca 	movw	r3, #2250	; 0x8ca
   80220:	429c      	cmp	r4, r3
   80222:	d1f3      	bne.n	8020c <main+0xc4>
			pwm_pin_21(i);
			pwm_pin_22(1500);
			delay_ms(500);
		}
		pwm_pin_21(1500);
   80224:	f240 50dc 	movw	r0, #1500	; 0x5dc
   80228:	47b0      	blx	r6
		pwm_pin_22(1500);
   8022a:	f240 50dc 	movw	r0, #1500	; 0x5dc
   8022e:	47a8      	blx	r5
		delay_s(3);
   80230:	4640      	mov	r0, r8
   80232:	47b8      	blx	r7
		for(uint32_t i=1500; i>=800; i-=50){
   80234:	f240 54dc 	movw	r4, #1500	; 0x5dc
			pwm_pin_21(1500);
			pwm_pin_22(i);
			delay_ms(500);
   80238:	f8df 9078 	ldr.w	r9, [pc, #120]	; 802b4 <main+0x16c>
		}
		pwm_pin_21(1500);
		pwm_pin_22(1500);
		delay_s(3);
		for(uint32_t i=1500; i>=800; i-=50){
			pwm_pin_21(1500);
   8023c:	f240 50dc 	movw	r0, #1500	; 0x5dc
   80240:	47b0      	blx	r6
			pwm_pin_22(i);
   80242:	4620      	mov	r0, r4
   80244:	47a8      	blx	r5
			delay_ms(500);
   80246:	4648      	mov	r0, r9
   80248:	47b8      	blx	r7
			delay_ms(500);
		}
		pwm_pin_21(1500);
		pwm_pin_22(1500);
		delay_s(3);
		for(uint32_t i=1500; i>=800; i-=50){
   8024a:	3c32      	subs	r4, #50	; 0x32
   8024c:	f240 23ee 	movw	r3, #750	; 0x2ee
   80250:	429c      	cmp	r4, r3
   80252:	d1f3      	bne.n	8023c <main+0xf4>
			pwm_pin_21(1500);
			pwm_pin_22(i);
			delay_ms(500);
		}
		pwm_pin_21(1500);
   80254:	f240 50dc 	movw	r0, #1500	; 0x5dc
   80258:	47b0      	blx	r6
		pwm_pin_22(1500);
   8025a:	f240 50dc 	movw	r0, #1500	; 0x5dc
   8025e:	47a8      	blx	r5
		delay_s(3);
   80260:	4640      	mov	r0, r8
   80262:	47b8      	blx	r7
		for(uint32_t i=1500; i<=2200; i+=50){
   80264:	f240 54dc 	movw	r4, #1500	; 0x5dc
			pwm_pin_21(1500);
			pwm_pin_22(i);
			delay_ms(500);
   80268:	f8df 9048 	ldr.w	r9, [pc, #72]	; 802b4 <main+0x16c>
		}
		pwm_pin_21(1500);
		pwm_pin_22(1500);
		delay_s(3);
		for(uint32_t i=1500; i<=2200; i+=50){
			pwm_pin_21(1500);
   8026c:	f240 50dc 	movw	r0, #1500	; 0x5dc
   80270:	47b0      	blx	r6
			pwm_pin_22(i);
   80272:	4620      	mov	r0, r4
   80274:	47a8      	blx	r5
			delay_ms(500);
   80276:	4648      	mov	r0, r9
   80278:	47b8      	blx	r7
			delay_ms(500);
		}
		pwm_pin_21(1500);
		pwm_pin_22(1500);
		delay_s(3);
		for(uint32_t i=1500; i<=2200; i+=50){
   8027a:	3432      	adds	r4, #50	; 0x32
   8027c:	f640 03ca 	movw	r3, #2250	; 0x8ca
   80280:	429c      	cmp	r4, r3
   80282:	d1f3      	bne.n	8026c <main+0x124>
			pwm_pin_21(1500);
			pwm_pin_22(i);
			delay_ms(500);
		}
		pwm_pin_21(1500);
   80284:	f240 50dc 	movw	r0, #1500	; 0x5dc
   80288:	47b0      	blx	r6
		pwm_pin_22(1500);
   8028a:	f240 50dc 	movw	r0, #1500	; 0x5dc
   8028e:	47a8      	blx	r5
		pwm_pin_21(1500);
		pwm_pin_22(1500);
	delay_s(3);
	while (1)
	{
		for(uint32_t i=1500; i>=800; i-=50){
   80290:	f240 54dc 	movw	r4, #1500	; 0x5dc
			pwm_pin_22(i);
			delay_ms(500);
		}
		pwm_pin_21(1500);
		pwm_pin_22(1500);
	}
   80294:	e7ab      	b.n	801ee <main+0xa6>
   80296:	bf00      	nop
   80298:	2007000d 	.word	0x2007000d
   8029c:	00080411 	.word	0x00080411
   802a0:	00080355 	.word	0x00080355
   802a4:	01c9c380 	.word	0x01c9c380
   802a8:	20070001 	.word	0x20070001
   802ac:	000803b1 	.word	0x000803b1
   802b0:	000803e1 	.word	0x000803e1
   802b4:	002dc6c0 	.word	0x002dc6c0
   802b8:	0112a880 	.word	0x0112a880

000802bc <initPin21>:
   802bc:	b538      	push	{r3, r4, r5, lr}
   802be:	2055      	movs	r0, #85	; 0x55
   802c0:	f04f 5180 	mov.w	r1, #268435456	; 0x10000000
   802c4:	4b0b      	ldr	r3, [pc, #44]	; (802f4 <initPin21+0x38>)
   802c6:	4798      	blx	r3
   802c8:	4b0b      	ldr	r3, [pc, #44]	; (802f8 <initPin21+0x3c>)
   802ca:	2404      	movs	r4, #4
   802cc:	601c      	str	r4, [r3, #0]
   802ce:	220b      	movs	r2, #11
   802d0:	605a      	str	r2, [r3, #4]
   802d2:	2200      	movs	r2, #0
   802d4:	729a      	strb	r2, [r3, #10]
   802d6:	811a      	strh	r2, [r3, #8]
   802d8:	f44f 51fa 	mov.w	r1, #8000	; 0x1f40
   802dc:	6119      	str	r1, [r3, #16]
   802de:	60da      	str	r2, [r3, #12]
   802e0:	4d06      	ldr	r5, [pc, #24]	; (802fc <initPin21+0x40>)
   802e2:	4628      	mov	r0, r5
   802e4:	4619      	mov	r1, r3
   802e6:	4b06      	ldr	r3, [pc, #24]	; (80300 <initPin21+0x44>)
   802e8:	4798      	blx	r3
   802ea:	4628      	mov	r0, r5
   802ec:	4621      	mov	r1, r4
   802ee:	4b05      	ldr	r3, [pc, #20]	; (80304 <initPin21+0x48>)
   802f0:	4798      	blx	r3
   802f2:	bd38      	pop	{r3, r4, r5, pc}
   802f4:	00080535 	.word	0x00080535
   802f8:	2007061c 	.word	0x2007061c
   802fc:	40094000 	.word	0x40094000
   80300:	00080841 	.word	0x00080841
   80304:	00080969 	.word	0x00080969

00080308 <initPin22>:
   80308:	b538      	push	{r3, r4, r5, lr}
   8030a:	2056      	movs	r0, #86	; 0x56
   8030c:	f04f 5180 	mov.w	r1, #268435456	; 0x10000000
   80310:	4b0b      	ldr	r3, [pc, #44]	; (80340 <initPin22+0x38>)
   80312:	4798      	blx	r3
   80314:	4b0b      	ldr	r3, [pc, #44]	; (80344 <initPin22+0x3c>)
   80316:	2405      	movs	r4, #5
   80318:	601c      	str	r4, [r3, #0]
   8031a:	220b      	movs	r2, #11
   8031c:	605a      	str	r2, [r3, #4]
   8031e:	2200      	movs	r2, #0
   80320:	729a      	strb	r2, [r3, #10]
   80322:	811a      	strh	r2, [r3, #8]
   80324:	f44f 51fa 	mov.w	r1, #8000	; 0x1f40
   80328:	6119      	str	r1, [r3, #16]
   8032a:	60da      	str	r2, [r3, #12]
   8032c:	4d06      	ldr	r5, [pc, #24]	; (80348 <initPin22+0x40>)
   8032e:	4628      	mov	r0, r5
   80330:	4619      	mov	r1, r3
   80332:	4b06      	ldr	r3, [pc, #24]	; (8034c <initPin22+0x44>)
   80334:	4798      	blx	r3
   80336:	4628      	mov	r0, r5
   80338:	4621      	mov	r1, r4
   8033a:	4b05      	ldr	r3, [pc, #20]	; (80350 <initPin22+0x48>)
   8033c:	4798      	blx	r3
   8033e:	bd38      	pop	{r3, r4, r5, pc}
   80340:	00080535 	.word	0x00080535
   80344:	200705f4 	.word	0x200705f4
   80348:	40094000 	.word	0x40094000
   8034c:	00080841 	.word	0x00080841
   80350:	00080969 	.word	0x00080969

00080354 <PWM_init>:
   80354:	b530      	push	{r4, r5, lr}
   80356:	b085      	sub	sp, #20
   80358:	2024      	movs	r0, #36	; 0x24
   8035a:	4b0d      	ldr	r3, [pc, #52]	; (80390 <PWM_init+0x3c>)
   8035c:	4798      	blx	r3
   8035e:	4c0d      	ldr	r4, [pc, #52]	; (80394 <PWM_init+0x40>)
   80360:	4620      	mov	r0, r4
   80362:	2104      	movs	r1, #4
   80364:	4d0c      	ldr	r5, [pc, #48]	; (80398 <PWM_init+0x44>)
   80366:	47a8      	blx	r5
   80368:	4620      	mov	r0, r4
   8036a:	2105      	movs	r1, #5
   8036c:	47a8      	blx	r5
   8036e:	4b0b      	ldr	r3, [pc, #44]	; (8039c <PWM_init+0x48>)
   80370:	9301      	str	r3, [sp, #4]
   80372:	2300      	movs	r3, #0
   80374:	9302      	str	r3, [sp, #8]
   80376:	4b0a      	ldr	r3, [pc, #40]	; (803a0 <PWM_init+0x4c>)
   80378:	9303      	str	r3, [sp, #12]
   8037a:	4620      	mov	r0, r4
   8037c:	a901      	add	r1, sp, #4
   8037e:	4b09      	ldr	r3, [pc, #36]	; (803a4 <PWM_init+0x50>)
   80380:	4798      	blx	r3
   80382:	4b09      	ldr	r3, [pc, #36]	; (803a8 <PWM_init+0x54>)
   80384:	4798      	blx	r3
   80386:	4b09      	ldr	r3, [pc, #36]	; (803ac <PWM_init+0x58>)
   80388:	4798      	blx	r3
   8038a:	b005      	add	sp, #20
   8038c:	bd30      	pop	{r4, r5, pc}
   8038e:	bf00      	nop
   80390:	00080751 	.word	0x00080751
   80394:	40094000 	.word	0x40094000
   80398:	00080975 	.word	0x00080975
   8039c:	000f4240 	.word	0x000f4240
   803a0:	0501bd00 	.word	0x0501bd00
   803a4:	00080801 	.word	0x00080801
   803a8:	000802bd 	.word	0x000802bd
   803ac:	00080309 	.word	0x00080309

000803b0 <pwm_pin_21>:
   803b0:	b508      	push	{r3, lr}
   803b2:	f5b0 7f48 	cmp.w	r0, #800	; 0x320
   803b6:	d305      	bcc.n	803c4 <pwm_pin_21+0x14>
   803b8:	f640 0298 	movw	r2, #2200	; 0x898
   803bc:	4290      	cmp	r0, r2
   803be:	bf38      	it	cc
   803c0:	4602      	movcc	r2, r0
   803c2:	e001      	b.n	803c8 <pwm_pin_21+0x18>
   803c4:	f44f 7248 	mov.w	r2, #800	; 0x320
   803c8:	4802      	ldr	r0, [pc, #8]	; (803d4 <pwm_pin_21+0x24>)
   803ca:	4903      	ldr	r1, [pc, #12]	; (803d8 <pwm_pin_21+0x28>)
   803cc:	4b03      	ldr	r3, [pc, #12]	; (803dc <pwm_pin_21+0x2c>)
   803ce:	4798      	blx	r3
   803d0:	bd08      	pop	{r3, pc}
   803d2:	bf00      	nop
   803d4:	40094000 	.word	0x40094000
   803d8:	2007061c 	.word	0x2007061c
   803dc:	00080945 	.word	0x00080945

000803e0 <pwm_pin_22>:
   803e0:	b508      	push	{r3, lr}
   803e2:	f5b0 7f48 	cmp.w	r0, #800	; 0x320
   803e6:	d305      	bcc.n	803f4 <pwm_pin_22+0x14>
   803e8:	f640 0298 	movw	r2, #2200	; 0x898
   803ec:	4290      	cmp	r0, r2
   803ee:	bf38      	it	cc
   803f0:	4602      	movcc	r2, r0
   803f2:	e001      	b.n	803f8 <pwm_pin_22+0x18>
   803f4:	f44f 7248 	mov.w	r2, #800	; 0x320
   803f8:	4802      	ldr	r0, [pc, #8]	; (80404 <pwm_pin_22+0x24>)
   803fa:	4903      	ldr	r1, [pc, #12]	; (80408 <pwm_pin_22+0x28>)
   803fc:	4b03      	ldr	r3, [pc, #12]	; (8040c <pwm_pin_22+0x2c>)
   803fe:	4798      	blx	r3
   80400:	bd08      	pop	{r3, pc}
   80402:	bf00      	nop
   80404:	40094000 	.word	0x40094000
   80408:	200705f4 	.word	0x200705f4
   8040c:	00080945 	.word	0x00080945

00080410 <board_init>:
   80410:	b510      	push	{r4, lr}
   80412:	f44f 4200 	mov.w	r2, #32768	; 0x8000
   80416:	4b17      	ldr	r3, [pc, #92]	; (80474 <board_init+0x64>)
   80418:	605a      	str	r2, [r3, #4]
   8041a:	200b      	movs	r0, #11
   8041c:	4c16      	ldr	r4, [pc, #88]	; (80478 <board_init+0x68>)
   8041e:	47a0      	blx	r4
   80420:	200c      	movs	r0, #12
   80422:	47a0      	blx	r4
   80424:	200d      	movs	r0, #13
   80426:	47a0      	blx	r4
   80428:	200e      	movs	r0, #14
   8042a:	47a0      	blx	r4
   8042c:	203b      	movs	r0, #59	; 0x3b
   8042e:	f04f 5160 	mov.w	r1, #939524096	; 0x38000000
   80432:	4c12      	ldr	r4, [pc, #72]	; (8047c <board_init+0x6c>)
   80434:	47a0      	blx	r4
   80436:	2055      	movs	r0, #85	; 0x55
   80438:	f04f 5160 	mov.w	r1, #939524096	; 0x38000000
   8043c:	47a0      	blx	r4
   8043e:	2056      	movs	r0, #86	; 0x56
   80440:	f04f 5160 	mov.w	r1, #939524096	; 0x38000000
   80444:	47a0      	blx	r4
   80446:	2068      	movs	r0, #104	; 0x68
   80448:	490d      	ldr	r1, [pc, #52]	; (80480 <board_init+0x70>)
   8044a:	47a0      	blx	r4
   8044c:	205c      	movs	r0, #92	; 0x5c
   8044e:	490d      	ldr	r1, [pc, #52]	; (80484 <board_init+0x74>)
   80450:	47a0      	blx	r4
   80452:	480d      	ldr	r0, [pc, #52]	; (80488 <board_init+0x78>)
   80454:	f44f 7140 	mov.w	r1, #768	; 0x300
   80458:	f04f 6200 	mov.w	r2, #134217728	; 0x8000000
   8045c:	4b0b      	ldr	r3, [pc, #44]	; (8048c <board_init+0x7c>)
   8045e:	4798      	blx	r3
   80460:	202b      	movs	r0, #43	; 0x2b
   80462:	f04f 6100 	mov.w	r1, #134217728	; 0x8000000
   80466:	47a0      	blx	r4
   80468:	202a      	movs	r0, #42	; 0x2a
   8046a:	f04f 6100 	mov.w	r1, #134217728	; 0x8000000
   8046e:	47a0      	blx	r4
   80470:	bd10      	pop	{r4, pc}
   80472:	bf00      	nop
   80474:	400e1a50 	.word	0x400e1a50
   80478:	00080751 	.word	0x00080751
   8047c:	00080535 	.word	0x00080535
   80480:	28000079 	.word	0x28000079
   80484:	28000001 	.word	0x28000001
   80488:	400e0e00 	.word	0x400e0e00
   8048c:	00080609 	.word	0x00080609

00080490 <pio_set_peripheral>:
   80490:	6442      	str	r2, [r0, #68]	; 0x44
   80492:	f1b1 5f80 	cmp.w	r1, #268435456	; 0x10000000
   80496:	d016      	beq.n	804c6 <pio_set_peripheral+0x36>
   80498:	d804      	bhi.n	804a4 <pio_set_peripheral+0x14>
   8049a:	b1c1      	cbz	r1, 804ce <pio_set_peripheral+0x3e>
   8049c:	f1b1 6f00 	cmp.w	r1, #134217728	; 0x8000000
   804a0:	d00a      	beq.n	804b8 <pio_set_peripheral+0x28>
   804a2:	e013      	b.n	804cc <pio_set_peripheral+0x3c>
   804a4:	f1b1 5f40 	cmp.w	r1, #805306368	; 0x30000000
   804a8:	d011      	beq.n	804ce <pio_set_peripheral+0x3e>
   804aa:	f1b1 5f60 	cmp.w	r1, #939524096	; 0x38000000
   804ae:	d00e      	beq.n	804ce <pio_set_peripheral+0x3e>
   804b0:	f1b1 5f20 	cmp.w	r1, #671088640	; 0x28000000
   804b4:	d10a      	bne.n	804cc <pio_set_peripheral+0x3c>
   804b6:	4770      	bx	lr
   804b8:	6f03      	ldr	r3, [r0, #112]	; 0x70
   804ba:	6f01      	ldr	r1, [r0, #112]	; 0x70
   804bc:	400b      	ands	r3, r1
   804be:	ea23 0302 	bic.w	r3, r3, r2
   804c2:	6703      	str	r3, [r0, #112]	; 0x70
   804c4:	e002      	b.n	804cc <pio_set_peripheral+0x3c>
   804c6:	6f03      	ldr	r3, [r0, #112]	; 0x70
   804c8:	4313      	orrs	r3, r2
   804ca:	6703      	str	r3, [r0, #112]	; 0x70
   804cc:	6042      	str	r2, [r0, #4]
   804ce:	4770      	bx	lr

000804d0 <pio_set_input>:
   804d0:	6441      	str	r1, [r0, #68]	; 0x44
   804d2:	f012 0f01 	tst.w	r2, #1
   804d6:	bf14      	ite	ne
   804d8:	6641      	strne	r1, [r0, #100]	; 0x64
   804da:	6601      	streq	r1, [r0, #96]	; 0x60
   804dc:	f012 0f0a 	tst.w	r2, #10
   804e0:	bf14      	ite	ne
   804e2:	6201      	strne	r1, [r0, #32]
   804e4:	6241      	streq	r1, [r0, #36]	; 0x24
   804e6:	f012 0f02 	tst.w	r2, #2
   804ea:	d002      	beq.n	804f2 <pio_set_input+0x22>
   804ec:	f8c0 1080 	str.w	r1, [r0, #128]	; 0x80
   804f0:	e004      	b.n	804fc <pio_set_input+0x2c>
   804f2:	f012 0f08 	tst.w	r2, #8
   804f6:	bf18      	it	ne
   804f8:	f8c0 1084 	strne.w	r1, [r0, #132]	; 0x84
   804fc:	6141      	str	r1, [r0, #20]
   804fe:	6001      	str	r1, [r0, #0]
   80500:	4770      	bx	lr
   80502:	bf00      	nop

00080504 <pio_set_output>:
   80504:	b410      	push	{r4}
   80506:	6441      	str	r1, [r0, #68]	; 0x44
   80508:	9c01      	ldr	r4, [sp, #4]
   8050a:	b10c      	cbz	r4, 80510 <pio_set_output+0xc>
   8050c:	6641      	str	r1, [r0, #100]	; 0x64
   8050e:	e000      	b.n	80512 <pio_set_output+0xe>
   80510:	6601      	str	r1, [r0, #96]	; 0x60
   80512:	b10b      	cbz	r3, 80518 <pio_set_output+0x14>
   80514:	6501      	str	r1, [r0, #80]	; 0x50
   80516:	e000      	b.n	8051a <pio_set_output+0x16>
   80518:	6541      	str	r1, [r0, #84]	; 0x54
   8051a:	b10a      	cbz	r2, 80520 <pio_set_output+0x1c>
   8051c:	6301      	str	r1, [r0, #48]	; 0x30
   8051e:	e000      	b.n	80522 <pio_set_output+0x1e>
   80520:	6341      	str	r1, [r0, #52]	; 0x34
   80522:	6101      	str	r1, [r0, #16]
   80524:	6001      	str	r1, [r0, #0]
   80526:	f85d 4b04 	ldr.w	r4, [sp], #4
   8052a:	4770      	bx	lr

0008052c <pio_get_interrupt_status>:
   8052c:	6cc0      	ldr	r0, [r0, #76]	; 0x4c
   8052e:	4770      	bx	lr

00080530 <pio_get_interrupt_mask>:
   80530:	6c80      	ldr	r0, [r0, #72]	; 0x48
   80532:	4770      	bx	lr

00080534 <pio_configure_pin>:
   80534:	b570      	push	{r4, r5, r6, lr}
   80536:	b082      	sub	sp, #8
   80538:	460d      	mov	r5, r1
   8053a:	0944      	lsrs	r4, r0, #5
   8053c:	f504 1400 	add.w	r4, r4, #2097152	; 0x200000
   80540:	f204 7407 	addw	r4, r4, #1799	; 0x707
   80544:	0266      	lsls	r6, r4, #9
   80546:	f001 44f0 	and.w	r4, r1, #2013265920	; 0x78000000
   8054a:	f1b4 5f20 	cmp.w	r4, #671088640	; 0x28000000
   8054e:	d030      	beq.n	805b2 <pio_configure_pin+0x7e>
   80550:	d806      	bhi.n	80560 <pio_configure_pin+0x2c>
   80552:	f1b4 6f00 	cmp.w	r4, #134217728	; 0x8000000
   80556:	d00a      	beq.n	8056e <pio_configure_pin+0x3a>
   80558:	f1b4 5f80 	cmp.w	r4, #268435456	; 0x10000000
   8055c:	d018      	beq.n	80590 <pio_configure_pin+0x5c>
   8055e:	e049      	b.n	805f4 <pio_configure_pin+0xc0>
   80560:	f1b4 5f40 	cmp.w	r4, #805306368	; 0x30000000
   80564:	d030      	beq.n	805c8 <pio_configure_pin+0x94>
   80566:	f1b4 5f60 	cmp.w	r4, #939524096	; 0x38000000
   8056a:	d02d      	beq.n	805c8 <pio_configure_pin+0x94>
   8056c:	e042      	b.n	805f4 <pio_configure_pin+0xc0>
   8056e:	f000 001f 	and.w	r0, r0, #31
   80572:	2401      	movs	r4, #1
   80574:	4084      	lsls	r4, r0
   80576:	4630      	mov	r0, r6
   80578:	f04f 6100 	mov.w	r1, #134217728	; 0x8000000
   8057c:	4622      	mov	r2, r4
   8057e:	4b1f      	ldr	r3, [pc, #124]	; (805fc <pio_configure_pin+0xc8>)
   80580:	4798      	blx	r3
   80582:	f015 0f01 	tst.w	r5, #1
   80586:	bf14      	ite	ne
   80588:	6674      	strne	r4, [r6, #100]	; 0x64
   8058a:	6634      	streq	r4, [r6, #96]	; 0x60
   8058c:	2001      	movs	r0, #1
   8058e:	e032      	b.n	805f6 <pio_configure_pin+0xc2>
   80590:	f000 001f 	and.w	r0, r0, #31
   80594:	2401      	movs	r4, #1
   80596:	4084      	lsls	r4, r0
   80598:	4630      	mov	r0, r6
   8059a:	f04f 5180 	mov.w	r1, #268435456	; 0x10000000
   8059e:	4622      	mov	r2, r4
   805a0:	4b16      	ldr	r3, [pc, #88]	; (805fc <pio_configure_pin+0xc8>)
   805a2:	4798      	blx	r3
   805a4:	f015 0f01 	tst.w	r5, #1
   805a8:	bf14      	ite	ne
   805aa:	6674      	strne	r4, [r6, #100]	; 0x64
   805ac:	6634      	streq	r4, [r6, #96]	; 0x60
   805ae:	2001      	movs	r0, #1
   805b0:	e021      	b.n	805f6 <pio_configure_pin+0xc2>
   805b2:	f000 011f 	and.w	r1, r0, #31
   805b6:	2401      	movs	r4, #1
   805b8:	4630      	mov	r0, r6
   805ba:	fa04 f101 	lsl.w	r1, r4, r1
   805be:	462a      	mov	r2, r5
   805c0:	4b0f      	ldr	r3, [pc, #60]	; (80600 <pio_configure_pin+0xcc>)
   805c2:	4798      	blx	r3
   805c4:	4620      	mov	r0, r4
   805c6:	e016      	b.n	805f6 <pio_configure_pin+0xc2>
   805c8:	f000 011f 	and.w	r1, r0, #31
   805cc:	2401      	movs	r4, #1
   805ce:	f005 5260 	and.w	r2, r5, #939524096	; 0x38000000
   805d2:	ea05 0304 	and.w	r3, r5, r4
   805d6:	9300      	str	r3, [sp, #0]
   805d8:	4630      	mov	r0, r6
   805da:	fa04 f101 	lsl.w	r1, r4, r1
   805de:	f1b2 5f60 	cmp.w	r2, #939524096	; 0x38000000
   805e2:	bf14      	ite	ne
   805e4:	2200      	movne	r2, #0
   805e6:	2201      	moveq	r2, #1
   805e8:	f3c5 0380 	ubfx	r3, r5, #2, #1
   805ec:	4d05      	ldr	r5, [pc, #20]	; (80604 <pio_configure_pin+0xd0>)
   805ee:	47a8      	blx	r5
   805f0:	4620      	mov	r0, r4
   805f2:	e000      	b.n	805f6 <pio_configure_pin+0xc2>
   805f4:	2000      	movs	r0, #0
   805f6:	b002      	add	sp, #8
   805f8:	bd70      	pop	{r4, r5, r6, pc}
   805fa:	bf00      	nop
   805fc:	00080491 	.word	0x00080491
   80600:	000804d1 	.word	0x000804d1
   80604:	00080505 	.word	0x00080505

00080608 <pio_configure_pin_group>:
   80608:	b5f0      	push	{r4, r5, r6, r7, lr}
   8060a:	b083      	sub	sp, #12
   8060c:	4607      	mov	r7, r0
   8060e:	460e      	mov	r6, r1
   80610:	4615      	mov	r5, r2
   80612:	f002 44f0 	and.w	r4, r2, #2013265920	; 0x78000000
   80616:	f1b4 5f20 	cmp.w	r4, #671088640	; 0x28000000
   8061a:	d026      	beq.n	8066a <pio_configure_pin_group+0x62>
   8061c:	d806      	bhi.n	8062c <pio_configure_pin_group+0x24>
   8061e:	f1b4 6f00 	cmp.w	r4, #134217728	; 0x8000000
   80622:	d00a      	beq.n	8063a <pio_configure_pin_group+0x32>
   80624:	f1b4 5f80 	cmp.w	r4, #268435456	; 0x10000000
   80628:	d013      	beq.n	80652 <pio_configure_pin_group+0x4a>
   8062a:	e034      	b.n	80696 <pio_configure_pin_group+0x8e>
   8062c:	f1b4 5f40 	cmp.w	r4, #805306368	; 0x30000000
   80630:	d01f      	beq.n	80672 <pio_configure_pin_group+0x6a>
   80632:	f1b4 5f60 	cmp.w	r4, #939524096	; 0x38000000
   80636:	d01c      	beq.n	80672 <pio_configure_pin_group+0x6a>
   80638:	e02d      	b.n	80696 <pio_configure_pin_group+0x8e>
   8063a:	f04f 6100 	mov.w	r1, #134217728	; 0x8000000
   8063e:	4632      	mov	r2, r6
   80640:	4b16      	ldr	r3, [pc, #88]	; (8069c <pio_configure_pin_group+0x94>)
   80642:	4798      	blx	r3
   80644:	f015 0f01 	tst.w	r5, #1
   80648:	bf14      	ite	ne
   8064a:	667e      	strne	r6, [r7, #100]	; 0x64
   8064c:	663e      	streq	r6, [r7, #96]	; 0x60
   8064e:	2001      	movs	r0, #1
   80650:	e022      	b.n	80698 <pio_configure_pin_group+0x90>
   80652:	f04f 5180 	mov.w	r1, #268435456	; 0x10000000
   80656:	4632      	mov	r2, r6
   80658:	4b10      	ldr	r3, [pc, #64]	; (8069c <pio_configure_pin_group+0x94>)
   8065a:	4798      	blx	r3
   8065c:	f015 0f01 	tst.w	r5, #1
   80660:	bf14      	ite	ne
   80662:	667e      	strne	r6, [r7, #100]	; 0x64
   80664:	663e      	streq	r6, [r7, #96]	; 0x60
   80666:	2001      	movs	r0, #1
   80668:	e016      	b.n	80698 <pio_configure_pin_group+0x90>
   8066a:	4b0d      	ldr	r3, [pc, #52]	; (806a0 <pio_configure_pin_group+0x98>)
   8066c:	4798      	blx	r3
   8066e:	2001      	movs	r0, #1
   80670:	e012      	b.n	80698 <pio_configure_pin_group+0x90>
   80672:	f005 5260 	and.w	r2, r5, #939524096	; 0x38000000
   80676:	f005 0301 	and.w	r3, r5, #1
   8067a:	9300      	str	r3, [sp, #0]
   8067c:	4638      	mov	r0, r7
   8067e:	4631      	mov	r1, r6
   80680:	f1b2 5f60 	cmp.w	r2, #939524096	; 0x38000000
   80684:	bf14      	ite	ne
   80686:	2200      	movne	r2, #0
   80688:	2201      	moveq	r2, #1
   8068a:	f3c5 0380 	ubfx	r3, r5, #2, #1
   8068e:	4c05      	ldr	r4, [pc, #20]	; (806a4 <pio_configure_pin_group+0x9c>)
   80690:	47a0      	blx	r4
   80692:	2001      	movs	r0, #1
   80694:	e000      	b.n	80698 <pio_configure_pin_group+0x90>
   80696:	2000      	movs	r0, #0
   80698:	b003      	add	sp, #12
   8069a:	bdf0      	pop	{r4, r5, r6, r7, pc}
   8069c:	00080491 	.word	0x00080491
   806a0:	000804d1 	.word	0x000804d1
   806a4:	00080505 	.word	0x00080505

000806a8 <pio_handler_process>:
   806a8:	e92d 41f0 	stmdb	sp!, {r4, r5, r6, r7, r8, lr}
   806ac:	4604      	mov	r4, r0
   806ae:	460e      	mov	r6, r1
   806b0:	4b10      	ldr	r3, [pc, #64]	; (806f4 <pio_handler_process+0x4c>)
   806b2:	4798      	blx	r3
   806b4:	4605      	mov	r5, r0
   806b6:	4620      	mov	r0, r4
   806b8:	4b0f      	ldr	r3, [pc, #60]	; (806f8 <pio_handler_process+0x50>)
   806ba:	4798      	blx	r3
   806bc:	4005      	ands	r5, r0
   806be:	d017      	beq.n	806f0 <pio_handler_process+0x48>
   806c0:	4f0e      	ldr	r7, [pc, #56]	; (806fc <pio_handler_process+0x54>)
   806c2:	f107 040c 	add.w	r4, r7, #12
   806c6:	376c      	adds	r7, #108	; 0x6c
   806c8:	f854 3c0c 	ldr.w	r3, [r4, #-12]
   806cc:	42b3      	cmp	r3, r6
   806ce:	d10a      	bne.n	806e6 <pio_handler_process+0x3e>
   806d0:	f854 1c08 	ldr.w	r1, [r4, #-8]
   806d4:	4229      	tst	r1, r5
   806d6:	d006      	beq.n	806e6 <pio_handler_process+0x3e>
   806d8:	6823      	ldr	r3, [r4, #0]
   806da:	4630      	mov	r0, r6
   806dc:	4798      	blx	r3
   806de:	f854 3c08 	ldr.w	r3, [r4, #-8]
   806e2:	ea25 0503 	bic.w	r5, r5, r3
   806e6:	42bc      	cmp	r4, r7
   806e8:	d002      	beq.n	806f0 <pio_handler_process+0x48>
   806ea:	3410      	adds	r4, #16
   806ec:	2d00      	cmp	r5, #0
   806ee:	d1eb      	bne.n	806c8 <pio_handler_process+0x20>
   806f0:	e8bd 81f0 	ldmia.w	sp!, {r4, r5, r6, r7, r8, pc}
   806f4:	0008052d 	.word	0x0008052d
   806f8:	00080531 	.word	0x00080531
   806fc:	20070584 	.word	0x20070584

00080700 <PIOA_Handler>:
   80700:	b508      	push	{r3, lr}
   80702:	4802      	ldr	r0, [pc, #8]	; (8070c <PIOA_Handler+0xc>)
   80704:	210b      	movs	r1, #11
   80706:	4b02      	ldr	r3, [pc, #8]	; (80710 <PIOA_Handler+0x10>)
   80708:	4798      	blx	r3
   8070a:	bd08      	pop	{r3, pc}
   8070c:	400e0e00 	.word	0x400e0e00
   80710:	000806a9 	.word	0x000806a9

00080714 <PIOB_Handler>:
   80714:	b508      	push	{r3, lr}
   80716:	4802      	ldr	r0, [pc, #8]	; (80720 <PIOB_Handler+0xc>)
   80718:	210c      	movs	r1, #12
   8071a:	4b02      	ldr	r3, [pc, #8]	; (80724 <PIOB_Handler+0x10>)
   8071c:	4798      	blx	r3
   8071e:	bd08      	pop	{r3, pc}
   80720:	400e1000 	.word	0x400e1000
   80724:	000806a9 	.word	0x000806a9

00080728 <PIOC_Handler>:
   80728:	b508      	push	{r3, lr}
   8072a:	4802      	ldr	r0, [pc, #8]	; (80734 <PIOC_Handler+0xc>)
   8072c:	210d      	movs	r1, #13
   8072e:	4b02      	ldr	r3, [pc, #8]	; (80738 <PIOC_Handler+0x10>)
   80730:	4798      	blx	r3
   80732:	bd08      	pop	{r3, pc}
   80734:	400e1200 	.word	0x400e1200
   80738:	000806a9 	.word	0x000806a9

0008073c <PIOD_Handler>:
   8073c:	b508      	push	{r3, lr}
   8073e:	4802      	ldr	r0, [pc, #8]	; (80748 <PIOD_Handler+0xc>)
   80740:	210e      	movs	r1, #14
   80742:	4b02      	ldr	r3, [pc, #8]	; (8074c <PIOD_Handler+0x10>)
   80744:	4798      	blx	r3
   80746:	bd08      	pop	{r3, pc}
   80748:	400e1400 	.word	0x400e1400
   8074c:	000806a9 	.word	0x000806a9

00080750 <pmc_enable_periph_clk>:
   80750:	282c      	cmp	r0, #44	; 0x2c
   80752:	d820      	bhi.n	80796 <pmc_enable_periph_clk+0x46>
   80754:	281f      	cmp	r0, #31
   80756:	d80d      	bhi.n	80774 <pmc_enable_periph_clk+0x24>
   80758:	4b12      	ldr	r3, [pc, #72]	; (807a4 <pmc_enable_periph_clk+0x54>)
   8075a:	699a      	ldr	r2, [r3, #24]
   8075c:	2301      	movs	r3, #1
   8075e:	4083      	lsls	r3, r0
   80760:	401a      	ands	r2, r3
   80762:	4293      	cmp	r3, r2
   80764:	d019      	beq.n	8079a <pmc_enable_periph_clk+0x4a>
   80766:	2301      	movs	r3, #1
   80768:	fa03 f000 	lsl.w	r0, r3, r0
   8076c:	4b0d      	ldr	r3, [pc, #52]	; (807a4 <pmc_enable_periph_clk+0x54>)
   8076e:	6118      	str	r0, [r3, #16]
   80770:	2000      	movs	r0, #0
   80772:	4770      	bx	lr
   80774:	4b0b      	ldr	r3, [pc, #44]	; (807a4 <pmc_enable_periph_clk+0x54>)
   80776:	f8d3 2108 	ldr.w	r2, [r3, #264]	; 0x108
   8077a:	3820      	subs	r0, #32
   8077c:	2301      	movs	r3, #1
   8077e:	4083      	lsls	r3, r0
   80780:	401a      	ands	r2, r3
   80782:	4293      	cmp	r3, r2
   80784:	d00b      	beq.n	8079e <pmc_enable_periph_clk+0x4e>
   80786:	2301      	movs	r3, #1
   80788:	fa03 f000 	lsl.w	r0, r3, r0
   8078c:	4b05      	ldr	r3, [pc, #20]	; (807a4 <pmc_enable_periph_clk+0x54>)
   8078e:	f8c3 0100 	str.w	r0, [r3, #256]	; 0x100
   80792:	2000      	movs	r0, #0
   80794:	4770      	bx	lr
   80796:	2001      	movs	r0, #1
   80798:	4770      	bx	lr
   8079a:	2000      	movs	r0, #0
   8079c:	4770      	bx	lr
   8079e:	2000      	movs	r0, #0
   807a0:	4770      	bx	lr
   807a2:	bf00      	nop
   807a4:	400e0600 	.word	0x400e0600

000807a8 <pwm_clocks_generate>:
   807a8:	b4f0      	push	{r4, r5, r6, r7}
   807aa:	b08c      	sub	sp, #48	; 0x30
   807ac:	4607      	mov	r7, r0
   807ae:	460e      	mov	r6, r1
   807b0:	ac01      	add	r4, sp, #4
   807b2:	4d12      	ldr	r5, [pc, #72]	; (807fc <pwm_clocks_generate+0x54>)
   807b4:	cd0f      	ldmia	r5!, {r0, r1, r2, r3}
   807b6:	c40f      	stmia	r4!, {r0, r1, r2, r3}
   807b8:	cd0f      	ldmia	r5!, {r0, r1, r2, r3}
   807ba:	c40f      	stmia	r4!, {r0, r1, r2, r3}
   807bc:	e895 0007 	ldmia.w	r5, {r0, r1, r2}
   807c0:	e884 0007 	stmia.w	r4, {r0, r1, r2}
   807c4:	466a      	mov	r2, sp
   807c6:	2300      	movs	r3, #0
   807c8:	f852 4f04 	ldr.w	r4, [r2, #4]!
   807cc:	fbb6 f4f4 	udiv	r4, r6, r4
   807d0:	fbb4 f4f7 	udiv	r4, r4, r7
   807d4:	f5b4 7f80 	cmp.w	r4, #256	; 0x100
   807d8:	d903      	bls.n	807e2 <pwm_clocks_generate+0x3a>
   807da:	3301      	adds	r3, #1
   807dc:	2b0b      	cmp	r3, #11
   807de:	d1f3      	bne.n	807c8 <pwm_clocks_generate+0x20>
   807e0:	e004      	b.n	807ec <pwm_clocks_generate+0x44>
   807e2:	2b0a      	cmp	r3, #10
   807e4:	d805      	bhi.n	807f2 <pwm_clocks_generate+0x4a>
   807e6:	ea44 2003 	orr.w	r0, r4, r3, lsl #8
   807ea:	e004      	b.n	807f6 <pwm_clocks_generate+0x4e>
   807ec:	f64f 70ff 	movw	r0, #65535	; 0xffff
   807f0:	e001      	b.n	807f6 <pwm_clocks_generate+0x4e>
   807f2:	f64f 70ff 	movw	r0, #65535	; 0xffff
   807f6:	b00c      	add	sp, #48	; 0x30
   807f8:	bcf0      	pop	{r4, r5, r6, r7}
   807fa:	4770      	bx	lr
   807fc:	00080b7c 	.word	0x00080b7c

00080800 <pwm_init>:
   80800:	b570      	push	{r4, r5, r6, lr}
   80802:	4606      	mov	r6, r0
   80804:	460c      	mov	r4, r1
   80806:	6808      	ldr	r0, [r1, #0]
   80808:	b140      	cbz	r0, 8081c <pwm_init+0x1c>
   8080a:	6889      	ldr	r1, [r1, #8]
   8080c:	4b0b      	ldr	r3, [pc, #44]	; (8083c <pwm_init+0x3c>)
   8080e:	4798      	blx	r3
   80810:	4605      	mov	r5, r0
   80812:	f64f 73ff 	movw	r3, #65535	; 0xffff
   80816:	4298      	cmp	r0, r3
   80818:	d101      	bne.n	8081e <pwm_init+0x1e>
   8081a:	e00e      	b.n	8083a <pwm_init+0x3a>
   8081c:	2500      	movs	r5, #0
   8081e:	6860      	ldr	r0, [r4, #4]
   80820:	b140      	cbz	r0, 80834 <pwm_init+0x34>
   80822:	68a1      	ldr	r1, [r4, #8]
   80824:	4b05      	ldr	r3, [pc, #20]	; (8083c <pwm_init+0x3c>)
   80826:	4798      	blx	r3
   80828:	f64f 73ff 	movw	r3, #65535	; 0xffff
   8082c:	4298      	cmp	r0, r3
   8082e:	d004      	beq.n	8083a <pwm_init+0x3a>
   80830:	ea45 4500 	orr.w	r5, r5, r0, lsl #16
   80834:	6035      	str	r5, [r6, #0]
   80836:	2000      	movs	r0, #0
   80838:	bd70      	pop	{r4, r5, r6, pc}
   8083a:	bd70      	pop	{r4, r5, r6, pc}
   8083c:	000807a9 	.word	0x000807a9

00080840 <pwm_channel_init>:
   80840:	b470      	push	{r4, r5, r6}
   80842:	680b      	ldr	r3, [r1, #0]
   80844:	8a8c      	ldrh	r4, [r1, #20]
   80846:	684a      	ldr	r2, [r1, #4]
   80848:	f002 020f 	and.w	r2, r2, #15
   8084c:	4314      	orrs	r4, r2
   8084e:	890d      	ldrh	r5, [r1, #8]
   80850:	432c      	orrs	r4, r5
   80852:	7a8a      	ldrb	r2, [r1, #10]
   80854:	ea44 2442 	orr.w	r4, r4, r2, lsl #9
   80858:	7d8a      	ldrb	r2, [r1, #22]
   8085a:	ea44 4402 	orr.w	r4, r4, r2, lsl #16
   8085e:	7dca      	ldrb	r2, [r1, #23]
   80860:	ea44 4442 	orr.w	r4, r4, r2, lsl #17
   80864:	7e0a      	ldrb	r2, [r1, #24]
   80866:	ea44 4482 	orr.w	r4, r4, r2, lsl #18
   8086a:	eb00 1243 	add.w	r2, r0, r3, lsl #5
   8086e:	f8c2 4200 	str.w	r4, [r2, #512]	; 0x200
   80872:	68cc      	ldr	r4, [r1, #12]
   80874:	f8c2 4204 	str.w	r4, [r2, #516]	; 0x204
   80878:	690c      	ldr	r4, [r1, #16]
   8087a:	f8c2 420c 	str.w	r4, [r2, #524]	; 0x20c
   8087e:	7d8a      	ldrb	r2, [r1, #22]
   80880:	b13a      	cbz	r2, 80892 <pwm_channel_init+0x52>
   80882:	8b8c      	ldrh	r4, [r1, #28]
   80884:	8b4a      	ldrh	r2, [r1, #26]
   80886:	ea42 4404 	orr.w	r4, r2, r4, lsl #16
   8088a:	eb00 1243 	add.w	r2, r0, r3, lsl #5
   8088e:	f8c2 4218 	str.w	r4, [r2, #536]	; 0x218
   80892:	6c85      	ldr	r5, [r0, #72]	; 0x48
   80894:	f04f 1201 	mov.w	r2, #65537	; 0x10001
   80898:	409a      	lsls	r2, r3
   8089a:	43d2      	mvns	r2, r2
   8089c:	4015      	ands	r5, r2
   8089e:	7fce      	ldrb	r6, [r1, #31]
   808a0:	409e      	lsls	r6, r3
   808a2:	7f8c      	ldrb	r4, [r1, #30]
   808a4:	409c      	lsls	r4, r3
   808a6:	ea44 4406 	orr.w	r4, r4, r6, lsl #16
   808aa:	432c      	orrs	r4, r5
   808ac:	6484      	str	r4, [r0, #72]	; 0x48
   808ae:	6c44      	ldr	r4, [r0, #68]	; 0x44
   808b0:	4022      	ands	r2, r4
   808b2:	f891 5021 	ldrb.w	r5, [r1, #33]	; 0x21
   808b6:	409d      	lsls	r5, r3
   808b8:	f891 4020 	ldrb.w	r4, [r1, #32]
   808bc:	409c      	lsls	r4, r3
   808be:	ea44 4405 	orr.w	r4, r4, r5, lsl #16
   808c2:	4322      	orrs	r2, r4
   808c4:	6442      	str	r2, [r0, #68]	; 0x44
   808c6:	2201      	movs	r2, #1
   808c8:	409a      	lsls	r2, r3
   808ca:	f891 4022 	ldrb.w	r4, [r1, #34]	; 0x22
   808ce:	b11c      	cbz	r4, 808d8 <pwm_channel_init+0x98>
   808d0:	6a04      	ldr	r4, [r0, #32]
   808d2:	4314      	orrs	r4, r2
   808d4:	6204      	str	r4, [r0, #32]
   808d6:	e003      	b.n	808e0 <pwm_channel_init+0xa0>
   808d8:	6a04      	ldr	r4, [r0, #32]
   808da:	ea24 0402 	bic.w	r4, r4, r2
   808de:	6204      	str	r4, [r0, #32]
   808e0:	f891 4024 	ldrb.w	r4, [r1, #36]	; 0x24
   808e4:	2c01      	cmp	r4, #1
   808e6:	6e84      	ldr	r4, [r0, #104]	; 0x68
   808e8:	bf0c      	ite	eq
   808ea:	4314      	orreq	r4, r2
   808ec:	4394      	bicne	r4, r2
   808ee:	6684      	str	r4, [r0, #104]	; 0x68
   808f0:	f891 4025 	ldrb.w	r4, [r1, #37]	; 0x25
   808f4:	2c01      	cmp	r4, #1
   808f6:	6e84      	ldr	r4, [r0, #104]	; 0x68
   808f8:	bf0c      	ite	eq
   808fa:	ea44 4202 	orreq.w	r2, r4, r2, lsl #16
   808fe:	ea24 4202 	bicne.w	r2, r4, r2, lsl #16
   80902:	6682      	str	r2, [r0, #104]	; 0x68
   80904:	2b03      	cmp	r3, #3
   80906:	d80c      	bhi.n	80922 <pwm_channel_init+0xe2>
   80908:	6ec4      	ldr	r4, [r0, #108]	; 0x6c
   8090a:	00db      	lsls	r3, r3, #3
   8090c:	22ff      	movs	r2, #255	; 0xff
   8090e:	409a      	lsls	r2, r3
   80910:	ea24 0202 	bic.w	r2, r4, r2
   80914:	f891 1023 	ldrb.w	r1, [r1, #35]	; 0x23
   80918:	fa01 f303 	lsl.w	r3, r1, r3
   8091c:	4313      	orrs	r3, r2
   8091e:	66c3      	str	r3, [r0, #108]	; 0x6c
   80920:	e00c      	b.n	8093c <pwm_channel_init+0xfc>
   80922:	3b04      	subs	r3, #4
   80924:	6f04      	ldr	r4, [r0, #112]	; 0x70
   80926:	00db      	lsls	r3, r3, #3
   80928:	22ff      	movs	r2, #255	; 0xff
   8092a:	409a      	lsls	r2, r3
   8092c:	ea24 0202 	bic.w	r2, r4, r2
   80930:	f891 1023 	ldrb.w	r1, [r1, #35]	; 0x23
   80934:	fa01 f303 	lsl.w	r3, r1, r3
   80938:	4313      	orrs	r3, r2
   8093a:	6703      	str	r3, [r0, #112]	; 0x70
   8093c:	2000      	movs	r0, #0
   8093e:	bc70      	pop	{r4, r5, r6}
   80940:	4770      	bx	lr
   80942:	bf00      	nop

00080944 <pwm_channel_update_duty>:
   80944:	b410      	push	{r4}
   80946:	680c      	ldr	r4, [r1, #0]
   80948:	690b      	ldr	r3, [r1, #16]
   8094a:	4293      	cmp	r3, r2
   8094c:	d306      	bcc.n	8095c <pwm_channel_update_duty+0x18>
   8094e:	60ca      	str	r2, [r1, #12]
   80950:	eb00 1044 	add.w	r0, r0, r4, lsl #5
   80954:	f8c0 2208 	str.w	r2, [r0, #520]	; 0x208
   80958:	2000      	movs	r0, #0
   8095a:	e001      	b.n	80960 <pwm_channel_update_duty+0x1c>
   8095c:	f64f 70ff 	movw	r0, #65535	; 0xffff
   80960:	f85d 4b04 	ldr.w	r4, [sp], #4
   80964:	4770      	bx	lr
   80966:	bf00      	nop

00080968 <pwm_channel_enable>:
   80968:	2301      	movs	r3, #1
   8096a:	fa03 f101 	lsl.w	r1, r3, r1
   8096e:	6041      	str	r1, [r0, #4]
   80970:	4770      	bx	lr
   80972:	bf00      	nop

00080974 <pwm_channel_disable>:
   80974:	2301      	movs	r3, #1
   80976:	fa03 f101 	lsl.w	r1, r3, r1
   8097a:	6081      	str	r1, [r0, #8]
   8097c:	4770      	bx	lr
   8097e:	bf00      	nop

00080980 <Dummy_Handler>:
   80980:	e7fe      	b.n	80980 <Dummy_Handler>
   80982:	bf00      	nop

00080984 <Reset_Handler>:
   80984:	b510      	push	{r4, lr}
   80986:	4b1e      	ldr	r3, [pc, #120]	; (80a00 <Reset_Handler+0x7c>)
   80988:	4a1e      	ldr	r2, [pc, #120]	; (80a04 <Reset_Handler+0x80>)
   8098a:	429a      	cmp	r2, r3
   8098c:	d003      	beq.n	80996 <Reset_Handler+0x12>
   8098e:	4b1e      	ldr	r3, [pc, #120]	; (80a08 <Reset_Handler+0x84>)
   80990:	4a1b      	ldr	r2, [pc, #108]	; (80a00 <Reset_Handler+0x7c>)
   80992:	429a      	cmp	r2, r3
   80994:	d304      	bcc.n	809a0 <Reset_Handler+0x1c>
   80996:	4b1d      	ldr	r3, [pc, #116]	; (80a0c <Reset_Handler+0x88>)
   80998:	4a1d      	ldr	r2, [pc, #116]	; (80a10 <Reset_Handler+0x8c>)
   8099a:	429a      	cmp	r2, r3
   8099c:	d30f      	bcc.n	809be <Reset_Handler+0x3a>
   8099e:	e01a      	b.n	809d6 <Reset_Handler+0x52>
   809a0:	4b1c      	ldr	r3, [pc, #112]	; (80a14 <Reset_Handler+0x90>)
   809a2:	4c1d      	ldr	r4, [pc, #116]	; (80a18 <Reset_Handler+0x94>)
   809a4:	1ae4      	subs	r4, r4, r3
   809a6:	f024 0403 	bic.w	r4, r4, #3
   809aa:	3404      	adds	r4, #4
   809ac:	2300      	movs	r3, #0
   809ae:	4814      	ldr	r0, [pc, #80]	; (80a00 <Reset_Handler+0x7c>)
   809b0:	4914      	ldr	r1, [pc, #80]	; (80a04 <Reset_Handler+0x80>)
   809b2:	585a      	ldr	r2, [r3, r1]
   809b4:	501a      	str	r2, [r3, r0]
   809b6:	3304      	adds	r3, #4
   809b8:	42a3      	cmp	r3, r4
   809ba:	d1fa      	bne.n	809b2 <Reset_Handler+0x2e>
   809bc:	e7eb      	b.n	80996 <Reset_Handler+0x12>
   809be:	4b17      	ldr	r3, [pc, #92]	; (80a1c <Reset_Handler+0x98>)
   809c0:	4917      	ldr	r1, [pc, #92]	; (80a20 <Reset_Handler+0x9c>)
   809c2:	1ac9      	subs	r1, r1, r3
   809c4:	f021 0103 	bic.w	r1, r1, #3
   809c8:	1d1a      	adds	r2, r3, #4
   809ca:	4411      	add	r1, r2
   809cc:	2200      	movs	r2, #0
   809ce:	f843 2f04 	str.w	r2, [r3, #4]!
   809d2:	428b      	cmp	r3, r1
   809d4:	d1fb      	bne.n	809ce <Reset_Handler+0x4a>
   809d6:	4a13      	ldr	r2, [pc, #76]	; (80a24 <Reset_Handler+0xa0>)
   809d8:	f022 4360 	bic.w	r3, r2, #3758096384	; 0xe0000000
   809dc:	f023 037f 	bic.w	r3, r3, #127	; 0x7f
   809e0:	4911      	ldr	r1, [pc, #68]	; (80a28 <Reset_Handler+0xa4>)
   809e2:	608b      	str	r3, [r1, #8]
   809e4:	f102 4260 	add.w	r2, r2, #3758096384	; 0xe0000000
   809e8:	f5b2 1f80 	cmp.w	r2, #1048576	; 0x100000
   809ec:	d203      	bcs.n	809f6 <Reset_Handler+0x72>
   809ee:	688a      	ldr	r2, [r1, #8]
   809f0:	f042 5200 	orr.w	r2, r2, #536870912	; 0x20000000
   809f4:	608a      	str	r2, [r1, #8]
   809f6:	4b0d      	ldr	r3, [pc, #52]	; (80a2c <Reset_Handler+0xa8>)
   809f8:	4798      	blx	r3
   809fa:	4b0d      	ldr	r3, [pc, #52]	; (80a30 <Reset_Handler+0xac>)
   809fc:	4798      	blx	r3
   809fe:	e7fe      	b.n	809fe <Reset_Handler+0x7a>
   80a00:	20070000 	.word	0x20070000
   80a04:	00080bd4 	.word	0x00080bd4
   80a08:	20070568 	.word	0x20070568
   80a0c:	20070644 	.word	0x20070644
   80a10:	20070568 	.word	0x20070568
   80a14:	20070004 	.word	0x20070004
   80a18:	2007056b 	.word	0x2007056b
   80a1c:	20070564 	.word	0x20070564
   80a20:	2007063f 	.word	0x2007063f
   80a24:	00080000 	.word	0x00080000
   80a28:	e000ed00 	.word	0xe000ed00
   80a2c:	00080a35 	.word	0x00080a35
   80a30:	00080149 	.word	0x00080149

00080a34 <__libc_init_array>:
   80a34:	b570      	push	{r4, r5, r6, lr}
   80a36:	4e0f      	ldr	r6, [pc, #60]	; (80a74 <__libc_init_array+0x40>)
   80a38:	4d0f      	ldr	r5, [pc, #60]	; (80a78 <__libc_init_array+0x44>)
   80a3a:	1b76      	subs	r6, r6, r5
   80a3c:	10b6      	asrs	r6, r6, #2
   80a3e:	d007      	beq.n	80a50 <__libc_init_array+0x1c>
   80a40:	3d04      	subs	r5, #4
   80a42:	2400      	movs	r4, #0
   80a44:	3401      	adds	r4, #1
   80a46:	f855 3f04 	ldr.w	r3, [r5, #4]!
   80a4a:	4798      	blx	r3
   80a4c:	42a6      	cmp	r6, r4
   80a4e:	d1f9      	bne.n	80a44 <__libc_init_array+0x10>
   80a50:	4e0a      	ldr	r6, [pc, #40]	; (80a7c <__libc_init_array+0x48>)
   80a52:	4d0b      	ldr	r5, [pc, #44]	; (80a80 <__libc_init_array+0x4c>)
   80a54:	f000 f8ac 	bl	80bb0 <_init>
   80a58:	1b76      	subs	r6, r6, r5
   80a5a:	10b6      	asrs	r6, r6, #2
   80a5c:	d008      	beq.n	80a70 <__libc_init_array+0x3c>
   80a5e:	3d04      	subs	r5, #4
   80a60:	2400      	movs	r4, #0
   80a62:	3401      	adds	r4, #1
   80a64:	f855 3f04 	ldr.w	r3, [r5, #4]!
   80a68:	4798      	blx	r3
   80a6a:	42a6      	cmp	r6, r4
   80a6c:	d1f9      	bne.n	80a62 <__libc_init_array+0x2e>
   80a6e:	bd70      	pop	{r4, r5, r6, pc}
   80a70:	bd70      	pop	{r4, r5, r6, pc}
   80a72:	bf00      	nop
   80a74:	00080bbc 	.word	0x00080bbc
   80a78:	00080bbc 	.word	0x00080bbc
   80a7c:	00080bc4 	.word	0x00080bc4
   80a80:	00080bbc 	.word	0x00080bbc

00080a84 <register_fini>:
   80a84:	4b02      	ldr	r3, [pc, #8]	; (80a90 <register_fini+0xc>)
   80a86:	b113      	cbz	r3, 80a8e <register_fini+0xa>
   80a88:	4802      	ldr	r0, [pc, #8]	; (80a94 <register_fini+0x10>)
   80a8a:	f000 b805 	b.w	80a98 <atexit>
   80a8e:	4770      	bx	lr
   80a90:	00000000 	.word	0x00000000
   80a94:	00080aa5 	.word	0x00080aa5

00080a98 <atexit>:
   80a98:	4601      	mov	r1, r0
   80a9a:	2000      	movs	r0, #0
   80a9c:	4602      	mov	r2, r0
   80a9e:	4603      	mov	r3, r0
   80aa0:	f000 b818 	b.w	80ad4 <__register_exitproc>

00080aa4 <__libc_fini_array>:
   80aa4:	b538      	push	{r3, r4, r5, lr}
   80aa6:	4d09      	ldr	r5, [pc, #36]	; (80acc <__libc_fini_array+0x28>)
   80aa8:	4c09      	ldr	r4, [pc, #36]	; (80ad0 <__libc_fini_array+0x2c>)
   80aaa:	1b64      	subs	r4, r4, r5
   80aac:	10a4      	asrs	r4, r4, #2
   80aae:	bf18      	it	ne
   80ab0:	eb05 0584 	addne.w	r5, r5, r4, lsl #2
   80ab4:	d005      	beq.n	80ac2 <__libc_fini_array+0x1e>
   80ab6:	3c01      	subs	r4, #1
   80ab8:	f855 3d04 	ldr.w	r3, [r5, #-4]!
   80abc:	4798      	blx	r3
   80abe:	2c00      	cmp	r4, #0
   80ac0:	d1f9      	bne.n	80ab6 <__libc_fini_array+0x12>
   80ac2:	e8bd 4038 	ldmia.w	sp!, {r3, r4, r5, lr}
   80ac6:	f000 b87d 	b.w	80bc4 <_fini>
   80aca:	bf00      	nop
   80acc:	00080bd0 	.word	0x00080bd0
   80ad0:	00080bd4 	.word	0x00080bd4

00080ad4 <__register_exitproc>:
   80ad4:	b5f0      	push	{r4, r5, r6, r7, lr}
   80ad6:	4c27      	ldr	r4, [pc, #156]	; (80b74 <__register_exitproc+0xa0>)
   80ad8:	b085      	sub	sp, #20
   80ada:	6826      	ldr	r6, [r4, #0]
   80adc:	4607      	mov	r7, r0
   80ade:	f8d6 4148 	ldr.w	r4, [r6, #328]	; 0x148
   80ae2:	2c00      	cmp	r4, #0
   80ae4:	d040      	beq.n	80b68 <__register_exitproc+0x94>
   80ae6:	6865      	ldr	r5, [r4, #4]
   80ae8:	2d1f      	cmp	r5, #31
   80aea:	dd1e      	ble.n	80b2a <__register_exitproc+0x56>
   80aec:	4822      	ldr	r0, [pc, #136]	; (80b78 <__register_exitproc+0xa4>)
   80aee:	b918      	cbnz	r0, 80af8 <__register_exitproc+0x24>
   80af0:	f04f 30ff 	mov.w	r0, #4294967295
   80af4:	b005      	add	sp, #20
   80af6:	bdf0      	pop	{r4, r5, r6, r7, pc}
   80af8:	f44f 70c8 	mov.w	r0, #400	; 0x190
   80afc:	9103      	str	r1, [sp, #12]
   80afe:	9202      	str	r2, [sp, #8]
   80b00:	9301      	str	r3, [sp, #4]
   80b02:	f3af 8000 	nop.w
   80b06:	9903      	ldr	r1, [sp, #12]
   80b08:	4604      	mov	r4, r0
   80b0a:	9a02      	ldr	r2, [sp, #8]
   80b0c:	9b01      	ldr	r3, [sp, #4]
   80b0e:	2800      	cmp	r0, #0
   80b10:	d0ee      	beq.n	80af0 <__register_exitproc+0x1c>
   80b12:	f8d6 5148 	ldr.w	r5, [r6, #328]	; 0x148
   80b16:	2000      	movs	r0, #0
   80b18:	6025      	str	r5, [r4, #0]
   80b1a:	6060      	str	r0, [r4, #4]
   80b1c:	4605      	mov	r5, r0
   80b1e:	f8c6 4148 	str.w	r4, [r6, #328]	; 0x148
   80b22:	f8c4 0188 	str.w	r0, [r4, #392]	; 0x188
   80b26:	f8c4 018c 	str.w	r0, [r4, #396]	; 0x18c
   80b2a:	b93f      	cbnz	r7, 80b3c <__register_exitproc+0x68>
   80b2c:	1c6b      	adds	r3, r5, #1
   80b2e:	2000      	movs	r0, #0
   80b30:	3502      	adds	r5, #2
   80b32:	6063      	str	r3, [r4, #4]
   80b34:	f844 1025 	str.w	r1, [r4, r5, lsl #2]
   80b38:	b005      	add	sp, #20
   80b3a:	bdf0      	pop	{r4, r5, r6, r7, pc}
   80b3c:	2601      	movs	r6, #1
   80b3e:	40ae      	lsls	r6, r5
   80b40:	eb04 0085 	add.w	r0, r4, r5, lsl #2
   80b44:	f8c0 2088 	str.w	r2, [r0, #136]	; 0x88
   80b48:	f8d4 2188 	ldr.w	r2, [r4, #392]	; 0x188
   80b4c:	2f02      	cmp	r7, #2
   80b4e:	ea42 0206 	orr.w	r2, r2, r6
   80b52:	f8c4 2188 	str.w	r2, [r4, #392]	; 0x188
   80b56:	f8c0 3108 	str.w	r3, [r0, #264]	; 0x108
   80b5a:	d1e7      	bne.n	80b2c <__register_exitproc+0x58>
   80b5c:	f8d4 318c 	ldr.w	r3, [r4, #396]	; 0x18c
   80b60:	431e      	orrs	r6, r3
   80b62:	f8c4 618c 	str.w	r6, [r4, #396]	; 0x18c
   80b66:	e7e1      	b.n	80b2c <__register_exitproc+0x58>
   80b68:	f506 74a6 	add.w	r4, r6, #332	; 0x14c
   80b6c:	f8c6 4148 	str.w	r4, [r6, #328]	; 0x148
   80b70:	e7b9      	b.n	80ae6 <__register_exitproc+0x12>
   80b72:	bf00      	nop
   80b74:	00080bac 	.word	0x00080bac
   80b78:	00000000 	.word	0x00000000
   80b7c:	00000001 	.word	0x00000001
   80b80:	00000002 	.word	0x00000002
   80b84:	00000004 	.word	0x00000004
   80b88:	00000008 	.word	0x00000008
   80b8c:	00000010 	.word	0x00000010
   80b90:	00000020 	.word	0x00000020
   80b94:	00000040 	.word	0x00000040
   80b98:	00000080 	.word	0x00000080
   80b9c:	00000100 	.word	0x00000100
   80ba0:	00000200 	.word	0x00000200
   80ba4:	00000400 	.word	0x00000400
   80ba8:	00000043 	.word	0x00000043

00080bac <_global_impure_ptr>:
   80bac:	20070140                                @.. 

00080bb0 <_init>:
   80bb0:	b5f8      	push	{r3, r4, r5, r6, r7, lr}
   80bb2:	bf00      	nop
   80bb4:	bcf8      	pop	{r3, r4, r5, r6, r7}
   80bb6:	bc08      	pop	{r3}
   80bb8:	469e      	mov	lr, r3
   80bba:	4770      	bx	lr

00080bbc <__init_array_start>:
   80bbc:	00080a85 	.word	0x00080a85

00080bc0 <__frame_dummy_init_array_entry>:
   80bc0:	00080119                                ....

00080bc4 <_fini>:
   80bc4:	b5f8      	push	{r3, r4, r5, r6, r7, lr}
   80bc6:	bf00      	nop
   80bc8:	bcf8      	pop	{r3, r4, r5, r6, r7}
   80bca:	bc08      	pop	{r3}
   80bcc:	469e      	mov	lr, r3
   80bce:	4770      	bx	lr

00080bd0 <__fini_array_start>:
   80bd0:	000800f5 	.word	0x000800f5

Disassembly of section .relocate:

20070000 <portable_delay_cycles>:
20070000:	f3bf 8f5f 	dmb	sy
20070004:	3801      	subs	r0, #1
20070006:	d1fb      	bne.n	20070000 <portable_delay_cycles>
20070008:	4770      	bx	lr
2007000a:	bf00      	nop

2007000c <SystemInit>:
2007000c:	f44f 6380 	mov.w	r3, #1024	; 0x400
20070010:	4a20      	ldr	r2, [pc, #128]	; (20070094 <SystemInit+0x88>)
20070012:	6013      	str	r3, [r2, #0]
20070014:	f502 7200 	add.w	r2, r2, #512	; 0x200
20070018:	6013      	str	r3, [r2, #0]
2007001a:	4b1f      	ldr	r3, [pc, #124]	; (20070098 <SystemInit+0x8c>)
2007001c:	6a1b      	ldr	r3, [r3, #32]
2007001e:	f013 7f80 	tst.w	r3, #16777216	; 0x1000000
20070022:	d107      	bne.n	20070034 <SystemInit+0x28>
20070024:	4a1d      	ldr	r2, [pc, #116]	; (2007009c <SystemInit+0x90>)
20070026:	4b1c      	ldr	r3, [pc, #112]	; (20070098 <SystemInit+0x8c>)
20070028:	621a      	str	r2, [r3, #32]
2007002a:	461a      	mov	r2, r3
2007002c:	6e93      	ldr	r3, [r2, #104]	; 0x68
2007002e:	f013 0f01 	tst.w	r3, #1
20070032:	d0fb      	beq.n	2007002c <SystemInit+0x20>
20070034:	4a1a      	ldr	r2, [pc, #104]	; (200700a0 <SystemInit+0x94>)
20070036:	4b18      	ldr	r3, [pc, #96]	; (20070098 <SystemInit+0x8c>)
20070038:	621a      	str	r2, [r3, #32]
2007003a:	461a      	mov	r2, r3
2007003c:	6e93      	ldr	r3, [r2, #104]	; 0x68
2007003e:	f413 3f80 	tst.w	r3, #65536	; 0x10000
20070042:	d0fb      	beq.n	2007003c <SystemInit+0x30>
20070044:	4b14      	ldr	r3, [pc, #80]	; (20070098 <SystemInit+0x8c>)
20070046:	6b1a      	ldr	r2, [r3, #48]	; 0x30
20070048:	f022 0203 	bic.w	r2, r2, #3
2007004c:	f042 0201 	orr.w	r2, r2, #1
20070050:	631a      	str	r2, [r3, #48]	; 0x30
20070052:	461a      	mov	r2, r3
20070054:	6e93      	ldr	r3, [r2, #104]	; 0x68
20070056:	f013 0f08 	tst.w	r3, #8
2007005a:	d0fb      	beq.n	20070054 <SystemInit+0x48>
2007005c:	4a11      	ldr	r2, [pc, #68]	; (200700a4 <SystemInit+0x98>)
2007005e:	4b0e      	ldr	r3, [pc, #56]	; (20070098 <SystemInit+0x8c>)
20070060:	629a      	str	r2, [r3, #40]	; 0x28
20070062:	461a      	mov	r2, r3
20070064:	6e93      	ldr	r3, [r2, #104]	; 0x68
20070066:	f013 0f02 	tst.w	r3, #2
2007006a:	d0fb      	beq.n	20070064 <SystemInit+0x58>
2007006c:	2211      	movs	r2, #17
2007006e:	4b0a      	ldr	r3, [pc, #40]	; (20070098 <SystemInit+0x8c>)
20070070:	631a      	str	r2, [r3, #48]	; 0x30
20070072:	461a      	mov	r2, r3
20070074:	6e93      	ldr	r3, [r2, #104]	; 0x68
20070076:	f013 0f08 	tst.w	r3, #8
2007007a:	d0fb      	beq.n	20070074 <SystemInit+0x68>
2007007c:	2212      	movs	r2, #18
2007007e:	4b06      	ldr	r3, [pc, #24]	; (20070098 <SystemInit+0x8c>)
20070080:	631a      	str	r2, [r3, #48]	; 0x30
20070082:	461a      	mov	r2, r3
20070084:	6e93      	ldr	r3, [r2, #104]	; 0x68
20070086:	f013 0f08 	tst.w	r3, #8
2007008a:	d0fb      	beq.n	20070084 <SystemInit+0x78>
2007008c:	4a06      	ldr	r2, [pc, #24]	; (200700a8 <SystemInit+0x9c>)
2007008e:	4b07      	ldr	r3, [pc, #28]	; (200700ac <SystemInit+0xa0>)
20070090:	601a      	str	r2, [r3, #0]
20070092:	4770      	bx	lr
20070094:	400e0a00 	.word	0x400e0a00
20070098:	400e0600 	.word	0x400e0600
2007009c:	00370809 	.word	0x00370809
200700a0:	01370809 	.word	0x01370809
200700a4:	200d3f01 	.word	0x200d3f01
200700a8:	0501bd00 	.word	0x0501bd00
200700ac:	20070138 	.word	0x20070138

200700b0 <system_init_flash>:
200700b0:	4b1b      	ldr	r3, [pc, #108]	; (20070120 <system_init_flash+0x70>)
200700b2:	4298      	cmp	r0, r3
200700b4:	d806      	bhi.n	200700c4 <system_init_flash+0x14>
200700b6:	2300      	movs	r3, #0
200700b8:	4a1a      	ldr	r2, [pc, #104]	; (20070124 <system_init_flash+0x74>)
200700ba:	6013      	str	r3, [r2, #0]
200700bc:	f502 7200 	add.w	r2, r2, #512	; 0x200
200700c0:	6013      	str	r3, [r2, #0]
200700c2:	4770      	bx	lr
200700c4:	4b18      	ldr	r3, [pc, #96]	; (20070128 <system_init_flash+0x78>)
200700c6:	4298      	cmp	r0, r3
200700c8:	d807      	bhi.n	200700da <system_init_flash+0x2a>
200700ca:	f44f 7380 	mov.w	r3, #256	; 0x100
200700ce:	4a15      	ldr	r2, [pc, #84]	; (20070124 <system_init_flash+0x74>)
200700d0:	6013      	str	r3, [r2, #0]
200700d2:	f502 7200 	add.w	r2, r2, #512	; 0x200
200700d6:	6013      	str	r3, [r2, #0]
200700d8:	4770      	bx	lr
200700da:	4b14      	ldr	r3, [pc, #80]	; (2007012c <system_init_flash+0x7c>)
200700dc:	4298      	cmp	r0, r3
200700de:	d807      	bhi.n	200700f0 <system_init_flash+0x40>
200700e0:	f44f 7300 	mov.w	r3, #512	; 0x200
200700e4:	4a0f      	ldr	r2, [pc, #60]	; (20070124 <system_init_flash+0x74>)
200700e6:	6013      	str	r3, [r2, #0]
200700e8:	f502 7200 	add.w	r2, r2, #512	; 0x200
200700ec:	6013      	str	r3, [r2, #0]
200700ee:	4770      	bx	lr
200700f0:	4b0f      	ldr	r3, [pc, #60]	; (20070130 <system_init_flash+0x80>)
200700f2:	4298      	cmp	r0, r3
200700f4:	d807      	bhi.n	20070106 <system_init_flash+0x56>
200700f6:	f44f 7340 	mov.w	r3, #768	; 0x300
200700fa:	4a0a      	ldr	r2, [pc, #40]	; (20070124 <system_init_flash+0x74>)
200700fc:	6013      	str	r3, [r2, #0]
200700fe:	f502 7200 	add.w	r2, r2, #512	; 0x200
20070102:	6013      	str	r3, [r2, #0]
20070104:	4770      	bx	lr
20070106:	4b0b      	ldr	r3, [pc, #44]	; (20070134 <system_init_flash+0x84>)
20070108:	4298      	cmp	r0, r3
2007010a:	bf94      	ite	ls
2007010c:	f44f 6380 	movls.w	r3, #1024	; 0x400
20070110:	f44f 63a0 	movhi.w	r3, #1280	; 0x500
20070114:	4a03      	ldr	r2, [pc, #12]	; (20070124 <system_init_flash+0x74>)
20070116:	6013      	str	r3, [r2, #0]
20070118:	f502 7200 	add.w	r2, r2, #512	; 0x200
2007011c:	6013      	str	r3, [r2, #0]
2007011e:	4770      	bx	lr
20070120:	0121eabf 	.word	0x0121eabf
20070124:	400e0a00 	.word	0x400e0a00
20070128:	02faf07f 	.word	0x02faf07f
2007012c:	03d08fff 	.word	0x03d08fff
20070130:	04c4b3ff 	.word	0x04c4b3ff
20070134:	055d4a7f 	.word	0x055d4a7f

20070138 <SystemCoreClock>:
20070138:	003d0900 00000000                       ..=.....

20070140 <impure_data>:
20070140:	00000000 2007042c 20070494 200704fc     ....,.. ... ... 
	...
20070174:	00080ba8 00000000 00000000 00000000     ................
	...
200701e8:	00000001 00000000 abcd330e e66d1234     .........3..4.m.
200701f8:	0005deec 0000000b 00000000 00000000     ................
	...
